
build/kernel/system.bin：     文件格式 binary


Disassembly of section .data:

0000000000000000 <.data>:
       0:	66 8c d0             	mov    %ss,%ax
       3:	8e d8                	mov    %eax,%ds
       5:	8e c0                	mov    %eax,%es
       7:	8e e0                	mov    %eax,%fs
       9:	8e d0                	mov    %eax,%ss
       b:	bc 00 7e 00 00       	mov    $0x7e00,%esp
      10:	48 c7 c0 00 10 10 00 	mov    $0x101000,%rax
      17:	0f 22 d8             	mov    %rax,%cr3
      1a:	0f 01 15 75 eb 00 00 	lgdt   0xeb75(%rip)        # 0xeb96
      21:	0f 01 1d 78 fb 00 00 	lidt   0xfb78(%rip)        # 0xfba0
      28:	66 b8 10 00          	mov    $0x10,%ax
      2c:	8e d8                	mov    %eax,%ds
      2e:	8e c0                	mov    %eax,%es
      30:	8e e0                	mov    %eax,%fs
      32:	8e e8                	mov    %eax,%gs
      34:	8e d0                	mov    %eax,%ss
      36:	48 c7 c4 00 7e 00 00 	mov    $0x7e00,%rsp
      3d:	48 c7 c0 00 10 10 00 	mov    $0x101000,%rax
      44:	0f 22 d8             	mov    %rax,%cr3
      47:	48 8b 05 05 00 00 00 	mov    0x5(%rip),%rax        # 0x53
      4e:	6a 08                	push   $0x8
      50:	50                   	push   %rax
      51:	48 cb                	lretq  
      53:	5b                   	pop    %rbx
      54:	00 10                	add    %dl,(%rax)
      56:	00 00                	add    %al,(%rax)
      58:	80 ff ff             	cmp    $0xff,%bh
      5b:	48 c7 c0 10 00 00 00 	mov    $0x10,%rax
      62:	48 8e d8             	mov    %rax,%ds
      65:	48 8e c0             	mov    %rax,%es
      68:	48 8e e8             	mov    %rax,%gs
      6b:	48 8e d0             	mov    %rax,%ss
      6e:	48 bc 00 7e 00 00 00 	movabs $0xffff800000007e00,%rsp
      75:	80 ff ff 
      78:	48 8d 15 9d e8 00 00 	lea    0xe89d(%rip),%rdx        # 0xe91c
      7f:	48 31 c0             	xor    %rax,%rax
      82:	48 31 c9             	xor    %rcx,%rcx
      85:	48 c7 c0 89 00 00 00 	mov    $0x89,%rax
      8c:	48 c1 e0 28          	shl    $0x28,%rax
      90:	89 d1                	mov    %edx,%ecx
      92:	c1 e9 18             	shr    $0x18,%ecx
      95:	48 c1 e1 38          	shl    $0x38,%rcx
      99:	48 01 c8             	add    %rcx,%rax
      9c:	48 31 c9             	xor    %rcx,%rcx
      9f:	89 d1                	mov    %edx,%ecx
      a1:	81 e1 ff ff ff 00    	and    $0xffffff,%ecx
      a7:	48 c1 e1 10          	shl    $0x10,%rcx
      ab:	48 01 c8             	add    %rcx,%rax
      ae:	48 83 c0 67          	add    $0x67,%rax
      b2:	48 8d 3d c7 d7 00 00 	lea    0xd7c7(%rip),%rdi        # 0xd880
      b9:	48 89 47 40          	mov    %rax,0x40(%rdi)
      bd:	48 c1 ea 20          	shr    $0x20,%rdx
      c1:	48 89 57 48          	mov    %rdx,0x48(%rdi)
      c5:	66 b8 40 00          	mov    $0x40,%ax
      c9:	0f 00 d8             	ltr    %ax
      cc:	48 8b 05 05 00 00 00 	mov    0x5(%rip),%rax        # 0xd8
      d3:	6a 08                	push   $0x8
      d5:	50                   	push   %rax
      d6:	48 cb                	lretq  
      d8:	00 40 10             	add    %al,0x10(%rax)
      db:	00 00                	add    %al,(%rax)
      dd:	80 ff ff             	cmp    $0xff,%bh
	...
    1000:	07                   	(bad)  
    1001:	20 10                	and    %dl,(%rax)
	...
    17ff:	00 07                	add    %al,(%rdi)
    1801:	20 10                	and    %dl,(%rax)
	...
    1fff:	00 07                	add    %al,(%rdi)
    2001:	30 10                	xor    %dl,(%rax)
	...
    2fff:	00 87 00 00 00 00    	add    %al,0x0(%rdi)
    3005:	00 00                	add    %al,(%rax)
    3007:	00 87 00 20 00 00    	add    %al,0x2000(%rdi)
    300d:	00 00                	add    %al,(%rax)
    300f:	00 87 00 40 00 00    	add    %al,0x4000(%rdi)
	...
    3ffd:	00 00                	add    %al,(%rax)
    3fff:	00 f3                	add    %dh,%bl
    4001:	0f 1e fa             	nop    %edx
    4004:	55                   	push   %rbp
    4005:	48 89 e5             	mov    %rsp,%rbp
    4008:	41 57                	push   %r15
    400a:	41 55                	push   %r13
    400c:	41 54                	push   %r12
    400e:	53                   	push   %rbx
    400f:	48 83 ec 30          	sub    $0x30,%rsp
    4013:	48 8d 1d f9 ff ff ff 	lea    -0x7(%rip),%rbx        # 0x4013
    401a:	49 bb 45 bc 00 00 00 	movabs $0xbc45,%r11
    4021:	00 00 00 
    4024:	4c 01 db             	add    %r11,%rbx
    4027:	49 89 df             	mov    %rbx,%r15
    402a:	b8 00 00 00 00       	mov    $0x0,%eax
    402f:	48 ba a9 b5 ff ff ff 	movabs $0xffffffffffffb5a9,%rdx
    4036:	ff ff ff 
    4039:	48 01 da             	add    %rbx,%rdx
    403c:	ff d2                	call   *%rdx
    403e:	fa                   	cli    
    403f:	48 b8 a8 0f 00 00 00 	movabs $0xfa8,%rax
    4046:	00 00 00 
    4049:	48 8d 04 03          	lea    (%rbx,%rax,1),%rax
    404d:	48 89 c7             	mov    %rax,%rdi
    4050:	49 89 df             	mov    %rbx,%r15
    4053:	48 b8 4c bc ff ff ff 	movabs $0xffffffffffffbc4c,%rax
    405a:	ff ff ff 
    405d:	48 01 d8             	add    %rbx,%rax
    4060:	ff d0                	call   *%rax
    4062:	85 c0                	test   %eax,%eax
    4064:	74 2e                	je     0x4094
    4066:	48 b8 08 10 00 00 00 	movabs $0x1008,%rax
    406d:	00 00 00 
    4070:	48 8d 04 03          	lea    (%rbx,%rax,1),%rax
    4074:	48 89 c7             	mov    %rax,%rdi
    4077:	49 89 df             	mov    %rbx,%r15
    407a:	48 b8 4c bc ff ff ff 	movabs $0xffffffffffffbc4c,%rax
    4081:	ff ff ff 
    4084:	48 01 d8             	add    %rbx,%rax
    4087:	ff d0                	call   *%rax
    4089:	85 c0                	test   %eax,%eax
    408b:	74 07                	je     0x4094
    408d:	fb                   	sti    
    408e:	f4                   	hlt    
    408f:	e9 bc 02 00 00       	jmp    0x4350
    4094:	48 b8 a8 0f 00 00 00 	movabs $0xfa8,%rax
    409b:	00 00 00 
    409e:	48 8d 04 03          	lea    (%rbx,%rax,1),%rax
    40a2:	48 89 c7             	mov    %rax,%rdi
    40a5:	49 89 df             	mov    %rbx,%r15
    40a8:	48 b8 4c bc ff ff ff 	movabs $0xffffffffffffbc4c,%rax
    40af:	ff ff ff 
    40b2:	48 01 d8             	add    %rbx,%rax
    40b5:	ff d0                	call   *%rax
    40b7:	85 c0                	test   %eax,%eax
    40b9:	0f 85 2a 01 00 00    	jne    0x41e9
    40bf:	48 b8 a8 0f 00 00 00 	movabs $0xfa8,%rax
    40c6:	00 00 00 
    40c9:	48 8d 04 03          	lea    (%rbx,%rax,1),%rax
    40cd:	48 89 c7             	mov    %rax,%rdi
    40d0:	49 89 df             	mov    %rbx,%r15
    40d3:	48 b8 99 bb ff ff ff 	movabs $0xffffffffffffbb99,%rax
    40da:	ff ff ff 
    40dd:	48 01 d8             	add    %rbx,%rax
    40e0:	ff d0                	call   *%rax
    40e2:	88 45 de             	mov    %al,-0x22(%rbp)
    40e5:	fb                   	sti    
    40e6:	8b 4d bc             	mov    -0x44(%rbp),%ecx
    40e9:	b1 64                	mov    $0x64,%cl
    40eb:	b8 64 00 00 00       	mov    $0x64,%eax
    40f0:	88 c5                	mov    %al,%ch
    40f2:	81 e1 ff ff 00 ff    	and    $0xff00ffff,%ecx
    40f8:	89 c8                	mov    %ecx,%eax
    40fa:	0d 00 00 64 00       	or     $0x640000,%eax
    40ff:	25 ff ff ff 00       	and    $0xffffff,%eax
    4104:	89 45 bc             	mov    %eax,-0x44(%rbp)
    4107:	4c 89 e2             	mov    %r12,%rdx
    410a:	48 b8 00 00 00 00 ff 	movabs $0xffffffff00000000,%rax
    4111:	ff ff ff 
    4114:	48 21 d0             	and    %rdx,%rax
    4117:	49 89 c4             	mov    %rax,%r12
    411a:	4c 89 e0             	mov    %r12,%rax
    411d:	89 c0                	mov    %eax,%eax
    411f:	49 89 c4             	mov    %rax,%r12
    4122:	48 b8 70 10 00 00 00 	movabs $0x1070,%rax
    4129:	00 00 00 
    412c:	48 8b 04 03          	mov    (%rbx,%rax,1),%rax
    4130:	8b 40 08             	mov    0x8(%rax),%eax
    4133:	89 c2                	mov    %eax,%edx
    4135:	4c 89 e9             	mov    %r13,%rcx
    4138:	48 b8 00 00 00 00 ff 	movabs $0xffffffff00000000,%rax
    413f:	ff ff ff 
    4142:	48 21 c8             	and    %rcx,%rax
    4145:	48 09 d0             	or     %rdx,%rax
    4148:	49 89 c5             	mov    %rax,%r13
    414b:	4c 89 e8             	mov    %r13,%rax
    414e:	89 c2                	mov    %eax,%edx
    4150:	48 b8 00 00 00 00 10 	movabs $0x1000000000,%rax
    4157:	00 00 00 
    415a:	48 09 d0             	or     %rdx,%rax
    415d:	49 89 c5             	mov    %rax,%r13
    4160:	4c 89 e6             	mov    %r12,%rsi
    4163:	4c 89 ef             	mov    %r13,%rdi
    4166:	4c 89 e0             	mov    %r12,%rax
    4169:	4c 89 ea             	mov    %r13,%rdx
    416c:	48 89 f1             	mov    %rsi,%rcx
    416f:	48 89 d0             	mov    %rdx,%rax
    4172:	8b 55 bc             	mov    -0x44(%rbp),%edx
    4175:	48 89 cf             	mov    %rcx,%rdi
    4178:	48 89 c6             	mov    %rax,%rsi
    417b:	49 89 df             	mov    %rbx,%r15
    417e:	48 b8 17 4a ff ff ff 	movabs $0xffffffffffff4a17,%rax
    4185:	ff ff ff 
    4188:	48 01 d8             	add    %rbx,%rax
    418b:	ff d0                	call   *%rax
    418d:	0f b6 45 de          	movzbl -0x22(%rbp),%eax
    4191:	8b 4d b4             	mov    -0x4c(%rbp),%ecx
    4194:	b1 ff                	mov    $0xff,%cl
    4196:	ba ff ff ff ff       	mov    $0xffffffff,%edx
    419b:	88 d5                	mov    %dl,%ch
    419d:	81 c9 00 00 ff 00    	or     $0xff0000,%ecx
    41a3:	89 ca                	mov    %ecx,%edx
    41a5:	81 e2 ff ff ff 00    	and    $0xffffff,%edx
    41ab:	89 55 b4             	mov    %edx,-0x4c(%rbp)
    41ae:	41 89 c0             	mov    %eax,%r8d
    41b1:	48 b8 d8 00 00 00 00 	movabs $0xd8,%rax
    41b8:	00 00 00 
    41bb:	48 8d 04 03          	lea    (%rbx,%rax,1),%rax
    41bf:	48 89 c1             	mov    %rax,%rcx
    41c2:	be 00 00 00 00       	mov    $0x0,%esi
    41c7:	bf 00 00 00 00       	mov    $0x0,%edi
    41cc:	49 89 df             	mov    %rbx,%r15
    41cf:	b8 00 00 00 00       	mov    $0x0,%eax
    41d4:	49 b9 e6 4d ff ff ff 	movabs $0xffffffffffff4de6,%r9
    41db:	ff ff ff 
    41de:	49 01 d9             	add    %rbx,%r9
    41e1:	41 ff d1             	call   *%r9
    41e4:	e9 55 fe ff ff       	jmp    0x403e
    41e9:	48 b8 08 10 00 00 00 	movabs $0x1008,%rax
    41f0:	00 00 00 
    41f3:	48 8d 04 03          	lea    (%rbx,%rax,1),%rax
    41f7:	48 89 c7             	mov    %rax,%rdi
    41fa:	49 89 df             	mov    %rbx,%r15
    41fd:	48 b8 4c bc ff ff ff 	movabs $0xffffffffffffbc4c,%rax
    4204:	ff ff ff 
    4207:	48 01 d8             	add    %rbx,%rax
    420a:	ff d0                	call   *%rax
    420c:	85 c0                	test   %eax,%eax
    420e:	0f 85 2a fe ff ff    	jne    0x403e
    4214:	48 b8 08 10 00 00 00 	movabs $0x1008,%rax
    421b:	00 00 00 
    421e:	48 8d 04 03          	lea    (%rbx,%rax,1),%rax
    4222:	48 89 c7             	mov    %rax,%rdi
    4225:	49 89 df             	mov    %rbx,%r15
    4228:	48 b8 99 bb ff ff ff 	movabs $0xffffffffffffbb99,%rax
    422f:	ff ff ff 
    4232:	48 01 d8             	add    %rbx,%rax
    4235:	ff d0                	call   *%rax
    4237:	88 45 df             	mov    %al,-0x21(%rbp)
    423a:	fb                   	sti    
    423b:	8b 4d b8             	mov    -0x48(%rbp),%ecx
    423e:	b1 64                	mov    $0x64,%cl
    4240:	b8 64 00 00 00       	mov    $0x64,%eax
    4245:	88 c5                	mov    %al,%ch
    4247:	81 e1 ff ff 00 ff    	and    $0xff00ffff,%ecx
    424d:	89 c8                	mov    %ecx,%eax
    424f:	0d 00 00 64 00       	or     $0x640000,%eax
    4254:	25 ff ff ff 00       	and    $0xffffff,%eax
    4259:	89 45 b8             	mov    %eax,-0x48(%rbp)
    425c:	48 8b 55 c0          	mov    -0x40(%rbp),%rdx
    4260:	48 b8 00 00 00 00 ff 	movabs $0xffffffff00000000,%rax
    4267:	ff ff ff 
    426a:	48 21 d0             	and    %rdx,%rax
    426d:	48 89 45 c0          	mov    %rax,-0x40(%rbp)
    4271:	48 8b 45 c0          	mov    -0x40(%rbp),%rax
    4275:	89 c2                	mov    %eax,%edx
    4277:	48 b8 00 00 00 00 10 	movabs $0x1000000000,%rax
    427e:	00 00 00 
    4281:	48 09 d0             	or     %rdx,%rax
    4284:	48 89 45 c0          	mov    %rax,-0x40(%rbp)
    4288:	48 b8 70 10 00 00 00 	movabs $0x1070,%rax
    428f:	00 00 00 
    4292:	48 8b 04 03          	mov    (%rbx,%rax,1),%rax
    4296:	8b 40 08             	mov    0x8(%rax),%eax
    4299:	89 c2                	mov    %eax,%edx
    429b:	48 8b 4d c8          	mov    -0x38(%rbp),%rcx
    429f:	48 b8 00 00 00 00 ff 	movabs $0xffffffff00000000,%rax
    42a6:	ff ff ff 
    42a9:	48 21 c8             	and    %rcx,%rax
    42ac:	48 09 d0             	or     %rdx,%rax
    42af:	48 89 45 c8          	mov    %rax,-0x38(%rbp)
    42b3:	48 8b 45 c8          	mov    -0x38(%rbp),%rax
    42b7:	89 c2                	mov    %eax,%edx
    42b9:	48 b8 00 00 00 00 10 	movabs $0x1000000000,%rax
    42c0:	00 00 00 
    42c3:	48 09 d0             	or     %rdx,%rax
    42c6:	48 89 45 c8          	mov    %rax,-0x38(%rbp)
    42ca:	48 8b 45 c0          	mov    -0x40(%rbp),%rax
    42ce:	48 8b 55 c8          	mov    -0x38(%rbp),%rdx
    42d2:	48 89 c6             	mov    %rax,%rsi
    42d5:	48 89 d7             	mov    %rdx,%rdi
    42d8:	48 89 f1             	mov    %rsi,%rcx
    42db:	48 89 d0             	mov    %rdx,%rax
    42de:	8b 55 b8             	mov    -0x48(%rbp),%edx
    42e1:	48 89 cf             	mov    %rcx,%rdi
    42e4:	48 89 c6             	mov    %rax,%rsi
    42e7:	49 89 df             	mov    %rbx,%r15
    42ea:	48 b8 17 4a ff ff ff 	movabs $0xffffffffffff4a17,%rax
    42f1:	ff ff ff 
    42f4:	48 01 d8             	add    %rbx,%rax
    42f7:	ff d0                	call   *%rax
    42f9:	0f b6 45 df          	movzbl -0x21(%rbp),%eax
    42fd:	8b 4d b0             	mov    -0x50(%rbp),%ecx
    4300:	b1 ff                	mov    $0xff,%cl
    4302:	ba ff ff ff ff       	mov    $0xffffffff,%edx
    4307:	88 d5                	mov    %dl,%ch
    4309:	81 c9 00 00 ff 00    	or     $0xff0000,%ecx
    430f:	89 ca                	mov    %ecx,%edx
    4311:	81 e2 ff ff ff 00    	and    $0xffffff,%edx
    4317:	89 55 b0             	mov    %edx,-0x50(%rbp)
    431a:	41 89 c0             	mov    %eax,%r8d
    431d:	48 b8 e4 00 00 00 00 	movabs $0xe4,%rax
    4324:	00 00 00 
    4327:	48 8d 04 03          	lea    (%rbx,%rax,1),%rax
    432b:	48 89 c1             	mov    %rax,%rcx
    432e:	be 10 00 00 00       	mov    $0x10,%esi
    4333:	bf 00 00 00 00       	mov    $0x0,%edi
    4338:	49 89 df             	mov    %rbx,%r15
    433b:	b8 00 00 00 00       	mov    $0x0,%eax
    4340:	49 b9 e6 4d ff ff ff 	movabs $0xffffffffffff4de6,%r9
    4347:	ff ff ff 
    434a:	49 01 d9             	add    %rbx,%r9
    434d:	41 ff d1             	call   *%r9
    4350:	e9 e9 fc ff ff       	jmp    0x403e
    4355:	f3 0f 1e fa          	endbr64 
    4359:	55                   	push   %rbp
    435a:	48 89 e5             	mov    %rsp,%rbp
    435d:	53                   	push   %rbx
    435e:	48 8d 05 f9 ff ff ff 	lea    -0x7(%rip),%rax        # 0x435e
    4365:	49 bb fa b8 00 00 00 	movabs $0xb8fa,%r11
    436c:	00 00 00 
    436f:	4c 01 d8             	add    %r11,%rax
    4372:	48 ba b0 10 00 00 00 	movabs $0x10b0,%rdx
    4379:	00 00 00 
    437c:	48 bf 00 00 06 00 00 	movabs $0xffff800000060000,%rdi
    4383:	80 ff ff 
    4386:	48 89 3c 10          	mov    %rdi,(%rax,%rdx,1)
    438a:	48 ba b0 10 00 00 00 	movabs $0x10b0,%rdx
    4391:	00 00 00 
    4394:	48 8b 14 10          	mov    (%rax,%rdx,1),%rdx
    4398:	48 be 88 10 00 00 00 	movabs $0x1088,%rsi
    439f:	00 00 00 
    43a2:	48 8b 0a             	mov    (%rdx),%rcx
    43a5:	48 8b 5a 08          	mov    0x8(%rdx),%rbx
    43a9:	48 89 0c 30          	mov    %rcx,(%rax,%rsi,1)
    43ad:	48 89 5c 30 08       	mov    %rbx,0x8(%rax,%rsi,1)
    43b2:	48 8b 4a 10          	mov    0x10(%rdx),%rcx
    43b6:	48 8b 5a 18          	mov    0x18(%rdx),%rbx
    43ba:	48 89 4c 30 10       	mov    %rcx,0x10(%rax,%rsi,1)
    43bf:	48 89 5c 30 18       	mov    %rbx,0x18(%rax,%rsi,1)
    43c4:	48 ba 88 10 00 00 00 	movabs $0x1088,%rdx
    43cb:	00 00 00 
    43ce:	48 bb 00 00 00 03 00 	movabs $0xffff800003000000,%rbx
    43d5:	80 ff ff 
    43d8:	48 89 5c 10 10       	mov    %rbx,0x10(%rax,%rdx,1)
    43dd:	90                   	nop
    43de:	48 8b 5d f8          	mov    -0x8(%rbp),%rbx
    43e2:	c9                   	leave  
    43e3:	c3                   	ret    
    43e4:	f3 0f 1e fa          	endbr64 
    43e8:	55                   	push   %rbp
    43e9:	48 89 e5             	mov    %rsp,%rbp
    43ec:	48 8d 05 f9 ff ff ff 	lea    -0x7(%rip),%rax        # 0x43ec
    43f3:	49 bb 6c b8 00 00 00 	movabs $0xb86c,%r11
    43fa:	00 00 00 
    43fd:	4c 01 d8             	add    %r11,%rax
    4400:	89 7d dc             	mov    %edi,-0x24(%rbp)
    4403:	89 75 d8             	mov    %esi,-0x28(%rbp)
    4406:	89 55 d4             	mov    %edx,-0x2c(%rbp)
    4409:	48 ba 70 10 00 00 00 	movabs $0x1070,%rdx
    4410:	00 00 00 
    4413:	48 8b 14 10          	mov    (%rax,%rdx,1),%rdx
    4417:	8b 52 08             	mov    0x8(%rdx),%edx
    441a:	89 55 fc             	mov    %edx,-0x4(%rbp)
    441d:	48 ba 70 10 00 00 00 	movabs $0x1070,%rdx
    4424:	00 00 00 
    4427:	48 8b 04 10          	mov    (%rax,%rdx,1),%rax
    442b:	48 8b 40 10          	mov    0x10(%rax),%rax
    442f:	48 89 45 f0          	mov    %rax,-0x10(%rbp)
    4433:	8b 45 fc             	mov    -0x4(%rbp),%eax
    4436:	0f af 45 d8          	imul   -0x28(%rbp),%eax
    443a:	89 c2                	mov    %eax,%edx
    443c:	8b 45 dc             	mov    -0x24(%rbp),%eax
    443f:	48 01 d0             	add    %rdx,%rax
    4442:	48 8d 14 85 00 00 00 	lea    0x0(,%rax,4),%rdx
    4449:	00 
    444a:	48 8b 45 f0          	mov    -0x10(%rbp),%rax
    444e:	48 01 d0             	add    %rdx,%rax
    4451:	48 89 45 e8          	mov    %rax,-0x18(%rbp)
    4455:	48 8b 45 e8          	mov    -0x18(%rbp),%rax
    4459:	8b 55 d4             	mov    -0x2c(%rbp),%edx
    445c:	89 10                	mov    %edx,(%rax)
    445e:	90                   	nop
    445f:	5d                   	pop    %rbp
    4460:	c3                   	ret    
    4461:	f3 0f 1e fa          	endbr64 
    4465:	55                   	push   %rbp
    4466:	48 89 e5             	mov    %rsp,%rbp
    4469:	41 57                	push   %r15
    446b:	53                   	push   %rbx
    446c:	48 83 ec 20          	sub    $0x20,%rsp
    4470:	48 8d 1d f9 ff ff ff 	lea    -0x7(%rip),%rbx        # 0x4470
    4477:	49 bb e8 b7 00 00 00 	movabs $0xb7e8,%r11
    447e:	00 00 00 
    4481:	4c 01 db             	add    %r11,%rbx
    4484:	89 7d dc             	mov    %edi,-0x24(%rbp)
    4487:	89 75 d8             	mov    %esi,-0x28(%rbp)
    448a:	89 55 d4             	mov    %edx,-0x2c(%rbp)
    448d:	89 4d d0             	mov    %ecx,-0x30(%rbp)
    4490:	48 b8 70 10 00 00 00 	movabs $0x1070,%rax
    4497:	00 00 00 
    449a:	48 8b 04 03          	mov    (%rbx,%rax,1),%rax
    449e:	8b 40 08             	mov    0x8(%rax),%eax
    44a1:	0f af 45 d8          	imul   -0x28(%rbp),%eax
    44a5:	89 c2                	mov    %eax,%edx
    44a7:	8b 45 dc             	mov    -0x24(%rbp),%eax
    44aa:	01 d0                	add    %edx,%eax
    44ac:	c1 e0 02             	shl    $0x2,%eax
    44af:	89 c2                	mov    %eax,%edx
    44b1:	48 b8 e8 ff ff ff ff 	movabs $0xffffffffffffffe8,%rax
    44b8:	ff ff ff 
    44bb:	48 8b 04 03          	mov    (%rbx,%rax,1),%rax
    44bf:	48 8b 40 10          	mov    0x10(%rax),%rax
    44c3:	48 01 d0             	add    %rdx,%rax
    44c6:	48 89 45 e8          	mov    %rax,-0x18(%rbp)
    44ca:	48 c7 45 e0 00 00 00 	movq   $0x0,-0x20(%rbp)
    44d1:	00 
    44d2:	0f b6 45 d0          	movzbl -0x30(%rbp),%eax
    44d6:	0f b6 c0             	movzbl %al,%eax
    44d9:	48 09 45 e0          	or     %rax,-0x20(%rbp)
    44dd:	0f b6 45 d1          	movzbl -0x2f(%rbp),%eax
    44e1:	0f b6 c0             	movzbl %al,%eax
    44e4:	48 c1 e0 08          	shl    $0x8,%rax
    44e8:	48 09 45 e0          	or     %rax,-0x20(%rbp)
    44ec:	0f b6 45 d2          	movzbl -0x2e(%rbp),%eax
    44f0:	0f b6 c0             	movzbl %al,%eax
    44f3:	48 c1 e0 10          	shl    $0x10,%rax
    44f7:	48 09 45 e0          	or     %rax,-0x20(%rbp)
    44fb:	0f b6 45 d3          	movzbl -0x2d(%rbp),%eax
    44ff:	0f b6 c0             	movzbl %al,%eax
    4502:	48 c1 e0 0e          	shl    $0xe,%rax
    4506:	48 09 45 e0          	or     %rax,-0x20(%rbp)
    450a:	48 8b 45 e0          	mov    -0x20(%rbp),%rax
    450e:	48 c1 e0 20          	shl    $0x20,%rax
    4512:	48 09 45 e0          	or     %rax,-0x20(%rbp)
    4516:	8b 45 d4             	mov    -0x2c(%rbp),%eax
    4519:	d1 e8                	shr    %eax
    451b:	89 c2                	mov    %eax,%edx
    451d:	48 8b 4d e0          	mov    -0x20(%rbp),%rcx
    4521:	48 8b 45 e8          	mov    -0x18(%rbp),%rax
    4525:	48 89 ce             	mov    %rcx,%rsi
    4528:	48 89 c7             	mov    %rax,%rdi
    452b:	49 89 df             	mov    %rbx,%r15
    452e:	48 b8 b6 4f ff ff ff 	movabs $0xffffffffffff4fb6,%rax
    4535:	ff ff ff 
    4538:	48 01 d8             	add    %rbx,%rax
    453b:	ff d0                	call   *%rax
    453d:	8b 45 d4             	mov    -0x2c(%rbp),%eax
    4540:	83 e0 01             	and    $0x1,%eax
    4543:	85 c0                	test   %eax,%eax
    4545:	74 25                	je     0x456c
    4547:	8b 55 dc             	mov    -0x24(%rbp),%edx
    454a:	8b 45 d4             	mov    -0x2c(%rbp),%eax
    454d:	01 d0                	add    %edx,%eax
    454f:	8d 48 ff             	lea    -0x1(%rax),%ecx
    4552:	8b 55 d0             	mov    -0x30(%rbp),%edx
    4555:	8b 45 d8             	mov    -0x28(%rbp),%eax
    4558:	89 c6                	mov    %eax,%esi
    455a:	89 cf                	mov    %ecx,%edi
    455c:	48 b8 8c 47 ff ff ff 	movabs $0xffffffffffff478c,%rax
    4563:	ff ff ff 
    4566:	48 8d 04 03          	lea    (%rbx,%rax,1),%rax
    456a:	ff d0                	call   *%rax
    456c:	90                   	nop
    456d:	48 83 c4 20          	add    $0x20,%rsp
    4571:	5b                   	pop    %rbx
    4572:	41 5f                	pop    %r15
    4574:	5d                   	pop    %rbp
    4575:	c3                   	ret    
    4576:	f3 0f 1e fa          	endbr64 
    457a:	55                   	push   %rbp
    457b:	48 89 e5             	mov    %rsp,%rbp
    457e:	53                   	push   %rbx
    457f:	48 83 ec 38          	sub    $0x38,%rsp
    4583:	48 8d 1d f9 ff ff ff 	lea    -0x7(%rip),%rbx        # 0x4583
    458a:	49 bb d5 b6 00 00 00 	movabs $0xb6d5,%r11
    4591:	00 00 00 
    4594:	4c 01 db             	add    %r11,%rbx
    4597:	48 89 f9             	mov    %rdi,%rcx
    459a:	48 89 f0             	mov    %rsi,%rax
    459d:	48 89 ce             	mov    %rcx,%rsi
    45a0:	48 89 df             	mov    %rbx,%rdi
    45a3:	48 89 c7             	mov    %rax,%rdi
    45a6:	48 89 75 d0          	mov    %rsi,-0x30(%rbp)
    45aa:	48 89 7d d8          	mov    %rdi,-0x28(%rbp)
    45ae:	89 55 cc             	mov    %edx,-0x34(%rbp)
    45b1:	8b 45 d0             	mov    -0x30(%rbp),%eax
    45b4:	89 45 ec             	mov    %eax,-0x14(%rbp)
    45b7:	eb 46                	jmp    0x45ff
    45b9:	8b 4d d4             	mov    -0x2c(%rbp),%ecx
    45bc:	8b 55 cc             	mov    -0x34(%rbp),%edx
    45bf:	8b 45 ec             	mov    -0x14(%rbp),%eax
    45c2:	89 ce                	mov    %ecx,%esi
    45c4:	89 c7                	mov    %eax,%edi
    45c6:	48 b8 8c 47 ff ff ff 	movabs $0xffffffffffff478c,%rax
    45cd:	ff ff ff 
    45d0:	48 8d 04 03          	lea    (%rbx,%rax,1),%rax
    45d4:	ff d0                	call   *%rax
    45d6:	8b 55 d4             	mov    -0x2c(%rbp),%edx
    45d9:	8b 45 dc             	mov    -0x24(%rbp),%eax
    45dc:	01 d0                	add    %edx,%eax
    45de:	8d 48 ff             	lea    -0x1(%rax),%ecx
    45e1:	8b 55 cc             	mov    -0x34(%rbp),%edx
    45e4:	8b 45 ec             	mov    -0x14(%rbp),%eax
    45e7:	89 ce                	mov    %ecx,%esi
    45e9:	89 c7                	mov    %eax,%edi
    45eb:	48 b8 8c 47 ff ff ff 	movabs $0xffffffffffff478c,%rax
    45f2:	ff ff ff 
    45f5:	48 8d 04 03          	lea    (%rbx,%rax,1),%rax
    45f9:	ff d0                	call   *%rax
    45fb:	83 45 ec 01          	addl   $0x1,-0x14(%rbp)
    45ff:	8b 55 d0             	mov    -0x30(%rbp),%edx
    4602:	8b 45 d8             	mov    -0x28(%rbp),%eax
    4605:	01 d0                	add    %edx,%eax
    4607:	39 45 ec             	cmp    %eax,-0x14(%rbp)
    460a:	72 ad                	jb     0x45b9
    460c:	8b 45 d4             	mov    -0x2c(%rbp),%eax
    460f:	89 45 ec             	mov    %eax,-0x14(%rbp)
    4612:	eb 46                	jmp    0x465a
    4614:	8b 45 d0             	mov    -0x30(%rbp),%eax
    4617:	8b 55 cc             	mov    -0x34(%rbp),%edx
    461a:	8b 4d ec             	mov    -0x14(%rbp),%ecx
    461d:	89 ce                	mov    %ecx,%esi
    461f:	89 c7                	mov    %eax,%edi
    4621:	48 b8 8c 47 ff ff ff 	movabs $0xffffffffffff478c,%rax
    4628:	ff ff ff 
    462b:	48 8d 04 03          	lea    (%rbx,%rax,1),%rax
    462f:	ff d0                	call   *%rax
    4631:	8b 55 d0             	mov    -0x30(%rbp),%edx
    4634:	8b 45 d8             	mov    -0x28(%rbp),%eax
    4637:	01 d0                	add    %edx,%eax
    4639:	8d 48 ff             	lea    -0x1(%rax),%ecx
    463c:	8b 55 cc             	mov    -0x34(%rbp),%edx
    463f:	8b 45 ec             	mov    -0x14(%rbp),%eax
    4642:	89 c6                	mov    %eax,%esi
    4644:	89 cf                	mov    %ecx,%edi
    4646:	48 b8 8c 47 ff ff ff 	movabs $0xffffffffffff478c,%rax
    464d:	ff ff ff 
    4650:	48 8d 04 03          	lea    (%rbx,%rax,1),%rax
    4654:	ff d0                	call   *%rax
    4656:	83 45 ec 01          	addl   $0x1,-0x14(%rbp)
    465a:	8b 55 d4             	mov    -0x2c(%rbp),%edx
    465d:	8b 45 dc             	mov    -0x24(%rbp),%eax
    4660:	01 d0                	add    %edx,%eax
    4662:	39 45 ec             	cmp    %eax,-0x14(%rbp)
    4665:	72 ad                	jb     0x4614
    4667:	90                   	nop
    4668:	90                   	nop
    4669:	48 8b 5d f8          	mov    -0x8(%rbp),%rbx
    466d:	c9                   	leave  
    466e:	c3                   	ret    
    466f:	f3 0f 1e fa          	endbr64 
    4673:	55                   	push   %rbp
    4674:	48 89 e5             	mov    %rsp,%rbp
    4677:	53                   	push   %rbx
    4678:	48 83 ec 38          	sub    $0x38,%rsp
    467c:	48 8d 1d f9 ff ff ff 	lea    -0x7(%rip),%rbx        # 0x467c
    4683:	49 bb dc b5 00 00 00 	movabs $0xb5dc,%r11
    468a:	00 00 00 
    468d:	4c 01 db             	add    %r11,%rbx
    4690:	48 89 f9             	mov    %rdi,%rcx
    4693:	48 89 f0             	mov    %rsi,%rax
    4696:	48 89 ce             	mov    %rcx,%rsi
    4699:	48 89 df             	mov    %rbx,%rdi
    469c:	48 89 c7             	mov    %rax,%rdi
    469f:	48 89 75 d0          	mov    %rsi,-0x30(%rbp)
    46a3:	48 89 7d d8          	mov    %rdi,-0x28(%rbp)
    46a7:	89 55 cc             	mov    %edx,-0x34(%rbp)
    46aa:	8b 45 d4             	mov    -0x2c(%rbp),%eax
    46ad:	89 45 ec             	mov    %eax,-0x14(%rbp)
    46b0:	eb 22                	jmp    0x46d4
    46b2:	8b 55 d8             	mov    -0x28(%rbp),%edx
    46b5:	8b 45 d0             	mov    -0x30(%rbp),%eax
    46b8:	8b 4d cc             	mov    -0x34(%rbp),%ecx
    46bb:	8b 75 ec             	mov    -0x14(%rbp),%esi
    46be:	89 c7                	mov    %eax,%edi
    46c0:	48 b8 09 48 ff ff ff 	movabs $0xffffffffffff4809,%rax
    46c7:	ff ff ff 
    46ca:	48 8d 04 03          	lea    (%rbx,%rax,1),%rax
    46ce:	ff d0                	call   *%rax
    46d0:	83 45 ec 01          	addl   $0x1,-0x14(%rbp)
    46d4:	8b 55 d4             	mov    -0x2c(%rbp),%edx
    46d7:	8b 45 dc             	mov    -0x24(%rbp),%eax
    46da:	01 d0                	add    %edx,%eax
    46dc:	39 45 ec             	cmp    %eax,-0x14(%rbp)
    46df:	72 d1                	jb     0x46b2
    46e1:	90                   	nop
    46e2:	90                   	nop
    46e3:	48 8b 5d f8          	mov    -0x8(%rbp),%rbx
    46e7:	c9                   	leave  
    46e8:	c3                   	ret    
    46e9:	f3 0f 1e fa          	endbr64 
    46ed:	55                   	push   %rbp
    46ee:	48 89 e5             	mov    %rsp,%rbp
    46f1:	41 57                	push   %r15
    46f3:	48 83 ec 28          	sub    $0x28,%rsp
    46f7:	48 8d 05 f9 ff ff ff 	lea    -0x7(%rip),%rax        # 0x46f7
    46fe:	49 bb 61 b5 00 00 00 	movabs $0xb561,%r11
    4705:	00 00 00 
    4708:	4c 01 d8             	add    %r11,%rax
    470b:	89 7d dc             	mov    %edi,-0x24(%rbp)
    470e:	48 ba 70 10 00 00 00 	movabs $0x1070,%rdx
    4715:	00 00 00 
    4718:	48 8b 14 10          	mov    (%rax,%rdx,1),%rdx
    471c:	48 8b 52 10          	mov    0x10(%rdx),%rdx
    4720:	48 89 55 e8          	mov    %rdx,-0x18(%rbp)
    4724:	48 c7 45 e0 00 00 00 	movq   $0x0,-0x20(%rbp)
    472b:	00 
    472c:	0f b6 55 dc          	movzbl -0x24(%rbp),%edx
    4730:	0f b6 d2             	movzbl %dl,%edx
    4733:	48 09 55 e0          	or     %rdx,-0x20(%rbp)
    4737:	0f b6 55 dd          	movzbl -0x23(%rbp),%edx
    473b:	0f b6 d2             	movzbl %dl,%edx
    473e:	48 c1 e2 08          	shl    $0x8,%rdx
    4742:	48 09 55 e0          	or     %rdx,-0x20(%rbp)
    4746:	0f b6 55 de          	movzbl -0x22(%rbp),%edx
    474a:	0f b6 d2             	movzbl %dl,%edx
    474d:	48 c1 e2 10          	shl    $0x10,%rdx
    4751:	48 09 55 e0          	or     %rdx,-0x20(%rbp)
    4755:	0f b6 55 df          	movzbl -0x21(%rbp),%edx
    4759:	0f b6 d2             	movzbl %dl,%edx
    475c:	48 c1 e2 0e          	shl    $0xe,%rdx
    4760:	48 09 55 e0          	or     %rdx,-0x20(%rbp)
    4764:	48 8b 55 e0          	mov    -0x20(%rbp),%rdx
    4768:	48 c1 e2 20          	shl    $0x20,%rdx
    476c:	48 09 55 e0          	or     %rdx,-0x20(%rbp)
    4770:	48 ba e8 ff ff ff ff 	movabs $0xffffffffffffffe8,%rdx
    4777:	ff ff ff 
    477a:	48 8b 14 10          	mov    (%rax,%rdx,1),%rdx
    477e:	8b 0a                	mov    (%rdx),%ecx
    4780:	48 ba e8 ff ff ff ff 	movabs $0xffffffffffffffe8,%rdx
    4787:	ff ff ff 
    478a:	48 8b 14 10          	mov    (%rax,%rdx,1),%rdx
    478e:	8b 52 04             	mov    0x4(%rdx),%edx
    4791:	0f af d1             	imul   %ecx,%edx
    4794:	d1 ea                	shr    %edx
    4796:	48 8b 75 e0          	mov    -0x20(%rbp),%rsi
    479a:	48 8b 4d e8          	mov    -0x18(%rbp),%rcx
    479e:	48 89 cf             	mov    %rcx,%rdi
    47a1:	49 89 c7             	mov    %rax,%r15
    47a4:	48 b9 b6 4f ff ff ff 	movabs $0xffffffffffff4fb6,%rcx
    47ab:	ff ff ff 
    47ae:	48 01 c1             	add    %rax,%rcx
    47b1:	ff d1                	call   *%rcx
    47b3:	90                   	nop
    47b4:	4c 8b 7d f8          	mov    -0x8(%rbp),%r15
    47b8:	c9                   	leave  
    47b9:	c3                   	ret    
    47ba:	f3 0f 1e fa          	endbr64 
    47be:	55                   	push   %rbp
    47bf:	48 89 e5             	mov    %rsp,%rbp
    47c2:	53                   	push   %rbx
    47c3:	48 83 ec 20          	sub    $0x20,%rsp
    47c7:	48 8d 1d f9 ff ff ff 	lea    -0x7(%rip),%rbx        # 0x47c7
    47ce:	49 bb 91 b4 00 00 00 	movabs $0xb491,%r11
    47d5:	00 00 00 
    47d8:	4c 01 db             	add    %r11,%rbx
    47db:	89 7d e4             	mov    %edi,-0x1c(%rbp)
    47de:	89 75 e0             	mov    %esi,-0x20(%rbp)
    47e1:	89 55 dc             	mov    %edx,-0x24(%rbp)
    47e4:	89 c8                	mov    %ecx,%eax
    47e6:	88 45 d8             	mov    %al,-0x28(%rbp)
    47e9:	c7 45 f4 00 00 00 00 	movl   $0x0,-0xc(%rbp)
    47f0:	e9 ac 01 00 00       	jmp    0x49a1
    47f5:	0f b6 45 d8          	movzbl -0x28(%rbp),%eax
    47f9:	48 ba 28 cb ff ff ff 	movabs $0xffffffffffffcb28,%rdx
    4800:	ff ff ff 
    4803:	8b 4d f4             	mov    -0xc(%rbp),%ecx
    4806:	48 98                	cltq   
    4808:	48 01 da             	add    %rbx,%rdx
    480b:	48 c1 e0 04          	shl    $0x4,%rax
    480f:	48 01 c8             	add    %rcx,%rax
    4812:	48 01 d0             	add    %rdx,%rax
    4815:	0f b6 00             	movzbl (%rax),%eax
    4818:	88 45 f3             	mov    %al,-0xd(%rbp)
    481b:	0f b6 45 f3          	movzbl -0xd(%rbp),%eax
    481f:	84 c0                	test   %al,%al
    4821:	79 23                	jns    0x4846
    4823:	8b 55 e0             	mov    -0x20(%rbp),%edx
    4826:	8b 45 f4             	mov    -0xc(%rbp),%eax
    4829:	8d 0c 02             	lea    (%rdx,%rax,1),%ecx
    482c:	8b 55 dc             	mov    -0x24(%rbp),%edx
    482f:	8b 45 e4             	mov    -0x1c(%rbp),%eax
    4832:	89 ce                	mov    %ecx,%esi
    4834:	89 c7                	mov    %eax,%edi
    4836:	48 b8 8c 47 ff ff ff 	movabs $0xffffffffffff478c,%rax
    483d:	ff ff ff 
    4840:	48 8d 04 03          	lea    (%rbx,%rax,1),%rax
    4844:	ff d0                	call   *%rax
    4846:	0f b6 45 f3          	movzbl -0xd(%rbp),%eax
    484a:	83 e0 40             	and    $0x40,%eax
    484d:	85 c0                	test   %eax,%eax
    484f:	74 26                	je     0x4877
    4851:	8b 55 e0             	mov    -0x20(%rbp),%edx
    4854:	8b 45 f4             	mov    -0xc(%rbp),%eax
    4857:	8d 34 02             	lea    (%rdx,%rax,1),%esi
    485a:	8b 45 e4             	mov    -0x1c(%rbp),%eax
    485d:	8d 48 01             	lea    0x1(%rax),%ecx
    4860:	8b 45 dc             	mov    -0x24(%rbp),%eax
    4863:	89 c2                	mov    %eax,%edx
    4865:	89 cf                	mov    %ecx,%edi
    4867:	48 b8 8c 47 ff ff ff 	movabs $0xffffffffffff478c,%rax
    486e:	ff ff ff 
    4871:	48 8d 04 03          	lea    (%rbx,%rax,1),%rax
    4875:	ff d0                	call   *%rax
    4877:	0f b6 45 f3          	movzbl -0xd(%rbp),%eax
    487b:	83 e0 20             	and    $0x20,%eax
    487e:	85 c0                	test   %eax,%eax
    4880:	74 26                	je     0x48a8
    4882:	8b 55 e0             	mov    -0x20(%rbp),%edx
    4885:	8b 45 f4             	mov    -0xc(%rbp),%eax
    4888:	8d 34 02             	lea    (%rdx,%rax,1),%esi
    488b:	8b 45 e4             	mov    -0x1c(%rbp),%eax
    488e:	8d 48 02             	lea    0x2(%rax),%ecx
    4891:	8b 45 dc             	mov    -0x24(%rbp),%eax
    4894:	89 c2                	mov    %eax,%edx
    4896:	89 cf                	mov    %ecx,%edi
    4898:	48 b8 8c 47 ff ff ff 	movabs $0xffffffffffff478c,%rax
    489f:	ff ff ff 
    48a2:	48 8d 04 03          	lea    (%rbx,%rax,1),%rax
    48a6:	ff d0                	call   *%rax
    48a8:	0f b6 45 f3          	movzbl -0xd(%rbp),%eax
    48ac:	83 e0 10             	and    $0x10,%eax
    48af:	85 c0                	test   %eax,%eax
    48b1:	74 26                	je     0x48d9
    48b3:	8b 55 e0             	mov    -0x20(%rbp),%edx
    48b6:	8b 45 f4             	mov    -0xc(%rbp),%eax
    48b9:	8d 34 02             	lea    (%rdx,%rax,1),%esi
    48bc:	8b 45 e4             	mov    -0x1c(%rbp),%eax
    48bf:	8d 48 03             	lea    0x3(%rax),%ecx
    48c2:	8b 45 dc             	mov    -0x24(%rbp),%eax
    48c5:	89 c2                	mov    %eax,%edx
    48c7:	89 cf                	mov    %ecx,%edi
    48c9:	48 b8 8c 47 ff ff ff 	movabs $0xffffffffffff478c,%rax
    48d0:	ff ff ff 
    48d3:	48 8d 04 03          	lea    (%rbx,%rax,1),%rax
    48d7:	ff d0                	call   *%rax
    48d9:	0f b6 45 f3          	movzbl -0xd(%rbp),%eax
    48dd:	83 e0 08             	and    $0x8,%eax
    48e0:	85 c0                	test   %eax,%eax
    48e2:	74 26                	je     0x490a
    48e4:	8b 55 e0             	mov    -0x20(%rbp),%edx
    48e7:	8b 45 f4             	mov    -0xc(%rbp),%eax
    48ea:	8d 34 02             	lea    (%rdx,%rax,1),%esi
    48ed:	8b 45 e4             	mov    -0x1c(%rbp),%eax
    48f0:	8d 48 04             	lea    0x4(%rax),%ecx
    48f3:	8b 45 dc             	mov    -0x24(%rbp),%eax
    48f6:	89 c2                	mov    %eax,%edx
    48f8:	89 cf                	mov    %ecx,%edi
    48fa:	48 b8 8c 47 ff ff ff 	movabs $0xffffffffffff478c,%rax
    4901:	ff ff ff 
    4904:	48 8d 04 03          	lea    (%rbx,%rax,1),%rax
    4908:	ff d0                	call   *%rax
    490a:	0f b6 45 f3          	movzbl -0xd(%rbp),%eax
    490e:	83 e0 04             	and    $0x4,%eax
    4911:	85 c0                	test   %eax,%eax
    4913:	74 26                	je     0x493b
    4915:	8b 55 e0             	mov    -0x20(%rbp),%edx
    4918:	8b 45 f4             	mov    -0xc(%rbp),%eax
    491b:	8d 34 02             	lea    (%rdx,%rax,1),%esi
    491e:	8b 45 e4             	mov    -0x1c(%rbp),%eax
    4921:	8d 48 05             	lea    0x5(%rax),%ecx
    4924:	8b 45 dc             	mov    -0x24(%rbp),%eax
    4927:	89 c2                	mov    %eax,%edx
    4929:	89 cf                	mov    %ecx,%edi
    492b:	48 b8 8c 47 ff ff ff 	movabs $0xffffffffffff478c,%rax
    4932:	ff ff ff 
    4935:	48 8d 04 03          	lea    (%rbx,%rax,1),%rax
    4939:	ff d0                	call   *%rax
    493b:	0f b6 45 f3          	movzbl -0xd(%rbp),%eax
    493f:	83 e0 02             	and    $0x2,%eax
    4942:	85 c0                	test   %eax,%eax
    4944:	74 26                	je     0x496c
    4946:	8b 55 e0             	mov    -0x20(%rbp),%edx
    4949:	8b 45 f4             	mov    -0xc(%rbp),%eax
    494c:	8d 34 02             	lea    (%rdx,%rax,1),%esi
    494f:	8b 45 e4             	mov    -0x1c(%rbp),%eax
    4952:	8d 48 06             	lea    0x6(%rax),%ecx
    4955:	8b 45 dc             	mov    -0x24(%rbp),%eax
    4958:	89 c2                	mov    %eax,%edx
    495a:	89 cf                	mov    %ecx,%edi
    495c:	48 b8 8c 47 ff ff ff 	movabs $0xffffffffffff478c,%rax
    4963:	ff ff ff 
    4966:	48 8d 04 03          	lea    (%rbx,%rax,1),%rax
    496a:	ff d0                	call   *%rax
    496c:	0f b6 45 f3          	movzbl -0xd(%rbp),%eax
    4970:	83 e0 01             	and    $0x1,%eax
    4973:	85 c0                	test   %eax,%eax
    4975:	74 26                	je     0x499d
    4977:	8b 55 e0             	mov    -0x20(%rbp),%edx
    497a:	8b 45 f4             	mov    -0xc(%rbp),%eax
    497d:	8d 34 02             	lea    (%rdx,%rax,1),%esi
    4980:	8b 45 e4             	mov    -0x1c(%rbp),%eax
    4983:	8d 48 07             	lea    0x7(%rax),%ecx
    4986:	8b 45 dc             	mov    -0x24(%rbp),%eax
    4989:	89 c2                	mov    %eax,%edx
    498b:	89 cf                	mov    %ecx,%edi
    498d:	48 b8 8c 47 ff ff ff 	movabs $0xffffffffffff478c,%rax
    4994:	ff ff ff 
    4997:	48 8d 04 03          	lea    (%rbx,%rax,1),%rax
    499b:	ff d0                	call   *%rax
    499d:	83 45 f4 01          	addl   $0x1,-0xc(%rbp)
    49a1:	83 7d f4 0f          	cmpl   $0xf,-0xc(%rbp)
    49a5:	0f 86 4a fe ff ff    	jbe    0x47f5
    49ab:	90                   	nop
    49ac:	48 8b 5d f8          	mov    -0x8(%rbp),%rbx
    49b0:	c9                   	leave  
    49b1:	c3                   	ret    
    49b2:	f3 0f 1e fa          	endbr64 
    49b6:	55                   	push   %rbp
    49b7:	48 89 e5             	mov    %rsp,%rbp
    49ba:	53                   	push   %rbx
    49bb:	48 83 ec 28          	sub    $0x28,%rsp
    49bf:	48 8d 1d f9 ff ff ff 	lea    -0x7(%rip),%rbx        # 0x49bf
    49c6:	49 bb 99 b2 00 00 00 	movabs $0xb299,%r11
    49cd:	00 00 00 
    49d0:	4c 01 db             	add    %r11,%rbx
    49d3:	89 7d e4             	mov    %edi,-0x1c(%rbp)
    49d6:	89 75 e0             	mov    %esi,-0x20(%rbp)
    49d9:	89 55 dc             	mov    %edx,-0x24(%rbp)
    49dc:	48 89 4d d0          	mov    %rcx,-0x30(%rbp)
    49e0:	c7 45 f4 00 00 00 00 	movl   $0x0,-0xc(%rbp)
    49e7:	eb 3c                	jmp    0x4a25
    49e9:	8b 55 f4             	mov    -0xc(%rbp),%edx
    49ec:	48 8b 45 d0          	mov    -0x30(%rbp),%rax
    49f0:	48 01 d0             	add    %rdx,%rax
    49f3:	0f b6 00             	movzbl (%rax),%eax
    49f6:	0f b6 c8             	movzbl %al,%ecx
    49f9:	8b 45 f4             	mov    -0xc(%rbp),%eax
    49fc:	8d 14 c5 00 00 00 00 	lea    0x0(,%rax,8),%edx
    4a03:	8b 45 e4             	mov    -0x1c(%rbp),%eax
    4a06:	8d 3c 02             	lea    (%rdx,%rax,1),%edi
    4a09:	8b 55 dc             	mov    -0x24(%rbp),%edx
    4a0c:	8b 45 e0             	mov    -0x20(%rbp),%eax
    4a0f:	89 c6                	mov    %eax,%esi
    4a11:	48 b8 62 4b ff ff ff 	movabs $0xffffffffffff4b62,%rax
    4a18:	ff ff ff 
    4a1b:	48 8d 04 03          	lea    (%rbx,%rax,1),%rax
    4a1f:	ff d0                	call   *%rax
    4a21:	83 45 f4 01          	addl   $0x1,-0xc(%rbp)
    4a25:	8b 55 f4             	mov    -0xc(%rbp),%edx
    4a28:	48 8b 45 d0          	mov    -0x30(%rbp),%rax
    4a2c:	48 01 d0             	add    %rdx,%rax
    4a2f:	0f b6 00             	movzbl (%rax),%eax
    4a32:	84 c0                	test   %al,%al
    4a34:	75 b3                	jne    0x49e9
    4a36:	90                   	nop
    4a37:	90                   	nop
    4a38:	48 8b 5d f8          	mov    -0x8(%rbp),%rbx
    4a3c:	c9                   	leave  
    4a3d:	c3                   	ret    
    4a3e:	f3 0f 1e fa          	endbr64 
    4a42:	55                   	push   %rbp
    4a43:	48 89 e5             	mov    %rsp,%rbp
    4a46:	41 57                	push   %r15
    4a48:	53                   	push   %rbx
    4a49:	48 81 ec f0 00 00 00 	sub    $0xf0,%rsp
    4a50:	48 8d 1d f9 ff ff ff 	lea    -0x7(%rip),%rbx        # 0x4a50
    4a57:	49 bb 08 b2 00 00 00 	movabs $0xb208,%r11
    4a5e:	00 00 00 
    4a61:	4c 01 db             	add    %r11,%rbx
    4a64:	89 bd 1c ff ff ff    	mov    %edi,-0xe4(%rbp)
    4a6a:	89 b5 18 ff ff ff    	mov    %esi,-0xe8(%rbp)
    4a70:	89 95 14 ff ff ff    	mov    %edx,-0xec(%rbp)
    4a76:	48 89 8d 08 ff ff ff 	mov    %rcx,-0xf8(%rbp)
    4a7d:	4c 89 85 60 ff ff ff 	mov    %r8,-0xa0(%rbp)
    4a84:	4c 89 8d 68 ff ff ff 	mov    %r9,-0x98(%rbp)
    4a8b:	84 c0                	test   %al,%al
    4a8d:	74 23                	je     0x4ab2
    4a8f:	0f 29 85 70 ff ff ff 	movaps %xmm0,-0x90(%rbp)
    4a96:	0f 29 4d 80          	movaps %xmm1,-0x80(%rbp)
    4a9a:	0f 29 55 90          	movaps %xmm2,-0x70(%rbp)
    4a9e:	0f 29 5d a0          	movaps %xmm3,-0x60(%rbp)
    4aa2:	0f 29 65 b0          	movaps %xmm4,-0x50(%rbp)
    4aa6:	0f 29 6d c0          	movaps %xmm5,-0x40(%rbp)
    4aaa:	0f 29 75 d0          	movaps %xmm6,-0x30(%rbp)
    4aae:	0f 29 7d e0          	movaps %xmm7,-0x20(%rbp)
    4ab2:	ba 00 02 00 00       	mov    $0x200,%edx
    4ab7:	be 00 00 00 00       	mov    $0x0,%esi
    4abc:	48 b8 e8 10 00 00 00 	movabs $0x10e8,%rax
    4ac3:	00 00 00 
    4ac6:	48 8d 04 03          	lea    (%rbx,%rax,1),%rax
    4aca:	48 89 c7             	mov    %rax,%rdi
    4acd:	49 89 df             	mov    %rbx,%r15
    4ad0:	48 b8 b6 4f ff ff ff 	movabs $0xffffffffffff4fb6,%rax
    4ad7:	ff ff ff 
    4ada:	48 01 d8             	add    %rbx,%rax
    4add:	ff d0                	call   *%rax
    4adf:	c7 85 20 ff ff ff 20 	movl   $0x20,-0xe0(%rbp)
    4ae6:	00 00 00 
    4ae9:	c7 85 24 ff ff ff 30 	movl   $0x30,-0xdc(%rbp)
    4af0:	00 00 00 
    4af3:	48 8d 45 10          	lea    0x10(%rbp),%rax
    4af7:	48 89 85 28 ff ff ff 	mov    %rax,-0xd8(%rbp)
    4afe:	48 8d 85 40 ff ff ff 	lea    -0xc0(%rbp),%rax
    4b05:	48 89 85 30 ff ff ff 	mov    %rax,-0xd0(%rbp)
    4b0c:	48 8d 95 20 ff ff ff 	lea    -0xe0(%rbp),%rdx
    4b13:	48 8b 85 08 ff ff ff 	mov    -0xf8(%rbp),%rax
    4b1a:	48 89 c6             	mov    %rax,%rsi
    4b1d:	48 b8 e8 10 00 00 00 	movabs $0x10e8,%rax
    4b24:	00 00 00 
    4b27:	48 8d 04 03          	lea    (%rbx,%rax,1),%rax
    4b2b:	48 89 c7             	mov    %rax,%rdi
    4b2e:	49 89 df             	mov    %rbx,%r15
    4b31:	48 b8 cc 50 ff ff ff 	movabs $0xffffffffffff50cc,%rax
    4b38:	ff ff ff 
    4b3b:	48 01 d8             	add    %rbx,%rax
    4b3e:	ff d0                	call   *%rax
    4b40:	89 85 3c ff ff ff    	mov    %eax,-0xc4(%rbp)
    4b46:	8b 95 14 ff ff ff    	mov    -0xec(%rbp),%edx
    4b4c:	8b b5 18 ff ff ff    	mov    -0xe8(%rbp),%esi
    4b52:	8b 85 1c ff ff ff    	mov    -0xe4(%rbp),%eax
    4b58:	48 b9 e8 10 00 00 00 	movabs $0x10e8,%rcx
    4b5f:	00 00 00 
    4b62:	48 8d 0c 0b          	lea    (%rbx,%rcx,1),%rcx
    4b66:	89 c7                	mov    %eax,%edi
    4b68:	48 b8 5a 4d ff ff ff 	movabs $0xffffffffffff4d5a,%rax
    4b6f:	ff ff ff 
    4b72:	48 8d 04 03          	lea    (%rbx,%rax,1),%rax
    4b76:	ff d0                	call   *%rax
    4b78:	8b 85 3c ff ff ff    	mov    -0xc4(%rbp),%eax
    4b7e:	48 81 c4 f0 00 00 00 	add    $0xf0,%rsp
    4b85:	5b                   	pop    %rbx
    4b86:	41 5f                	pop    %r15
    4b88:	5d                   	pop    %rbp
    4b89:	c3                   	ret    
    4b8a:	f3 0f 1e fa          	endbr64 
    4b8e:	55                   	push   %rbp
    4b8f:	48 89 e5             	mov    %rsp,%rbp
    4b92:	48 8d 15 f9 ff ff ff 	lea    -0x7(%rip),%rdx        # 0x4b92
    4b99:	49 bb c6 b0 00 00 00 	movabs $0xb0c6,%r11
    4ba0:	00 00 00 
    4ba3:	4c 01 da             	add    %r11,%rdx
    4ba6:	48 b9 70 10 00 00 00 	movabs $0x1070,%rcx
    4bad:	00 00 00 
    4bb0:	48 be e8 ff ff ff ff 	movabs $0xffffffffffffffe8,%rsi
    4bb7:	ff ff ff 
    4bba:	48 8b 34 32          	mov    (%rdx,%rsi,1),%rsi
    4bbe:	48 89 34 0a          	mov    %rsi,(%rdx,%rcx,1)
    4bc2:	b0 64                	mov    $0x64,%al
    4bc4:	b9 64 00 00 00       	mov    $0x64,%ecx
    4bc9:	88 cc                	mov    %cl,%ah
    4bcb:	25 ff ff 00 ff       	and    $0xff00ffff,%eax
    4bd0:	0d 00 00 64 00       	or     $0x640000,%eax
    4bd5:	25 ff ff ff 00       	and    $0xffffff,%eax
    4bda:	89 c7                	mov    %eax,%edi
    4bdc:	48 b8 91 4a ff ff ff 	movabs $0xffffffffffff4a91,%rax
    4be3:	ff ff ff 
    4be6:	48 8d 04 02          	lea    (%rdx,%rax,1),%rax
    4bea:	ff d0                	call   *%rax
    4bec:	90                   	nop
    4bed:	5d                   	pop    %rbp
    4bee:	c3                   	ret    
    4bef:	f3 0f 1e fa          	endbr64 
    4bf3:	55                   	push   %rbp
    4bf4:	48 89 e5             	mov    %rsp,%rbp
    4bf7:	48 8d 05 f9 ff ff ff 	lea    -0x7(%rip),%rax        # 0x4bf7
    4bfe:	49 bb 61 b0 00 00 00 	movabs $0xb061,%r11
    4c05:	00 00 00 
    4c08:	4c 01 d8             	add    %r11,%rax
    4c0b:	90                   	nop
    4c0c:	5d                   	pop    %rbp
    4c0d:	c3                   	ret    
    4c0e:	f3 0f 1e fa          	endbr64 
    4c12:	55                   	push   %rbp
    4c13:	48 89 e5             	mov    %rsp,%rbp
    4c16:	48 8d 05 f9 ff ff ff 	lea    -0x7(%rip),%rax        # 0x4c16
    4c1d:	49 bb 42 b0 00 00 00 	movabs $0xb042,%r11
    4c24:	00 00 00 
    4c27:	4c 01 d8             	add    %r11,%rax
    4c2a:	48 89 7d e8          	mov    %rdi,-0x18(%rbp)
    4c2e:	48 89 75 e0          	mov    %rsi,-0x20(%rbp)
    4c32:	89 55 dc             	mov    %edx,-0x24(%rbp)
    4c35:	48 8b 45 e8          	mov    -0x18(%rbp),%rax
    4c39:	48 89 45 f8          	mov    %rax,-0x8(%rbp)
    4c3d:	eb 13                	jmp    0x4c52
    4c3f:	48 8b 45 f8          	mov    -0x8(%rbp),%rax
    4c43:	48 8d 50 08          	lea    0x8(%rax),%rdx
    4c47:	48 89 55 f8          	mov    %rdx,-0x8(%rbp)
    4c4b:	48 8b 55 e0          	mov    -0x20(%rbp),%rdx
    4c4f:	48 89 10             	mov    %rdx,(%rax)
    4c52:	8b 45 dc             	mov    -0x24(%rbp),%eax
    4c55:	8d 50 ff             	lea    -0x1(%rax),%edx
    4c58:	89 55 dc             	mov    %edx,-0x24(%rbp)
    4c5b:	85 c0                	test   %eax,%eax
    4c5d:	75 e0                	jne    0x4c3f
    4c5f:	90                   	nop
    4c60:	90                   	nop
    4c61:	5d                   	pop    %rbp
    4c62:	c3                   	ret    
    4c63:	f3 0f 1e fa          	endbr64 
    4c67:	55                   	push   %rbp
    4c68:	48 89 e5             	mov    %rsp,%rbp
    4c6b:	48 83 ec 30          	sub    $0x30,%rsp
    4c6f:	48 8d 0d f9 ff ff ff 	lea    -0x7(%rip),%rcx        # 0x4c6f
    4c76:	49 bb e9 af 00 00 00 	movabs $0xafe9,%r11
    4c7d:	00 00 00 
    4c80:	4c 01 d9             	add    %r11,%rcx
    4c83:	48 89 7d e8          	mov    %rdi,-0x18(%rbp)
    4c87:	48 89 75 e0          	mov    %rsi,-0x20(%rbp)
    4c8b:	89 d0                	mov    %edx,%eax
    4c8d:	88 45 dc             	mov    %al,-0x24(%rbp)
    4c90:	0f b6 75 dc          	movzbl -0x24(%rbp),%esi
    4c94:	48 8b 45 e8          	mov    -0x18(%rbp),%rax
    4c98:	ba 00 00 00 00       	mov    $0x0,%edx
    4c9d:	48 f7 f6             	div    %rsi
    4ca0:	48 89 55 f8          	mov    %rdx,-0x8(%rbp)
    4ca4:	0f b6 7d dc          	movzbl -0x24(%rbp),%edi
    4ca8:	48 8b 45 e8          	mov    -0x18(%rbp),%rax
    4cac:	ba 00 00 00 00       	mov    $0x0,%edx
    4cb1:	48 f7 f7             	div    %rdi
    4cb4:	48 89 45 f0          	mov    %rax,-0x10(%rbp)
    4cb8:	48 83 7d f0 00       	cmpq   $0x0,-0x10(%rbp)
    4cbd:	74 1f                	je     0x4cde
    4cbf:	0f b6 55 dc          	movzbl -0x24(%rbp),%edx
    4cc3:	48 8b 75 e0          	mov    -0x20(%rbp),%rsi
    4cc7:	48 8b 45 f0          	mov    -0x10(%rbp),%rax
    4ccb:	48 89 c7             	mov    %rax,%rdi
    4cce:	48 b8 0b 50 ff ff ff 	movabs $0xffffffffffff500b,%rax
    4cd5:	ff ff ff 
    4cd8:	48 8d 04 01          	lea    (%rcx,%rax,1),%rax
    4cdc:	ff d0                	call   *%rax
    4cde:	48 83 7d f8 09       	cmpq   $0x9,-0x8(%rbp)
    4ce3:	77 1f                	ja     0x4d04
    4ce5:	48 8b 45 f8          	mov    -0x8(%rbp),%rax
    4ce9:	8d 70 30             	lea    0x30(%rax),%esi
    4cec:	48 8b 45 e0          	mov    -0x20(%rbp),%rax
    4cf0:	48 8b 00             	mov    (%rax),%rax
    4cf3:	48 8d 48 01          	lea    0x1(%rax),%rcx
    4cf7:	48 8b 55 e0          	mov    -0x20(%rbp),%rdx
    4cfb:	48 89 0a             	mov    %rcx,(%rdx)
    4cfe:	89 f2                	mov    %esi,%edx
    4d00:	88 10                	mov    %dl,(%rax)
    4d02:	eb 1d                	jmp    0x4d21
    4d04:	48 8b 45 f8          	mov    -0x8(%rbp),%rax
    4d08:	8d 70 37             	lea    0x37(%rax),%esi
    4d0b:	48 8b 45 e0          	mov    -0x20(%rbp),%rax
    4d0f:	48 8b 00             	mov    (%rax),%rax
    4d12:	48 8d 48 01          	lea    0x1(%rax),%rcx
    4d16:	48 8b 55 e0          	mov    -0x20(%rbp),%rdx
    4d1a:	48 89 0a             	mov    %rcx,(%rdx)
    4d1d:	89 f2                	mov    %esi,%edx
    4d1f:	88 10                	mov    %dl,(%rax)
    4d21:	90                   	nop
    4d22:	c9                   	leave  
    4d23:	c3                   	ret    
    4d24:	f3 0f 1e fa          	endbr64 
    4d28:	55                   	push   %rbp
    4d29:	48 89 e5             	mov    %rsp,%rbp
    4d2c:	41 57                	push   %r15
    4d2e:	53                   	push   %rbx
    4d2f:	48 83 ec 50          	sub    $0x50,%rsp
    4d33:	48 8d 1d f9 ff ff ff 	lea    -0x7(%rip),%rbx        # 0x4d33
    4d3a:	49 bb 25 af 00 00 00 	movabs $0xaf25,%r11
    4d41:	00 00 00 
    4d44:	4c 01 db             	add    %r11,%rbx
    4d47:	48 89 7d b8          	mov    %rdi,-0x48(%rbp)
    4d4b:	48 89 75 b0          	mov    %rsi,-0x50(%rbp)
    4d4f:	48 89 55 a8          	mov    %rdx,-0x58(%rbp)
    4d53:	48 8b 45 b8          	mov    -0x48(%rbp),%rax
    4d57:	48 89 45 c8          	mov    %rax,-0x38(%rbp)
    4d5b:	48 8b 45 b0          	mov    -0x50(%rbp),%rax
    4d5f:	48 89 45 e8          	mov    %rax,-0x18(%rbp)
    4d63:	48 8b 45 e8          	mov    -0x18(%rbp),%rax
    4d67:	0f b6 00             	movzbl (%rax),%eax
    4d6a:	88 45 e7             	mov    %al,-0x19(%rbp)
    4d6d:	e9 d1 03 00 00       	jmp    0x5143
    4d72:	80 7d e7 25          	cmpb   $0x25,-0x19(%rbp)
    4d76:	74 26                	je     0x4d9e
    4d78:	48 8b 45 c8          	mov    -0x38(%rbp),%rax
    4d7c:	48 8d 50 01          	lea    0x1(%rax),%rdx
    4d80:	48 89 55 c8          	mov    %rdx,-0x38(%rbp)
    4d84:	0f b6 55 e7          	movzbl -0x19(%rbp),%edx
    4d88:	88 10                	mov    %dl,(%rax)
    4d8a:	48 83 45 e8 01       	addq   $0x1,-0x18(%rbp)
    4d8f:	48 8b 45 e8          	mov    -0x18(%rbp),%rax
    4d93:	0f b6 00             	movzbl (%rax),%eax
    4d96:	88 45 e7             	mov    %al,-0x19(%rbp)
    4d99:	e9 a5 03 00 00       	jmp    0x5143
    4d9e:	48 83 45 e8 01       	addq   $0x1,-0x18(%rbp)
    4da3:	48 8b 45 e8          	mov    -0x18(%rbp),%rax
    4da7:	0f b6 00             	movzbl (%rax),%eax
    4daa:	88 45 e7             	mov    %al,-0x19(%rbp)
    4dad:	0f be 45 e7          	movsbl -0x19(%rbp),%eax
    4db1:	83 f8 44             	cmp    $0x44,%eax
    4db4:	0f 84 f2 01 00 00    	je     0x4fac
    4dba:	83 f8 44             	cmp    $0x44,%eax
    4dbd:	0f 8c 80 03 00 00    	jl     0x5143
    4dc3:	83 f8 78             	cmp    $0x78,%eax
    4dc6:	0f 8f 77 03 00 00    	jg     0x5143
    4dcc:	83 f8 58             	cmp    $0x58,%eax
    4dcf:	0f 8c 6e 03 00 00    	jl     0x5143
    4dd5:	83 e8 58             	sub    $0x58,%eax
    4dd8:	83 f8 20             	cmp    $0x20,%eax
    4ddb:	0f 87 62 03 00 00    	ja     0x5143
    4de1:	89 c0                	mov    %eax,%eax
    4de3:	48 8d 14 c5 00 00 00 	lea    0x0(,%rax,8),%rdx
    4dea:	00 
    4deb:	48 8d 05 5e af 00 00 	lea    0xaf5e(%rip),%rax        # 0xfd50
    4df2:	48 8b 04 02          	mov    (%rdx,%rax,1),%rax
    4df6:	48 8d 15 53 af 00 00 	lea    0xaf53(%rip),%rdx        # 0xfd50
    4dfd:	48 01 d0             	add    %rdx,%rax
    4e00:	3e ff e0             	notrack jmp *%rax
    4e03:	48 8b 45 a8          	mov    -0x58(%rbp),%rax
    4e07:	8b 00                	mov    (%rax),%eax
    4e09:	83 f8 2f             	cmp    $0x2f,%eax
    4e0c:	77 24                	ja     0x4e32
    4e0e:	48 8b 45 a8          	mov    -0x58(%rbp),%rax
    4e12:	48 8b 50 10          	mov    0x10(%rax),%rdx
    4e16:	48 8b 45 a8          	mov    -0x58(%rbp),%rax
    4e1a:	8b 00                	mov    (%rax),%eax
    4e1c:	89 c0                	mov    %eax,%eax
    4e1e:	48 01 d0             	add    %rdx,%rax
    4e21:	48 8b 55 a8          	mov    -0x58(%rbp),%rdx
    4e25:	8b 12                	mov    (%rdx),%edx
    4e27:	8d 4a 08             	lea    0x8(%rdx),%ecx
    4e2a:	48 8b 55 a8          	mov    -0x58(%rbp),%rdx
    4e2e:	89 0a                	mov    %ecx,(%rdx)
    4e30:	eb 14                	jmp    0x4e46
    4e32:	48 8b 45 a8          	mov    -0x58(%rbp),%rax
    4e36:	48 8b 40 08          	mov    0x8(%rax),%rax
    4e3a:	48 8d 48 08          	lea    0x8(%rax),%rcx
    4e3e:	48 8b 55 a8          	mov    -0x58(%rbp),%rdx
    4e42:	48 89 4a 08          	mov    %rcx,0x8(%rdx)
    4e46:	48 8b 00             	mov    (%rax),%rax
    4e49:	48 89 45 d0          	mov    %rax,-0x30(%rbp)
    4e4d:	48 8b 45 c8          	mov    -0x38(%rbp),%rax
    4e51:	48 8b 55 d0          	mov    -0x30(%rbp),%rdx
    4e55:	48 89 d6             	mov    %rdx,%rsi
    4e58:	48 89 c7             	mov    %rax,%rdi
    4e5b:	49 89 df             	mov    %rbx,%r15
    4e5e:	48 b8 4d 58 ff ff ff 	movabs $0xffffffffffff584d,%rax
    4e65:	ff ff ff 
    4e68:	48 01 d8             	add    %rbx,%rax
    4e6b:	ff d0                	call   *%rax
    4e6d:	48 8b 45 d0          	mov    -0x30(%rbp),%rax
    4e71:	48 89 c7             	mov    %rax,%rdi
    4e74:	49 89 df             	mov    %rbx,%r15
    4e77:	48 b8 01 59 ff ff ff 	movabs $0xffffffffffff5901,%rax
    4e7e:	ff ff ff 
    4e81:	48 01 d8             	add    %rbx,%rax
    4e84:	ff d0                	call   *%rax
    4e86:	48 8b 55 c8          	mov    -0x38(%rbp),%rdx
    4e8a:	89 c0                	mov    %eax,%eax
    4e8c:	48 01 d0             	add    %rdx,%rax
    4e8f:	48 89 45 c8          	mov    %rax,-0x38(%rbp)
    4e93:	48 83 45 e8 01       	addq   $0x1,-0x18(%rbp)
    4e98:	48 8b 45 e8          	mov    -0x18(%rbp),%rax
    4e9c:	0f b6 00             	movzbl (%rax),%eax
    4e9f:	88 45 e7             	mov    %al,-0x19(%rbp)
    4ea2:	e9 9c 02 00 00       	jmp    0x5143
    4ea7:	48 8b 45 a8          	mov    -0x58(%rbp),%rax
    4eab:	8b 00                	mov    (%rax),%eax
    4ead:	83 f8 2f             	cmp    $0x2f,%eax
    4eb0:	77 24                	ja     0x4ed6
    4eb2:	48 8b 45 a8          	mov    -0x58(%rbp),%rax
    4eb6:	48 8b 50 10          	mov    0x10(%rax),%rdx
    4eba:	48 8b 45 a8          	mov    -0x58(%rbp),%rax
    4ebe:	8b 00                	mov    (%rax),%eax
    4ec0:	89 c0                	mov    %eax,%eax
    4ec2:	48 01 d0             	add    %rdx,%rax
    4ec5:	48 8b 55 a8          	mov    -0x58(%rbp),%rdx
    4ec9:	8b 12                	mov    (%rdx),%edx
    4ecb:	8d 4a 08             	lea    0x8(%rdx),%ecx
    4ece:	48 8b 55 a8          	mov    -0x58(%rbp),%rdx
    4ed2:	89 0a                	mov    %ecx,(%rdx)
    4ed4:	eb 14                	jmp    0x4eea
    4ed6:	48 8b 45 a8          	mov    -0x58(%rbp),%rax
    4eda:	48 8b 40 08          	mov    0x8(%rax),%rax
    4ede:	48 8d 48 08          	lea    0x8(%rax),%rcx
    4ee2:	48 8b 55 a8          	mov    -0x58(%rbp),%rdx
    4ee6:	48 89 4a 08          	mov    %rcx,0x8(%rdx)
    4eea:	8b 08                	mov    (%rax),%ecx
    4eec:	48 8b 45 c8          	mov    -0x38(%rbp),%rax
    4ef0:	48 8d 50 01          	lea    0x1(%rax),%rdx
    4ef4:	48 89 55 c8          	mov    %rdx,-0x38(%rbp)
    4ef8:	89 ca                	mov    %ecx,%edx
    4efa:	88 10                	mov    %dl,(%rax)
    4efc:	48 83 45 e8 01       	addq   $0x1,-0x18(%rbp)
    4f01:	48 8b 45 e8          	mov    -0x18(%rbp),%rax
    4f05:	0f b6 00             	movzbl (%rax),%eax
    4f08:	88 45 e7             	mov    %al,-0x19(%rbp)
    4f0b:	e9 33 02 00 00       	jmp    0x5143
    4f10:	48 8b 45 a8          	mov    -0x58(%rbp),%rax
    4f14:	8b 00                	mov    (%rax),%eax
    4f16:	83 f8 2f             	cmp    $0x2f,%eax
    4f19:	77 24                	ja     0x4f3f
    4f1b:	48 8b 45 a8          	mov    -0x58(%rbp),%rax
    4f1f:	48 8b 50 10          	mov    0x10(%rax),%rdx
    4f23:	48 8b 45 a8          	mov    -0x58(%rbp),%rax
    4f27:	8b 00                	mov    (%rax),%eax
    4f29:	89 c0                	mov    %eax,%eax
    4f2b:	48 01 d0             	add    %rdx,%rax
    4f2e:	48 8b 55 a8          	mov    -0x58(%rbp),%rdx
    4f32:	8b 12                	mov    (%rdx),%edx
    4f34:	8d 4a 08             	lea    0x8(%rdx),%ecx
    4f37:	48 8b 55 a8          	mov    -0x58(%rbp),%rdx
    4f3b:	89 0a                	mov    %ecx,(%rdx)
    4f3d:	eb 14                	jmp    0x4f53
    4f3f:	48 8b 45 a8          	mov    -0x58(%rbp),%rax
    4f43:	48 8b 40 08          	mov    0x8(%rax),%rax
    4f47:	48 8d 48 08          	lea    0x8(%rax),%rcx
    4f4b:	48 8b 55 a8          	mov    -0x58(%rbp),%rdx
    4f4f:	48 89 4a 08          	mov    %rcx,0x8(%rdx)
    4f53:	8b 00                	mov    (%rax),%eax
    4f55:	48 98                	cltq   
    4f57:	48 89 45 d8          	mov    %rax,-0x28(%rbp)
    4f5b:	48 83 7d d8 00       	cmpq   $0x0,-0x28(%rbp)
    4f60:	79 13                	jns    0x4f75
    4f62:	48 f7 5d d8          	negq   -0x28(%rbp)
    4f66:	48 8b 45 c8          	mov    -0x38(%rbp),%rax
    4f6a:	48 8d 50 01          	lea    0x1(%rax),%rdx
    4f6e:	48 89 55 c8          	mov    %rdx,-0x38(%rbp)
    4f72:	c6 00 2d             	movb   $0x2d,(%rax)
    4f75:	48 8b 45 d8          	mov    -0x28(%rbp),%rax
    4f79:	48 8d 4d c8          	lea    -0x38(%rbp),%rcx
    4f7d:	ba 0a 00 00 00       	mov    $0xa,%edx
    4f82:	48 89 ce             	mov    %rcx,%rsi
    4f85:	48 89 c7             	mov    %rax,%rdi
    4f88:	48 b8 0b 50 ff ff ff 	movabs $0xffffffffffff500b,%rax
    4f8f:	ff ff ff 
    4f92:	48 8d 04 03          	lea    (%rbx,%rax,1),%rax
    4f96:	ff d0                	call   *%rax
    4f98:	48 83 45 e8 01       	addq   $0x1,-0x18(%rbp)
    4f9d:	48 8b 45 e8          	mov    -0x18(%rbp),%rax
    4fa1:	0f b6 00             	movzbl (%rax),%eax
    4fa4:	88 45 e7             	mov    %al,-0x19(%rbp)
    4fa7:	e9 97 01 00 00       	jmp    0x5143
    4fac:	48 8b 45 a8          	mov    -0x58(%rbp),%rax
    4fb0:	8b 00                	mov    (%rax),%eax
    4fb2:	83 f8 2f             	cmp    $0x2f,%eax
    4fb5:	77 24                	ja     0x4fdb
    4fb7:	48 8b 45 a8          	mov    -0x58(%rbp),%rax
    4fbb:	48 8b 50 10          	mov    0x10(%rax),%rdx
    4fbf:	48 8b 45 a8          	mov    -0x58(%rbp),%rax
    4fc3:	8b 00                	mov    (%rax),%eax
    4fc5:	89 c0                	mov    %eax,%eax
    4fc7:	48 01 d0             	add    %rdx,%rax
    4fca:	48 8b 55 a8          	mov    -0x58(%rbp),%rdx
    4fce:	8b 12                	mov    (%rdx),%edx
    4fd0:	8d 4a 08             	lea    0x8(%rdx),%ecx
    4fd3:	48 8b 55 a8          	mov    -0x58(%rbp),%rdx
    4fd7:	89 0a                	mov    %ecx,(%rdx)
    4fd9:	eb 14                	jmp    0x4fef
    4fdb:	48 8b 45 a8          	mov    -0x58(%rbp),%rax
    4fdf:	48 8b 40 08          	mov    0x8(%rax),%rax
    4fe3:	48 8d 48 08          	lea    0x8(%rax),%rcx
    4fe7:	48 8b 55 a8          	mov    -0x58(%rbp),%rdx
    4feb:	48 89 4a 08          	mov    %rcx,0x8(%rdx)
    4fef:	48 8b 00             	mov    (%rax),%rax
    4ff2:	48 89 45 d8          	mov    %rax,-0x28(%rbp)
    4ff6:	48 83 7d d8 00       	cmpq   $0x0,-0x28(%rbp)
    4ffb:	79 13                	jns    0x5010
    4ffd:	48 f7 5d d8          	negq   -0x28(%rbp)
    5001:	48 8b 45 c8          	mov    -0x38(%rbp),%rax
    5005:	48 8d 50 01          	lea    0x1(%rax),%rdx
    5009:	48 89 55 c8          	mov    %rdx,-0x38(%rbp)
    500d:	c6 00 2d             	movb   $0x2d,(%rax)
    5010:	48 8b 45 d8          	mov    -0x28(%rbp),%rax
    5014:	48 8d 4d c8          	lea    -0x38(%rbp),%rcx
    5018:	ba 0a 00 00 00       	mov    $0xa,%edx
    501d:	48 89 ce             	mov    %rcx,%rsi
    5020:	48 89 c7             	mov    %rax,%rdi
    5023:	48 b8 0b 50 ff ff ff 	movabs $0xffffffffffff500b,%rax
    502a:	ff ff ff 
    502d:	48 8d 04 03          	lea    (%rbx,%rax,1),%rax
    5031:	ff d0                	call   *%rax
    5033:	48 83 45 e8 01       	addq   $0x1,-0x18(%rbp)
    5038:	48 8b 45 e8          	mov    -0x18(%rbp),%rax
    503c:	0f b6 00             	movzbl (%rax),%eax
    503f:	88 45 e7             	mov    %al,-0x19(%rbp)
    5042:	e9 fc 00 00 00       	jmp    0x5143
    5047:	48 8b 45 a8          	mov    -0x58(%rbp),%rax
    504b:	8b 00                	mov    (%rax),%eax
    504d:	83 f8 2f             	cmp    $0x2f,%eax
    5050:	77 24                	ja     0x5076
    5052:	48 8b 45 a8          	mov    -0x58(%rbp),%rax
    5056:	48 8b 50 10          	mov    0x10(%rax),%rdx
    505a:	48 8b 45 a8          	mov    -0x58(%rbp),%rax
    505e:	8b 00                	mov    (%rax),%eax
    5060:	89 c0                	mov    %eax,%eax
    5062:	48 01 d0             	add    %rdx,%rax
    5065:	48 8b 55 a8          	mov    -0x58(%rbp),%rdx
    5069:	8b 12                	mov    (%rdx),%edx
    506b:	8d 4a 08             	lea    0x8(%rdx),%ecx
    506e:	48 8b 55 a8          	mov    -0x58(%rbp),%rdx
    5072:	89 0a                	mov    %ecx,(%rdx)
    5074:	eb 14                	jmp    0x508a
    5076:	48 8b 45 a8          	mov    -0x58(%rbp),%rax
    507a:	48 8b 40 08          	mov    0x8(%rax),%rax
    507e:	48 8d 48 08          	lea    0x8(%rax),%rcx
    5082:	48 8b 55 a8          	mov    -0x58(%rbp),%rdx
    5086:	48 89 4a 08          	mov    %rcx,0x8(%rdx)
    508a:	8b 00                	mov    (%rax),%eax
    508c:	48 98                	cltq   
    508e:	48 89 45 d8          	mov    %rax,-0x28(%rbp)
    5092:	48 8b 45 d8          	mov    -0x28(%rbp),%rax
    5096:	48 8d 4d c8          	lea    -0x38(%rbp),%rcx
    509a:	ba 10 00 00 00       	mov    $0x10,%edx
    509f:	48 89 ce             	mov    %rcx,%rsi
    50a2:	48 89 c7             	mov    %rax,%rdi
    50a5:	48 b8 0b 50 ff ff ff 	movabs $0xffffffffffff500b,%rax
    50ac:	ff ff ff 
    50af:	48 8d 04 03          	lea    (%rbx,%rax,1),%rax
    50b3:	ff d0                	call   *%rax
    50b5:	48 83 45 e8 01       	addq   $0x1,-0x18(%rbp)
    50ba:	48 8b 45 e8          	mov    -0x18(%rbp),%rax
    50be:	0f b6 00             	movzbl (%rax),%eax
    50c1:	88 45 e7             	mov    %al,-0x19(%rbp)
    50c4:	eb 7d                	jmp    0x5143
    50c6:	48 8b 45 a8          	mov    -0x58(%rbp),%rax
    50ca:	8b 00                	mov    (%rax),%eax
    50cc:	83 f8 2f             	cmp    $0x2f,%eax
    50cf:	77 24                	ja     0x50f5
    50d1:	48 8b 45 a8          	mov    -0x58(%rbp),%rax
    50d5:	48 8b 50 10          	mov    0x10(%rax),%rdx
    50d9:	48 8b 45 a8          	mov    -0x58(%rbp),%rax
    50dd:	8b 00                	mov    (%rax),%eax
    50df:	89 c0                	mov    %eax,%eax
    50e1:	48 01 d0             	add    %rdx,%rax
    50e4:	48 8b 55 a8          	mov    -0x58(%rbp),%rdx
    50e8:	8b 12                	mov    (%rdx),%edx
    50ea:	8d 4a 08             	lea    0x8(%rdx),%ecx
    50ed:	48 8b 55 a8          	mov    -0x58(%rbp),%rdx
    50f1:	89 0a                	mov    %ecx,(%rdx)
    50f3:	eb 14                	jmp    0x5109
    50f5:	48 8b 45 a8          	mov    -0x58(%rbp),%rax
    50f9:	48 8b 40 08          	mov    0x8(%rax),%rax
    50fd:	48 8d 48 08          	lea    0x8(%rax),%rcx
    5101:	48 8b 55 a8          	mov    -0x58(%rbp),%rdx
    5105:	48 89 4a 08          	mov    %rcx,0x8(%rdx)
    5109:	48 8b 00             	mov    (%rax),%rax
    510c:	48 89 45 d8          	mov    %rax,-0x28(%rbp)
    5110:	48 8b 45 d8          	mov    -0x28(%rbp),%rax
    5114:	48 8d 4d c8          	lea    -0x38(%rbp),%rcx
    5118:	ba 10 00 00 00       	mov    $0x10,%edx
    511d:	48 89 ce             	mov    %rcx,%rsi
    5120:	48 89 c7             	mov    %rax,%rdi
    5123:	48 b8 0b 50 ff ff ff 	movabs $0xffffffffffff500b,%rax
    512a:	ff ff ff 
    512d:	48 8d 04 03          	lea    (%rbx,%rax,1),%rax
    5131:	ff d0                	call   *%rax
    5133:	48 83 45 e8 01       	addq   $0x1,-0x18(%rbp)
    5138:	48 8b 45 e8          	mov    -0x18(%rbp),%rax
    513c:	0f b6 00             	movzbl (%rax),%eax
    513f:	88 45 e7             	mov    %al,-0x19(%rbp)
    5142:	90                   	nop
    5143:	80 7d e7 00          	cmpb   $0x0,-0x19(%rbp)
    5147:	0f 85 25 fc ff ff    	jne    0x4d72
    514d:	48 8b 45 b8          	mov    -0x48(%rbp),%rax
    5151:	48 89 c7             	mov    %rax,%rdi
    5154:	49 89 df             	mov    %rbx,%r15
    5157:	48 b8 01 59 ff ff ff 	movabs $0xffffffffffff5901,%rax
    515e:	ff ff ff 
    5161:	48 01 d8             	add    %rbx,%rax
    5164:	ff d0                	call   *%rax
    5166:	48 83 c4 50          	add    $0x50,%rsp
    516a:	5b                   	pop    %rbx
    516b:	41 5f                	pop    %r15
    516d:	5d                   	pop    %rbp
    516e:	c3                   	ret    
    516f:	f3 0f 1e fa          	endbr64 
    5173:	55                   	push   %rbp
    5174:	48 89 e5             	mov    %rsp,%rbp
    5177:	48 81 ec e0 00 00 00 	sub    $0xe0,%rsp
    517e:	4c 8d 15 f9 ff ff ff 	lea    -0x7(%rip),%r10        # 0x517e
    5185:	49 bb da aa 00 00 00 	movabs $0xaada,%r11
    518c:	00 00 00 
    518f:	4d 01 da             	add    %r11,%r10
    5192:	48 89 bd 28 ff ff ff 	mov    %rdi,-0xd8(%rbp)
    5199:	48 89 b5 20 ff ff ff 	mov    %rsi,-0xe0(%rbp)
    51a0:	48 89 95 60 ff ff ff 	mov    %rdx,-0xa0(%rbp)
    51a7:	48 89 8d 68 ff ff ff 	mov    %rcx,-0x98(%rbp)
    51ae:	4c 89 85 70 ff ff ff 	mov    %r8,-0x90(%rbp)
    51b5:	4c 89 8d 78 ff ff ff 	mov    %r9,-0x88(%rbp)
    51bc:	84 c0                	test   %al,%al
    51be:	74 20                	je     0x51e0
    51c0:	0f 29 45 80          	movaps %xmm0,-0x80(%rbp)
    51c4:	0f 29 4d 90          	movaps %xmm1,-0x70(%rbp)
    51c8:	0f 29 55 a0          	movaps %xmm2,-0x60(%rbp)
    51cc:	0f 29 5d b0          	movaps %xmm3,-0x50(%rbp)
    51d0:	0f 29 65 c0          	movaps %xmm4,-0x40(%rbp)
    51d4:	0f 29 6d d0          	movaps %xmm5,-0x30(%rbp)
    51d8:	0f 29 75 e0          	movaps %xmm6,-0x20(%rbp)
    51dc:	0f 29 7d f0          	movaps %xmm7,-0x10(%rbp)
    51e0:	c7 85 30 ff ff ff 10 	movl   $0x10,-0xd0(%rbp)
    51e7:	00 00 00 
    51ea:	c7 85 34 ff ff ff 30 	movl   $0x30,-0xcc(%rbp)
    51f1:	00 00 00 
    51f4:	48 8d 45 10          	lea    0x10(%rbp),%rax
    51f8:	48 89 85 38 ff ff ff 	mov    %rax,-0xc8(%rbp)
    51ff:	48 8d 85 50 ff ff ff 	lea    -0xb0(%rbp),%rax
    5206:	48 89 85 40 ff ff ff 	mov    %rax,-0xc0(%rbp)
    520d:	48 8d 95 30 ff ff ff 	lea    -0xd0(%rbp),%rdx
    5214:	48 8b 8d 20 ff ff ff 	mov    -0xe0(%rbp),%rcx
    521b:	48 8b 85 28 ff ff ff 	mov    -0xd8(%rbp),%rax
    5222:	48 89 ce             	mov    %rcx,%rsi
    5225:	48 89 c7             	mov    %rax,%rdi
    5228:	48 b8 cc 50 ff ff ff 	movabs $0xffffffffffff50cc,%rax
    522f:	ff ff ff 
    5232:	49 8d 04 02          	lea    (%r10,%rax,1),%rax
    5236:	ff d0                	call   *%rax
    5238:	89 85 4c ff ff ff    	mov    %eax,-0xb4(%rbp)
    523e:	8b 85 4c ff ff ff    	mov    -0xb4(%rbp),%eax
    5244:	c9                   	leave  
    5245:	c3                   	ret    
    5246:	f3 0f 1e fa          	endbr64 
    524a:	55                   	push   %rbp
    524b:	48 89 e5             	mov    %rsp,%rbp
    524e:	41 57                	push   %r15
    5250:	48 83 ec 28          	sub    $0x28,%rsp
    5254:	48 8d 05 f9 ff ff ff 	lea    -0x7(%rip),%rax        # 0x5254
    525b:	49 bb 04 aa 00 00 00 	movabs $0xaa04,%r11
    5262:	00 00 00 
    5265:	4c 01 d8             	add    %r11,%rax
    5268:	48 89 7d d8          	mov    %rdi,-0x28(%rbp)
    526c:	89 f1                	mov    %esi,%ecx
    526e:	89 55 d0             	mov    %edx,-0x30(%rbp)
    5271:	89 ca                	mov    %ecx,%edx
    5273:	88 55 d4             	mov    %dl,-0x2c(%rbp)
    5276:	48 83 7d d8 00       	cmpq   $0x0,-0x28(%rbp)
    527b:	75 45                	jne    0x52c2
    527d:	48 ba 00 02 00 00 00 	movabs $0x200,%rdx
    5284:	00 00 00 
    5287:	48 8d 14 10          	lea    (%rax,%rdx,1),%rdx
    528b:	48 89 d1             	mov    %rdx,%rcx
    528e:	48 ba 78 02 00 00 00 	movabs $0x278,%rdx
    5295:	00 00 00 
    5298:	48 8d 14 10          	lea    (%rax,%rdx,1),%rdx
    529c:	be 06 00 00 00       	mov    $0x6,%esi
    52a1:	48 bf 0d 02 00 00 00 	movabs $0x20d,%rdi
    52a8:	00 00 00 
    52ab:	48 8d 3c 38          	lea    (%rax,%rdi,1),%rdi
    52af:	49 89 c7             	mov    %rax,%r15
    52b2:	49 b8 fa c8 ff ff ff 	movabs $0xffffffffffffc8fa,%r8
    52b9:	ff ff ff 
    52bc:	49 01 c0             	add    %rax,%r8
    52bf:	41 ff d0             	call   *%r8
    52c2:	48 8b 45 d8          	mov    -0x28(%rbp),%rax
    52c6:	48 89 45 e8          	mov    %rax,-0x18(%rbp)
    52ca:	eb 12                	jmp    0x52de
    52cc:	48 8b 45 e8          	mov    -0x18(%rbp),%rax
    52d0:	48 8d 50 01          	lea    0x1(%rax),%rdx
    52d4:	48 89 55 e8          	mov    %rdx,-0x18(%rbp)
    52d8:	0f b6 55 d4          	movzbl -0x2c(%rbp),%edx
    52dc:	88 10                	mov    %dl,(%rax)
    52de:	8b 45 d0             	mov    -0x30(%rbp),%eax
    52e1:	8d 50 ff             	lea    -0x1(%rax),%edx
    52e4:	89 55 d0             	mov    %edx,-0x30(%rbp)
    52e7:	85 c0                	test   %eax,%eax
    52e9:	75 e1                	jne    0x52cc
    52eb:	90                   	nop
    52ec:	90                   	nop
    52ed:	4c 8b 7d f8          	mov    -0x8(%rbp),%r15
    52f1:	c9                   	leave  
    52f2:	c3                   	ret    
    52f3:	f3 0f 1e fa          	endbr64 
    52f7:	55                   	push   %rbp
    52f8:	48 89 e5             	mov    %rsp,%rbp
    52fb:	41 57                	push   %r15
    52fd:	48 83 ec 38          	sub    $0x38,%rsp
    5301:	48 8d 05 f9 ff ff ff 	lea    -0x7(%rip),%rax        # 0x5301
    5308:	49 bb 57 a9 00 00 00 	movabs $0xa957,%r11
    530f:	00 00 00 
    5312:	4c 01 d8             	add    %r11,%rax
    5315:	48 89 7d d8          	mov    %rdi,-0x28(%rbp)
    5319:	48 89 75 d0          	mov    %rsi,-0x30(%rbp)
    531d:	89 55 cc             	mov    %edx,-0x34(%rbp)
    5320:	48 83 7d d8 00       	cmpq   $0x0,-0x28(%rbp)
    5325:	74 07                	je     0x532e
    5327:	48 83 7d d0 00       	cmpq   $0x0,-0x30(%rbp)
    532c:	75 45                	jne    0x5373
    532e:	48 ba 21 02 00 00 00 	movabs $0x221,%rdx
    5335:	00 00 00 
    5338:	48 8d 14 10          	lea    (%rax,%rdx,1),%rdx
    533c:	48 89 d1             	mov    %rdx,%rcx
    533f:	48 ba 7f 02 00 00 00 	movabs $0x27f,%rdx
    5346:	00 00 00 
    5349:	48 8d 14 10          	lea    (%rax,%rdx,1),%rdx
    534d:	be 0f 00 00 00       	mov    $0xf,%esi
    5352:	48 bf 0d 02 00 00 00 	movabs $0x20d,%rdi
    5359:	00 00 00 
    535c:	48 8d 3c 38          	lea    (%rax,%rdi,1),%rdi
    5360:	49 89 c7             	mov    %rax,%r15
    5363:	49 b8 fa c8 ff ff ff 	movabs $0xffffffffffffc8fa,%r8
    536a:	ff ff ff 
    536d:	49 01 c0             	add    %rax,%r8
    5370:	41 ff d0             	call   *%r8
    5373:	48 8b 45 d8          	mov    -0x28(%rbp),%rax
    5377:	48 89 45 e8          	mov    %rax,-0x18(%rbp)
    537b:	48 8b 45 d0          	mov    -0x30(%rbp),%rax
    537f:	48 89 45 e0          	mov    %rax,-0x20(%rbp)
    5383:	eb 1d                	jmp    0x53a2
    5385:	48 8b 55 e0          	mov    -0x20(%rbp),%rdx
    5389:	48 8d 42 01          	lea    0x1(%rdx),%rax
    538d:	48 89 45 e0          	mov    %rax,-0x20(%rbp)
    5391:	48 8b 45 e8          	mov    -0x18(%rbp),%rax
    5395:	48 8d 48 01          	lea    0x1(%rax),%rcx
    5399:	48 89 4d e8          	mov    %rcx,-0x18(%rbp)
    539d:	0f b6 12             	movzbl (%rdx),%edx
    53a0:	88 10                	mov    %dl,(%rax)
    53a2:	8b 45 cc             	mov    -0x34(%rbp),%eax
    53a5:	8d 50 ff             	lea    -0x1(%rax),%edx
    53a8:	89 55 cc             	mov    %edx,-0x34(%rbp)
    53ab:	85 c0                	test   %eax,%eax
    53ad:	75 d6                	jne    0x5385
    53af:	90                   	nop
    53b0:	90                   	nop
    53b1:	4c 8b 7d f8          	mov    -0x8(%rbp),%r15
    53b5:	c9                   	leave  
    53b6:	c3                   	ret    
    53b7:	f3 0f 1e fa          	endbr64 
    53bb:	55                   	push   %rbp
    53bc:	48 89 e5             	mov    %rsp,%rbp
    53bf:	41 57                	push   %r15
    53c1:	48 83 ec 38          	sub    $0x38,%rsp
    53c5:	48 8d 05 f9 ff ff ff 	lea    -0x7(%rip),%rax        # 0x53c5
    53cc:	49 bb 93 a8 00 00 00 	movabs $0xa893,%r11
    53d3:	00 00 00 
    53d6:	4c 01 d8             	add    %r11,%rax
    53d9:	48 89 7d d8          	mov    %rdi,-0x28(%rbp)
    53dd:	48 89 75 d0          	mov    %rsi,-0x30(%rbp)
    53e1:	89 55 cc             	mov    %edx,-0x34(%rbp)
    53e4:	48 8b 55 d8          	mov    -0x28(%rbp),%rdx
    53e8:	48 89 55 e8          	mov    %rdx,-0x18(%rbp)
    53ec:	48 8b 55 d0          	mov    -0x30(%rbp),%rdx
    53f0:	48 89 55 e0          	mov    %rdx,-0x20(%rbp)
    53f4:	48 83 7d e8 00       	cmpq   $0x0,-0x18(%rbp)
    53f9:	0f 85 8e 00 00 00    	jne    0x548d
    53ff:	48 83 7d e0 00       	cmpq   $0x0,-0x20(%rbp)
    5404:	0f 85 83 00 00 00    	jne    0x548d
    540a:	48 ba 3e 02 00 00 00 	movabs $0x23e,%rdx
    5411:	00 00 00 
    5414:	48 8d 14 10          	lea    (%rax,%rdx,1),%rdx
    5418:	48 89 d1             	mov    %rdx,%rcx
    541b:	48 ba 86 02 00 00 00 	movabs $0x286,%rdx
    5422:	00 00 00 
    5425:	48 8d 14 10          	lea    (%rax,%rdx,1),%rdx
    5429:	be 1a 00 00 00       	mov    $0x1a,%esi
    542e:	48 bf 0d 02 00 00 00 	movabs $0x20d,%rdi
    5435:	00 00 00 
    5438:	48 8d 3c 38          	lea    (%rax,%rdi,1),%rdi
    543c:	49 89 c7             	mov    %rax,%r15
    543f:	49 b8 fa c8 ff ff ff 	movabs $0xffffffffffffc8fa,%r8
    5446:	ff ff ff 
    5449:	49 01 c0             	add    %rax,%r8
    544c:	41 ff d0             	call   *%r8
    544f:	eb 3c                	jmp    0x548d
    5451:	48 8b 45 e8          	mov    -0x18(%rbp),%rax
    5455:	0f b6 10             	movzbl (%rax),%edx
    5458:	48 8b 45 e0          	mov    -0x20(%rbp),%rax
    545c:	0f b6 00             	movzbl (%rax),%eax
    545f:	38 c2                	cmp    %al,%dl
    5461:	74 20                	je     0x5483
    5463:	48 8b 45 e8          	mov    -0x18(%rbp),%rax
    5467:	0f b6 10             	movzbl (%rax),%edx
    546a:	48 8b 45 e0          	mov    -0x20(%rbp),%rax
    546e:	0f b6 00             	movzbl (%rax),%eax
    5471:	38 c2                	cmp    %al,%dl
    5473:	7e 07                	jle    0x547c
    5475:	b8 01 00 00 00       	mov    $0x1,%eax
    547a:	eb 23                	jmp    0x549f
    547c:	b8 ff ff ff ff       	mov    $0xffffffff,%eax
    5481:	eb 1c                	jmp    0x549f
    5483:	48 83 45 e8 01       	addq   $0x1,-0x18(%rbp)
    5488:	48 83 45 e0 01       	addq   $0x1,-0x20(%rbp)
    548d:	8b 45 cc             	mov    -0x34(%rbp),%eax
    5490:	8d 50 ff             	lea    -0x1(%rax),%edx
    5493:	89 55 cc             	mov    %edx,-0x34(%rbp)
    5496:	85 c0                	test   %eax,%eax
    5498:	75 b7                	jne    0x5451
    549a:	b8 00 00 00 00       	mov    $0x0,%eax
    549f:	4c 8b 7d f8          	mov    -0x8(%rbp),%r15
    54a3:	c9                   	leave  
    54a4:	c3                   	ret    
    54a5:	f3 0f 1e fa          	endbr64 
    54a9:	55                   	push   %rbp
    54aa:	48 89 e5             	mov    %rsp,%rbp
    54ad:	41 57                	push   %r15
    54af:	48 83 ec 28          	sub    $0x28,%rsp
    54b3:	48 8d 05 f9 ff ff ff 	lea    -0x7(%rip),%rax        # 0x54b3
    54ba:	49 bb a5 a7 00 00 00 	movabs $0xa7a5,%r11
    54c1:	00 00 00 
    54c4:	4c 01 d8             	add    %r11,%rax
    54c7:	48 89 7d d8          	mov    %rdi,-0x28(%rbp)
    54cb:	48 89 75 d0          	mov    %rsi,-0x30(%rbp)
    54cf:	48 83 7d d8 00       	cmpq   $0x0,-0x28(%rbp)
    54d4:	74 07                	je     0x54dd
    54d6:	48 83 7d d0 00       	cmpq   $0x0,-0x30(%rbp)
    54db:	75 45                	jne    0x5522
    54dd:	48 ba 21 02 00 00 00 	movabs $0x221,%rdx
    54e4:	00 00 00 
    54e7:	48 8d 14 10          	lea    (%rax,%rdx,1),%rdx
    54eb:	48 89 d1             	mov    %rdx,%rcx
    54ee:	48 ba 8d 02 00 00 00 	movabs $0x28d,%rdx
    54f5:	00 00 00 
    54f8:	48 8d 14 10          	lea    (%rax,%rdx,1),%rdx
    54fc:	be 27 00 00 00       	mov    $0x27,%esi
    5501:	48 bf 0d 02 00 00 00 	movabs $0x20d,%rdi
    5508:	00 00 00 
    550b:	48 8d 3c 38          	lea    (%rax,%rdi,1),%rdi
    550f:	49 89 c7             	mov    %rax,%r15
    5512:	49 b8 fa c8 ff ff ff 	movabs $0xffffffffffffc8fa,%r8
    5519:	ff ff ff 
    551c:	49 01 c0             	add    %rax,%r8
    551f:	41 ff d0             	call   *%r8
    5522:	48 8b 45 d8          	mov    -0x28(%rbp),%rax
    5526:	48 89 45 e8          	mov    %rax,-0x18(%rbp)
    552a:	90                   	nop
    552b:	48 8b 55 d0          	mov    -0x30(%rbp),%rdx
    552f:	48 8d 42 01          	lea    0x1(%rdx),%rax
    5533:	48 89 45 d0          	mov    %rax,-0x30(%rbp)
    5537:	48 8b 45 d8          	mov    -0x28(%rbp),%rax
    553b:	48 8d 48 01          	lea    0x1(%rax),%rcx
    553f:	48 89 4d d8          	mov    %rcx,-0x28(%rbp)
    5543:	0f b6 12             	movzbl (%rdx),%edx
    5546:	88 10                	mov    %dl,(%rax)
    5548:	0f b6 00             	movzbl (%rax),%eax
    554b:	84 c0                	test   %al,%al
    554d:	75 dc                	jne    0x552b
    554f:	48 8b 45 e8          	mov    -0x18(%rbp),%rax
    5553:	4c 8b 7d f8          	mov    -0x8(%rbp),%r15
    5557:	c9                   	leave  
    5558:	c3                   	ret    
    5559:	f3 0f 1e fa          	endbr64 
    555d:	55                   	push   %rbp
    555e:	48 89 e5             	mov    %rsp,%rbp
    5561:	41 57                	push   %r15
    5563:	48 83 ec 28          	sub    $0x28,%rsp
    5567:	48 8d 05 f9 ff ff ff 	lea    -0x7(%rip),%rax        # 0x5567
    556e:	49 bb f1 a6 00 00 00 	movabs $0xa6f1,%r11
    5575:	00 00 00 
    5578:	4c 01 d8             	add    %r11,%rax
    557b:	48 89 7d d8          	mov    %rdi,-0x28(%rbp)
    557f:	48 83 7d d8 00       	cmpq   $0x0,-0x28(%rbp)
    5584:	75 45                	jne    0x55cb
    5586:	48 ba 55 02 00 00 00 	movabs $0x255,%rdx
    558d:	00 00 00 
    5590:	48 8d 14 10          	lea    (%rax,%rdx,1),%rdx
    5594:	48 89 d1             	mov    %rdx,%rcx
    5597:	48 ba 94 02 00 00 00 	movabs $0x294,%rdx
    559e:	00 00 00 
    55a1:	48 8d 14 10          	lea    (%rax,%rdx,1),%rdx
    55a5:	be 2f 00 00 00       	mov    $0x2f,%esi
    55aa:	48 bf 0d 02 00 00 00 	movabs $0x20d,%rdi
    55b1:	00 00 00 
    55b4:	48 8d 3c 38          	lea    (%rax,%rdi,1),%rdi
    55b8:	49 89 c7             	mov    %rax,%r15
    55bb:	49 b8 fa c8 ff ff ff 	movabs $0xffffffffffffc8fa,%r8
    55c2:	ff ff ff 
    55c5:	49 01 c0             	add    %rax,%r8
    55c8:	41 ff d0             	call   *%r8
    55cb:	48 8b 45 d8          	mov    -0x28(%rbp),%rax
    55cf:	48 89 45 e8          	mov    %rax,-0x18(%rbp)
    55d3:	90                   	nop
    55d4:	48 8b 45 e8          	mov    -0x18(%rbp),%rax
    55d8:	48 8d 50 01          	lea    0x1(%rax),%rdx
    55dc:	48 89 55 e8          	mov    %rdx,-0x18(%rbp)
    55e0:	0f b6 00             	movzbl (%rax),%eax
    55e3:	84 c0                	test   %al,%al
    55e5:	75 ed                	jne    0x55d4
    55e7:	48 8b 45 e8          	mov    -0x18(%rbp),%rax
    55eb:	48 2b 45 d8          	sub    -0x28(%rbp),%rax
    55ef:	83 e8 01             	sub    $0x1,%eax
    55f2:	4c 8b 7d f8          	mov    -0x8(%rbp),%r15
    55f6:	c9                   	leave  
    55f7:	c3                   	ret    
    55f8:	f3 0f 1e fa          	endbr64 
    55fc:	55                   	push   %rbp
    55fd:	48 89 e5             	mov    %rsp,%rbp
    5600:	41 57                	push   %r15
    5602:	48 83 ec 18          	sub    $0x18,%rsp
    5606:	48 8d 05 f9 ff ff ff 	lea    -0x7(%rip),%rax        # 0x5606
    560d:	49 bb 52 a6 00 00 00 	movabs $0xa652,%r11
    5614:	00 00 00 
    5617:	4c 01 d8             	add    %r11,%rax
    561a:	48 89 7d e8          	mov    %rdi,-0x18(%rbp)
    561e:	48 89 75 e0          	mov    %rsi,-0x20(%rbp)
    5622:	48 83 7d e8 00       	cmpq   $0x0,-0x18(%rbp)
    5627:	74 07                	je     0x5630
    5629:	48 83 7d e0 00       	cmpq   $0x0,-0x20(%rbp)
    562e:	75 45                	jne    0x5675
    5630:	48 ba 61 02 00 00 00 	movabs $0x261,%rdx
    5637:	00 00 00 
    563a:	48 8d 14 10          	lea    (%rax,%rdx,1),%rdx
    563e:	48 89 d1             	mov    %rdx,%rcx
    5641:	48 ba 9b 02 00 00 00 	movabs $0x29b,%rdx
    5648:	00 00 00 
    564b:	48 8d 14 10          	lea    (%rax,%rdx,1),%rdx
    564f:	be 37 00 00 00       	mov    $0x37,%esi
    5654:	48 bf 0d 02 00 00 00 	movabs $0x20d,%rdi
    565b:	00 00 00 
    565e:	48 8d 3c 38          	lea    (%rax,%rdi,1),%rdi
    5662:	49 89 c7             	mov    %rax,%r15
    5665:	49 b8 fa c8 ff ff ff 	movabs $0xffffffffffffc8fa,%r8
    566c:	ff ff ff 
    566f:	49 01 c0             	add    %rax,%r8
    5672:	41 ff d0             	call   *%r8
    5675:	eb 0a                	jmp    0x5681
    5677:	48 83 45 e8 01       	addq   $0x1,-0x18(%rbp)
    567c:	48 83 45 e0 01       	addq   $0x1,-0x20(%rbp)
    5681:	48 8b 45 e8          	mov    -0x18(%rbp),%rax
    5685:	0f b6 00             	movzbl (%rax),%eax
    5688:	84 c0                	test   %al,%al
    568a:	74 12                	je     0x569e
    568c:	48 8b 45 e8          	mov    -0x18(%rbp),%rax
    5690:	0f b6 10             	movzbl (%rax),%edx
    5693:	48 8b 45 e0          	mov    -0x20(%rbp),%rax
    5697:	0f b6 00             	movzbl (%rax),%eax
    569a:	38 c2                	cmp    %al,%dl
    569c:	74 d9                	je     0x5677
    569e:	48 8b 45 e8          	mov    -0x18(%rbp),%rax
    56a2:	0f b6 10             	movzbl (%rax),%edx
    56a5:	48 8b 45 e0          	mov    -0x20(%rbp),%rax
    56a9:	0f b6 00             	movzbl (%rax),%eax
    56ac:	38 c2                	cmp    %al,%dl
    56ae:	7c 15                	jl     0x56c5
    56b0:	48 8b 45 e8          	mov    -0x18(%rbp),%rax
    56b4:	0f b6 10             	movzbl (%rax),%edx
    56b7:	48 8b 45 e0          	mov    -0x20(%rbp),%rax
    56bb:	0f b6 00             	movzbl (%rax),%eax
    56be:	38 c2                	cmp    %al,%dl
    56c0:	0f 9f c0             	setg   %al
    56c3:	eb 05                	jmp    0x56ca
    56c5:	b8 ff ff ff ff       	mov    $0xffffffff,%eax
    56ca:	4c 8b 7d f8          	mov    -0x8(%rbp),%r15
    56ce:	c9                   	leave  
    56cf:	c3                   	ret    
    56d0:	f3 0f 1e fa          	endbr64 
    56d4:	55                   	push   %rbp
    56d5:	48 89 e5             	mov    %rsp,%rbp
    56d8:	41 57                	push   %r15
    56da:	48 83 ec 18          	sub    $0x18,%rsp
    56de:	48 8d 05 f9 ff ff ff 	lea    -0x7(%rip),%rax        # 0x56de
    56e5:	49 bb 7a a5 00 00 00 	movabs $0xa57a,%r11
    56ec:	00 00 00 
    56ef:	4c 01 d8             	add    %r11,%rax
    56f2:	48 89 7d e8          	mov    %rdi,-0x18(%rbp)
    56f6:	89 f2                	mov    %esi,%edx
    56f8:	88 55 e4             	mov    %dl,-0x1c(%rbp)
    56fb:	48 83 7d e8 00       	cmpq   $0x0,-0x18(%rbp)
    5700:	75 64                	jne    0x5766
    5702:	48 ba 55 02 00 00 00 	movabs $0x255,%rdx
    5709:	00 00 00 
    570c:	48 8d 14 10          	lea    (%rax,%rdx,1),%rdx
    5710:	48 89 d1             	mov    %rdx,%rcx
    5713:	48 ba a2 02 00 00 00 	movabs $0x2a2,%rdx
    571a:	00 00 00 
    571d:	48 8d 14 10          	lea    (%rax,%rdx,1),%rdx
    5721:	be 43 00 00 00       	mov    $0x43,%esi
    5726:	48 bf 0d 02 00 00 00 	movabs $0x20d,%rdi
    572d:	00 00 00 
    5730:	48 8d 3c 38          	lea    (%rax,%rdi,1),%rdi
    5734:	49 89 c7             	mov    %rax,%r15
    5737:	49 b8 fa c8 ff ff ff 	movabs $0xffffffffffffc8fa,%r8
    573e:	ff ff ff 
    5741:	49 01 c0             	add    %rax,%r8
    5744:	41 ff d0             	call   *%r8
    5747:	eb 1d                	jmp    0x5766
    5749:	48 8b 45 e8          	mov    -0x18(%rbp),%rax
    574d:	0f b6 00             	movzbl (%rax),%eax
    5750:	0f be d0             	movsbl %al,%edx
    5753:	0f b6 45 e4          	movzbl -0x1c(%rbp),%eax
    5757:	39 c2                	cmp    %eax,%edx
    5759:	75 06                	jne    0x5761
    575b:	48 8b 45 e8          	mov    -0x18(%rbp),%rax
    575f:	eb 15                	jmp    0x5776
    5761:	48 83 45 e8 01       	addq   $0x1,-0x18(%rbp)
    5766:	48 8b 45 e8          	mov    -0x18(%rbp),%rax
    576a:	0f b6 00             	movzbl (%rax),%eax
    576d:	84 c0                	test   %al,%al
    576f:	75 d8                	jne    0x5749
    5771:	b8 00 00 00 00       	mov    $0x0,%eax
    5776:	4c 8b 7d f8          	mov    -0x8(%rbp),%r15
    577a:	c9                   	leave  
    577b:	c3                   	ret    
    577c:	f3 0f 1e fa          	endbr64 
    5780:	55                   	push   %rbp
    5781:	48 89 e5             	mov    %rsp,%rbp
    5784:	41 57                	push   %r15
    5786:	48 83 ec 28          	sub    $0x28,%rsp
    578a:	48 8d 05 f9 ff ff ff 	lea    -0x7(%rip),%rax        # 0x578a
    5791:	49 bb ce a4 00 00 00 	movabs $0xa4ce,%r11
    5798:	00 00 00 
    579b:	4c 01 d8             	add    %r11,%rax
    579e:	48 89 7d d8          	mov    %rdi,-0x28(%rbp)
    57a2:	89 f2                	mov    %esi,%edx
    57a4:	88 55 d4             	mov    %dl,-0x2c(%rbp)
    57a7:	48 83 7d d8 00       	cmpq   $0x0,-0x28(%rbp)
    57ac:	75 45                	jne    0x57f3
    57ae:	48 ba 55 02 00 00 00 	movabs $0x255,%rdx
    57b5:	00 00 00 
    57b8:	48 8d 14 10          	lea    (%rax,%rdx,1),%rdx
    57bc:	48 89 d1             	mov    %rdx,%rcx
    57bf:	48 ba b0 02 00 00 00 	movabs $0x2b0,%rdx
    57c6:	00 00 00 
    57c9:	48 8d 14 10          	lea    (%rax,%rdx,1),%rdx
    57cd:	be 4f 00 00 00       	mov    $0x4f,%esi
    57d2:	48 bf 0d 02 00 00 00 	movabs $0x20d,%rdi
    57d9:	00 00 00 
    57dc:	48 8d 3c 38          	lea    (%rax,%rdi,1),%rdi
    57e0:	49 89 c7             	mov    %rax,%r15
    57e3:	49 b8 fa c8 ff ff ff 	movabs $0xffffffffffffc8fa,%r8
    57ea:	ff ff ff 
    57ed:	49 01 c0             	add    %rax,%r8
    57f0:	41 ff d0             	call   *%r8
    57f3:	48 c7 45 e8 00 00 00 	movq   $0x0,-0x18(%rbp)
    57fa:	00 
    57fb:	eb 1f                	jmp    0x581c
    57fd:	48 8b 45 d8          	mov    -0x28(%rbp),%rax
    5801:	0f b6 00             	movzbl (%rax),%eax
    5804:	0f be d0             	movsbl %al,%edx
    5807:	0f b6 45 d4          	movzbl -0x2c(%rbp),%eax
    580b:	39 c2                	cmp    %eax,%edx
    580d:	75 08                	jne    0x5817
    580f:	48 8b 45 d8          	mov    -0x28(%rbp),%rax
    5813:	48 89 45 e8          	mov    %rax,-0x18(%rbp)
    5817:	48 83 45 d8 01       	addq   $0x1,-0x28(%rbp)
    581c:	48 8b 45 d8          	mov    -0x28(%rbp),%rax
    5820:	0f b6 00             	movzbl (%rax),%eax
    5823:	84 c0                	test   %al,%al
    5825:	75 d6                	jne    0x57fd
    5827:	48 8b 45 e8          	mov    -0x18(%rbp),%rax
    582b:	4c 8b 7d f8          	mov    -0x8(%rbp),%r15
    582f:	c9                   	leave  
    5830:	c3                   	ret    
    5831:	f3 0f 1e fa          	endbr64 
    5835:	55                   	push   %rbp
    5836:	48 89 e5             	mov    %rsp,%rbp
    5839:	41 57                	push   %r15
    583b:	48 83 ec 28          	sub    $0x28,%rsp
    583f:	48 8d 05 f9 ff ff ff 	lea    -0x7(%rip),%rax        # 0x583f
    5846:	49 bb 19 a4 00 00 00 	movabs $0xa419,%r11
    584d:	00 00 00 
    5850:	4c 01 d8             	add    %r11,%rax
    5853:	48 89 7d d8          	mov    %rdi,-0x28(%rbp)
    5857:	48 89 75 d0          	mov    %rsi,-0x30(%rbp)
    585b:	48 83 7d d8 00       	cmpq   $0x0,-0x28(%rbp)
    5860:	74 07                	je     0x5869
    5862:	48 83 7d d0 00       	cmpq   $0x0,-0x30(%rbp)
    5867:	75 45                	jne    0x58ae
    5869:	48 ba 21 02 00 00 00 	movabs $0x221,%rdx
    5870:	00 00 00 
    5873:	48 8d 14 10          	lea    (%rax,%rdx,1),%rdx
    5877:	48 89 d1             	mov    %rdx,%rcx
    587a:	48 ba b8 02 00 00 00 	movabs $0x2b8,%rdx
    5881:	00 00 00 
    5884:	48 8d 14 10          	lea    (%rax,%rdx,1),%rdx
    5888:	be 5d 00 00 00       	mov    $0x5d,%esi
    588d:	48 bf 0d 02 00 00 00 	movabs $0x20d,%rdi
    5894:	00 00 00 
    5897:	48 8d 3c 38          	lea    (%rax,%rdi,1),%rdi
    589b:	49 89 c7             	mov    %rax,%r15
    589e:	49 b8 fa c8 ff ff ff 	movabs $0xffffffffffffc8fa,%r8
    58a5:	ff ff ff 
    58a8:	49 01 c0             	add    %rax,%r8
    58ab:	41 ff d0             	call   *%r8
    58ae:	48 8b 45 d8          	mov    -0x28(%rbp),%rax
    58b2:	48 89 45 e8          	mov    %rax,-0x18(%rbp)
    58b6:	90                   	nop
    58b7:	48 8b 45 e8          	mov    -0x18(%rbp),%rax
    58bb:	48 8d 50 01          	lea    0x1(%rax),%rdx
    58bf:	48 89 55 e8          	mov    %rdx,-0x18(%rbp)
    58c3:	0f b6 00             	movzbl (%rax),%eax
    58c6:	84 c0                	test   %al,%al
    58c8:	75 ed                	jne    0x58b7
    58ca:	48 83 6d e8 01       	subq   $0x1,-0x18(%rbp)
    58cf:	90                   	nop
    58d0:	48 8b 55 d0          	mov    -0x30(%rbp),%rdx
    58d4:	48 8d 42 01          	lea    0x1(%rdx),%rax
    58d8:	48 89 45 d0          	mov    %rax,-0x30(%rbp)
    58dc:	48 8b 45 e8          	mov    -0x18(%rbp),%rax
    58e0:	48 8d 48 01          	lea    0x1(%rax),%rcx
    58e4:	48 89 4d e8          	mov    %rcx,-0x18(%rbp)
    58e8:	0f b6 12             	movzbl (%rdx),%edx
    58eb:	88 10                	mov    %dl,(%rax)
    58ed:	0f b6 00             	movzbl (%rax),%eax
    58f0:	84 c0                	test   %al,%al
    58f2:	75 dc                	jne    0x58d0
    58f4:	48 8b 45 d8          	mov    -0x28(%rbp),%rax
    58f8:	4c 8b 7d f8          	mov    -0x8(%rbp),%r15
    58fc:	c9                   	leave  
    58fd:	c3                   	ret    
    58fe:	f3 0f 1e fa          	endbr64 
    5902:	55                   	push   %rbp
    5903:	48 89 e5             	mov    %rsp,%rbp
    5906:	41 57                	push   %r15
    5908:	48 83 ec 28          	sub    $0x28,%rsp
    590c:	48 8d 05 f9 ff ff ff 	lea    -0x7(%rip),%rax        # 0x590c
    5913:	49 bb 4c a3 00 00 00 	movabs $0xa34c,%r11
    591a:	00 00 00 
    591d:	4c 01 d8             	add    %r11,%rax
    5920:	48 89 7d d8          	mov    %rdi,-0x28(%rbp)
    5924:	89 f2                	mov    %esi,%edx
    5926:	88 55 d4             	mov    %dl,-0x2c(%rbp)
    5929:	48 83 7d d8 00       	cmpq   $0x0,-0x28(%rbp)
    592e:	75 45                	jne    0x5975
    5930:	48 ba 55 02 00 00 00 	movabs $0x255,%rdx
    5937:	00 00 00 
    593a:	48 8d 14 10          	lea    (%rax,%rdx,1),%rdx
    593e:	48 89 d1             	mov    %rdx,%rcx
    5941:	48 ba c0 02 00 00 00 	movabs $0x2c0,%rdx
    5948:	00 00 00 
    594b:	48 8d 14 10          	lea    (%rax,%rdx,1),%rdx
    594f:	be 67 00 00 00       	mov    $0x67,%esi
    5954:	48 bf 0d 02 00 00 00 	movabs $0x20d,%rdi
    595b:	00 00 00 
    595e:	48 8d 3c 38          	lea    (%rax,%rdi,1),%rdi
    5962:	49 89 c7             	mov    %rax,%r15
    5965:	49 b8 fa c8 ff ff ff 	movabs $0xffffffffffffc8fa,%r8
    596c:	ff ff ff 
    596f:	49 01 c0             	add    %rax,%r8
    5972:	41 ff d0             	call   *%r8
    5975:	c7 45 ec 00 00 00 00 	movl   $0x0,-0x14(%rbp)
    597c:	48 8b 45 d8          	mov    -0x28(%rbp),%rax
    5980:	48 89 45 e0          	mov    %rax,-0x20(%rbp)
    5984:	eb 1b                	jmp    0x59a1
    5986:	48 8b 45 e0          	mov    -0x20(%rbp),%rax
    598a:	0f b6 00             	movzbl (%rax),%eax
    598d:	0f be d0             	movsbl %al,%edx
    5990:	0f b6 45 d4          	movzbl -0x2c(%rbp),%eax
    5994:	39 c2                	cmp    %eax,%edx
    5996:	75 04                	jne    0x599c
    5998:	83 45 ec 01          	addl   $0x1,-0x14(%rbp)
    599c:	48 83 45 e0 01       	addq   $0x1,-0x20(%rbp)
    59a1:	48 8b 45 e0          	mov    -0x20(%rbp),%rax
    59a5:	0f b6 00             	movzbl (%rax),%eax
    59a8:	84 c0                	test   %al,%al
    59aa:	75 da                	jne    0x5986
    59ac:	8b 45 ec             	mov    -0x14(%rbp),%eax
    59af:	4c 8b 7d f8          	mov    -0x8(%rbp),%r15
    59b3:	c9                   	leave  
    59b4:	c3                   	ret    
    59b5:	f3 0f 1e fa          	endbr64 
    59b9:	55                   	push   %rbp
    59ba:	48 89 e5             	mov    %rsp,%rbp
    59bd:	41 57                	push   %r15
    59bf:	53                   	push   %rbx
    59c0:	48 83 ec 20          	sub    $0x20,%rsp
    59c4:	48 8d 1d f9 ff ff ff 	lea    -0x7(%rip),%rbx        # 0x59c4
    59cb:	49 bb 94 a2 00 00 00 	movabs $0xa294,%r11
    59d2:	00 00 00 
    59d5:	4c 01 db             	add    %r11,%rbx
    59d8:	48 89 7d d8          	mov    %rdi,-0x28(%rbp)
    59dc:	48 89 75 d0          	mov    %rsi,-0x30(%rbp)
    59e0:	66 c7 45 ec 60 00    	movw   $0x60,-0x14(%rbp)
    59e6:	c6 45 eb 00          	movb   $0x0,-0x15(%rbp)
    59ea:	0f b7 45 ec          	movzwl -0x14(%rbp),%eax
    59ee:	89 c2                	mov    %eax,%edx
    59f0:	ec                   	in     (%dx),%al
    59f1:	0f ae f0             	mfence 
    59f4:	88 45 eb             	mov    %al,-0x15(%rbp)
    59f7:	0f b6 45 eb          	movzbl -0x15(%rbp),%eax
    59fb:	88 45 ef             	mov    %al,-0x11(%rbp)
    59fe:	48 b8 08 10 00 00 00 	movabs $0x1008,%rax
    5a05:	00 00 00 
    5a08:	48 8d 04 03          	lea    (%rbx,%rax,1),%rax
    5a0c:	48 89 c7             	mov    %rax,%rdi
    5a0f:	49 89 df             	mov    %rbx,%r15
    5a12:	48 b8 ff bb ff ff ff 	movabs $0xffffffffffffbbff,%rax
    5a19:	ff ff ff 
    5a1c:	48 01 d8             	add    %rbx,%rax
    5a1f:	ff d0                	call   *%rax
    5a21:	85 c0                	test   %eax,%eax
    5a23:	75 29                	jne    0x5a4e
    5a25:	0f b6 45 ef          	movzbl -0x11(%rbp),%eax
    5a29:	89 c6                	mov    %eax,%esi
    5a2b:	48 b8 08 10 00 00 00 	movabs $0x1008,%rax
    5a32:	00 00 00 
    5a35:	48 8d 04 03          	lea    (%rbx,%rax,1),%rax
    5a39:	48 89 c7             	mov    %rax,%rdi
    5a3c:	49 89 df             	mov    %rbx,%r15
    5a3f:	48 b8 31 bb ff ff ff 	movabs $0xffffffffffffbb31,%rax
    5a46:	ff ff ff 
    5a49:	48 01 d8             	add    %rbx,%rax
    5a4c:	ff d0                	call   *%rax
    5a4e:	48 8b 45 d0          	mov    -0x30(%rbp),%rax
    5a52:	48 89 c7             	mov    %rax,%rdi
    5a55:	49 89 df             	mov    %rbx,%r15
    5a58:	48 b8 7d ba ff ff ff 	movabs $0xffffffffffffba7d,%rax
    5a5f:	ff ff ff 
    5a62:	48 01 d8             	add    %rbx,%rax
    5a65:	ff d0                	call   *%rax
    5a67:	90                   	nop
    5a68:	48 83 c4 20          	add    $0x20,%rsp
    5a6c:	5b                   	pop    %rbx
    5a6d:	41 5f                	pop    %r15
    5a6f:	5d                   	pop    %rbp
    5a70:	c3                   	ret    
    5a71:	f3 0f 1e fa          	endbr64 
    5a75:	55                   	push   %rbp
    5a76:	48 89 e5             	mov    %rsp,%rbp
    5a79:	41 57                	push   %r15
    5a7b:	53                   	push   %rbx
    5a7c:	48 83 ec 10          	sub    $0x10,%rsp
    5a80:	48 8d 1d f9 ff ff ff 	lea    -0x7(%rip),%rbx        # 0x5a80
    5a87:	49 bb d8 a1 00 00 00 	movabs $0xa1d8,%r11
    5a8e:	00 00 00 
    5a91:	4c 01 db             	add    %r11,%rbx
    5a94:	49 89 df             	mov    %rbx,%r15
    5a97:	48 b8 ff b8 ff ff ff 	movabs $0xffffffffffffb8ff,%rax
    5a9e:	ff ff ff 
    5aa1:	48 01 d8             	add    %rbx,%rax
    5aa4:	ff d0                	call   *%rax
    5aa6:	66 c7 45 ea 64 00    	movw   $0x64,-0x16(%rbp)
    5aac:	c6 45 e9 d4          	movb   $0xd4,-0x17(%rbp)
    5ab0:	0f b6 45 e9          	movzbl -0x17(%rbp),%eax
    5ab4:	0f b7 55 ea          	movzwl -0x16(%rbp),%edx
    5ab8:	ee                   	out    %al,(%dx)
    5ab9:	0f ae f0             	mfence 
    5abc:	90                   	nop
    5abd:	49 89 df             	mov    %rbx,%r15
    5ac0:	48 b8 ff b8 ff ff ff 	movabs $0xffffffffffffb8ff,%rax
    5ac7:	ff ff ff 
    5aca:	48 01 d8             	add    %rbx,%rax
    5acd:	ff d0                	call   *%rax
    5acf:	66 c7 45 ee 60 00    	movw   $0x60,-0x12(%rbp)
    5ad5:	c6 45 ed f4          	movb   $0xf4,-0x13(%rbp)
    5ad9:	0f b6 45 ed          	movzbl -0x13(%rbp),%eax
    5add:	0f b7 55 ee          	movzwl -0x12(%rbp),%edx
    5ae1:	ee                   	out    %al,(%dx)
    5ae2:	0f ae f0             	mfence 
    5ae5:	90                   	nop
    5ae6:	90                   	nop
    5ae7:	48 83 c4 10          	add    $0x10,%rsp
    5aeb:	5b                   	pop    %rbx
    5aec:	41 5f                	pop    %r15
    5aee:	5d                   	pop    %rbp
    5aef:	c3                   	ret    
    5af0:	f3 0f 1e fa          	endbr64 
    5af4:	55                   	push   %rbp
    5af5:	48 89 e5             	mov    %rsp,%rbp
    5af8:	41 57                	push   %r15
    5afa:	53                   	push   %rbx
    5afb:	48 8d 1d f9 ff ff ff 	lea    -0x7(%rip),%rbx        # 0x5afb
    5b02:	49 bb 5d a1 00 00 00 	movabs $0xa15d,%r11
    5b09:	00 00 00 
    5b0c:	4c 01 db             	add    %r11,%rbx
    5b0f:	ba 40 00 00 00       	mov    $0x40,%edx
    5b14:	48 b8 28 10 00 00 00 	movabs $0x1028,%rax
    5b1b:	00 00 00 
    5b1e:	48 8d 04 03          	lea    (%rbx,%rax,1),%rax
    5b22:	48 89 c6             	mov    %rax,%rsi
    5b25:	48 b8 08 10 00 00 00 	movabs $0x1008,%rax
    5b2c:	00 00 00 
    5b2f:	48 8d 04 03          	lea    (%rbx,%rax,1),%rax
    5b33:	48 89 c7             	mov    %rax,%rdi
    5b36:	49 89 df             	mov    %rbx,%r15
    5b39:	48 b8 dc ba ff ff ff 	movabs $0xffffffffffffbadc,%rax
    5b40:	ff ff ff 
    5b43:	48 01 d8             	add    %rbx,%rax
    5b46:	ff d0                	call   *%rax
    5b48:	48 b8 5d 5d ff ff ff 	movabs $0xffffffffffff5d5d,%rax
    5b4f:	ff ff ff 
    5b52:	48 8d 04 03          	lea    (%rbx,%rax,1),%rax
    5b56:	48 89 c6             	mov    %rax,%rsi
    5b59:	bf 2c 00 00 00       	mov    $0x2c,%edi
    5b5e:	49 89 df             	mov    %rbx,%r15
    5b61:	48 b8 b8 a3 ff ff ff 	movabs $0xffffffffffffa3b8,%rax
    5b68:	ff ff ff 
    5b6b:	48 01 d8             	add    %rbx,%rax
    5b6e:	ff d0                	call   *%rax
    5b70:	48 b8 19 5e ff ff ff 	movabs $0xffffffffffff5e19,%rax
    5b77:	ff ff ff 
    5b7a:	48 8d 04 03          	lea    (%rbx,%rax,1),%rax
    5b7e:	ff d0                	call   *%rax
    5b80:	48 b8 70 10 00 00 00 	movabs $0x1070,%rax
    5b87:	00 00 00 
    5b8a:	48 8b 04 03          	mov    (%rbx,%rax,1),%rax
    5b8e:	8b 00                	mov    (%rax),%eax
    5b90:	d1 e8                	shr    %eax
    5b92:	89 c2                	mov    %eax,%edx
    5b94:	48 b8 68 10 00 00 00 	movabs $0x1068,%rax
    5b9b:	00 00 00 
    5b9e:	89 14 03             	mov    %edx,(%rbx,%rax,1)
    5ba1:	48 b8 70 10 00 00 00 	movabs $0x1070,%rax
    5ba8:	00 00 00 
    5bab:	48 8b 04 03          	mov    (%rbx,%rax,1),%rax
    5baf:	8b 40 04             	mov    0x4(%rax),%eax
    5bb2:	d1 e8                	shr    %eax
    5bb4:	89 c2                	mov    %eax,%edx
    5bb6:	48 b8 6c 10 00 00 00 	movabs $0x106c,%rax
    5bbd:	00 00 00 
    5bc0:	89 14 03             	mov    %edx,(%rbx,%rax,1)
    5bc3:	b8 00 00 00 00       	mov    $0x0,%eax
    5bc8:	48 ba 86 5f ff ff ff 	movabs $0xffffffffffff5f86,%rdx
    5bcf:	ff ff ff 
    5bd2:	48 8d 14 13          	lea    (%rbx,%rdx,1),%rdx
    5bd6:	ff d2                	call   *%rdx
    5bd8:	90                   	nop
    5bd9:	5b                   	pop    %rbx
    5bda:	41 5f                	pop    %r15
    5bdc:	5d                   	pop    %rbp
    5bdd:	c3                   	ret    
    5bde:	f3 0f 1e fa          	endbr64 
    5be2:	55                   	push   %rbp
    5be3:	48 89 e5             	mov    %rsp,%rbp
    5be6:	41 57                	push   %r15
    5be8:	53                   	push   %rbx
    5be9:	48 83 ec 20          	sub    $0x20,%rsp
    5bed:	48 8d 1d f9 ff ff ff 	lea    -0x7(%rip),%rbx        # 0x5bed
    5bf4:	49 bb 6b a0 00 00 00 	movabs $0xa06b,%r11
    5bfb:	00 00 00 
    5bfe:	4c 01 db             	add    %r11,%rbx
    5c01:	c7 45 e8 00 00 00 00 	movl   $0x0,-0x18(%rbp)
    5c08:	e9 ac 01 00 00       	jmp    0x5db9
    5c0d:	c7 45 ec 00 00 00 00 	movl   $0x0,-0x14(%rbp)
    5c14:	e9 92 01 00 00       	jmp    0x5dab
    5c19:	48 ba 28 db ff ff ff 	movabs $0xffffffffffffdb28,%rdx
    5c20:	ff ff ff 
    5c23:	8b 45 ec             	mov    -0x14(%rbp),%eax
    5c26:	48 63 c8             	movslq %eax,%rcx
    5c29:	8b 45 e8             	mov    -0x18(%rbp),%eax
    5c2c:	48 98                	cltq   
    5c2e:	48 01 da             	add    %rbx,%rdx
    5c31:	48 c1 e0 04          	shl    $0x4,%rax
    5c35:	48 01 c8             	add    %rcx,%rax
    5c38:	48 01 d0             	add    %rdx,%rax
    5c3b:	0f b6 00             	movzbl (%rax),%eax
    5c3e:	3c 2a                	cmp    $0x2a,%al
    5c40:	75 5a                	jne    0x5c9c
    5c42:	8b 4d dc             	mov    -0x24(%rbp),%ecx
    5c45:	b1 00                	mov    $0x0,%cl
    5c47:	b8 00 00 00 00       	mov    $0x0,%eax
    5c4c:	88 c5                	mov    %al,%ch
    5c4e:	81 e1 ff ff 00 ff    	and    $0xff00ffff,%ecx
    5c54:	89 c8                	mov    %ecx,%eax
    5c56:	25 ff ff ff 00       	and    $0xffffff,%eax
    5c5b:	89 45 dc             	mov    %eax,-0x24(%rbp)
    5c5e:	48 b8 6c 10 00 00 00 	movabs $0x106c,%rax
    5c65:	00 00 00 
    5c68:	8b 14 03             	mov    (%rbx,%rax,1),%edx
    5c6b:	8b 45 e8             	mov    -0x18(%rbp),%eax
    5c6e:	8d 0c 02             	lea    (%rdx,%rax,1),%ecx
    5c71:	48 b8 68 10 00 00 00 	movabs $0x1068,%rax
    5c78:	00 00 00 
    5c7b:	8b 14 03             	mov    (%rbx,%rax,1),%edx
    5c7e:	8b 45 ec             	mov    -0x14(%rbp),%eax
    5c81:	01 d0                	add    %edx,%eax
    5c83:	8b 55 dc             	mov    -0x24(%rbp),%edx
    5c86:	89 ce                	mov    %ecx,%esi
    5c88:	89 c7                	mov    %eax,%edi
    5c8a:	49 89 df             	mov    %rbx,%r15
    5c8d:	48 b8 8c 47 ff ff ff 	movabs $0xffffffffffff478c,%rax
    5c94:	ff ff ff 
    5c97:	48 01 d8             	add    %rbx,%rax
    5c9a:	ff d0                	call   *%rax
    5c9c:	48 ba 28 db ff ff ff 	movabs $0xffffffffffffdb28,%rdx
    5ca3:	ff ff ff 
    5ca6:	8b 45 ec             	mov    -0x14(%rbp),%eax
    5ca9:	48 63 c8             	movslq %eax,%rcx
    5cac:	8b 45 e8             	mov    -0x18(%rbp),%eax
    5caf:	48 98                	cltq   
    5cb1:	48 01 da             	add    %rbx,%rdx
    5cb4:	48 c1 e0 04          	shl    $0x4,%rax
    5cb8:	48 01 c8             	add    %rcx,%rax
    5cbb:	48 01 d0             	add    %rdx,%rax
    5cbe:	0f b6 00             	movzbl (%rax),%eax
    5cc1:	3c 4f                	cmp    $0x4f,%al
    5cc3:	75 5a                	jne    0x5d1f
    5cc5:	8b 4d d8             	mov    -0x28(%rbp),%ecx
    5cc8:	b1 ff                	mov    $0xff,%cl
    5cca:	b8 ff ff ff ff       	mov    $0xffffffff,%eax
    5ccf:	88 c5                	mov    %al,%ch
    5cd1:	81 c9 00 00 ff 00    	or     $0xff0000,%ecx
    5cd7:	89 c8                	mov    %ecx,%eax
    5cd9:	25 ff ff ff 00       	and    $0xffffff,%eax
    5cde:	89 45 d8             	mov    %eax,-0x28(%rbp)
    5ce1:	48 b8 6c 10 00 00 00 	movabs $0x106c,%rax
    5ce8:	00 00 00 
    5ceb:	8b 14 03             	mov    (%rbx,%rax,1),%edx
    5cee:	8b 45 e8             	mov    -0x18(%rbp),%eax
    5cf1:	8d 0c 02             	lea    (%rdx,%rax,1),%ecx
    5cf4:	48 b8 68 10 00 00 00 	movabs $0x1068,%rax
    5cfb:	00 00 00 
    5cfe:	8b 14 03             	mov    (%rbx,%rax,1),%edx
    5d01:	8b 45 ec             	mov    -0x14(%rbp),%eax
    5d04:	01 d0                	add    %edx,%eax
    5d06:	8b 55 d8             	mov    -0x28(%rbp),%edx
    5d09:	89 ce                	mov    %ecx,%esi
    5d0b:	89 c7                	mov    %eax,%edi
    5d0d:	49 89 df             	mov    %rbx,%r15
    5d10:	48 b8 8c 47 ff ff ff 	movabs $0xffffffffffff478c,%rax
    5d17:	ff ff ff 
    5d1a:	48 01 d8             	add    %rbx,%rax
    5d1d:	ff d0                	call   *%rax
    5d1f:	48 ba 28 db ff ff ff 	movabs $0xffffffffffffdb28,%rdx
    5d26:	ff ff ff 
    5d29:	8b 45 ec             	mov    -0x14(%rbp),%eax
    5d2c:	48 63 c8             	movslq %eax,%rcx
    5d2f:	8b 45 e8             	mov    -0x18(%rbp),%eax
    5d32:	48 98                	cltq   
    5d34:	48 01 da             	add    %rbx,%rdx
    5d37:	48 c1 e0 04          	shl    $0x4,%rax
    5d3b:	48 01 c8             	add    %rcx,%rax
    5d3e:	48 01 d0             	add    %rdx,%rax
    5d41:	0f b6 00             	movzbl (%rax),%eax
    5d44:	3c 2e                	cmp    $0x2e,%al
    5d46:	75 5f                	jne    0x5da7
    5d48:	8b 4d d4             	mov    -0x2c(%rbp),%ecx
    5d4b:	b1 64                	mov    $0x64,%cl
    5d4d:	b8 64 00 00 00       	mov    $0x64,%eax
    5d52:	88 c5                	mov    %al,%ch
    5d54:	81 e1 ff ff 00 ff    	and    $0xff00ffff,%ecx
    5d5a:	89 c8                	mov    %ecx,%eax
    5d5c:	0d 00 00 64 00       	or     $0x640000,%eax
    5d61:	25 ff ff ff 00       	and    $0xffffff,%eax
    5d66:	89 45 d4             	mov    %eax,-0x2c(%rbp)
    5d69:	48 b8 6c 10 00 00 00 	movabs $0x106c,%rax
    5d70:	00 00 00 
    5d73:	8b 14 03             	mov    (%rbx,%rax,1),%edx
    5d76:	8b 45 e8             	mov    -0x18(%rbp),%eax
    5d79:	8d 0c 02             	lea    (%rdx,%rax,1),%ecx
    5d7c:	48 b8 68 10 00 00 00 	movabs $0x1068,%rax
    5d83:	00 00 00 
    5d86:	8b 14 03             	mov    (%rbx,%rax,1),%edx
    5d89:	8b 45 ec             	mov    -0x14(%rbp),%eax
    5d8c:	01 d0                	add    %edx,%eax
    5d8e:	8b 55 d4             	mov    -0x2c(%rbp),%edx
    5d91:	89 ce                	mov    %ecx,%esi
    5d93:	89 c7                	mov    %eax,%edi
    5d95:	49 89 df             	mov    %rbx,%r15
    5d98:	48 b8 8c 47 ff ff ff 	movabs $0xffffffffffff478c,%rax
    5d9f:	ff ff ff 
    5da2:	48 01 d8             	add    %rbx,%rax
    5da5:	ff d0                	call   *%rax
    5da7:	83 45 ec 01          	addl   $0x1,-0x14(%rbp)
    5dab:	83 7d ec 0f          	cmpl   $0xf,-0x14(%rbp)
    5daf:	0f 8e 64 fe ff ff    	jle    0x5c19
    5db5:	83 45 e8 01          	addl   $0x1,-0x18(%rbp)
    5db9:	83 7d e8 0f          	cmpl   $0xf,-0x18(%rbp)
    5dbd:	0f 8e 4a fe ff ff    	jle    0x5c0d
    5dc3:	90                   	nop
    5dc4:	48 83 c4 20          	add    $0x20,%rsp
    5dc8:	5b                   	pop    %rbx
    5dc9:	41 5f                	pop    %r15
    5dcb:	5d                   	pop    %rbp
    5dcc:	c3                   	ret    
    5dcd:	0f 1f 00             	nopl   (%rax)
    5dd0:	66 8c d0             	mov    %ss,%ax
    5dd3:	8e d8                	mov    %eax,%ds
    5dd5:	8e c0                	mov    %eax,%es
    5dd7:	8e e0                	mov    %eax,%fs
    5dd9:	8e d0                	mov    %eax,%ss
    5ddb:	bc 00 7e 00 00       	mov    $0x7e00,%esp
    5de0:	48 c7 c0 00 10 10 00 	mov    $0x101000,%rax
    5de7:	0f 22 d8             	mov    %rax,%cr3
    5dea:	0f 01 15 17 7b 00 00 	lgdt   0x7b17(%rip)        # 0xd908
    5df1:	0f 01 1d 1a 8b 00 00 	lidt   0x8b1a(%rip)        # 0xe912
    5df8:	66 b8 10 00          	mov    $0x10,%ax
    5dfc:	8e d8                	mov    %eax,%ds
    5dfe:	8e c0                	mov    %eax,%es
    5e00:	8e e0                	mov    %eax,%fs
    5e02:	8e e8                	mov    %eax,%gs
    5e04:	8e d0                	mov    %eax,%ss
    5e06:	48 c7 c4 00 7e 00 00 	mov    $0x7e00,%rsp
    5e0d:	48 c7 c0 00 10 10 00 	mov    $0x101000,%rax
    5e14:	0f 22 d8             	mov    %rax,%cr3
    5e17:	48 8b 05 05 00 00 00 	mov    0x5(%rip),%rax        # 0x5e23
    5e1e:	6a 08                	push   $0x8
    5e20:	50                   	push   %rax
    5e21:	48 cb                	lretq  
    5e23:	2b 5e 10             	sub    0x10(%rsi),%ebx
    5e26:	00 00                	add    %al,(%rax)
    5e28:	80 ff ff             	cmp    $0xff,%bh
    5e2b:	48 c7 c0 10 00 00 00 	mov    $0x10,%rax
    5e32:	48 8e d8             	mov    %rax,%ds
    5e35:	48 8e c0             	mov    %rax,%es
    5e38:	48 8e e8             	mov    %rax,%gs
    5e3b:	48 8e d0             	mov    %rax,%ss
    5e3e:	48 bc 00 7e 00 00 00 	movabs $0xffff800000007e00,%rsp
    5e45:	80 ff ff 
    5e48:	48 8d 15 cd 8a 00 00 	lea    0x8acd(%rip),%rdx        # 0xe91c
    5e4f:	48 31 c0             	xor    %rax,%rax
    5e52:	48 31 c9             	xor    %rcx,%rcx
    5e55:	48 c7 c0 89 00 00 00 	mov    $0x89,%rax
    5e5c:	48 c1 e0 28          	shl    $0x28,%rax
    5e60:	89 d1                	mov    %edx,%ecx
    5e62:	c1 e9 18             	shr    $0x18,%ecx
    5e65:	48 c1 e1 38          	shl    $0x38,%rcx
    5e69:	48 01 c8             	add    %rcx,%rax
    5e6c:	48 31 c9             	xor    %rcx,%rcx
    5e6f:	89 d1                	mov    %edx,%ecx
    5e71:	81 e1 ff ff ff 00    	and    $0xffffff,%ecx
    5e77:	48 c1 e1 10          	shl    $0x10,%rcx
    5e7b:	48 01 c8             	add    %rcx,%rax
    5e7e:	48 83 c0 67          	add    $0x67,%rax
    5e82:	48 8d 3d f7 79 00 00 	lea    0x79f7(%rip),%rdi        # 0xd880
    5e89:	48 89 47 40          	mov    %rax,0x40(%rdi)
    5e8d:	48 c1 ea 20          	shr    $0x20,%rdx
    5e91:	48 89 57 48          	mov    %rdx,0x48(%rdi)
    5e95:	66 b8 40 00          	mov    $0x40,%ax
    5e99:	0f 00 d8             	ltr    %ax
    5e9c:	48 8b 05 05 00 00 00 	mov    0x5(%rip),%rax        # 0x5ea8
    5ea3:	6a 08                	push   $0x8
    5ea5:	50                   	push   %rax
    5ea6:	48 cb                	lretq  
    5ea8:	00 40 10             	add    %al,0x10(%rax)
    5eab:	00 00                	add    %al,(%rax)
    5ead:	80 ff ff             	cmp    $0xff,%bh
	...
    6dd0:	07                   	(bad)  
    6dd1:	20 10                	and    %dl,(%rax)
	...
    75cf:	00 07                	add    %al,(%rdi)
    75d1:	20 10                	and    %dl,(%rax)
	...
    7dcf:	00 07                	add    %al,(%rdi)
    7dd1:	30 10                	xor    %dl,(%rax)
	...
    8dcf:	00 87 00 00 00 00    	add    %al,0x0(%rdi)
    8dd5:	00 00                	add    %al,(%rax)
    8dd7:	00 87 00 20 00 00    	add    %al,0x2000(%rdi)
    8ddd:	00 00                	add    %al,(%rax)
    8ddf:	00 87 00 40 00 00    	add    %al,0x4000(%rdi)
	...
    9dcd:	00 00                	add    %al,(%rax)
    9dcf:	00 f3                	add    %dh,%bl
    9dd1:	0f 1e fa             	nop    %edx
    9dd4:	55                   	push   %rbp
    9dd5:	48 89 e5             	mov    %rsp,%rbp
    9dd8:	48 8d 05 f9 ff ff ff 	lea    -0x7(%rip),%rax        # 0x9dd8
    9ddf:	49 bb 80 5e 00 00 00 	movabs $0x5e80,%r11
    9de6:	00 00 00 
    9de9:	4c 01 d8             	add    %r11,%rax
    9dec:	48 89 7d f8          	mov    %rdi,-0x8(%rbp)
    9df0:	48 89 75 f0          	mov    %rsi,-0x10(%rbp)
    9df4:	89 d0                	mov    %edx,%eax
    9df6:	89 ca                	mov    %ecx,%edx
    9df8:	44 89 c1             	mov    %r8d,%ecx
    9dfb:	66 89 45 ec          	mov    %ax,-0x14(%rbp)
    9dff:	89 d0                	mov    %edx,%eax
    9e01:	88 45 e8             	mov    %al,-0x18(%rbp)
    9e04:	89 c8                	mov    %ecx,%eax
    9e06:	88 45 e4             	mov    %al,-0x1c(%rbp)
    9e09:	48 8b 45 f0          	mov    -0x10(%rbp),%rax
    9e0d:	89 c2                	mov    %eax,%edx
    9e0f:	48 8b 45 f8          	mov    -0x8(%rbp),%rax
    9e13:	66 89 10             	mov    %dx,(%rax)
    9e16:	48 8b 45 f8          	mov    -0x8(%rbp),%rax
    9e1a:	0f b7 55 ec          	movzwl -0x14(%rbp),%edx
    9e1e:	66 89 50 02          	mov    %dx,0x2(%rax)
    9e22:	48 8b 45 f8          	mov    -0x8(%rbp),%rax
    9e26:	0f b6 55 e8          	movzbl -0x18(%rbp),%edx
    9e2a:	88 50 04             	mov    %dl,0x4(%rax)
    9e2d:	48 8b 45 f8          	mov    -0x8(%rbp),%rax
    9e31:	0f b6 55 e4          	movzbl -0x1c(%rbp),%edx
    9e35:	88 50 05             	mov    %dl,0x5(%rax)
    9e38:	48 8b 45 f0          	mov    -0x10(%rbp),%rax
    9e3c:	48 c1 e8 10          	shr    $0x10,%rax
    9e40:	89 c2                	mov    %eax,%edx
    9e42:	48 8b 45 f8          	mov    -0x8(%rbp),%rax
    9e46:	66 89 50 06          	mov    %dx,0x6(%rax)
    9e4a:	48 8b 45 f0          	mov    -0x10(%rbp),%rax
    9e4e:	48 c1 e8 20          	shr    $0x20,%rax
    9e52:	89 c2                	mov    %eax,%edx
    9e54:	48 8b 45 f8          	mov    -0x8(%rbp),%rax
    9e58:	89 50 08             	mov    %edx,0x8(%rax)
    9e5b:	90                   	nop
    9e5c:	5d                   	pop    %rbp
    9e5d:	c3                   	ret    
    9e5e:	f3 0f 1e fa          	endbr64 
    9e62:	55                   	push   %rbp
    9e63:	48 89 e5             	mov    %rsp,%rbp
    9e66:	48 8d 05 f9 ff ff ff 	lea    -0x7(%rip),%rax        # 0x9e66
    9e6d:	49 bb f2 5d 00 00 00 	movabs $0x5df2,%r11
    9e74:	00 00 00 
    9e77:	4c 01 d8             	add    %r11,%rax
    9e7a:	89 7d fc             	mov    %edi,-0x4(%rbp)
    9e7d:	48 89 75 f0          	mov    %rsi,-0x10(%rbp)
    9e81:	48 b9 e8 31 00 00 00 	movabs $0x31e8,%rcx
    9e88:	00 00 00 
    9e8b:	8b 55 fc             	mov    -0x4(%rbp),%edx
    9e8e:	48 01 c1             	add    %rax,%rcx
    9e91:	48 8b 45 f0          	mov    -0x10(%rbp),%rax
    9e95:	48 89 04 d1          	mov    %rax,(%rcx,%rdx,8)
    9e99:	90                   	nop
    9e9a:	5d                   	pop    %rbp
    9e9b:	c3                   	ret    
    9e9c:	f3 0f 1e fa          	endbr64 
    9ea0:	55                   	push   %rbp
    9ea1:	48 89 e5             	mov    %rsp,%rbp
    9ea4:	41 57                	push   %r15
    9ea6:	53                   	push   %rbx
    9ea7:	48 83 ec 20          	sub    $0x20,%rsp
    9eab:	48 8d 1d f9 ff ff ff 	lea    -0x7(%rip),%rbx        # 0x9eab
    9eb2:	49 bb ad 5d 00 00 00 	movabs $0x5dad,%r11
    9eb9:	00 00 00 
    9ebc:	4c 01 db             	add    %r11,%rbx
    9ebf:	c7 45 ec 00 00 00 00 	movl   $0x0,-0x14(%rbp)
    9ec6:	eb 6c                	jmp    0x9f34
    9ec8:	48 b8 d8 ff ff ff ff 	movabs $0xffffffffffffffd8,%rax
    9ecf:	ff ff ff 
    9ed2:	48 8b 04 03          	mov    (%rbx,%rax,1),%rax
    9ed6:	8b 55 ec             	mov    -0x14(%rbp),%edx
    9ed9:	48 8b 04 d0          	mov    (%rax,%rdx,8),%rax
    9edd:	8b 55 ec             	mov    -0x14(%rbp),%edx
    9ee0:	89 55 e0             	mov    %edx,-0x20(%rbp)
    9ee3:	c6 45 df 01          	movb   $0x1,-0x21(%rbp)
    9ee7:	48 89 45 d0          	mov    %rax,-0x30(%rbp)
    9eeb:	0f b6 55 df          	movzbl -0x21(%rbp),%edx
    9eef:	48 8b 45 d0          	mov    -0x30(%rbp),%rax
    9ef3:	8b 4d e0             	mov    -0x20(%rbp),%ecx
    9ef6:	48 89 ce             	mov    %rcx,%rsi
    9ef9:	48 c1 e6 04          	shl    $0x4,%rsi
    9efd:	48 b9 d0 ff ff ff ff 	movabs $0xffffffffffffffd0,%rcx
    9f04:	ff ff ff 
    9f07:	48 8b 0c 0b          	mov    (%rbx,%rcx,1),%rcx
    9f0b:	48 8d 3c 0e          	lea    (%rsi,%rcx,1),%rdi
    9f0f:	41 b8 8e 00 00 00    	mov    $0x8e,%r8d
    9f15:	89 d1                	mov    %edx,%ecx
    9f17:	ba 08 00 00 00       	mov    $0x8,%edx
    9f1c:	48 89 c6             	mov    %rax,%rsi
    9f1f:	48 b8 78 a1 ff ff ff 	movabs $0xffffffffffffa178,%rax
    9f26:	ff ff ff 
    9f29:	48 8d 04 03          	lea    (%rbx,%rax,1),%rax
    9f2d:	ff d0                	call   *%rax
    9f2f:	90                   	nop
    9f30:	83 45 ec 01          	addl   $0x1,-0x14(%rbp)
    9f34:	83 7d ec 2f          	cmpl   $0x2f,-0x14(%rbp)
    9f38:	76 8e                	jbe    0x9ec8
    9f3a:	c7 45 e8 00 00 00 00 	movl   $0x0,-0x18(%rbp)
    9f41:	eb 26                	jmp    0x9f69
    9f43:	48 ba e8 31 00 00 00 	movabs $0x31e8,%rdx
    9f4a:	00 00 00 
    9f4d:	8b 45 e8             	mov    -0x18(%rbp),%eax
    9f50:	48 01 da             	add    %rbx,%rdx
    9f53:	48 b9 f8 ff ff ff ff 	movabs $0xfffffffffffffff8,%rcx
    9f5a:	ff ff ff 
    9f5d:	48 8b 0c 0b          	mov    (%rbx,%rcx,1),%rcx
    9f61:	48 89 0c c2          	mov    %rcx,(%rdx,%rax,8)
    9f65:	83 45 e8 01          	addl   $0x1,-0x18(%rbp)
    9f69:	83 7d e8 1f          	cmpl   $0x1f,-0x18(%rbp)
    9f6d:	76 d4                	jbe    0x9f43
    9f6f:	c7 45 e4 20 00 00 00 	movl   $0x20,-0x1c(%rbp)
    9f76:	eb 27                	jmp    0x9f9f
    9f78:	48 ba e8 31 00 00 00 	movabs $0x31e8,%rdx
    9f7f:	00 00 00 
    9f82:	8b 45 e4             	mov    -0x1c(%rbp),%eax
    9f85:	48 8d 0c 13          	lea    (%rbx,%rdx,1),%rcx
    9f89:	48 ba 6e a3 ff ff ff 	movabs $0xffffffffffffa36e,%rdx
    9f90:	ff ff ff 
    9f93:	48 8d 14 13          	lea    (%rbx,%rdx,1),%rdx
    9f97:	48 89 14 c1          	mov    %rdx,(%rcx,%rax,8)
    9f9b:	83 45 e4 01          	addl   $0x1,-0x1c(%rbp)
    9f9f:	83 7d e4 2f          	cmpl   $0x2f,-0x1c(%rbp)
    9fa3:	76 d3                	jbe    0x9f78
    9fa5:	49 89 df             	mov    %rbx,%r15
    9fa8:	b8 00 00 00 00       	mov    $0x0,%eax
    9fad:	48 ba 46 b9 ff ff ff 	movabs $0xffffffffffffb946,%rdx
    9fb4:	ff ff ff 
    9fb7:	48 01 da             	add    %rbx,%rdx
    9fba:	ff d2                	call   *%rdx
    9fbc:	90                   	nop
    9fbd:	48 83 c4 20          	add    $0x20,%rsp
    9fc1:	5b                   	pop    %rbx
    9fc2:	41 5f                	pop    %r15
    9fc4:	5d                   	pop    %rbp
    9fc5:	c3                   	ret    
    9fc6:	f3 0f 1e fa          	endbr64 
    9fca:	55                   	push   %rbp
    9fcb:	48 89 e5             	mov    %rsp,%rbp
    9fce:	41 57                	push   %r15
    9fd0:	48 83 ec 18          	sub    $0x18,%rsp
    9fd4:	48 8d 05 f9 ff ff ff 	lea    -0x7(%rip),%rax        # 0x9fd4
    9fdb:	49 bb 84 5c 00 00 00 	movabs $0x5c84,%r11
    9fe2:	00 00 00 
    9fe5:	4c 01 d8             	add    %r11,%rax
    9fe8:	48 89 7d e8          	mov    %rdi,-0x18(%rbp)
    9fec:	48 89 75 e0          	mov    %rsi,-0x20(%rbp)
    9ff0:	48 8b 55 e0          	mov    -0x20(%rbp),%rdx
    9ff4:	48 89 d7             	mov    %rdx,%rdi
    9ff7:	49 89 c7             	mov    %rax,%r15
    9ffa:	48 ba 7d ba ff ff ff 	movabs $0xffffffffffffba7d,%rdx
    a001:	ff ff ff 
    a004:	48 01 c2             	add    %rax,%rdx
    a007:	ff d2                	call   *%rdx
    a009:	90                   	nop
    a00a:	4c 8b 7d f8          	mov    -0x8(%rbp),%r15
    a00e:	c9                   	leave  
    a00f:	c3                   	ret    
    a010:	f3 0f 1e fa          	endbr64 
    a014:	55                   	push   %rbp
    a015:	48 89 e5             	mov    %rsp,%rbp
    a018:	48 8d 05 f9 ff ff ff 	lea    -0x7(%rip),%rax        # 0xa018
    a01f:	49 bb 40 5c 00 00 00 	movabs $0x5c40,%r11
    a026:	00 00 00 
    a029:	4c 01 d8             	add    %r11,%rax
    a02c:	89 fa                	mov    %edi,%edx
    a02e:	48 89 75 f0          	mov    %rsi,-0x10(%rbp)
    a032:	88 55 fc             	mov    %dl,-0x4(%rbp)
    a035:	0f b6 55 fc          	movzbl -0x4(%rbp),%edx
    a039:	48 b9 e8 31 00 00 00 	movabs $0x31e8,%rcx
    a040:	00 00 00 
    a043:	48 63 d2             	movslq %edx,%rdx
    a046:	48 01 c1             	add    %rax,%rcx
    a049:	48 8b 45 f0          	mov    -0x10(%rbp),%rax
    a04d:	48 89 04 d1          	mov    %rax,(%rcx,%rdx,8)
    a051:	90                   	nop
    a052:	5d                   	pop    %rbp
    a053:	c3                   	ret    
    a054:	f3 0f 1e fa          	endbr64 
    a058:	55                   	push   %rbp
    a059:	48 89 e5             	mov    %rsp,%rbp
    a05c:	48 8d 05 f9 ff ff ff 	lea    -0x7(%rip),%rax        # 0xa05c
    a063:	49 bb fc 5b 00 00 00 	movabs $0x5bfc,%r11
    a06a:	00 00 00 
    a06d:	4c 01 d8             	add    %r11,%rax
    a070:	48 c7 45 f8 00 00 00 	movq   $0x0,-0x8(%rbp)
    a077:	00 
    a078:	9c                   	pushf  
    a079:	58                   	pop    %rax
    a07a:	48 89 45 f8          	mov    %rax,-0x8(%rbp)
    a07e:	48 8b 45 f8          	mov    -0x8(%rbp),%rax
    a082:	48 c1 e8 09          	shr    $0x9,%rax
    a086:	83 e0 01             	and    $0x1,%eax
    a089:	5d                   	pop    %rbp
    a08a:	c3                   	ret    
    a08b:	f3 0f 1e fa          	endbr64 
    a08f:	55                   	push   %rbp
    a090:	48 89 e5             	mov    %rsp,%rbp
    a093:	48 83 ec 10          	sub    $0x10,%rsp
    a097:	48 8d 05 f9 ff ff ff 	lea    -0x7(%rip),%rax        # 0xa097
    a09e:	49 bb c1 5b 00 00 00 	movabs $0x5bc1,%r11
    a0a5:	00 00 00 
    a0a8:	4c 01 d8             	add    %r11,%rax
    a0ab:	48 ba fc a3 ff ff ff 	movabs $0xffffffffffffa3fc,%rdx
    a0b2:	ff ff ff 
    a0b5:	48 8d 04 10          	lea    (%rax,%rdx,1),%rax
    a0b9:	ff d0                	call   *%rax
    a0bb:	83 f8 01             	cmp    $0x1,%eax
    a0be:	75 0c                	jne    0xa0cc
    a0c0:	c7 45 fc 01 00 00 00 	movl   $0x1,-0x4(%rbp)
    a0c7:	8b 45 fc             	mov    -0x4(%rbp),%eax
    a0ca:	eb 0b                	jmp    0xa0d7
    a0cc:	c7 45 fc 00 00 00 00 	movl   $0x0,-0x4(%rbp)
    a0d3:	fb                   	sti    
    a0d4:	8b 45 fc             	mov    -0x4(%rbp),%eax
    a0d7:	c9                   	leave  
    a0d8:	c3                   	ret    
    a0d9:	f3 0f 1e fa          	endbr64 
    a0dd:	55                   	push   %rbp
    a0de:	48 89 e5             	mov    %rsp,%rbp
    a0e1:	48 83 ec 10          	sub    $0x10,%rsp
    a0e5:	48 8d 05 f9 ff ff ff 	lea    -0x7(%rip),%rax        # 0xa0e5
    a0ec:	49 bb 73 5b 00 00 00 	movabs $0x5b73,%r11
    a0f3:	00 00 00 
    a0f6:	4c 01 d8             	add    %r11,%rax
    a0f9:	48 ba fc a3 ff ff ff 	movabs $0xffffffffffffa3fc,%rdx
    a100:	ff ff ff 
    a103:	48 8d 04 10          	lea    (%rax,%rdx,1),%rax
    a107:	ff d0                	call   *%rax
    a109:	83 f8 01             	cmp    $0x1,%eax
    a10c:	75 0d                	jne    0xa11b
    a10e:	c7 45 fc 01 00 00 00 	movl   $0x1,-0x4(%rbp)
    a115:	fa                   	cli    
    a116:	8b 45 fc             	mov    -0x4(%rbp),%eax
    a119:	eb 0a                	jmp    0xa125
    a11b:	c7 45 fc 00 00 00 00 	movl   $0x0,-0x4(%rbp)
    a122:	8b 45 fc             	mov    -0x4(%rbp),%eax
    a125:	c9                   	leave  
    a126:	c3                   	ret    
    a127:	f3 0f 1e fa          	endbr64 
    a12b:	55                   	push   %rbp
    a12c:	48 89 e5             	mov    %rsp,%rbp
    a12f:	48 83 ec 08          	sub    $0x8,%rsp
    a133:	48 8d 05 f9 ff ff ff 	lea    -0x7(%rip),%rax        # 0xa133
    a13a:	49 bb 25 5b 00 00 00 	movabs $0x5b25,%r11
    a141:	00 00 00 
    a144:	4c 01 d8             	add    %r11,%rax
    a147:	89 7d fc             	mov    %edi,-0x4(%rbp)
    a14a:	8b 55 fc             	mov    -0x4(%rbp),%edx
    a14d:	83 e2 01             	and    $0x1,%edx
    a150:	85 d2                	test   %edx,%edx
    a152:	74 12                	je     0xa166
    a154:	48 ba 33 a4 ff ff ff 	movabs $0xffffffffffffa433,%rdx
    a15b:	ff ff ff 
    a15e:	48 8d 04 10          	lea    (%rax,%rdx,1),%rax
    a162:	ff d0                	call   *%rax
    a164:	eb 10                	jmp    0xa176
    a166:	48 ba 81 a4 ff ff ff 	movabs $0xffffffffffffa481,%rdx
    a16d:	ff ff ff 
    a170:	48 8d 04 10          	lea    (%rax,%rdx,1),%rax
    a174:	ff d0                	call   *%rax
    a176:	c9                   	leave  
    a177:	c3                   	ret    
    a178:	58                   	pop    %rax
    a179:	48 8e d8             	mov    %rax,%ds
    a17c:	58                   	pop    %rax
    a17d:	48 8e c0             	mov    %rax,%es
    a180:	41 5f                	pop    %r15
    a182:	41 5e                	pop    %r14
    a184:	41 5d                	pop    %r13
    a186:	41 5c                	pop    %r12
    a188:	41 5b                	pop    %r11
    a18a:	41 5a                	pop    %r10
    a18c:	41 59                	pop    %r9
    a18e:	41 58                	pop    %r8
    a190:	5e                   	pop    %rsi
    a191:	5f                   	pop    %rdi
    a192:	5d                   	pop    %rbp
    a193:	5a                   	pop    %rdx
    a194:	59                   	pop    %rcx
    a195:	5b                   	pop    %rbx
    a196:	58                   	pop    %rax
    a197:	48 83 c4 08          	add    $0x8,%rsp
    a19b:	48 cf                	iretq  
    a19d:	6a 00                	push   $0x0
    a19f:	50                   	push   %rax
    a1a0:	53                   	push   %rbx
    a1a1:	51                   	push   %rcx
    a1a2:	52                   	push   %rdx
    a1a3:	55                   	push   %rbp
    a1a4:	57                   	push   %rdi
    a1a5:	56                   	push   %rsi
    a1a6:	41 50                	push   %r8
    a1a8:	41 51                	push   %r9
    a1aa:	41 52                	push   %r10
    a1ac:	41 53                	push   %r11
    a1ae:	41 54                	push   %r12
    a1b0:	41 55                	push   %r13
    a1b2:	41 56                	push   %r14
    a1b4:	41 57                	push   %r15
    a1b6:	48 8c c0             	mov    %es,%rax
    a1b9:	50                   	push   %rax
    a1ba:	48 8c d8             	mov    %ds,%rax
    a1bd:	50                   	push   %rax
    a1be:	48 c7 c0 10 00 00 00 	mov    $0x10,%rax
    a1c5:	48 8e d8             	mov    %rax,%ds
    a1c8:	48 8e c0             	mov    %rax,%es
    a1cb:	48 c7 c0 00 00 00 00 	mov    $0x0,%rax
    a1d2:	48 8d 1d 67 8c 00 00 	lea    0x8c67(%rip),%rbx        # 0x12e40
    a1d9:	48 89 e7             	mov    %rsp,%rdi
    a1dc:	48 c7 c6 00 00 00 00 	mov    $0x0,%rsi
    a1e3:	ff 14 c3             	call   *(%rbx,%rax,8)
    a1e6:	eb 90                	jmp    0xa178
    a1e8:	6a 00                	push   $0x0
    a1ea:	50                   	push   %rax
    a1eb:	53                   	push   %rbx
    a1ec:	51                   	push   %rcx
    a1ed:	52                   	push   %rdx
    a1ee:	55                   	push   %rbp
    a1ef:	57                   	push   %rdi
    a1f0:	56                   	push   %rsi
    a1f1:	41 50                	push   %r8
    a1f3:	41 51                	push   %r9
    a1f5:	41 52                	push   %r10
    a1f7:	41 53                	push   %r11
    a1f9:	41 54                	push   %r12
    a1fb:	41 55                	push   %r13
    a1fd:	41 56                	push   %r14
    a1ff:	41 57                	push   %r15
    a201:	48 8c c0             	mov    %es,%rax
    a204:	50                   	push   %rax
    a205:	48 8c d8             	mov    %ds,%rax
    a208:	50                   	push   %rax
    a209:	48 c7 c0 10 00 00 00 	mov    $0x10,%rax
    a210:	48 8e d8             	mov    %rax,%ds
    a213:	48 8e c0             	mov    %rax,%es
    a216:	48 c7 c0 01 00 00 00 	mov    $0x1,%rax
    a21d:	48 8d 1d 1c 8c 00 00 	lea    0x8c1c(%rip),%rbx        # 0x12e40
    a224:	48 89 e7             	mov    %rsp,%rdi
    a227:	48 c7 c6 01 00 00 00 	mov    $0x1,%rsi
    a22e:	ff 14 c3             	call   *(%rbx,%rax,8)
    a231:	e9 42 ff ff ff       	jmp    0xa178
    a236:	6a 00                	push   $0x0
    a238:	50                   	push   %rax
    a239:	53                   	push   %rbx
    a23a:	51                   	push   %rcx
    a23b:	52                   	push   %rdx
    a23c:	55                   	push   %rbp
    a23d:	57                   	push   %rdi
    a23e:	56                   	push   %rsi
    a23f:	41 50                	push   %r8
    a241:	41 51                	push   %r9
    a243:	41 52                	push   %r10
    a245:	41 53                	push   %r11
    a247:	41 54                	push   %r12
    a249:	41 55                	push   %r13
    a24b:	41 56                	push   %r14
    a24d:	41 57                	push   %r15
    a24f:	48 8c c0             	mov    %es,%rax
    a252:	50                   	push   %rax
    a253:	48 8c d8             	mov    %ds,%rax
    a256:	50                   	push   %rax
    a257:	48 c7 c0 10 00 00 00 	mov    $0x10,%rax
    a25e:	48 8e d8             	mov    %rax,%ds
    a261:	48 8e c0             	mov    %rax,%es
    a264:	48 c7 c0 02 00 00 00 	mov    $0x2,%rax
    a26b:	48 8d 1d ce 8b 00 00 	lea    0x8bce(%rip),%rbx        # 0x12e40
    a272:	48 89 e7             	mov    %rsp,%rdi
    a275:	48 c7 c6 02 00 00 00 	mov    $0x2,%rsi
    a27c:	ff 14 c3             	call   *(%rbx,%rax,8)
    a27f:	e9 f4 fe ff ff       	jmp    0xa178
    a284:	6a 00                	push   $0x0
    a286:	50                   	push   %rax
    a287:	53                   	push   %rbx
    a288:	51                   	push   %rcx
    a289:	52                   	push   %rdx
    a28a:	55                   	push   %rbp
    a28b:	57                   	push   %rdi
    a28c:	56                   	push   %rsi
    a28d:	41 50                	push   %r8
    a28f:	41 51                	push   %r9
    a291:	41 52                	push   %r10
    a293:	41 53                	push   %r11
    a295:	41 54                	push   %r12
    a297:	41 55                	push   %r13
    a299:	41 56                	push   %r14
    a29b:	41 57                	push   %r15
    a29d:	48 8c c0             	mov    %es,%rax
    a2a0:	50                   	push   %rax
    a2a1:	48 8c d8             	mov    %ds,%rax
    a2a4:	50                   	push   %rax
    a2a5:	48 c7 c0 10 00 00 00 	mov    $0x10,%rax
    a2ac:	48 8e d8             	mov    %rax,%ds
    a2af:	48 8e c0             	mov    %rax,%es
    a2b2:	48 c7 c0 03 00 00 00 	mov    $0x3,%rax
    a2b9:	48 8d 1d 80 8b 00 00 	lea    0x8b80(%rip),%rbx        # 0x12e40
    a2c0:	48 89 e7             	mov    %rsp,%rdi
    a2c3:	48 c7 c6 03 00 00 00 	mov    $0x3,%rsi
    a2ca:	ff 14 c3             	call   *(%rbx,%rax,8)
    a2cd:	e9 a6 fe ff ff       	jmp    0xa178
    a2d2:	6a 00                	push   $0x0
    a2d4:	50                   	push   %rax
    a2d5:	53                   	push   %rbx
    a2d6:	51                   	push   %rcx
    a2d7:	52                   	push   %rdx
    a2d8:	55                   	push   %rbp
    a2d9:	57                   	push   %rdi
    a2da:	56                   	push   %rsi
    a2db:	41 50                	push   %r8
    a2dd:	41 51                	push   %r9
    a2df:	41 52                	push   %r10
    a2e1:	41 53                	push   %r11
    a2e3:	41 54                	push   %r12
    a2e5:	41 55                	push   %r13
    a2e7:	41 56                	push   %r14
    a2e9:	41 57                	push   %r15
    a2eb:	48 8c c0             	mov    %es,%rax
    a2ee:	50                   	push   %rax
    a2ef:	48 8c d8             	mov    %ds,%rax
    a2f2:	50                   	push   %rax
    a2f3:	48 c7 c0 10 00 00 00 	mov    $0x10,%rax
    a2fa:	48 8e d8             	mov    %rax,%ds
    a2fd:	48 8e c0             	mov    %rax,%es
    a300:	48 c7 c0 04 00 00 00 	mov    $0x4,%rax
    a307:	48 8d 1d 32 8b 00 00 	lea    0x8b32(%rip),%rbx        # 0x12e40
    a30e:	48 89 e7             	mov    %rsp,%rdi
    a311:	48 c7 c6 04 00 00 00 	mov    $0x4,%rsi
    a318:	ff 14 c3             	call   *(%rbx,%rax,8)
    a31b:	e9 58 fe ff ff       	jmp    0xa178
    a320:	6a 00                	push   $0x0
    a322:	50                   	push   %rax
    a323:	53                   	push   %rbx
    a324:	51                   	push   %rcx
    a325:	52                   	push   %rdx
    a326:	55                   	push   %rbp
    a327:	57                   	push   %rdi
    a328:	56                   	push   %rsi
    a329:	41 50                	push   %r8
    a32b:	41 51                	push   %r9
    a32d:	41 52                	push   %r10
    a32f:	41 53                	push   %r11
    a331:	41 54                	push   %r12
    a333:	41 55                	push   %r13
    a335:	41 56                	push   %r14
    a337:	41 57                	push   %r15
    a339:	48 8c c0             	mov    %es,%rax
    a33c:	50                   	push   %rax
    a33d:	48 8c d8             	mov    %ds,%rax
    a340:	50                   	push   %rax
    a341:	48 c7 c0 10 00 00 00 	mov    $0x10,%rax
    a348:	48 8e d8             	mov    %rax,%ds
    a34b:	48 8e c0             	mov    %rax,%es
    a34e:	48 c7 c0 05 00 00 00 	mov    $0x5,%rax
    a355:	48 8d 1d e4 8a 00 00 	lea    0x8ae4(%rip),%rbx        # 0x12e40
    a35c:	48 89 e7             	mov    %rsp,%rdi
    a35f:	48 c7 c6 05 00 00 00 	mov    $0x5,%rsi
    a366:	ff 14 c3             	call   *(%rbx,%rax,8)
    a369:	e9 0a fe ff ff       	jmp    0xa178
    a36e:	6a 00                	push   $0x0
    a370:	50                   	push   %rax
    a371:	53                   	push   %rbx
    a372:	51                   	push   %rcx
    a373:	52                   	push   %rdx
    a374:	55                   	push   %rbp
    a375:	57                   	push   %rdi
    a376:	56                   	push   %rsi
    a377:	41 50                	push   %r8
    a379:	41 51                	push   %r9
    a37b:	41 52                	push   %r10
    a37d:	41 53                	push   %r11
    a37f:	41 54                	push   %r12
    a381:	41 55                	push   %r13
    a383:	41 56                	push   %r14
    a385:	41 57                	push   %r15
    a387:	48 8c c0             	mov    %es,%rax
    a38a:	50                   	push   %rax
    a38b:	48 8c d8             	mov    %ds,%rax
    a38e:	50                   	push   %rax
    a38f:	48 c7 c0 10 00 00 00 	mov    $0x10,%rax
    a396:	48 8e d8             	mov    %rax,%ds
    a399:	48 8e c0             	mov    %rax,%es
    a39c:	48 c7 c0 06 00 00 00 	mov    $0x6,%rax
    a3a3:	48 8d 1d 96 8a 00 00 	lea    0x8a96(%rip),%rbx        # 0x12e40
    a3aa:	48 89 e7             	mov    %rsp,%rdi
    a3ad:	48 c7 c6 06 00 00 00 	mov    $0x6,%rsi
    a3b4:	ff 14 c3             	call   *(%rbx,%rax,8)
    a3b7:	e9 bc fd ff ff       	jmp    0xa178
    a3bc:	6a 00                	push   $0x0
    a3be:	50                   	push   %rax
    a3bf:	53                   	push   %rbx
    a3c0:	51                   	push   %rcx
    a3c1:	52                   	push   %rdx
    a3c2:	55                   	push   %rbp
    a3c3:	57                   	push   %rdi
    a3c4:	56                   	push   %rsi
    a3c5:	41 50                	push   %r8
    a3c7:	41 51                	push   %r9
    a3c9:	41 52                	push   %r10
    a3cb:	41 53                	push   %r11
    a3cd:	41 54                	push   %r12
    a3cf:	41 55                	push   %r13
    a3d1:	41 56                	push   %r14
    a3d3:	41 57                	push   %r15
    a3d5:	48 8c c0             	mov    %es,%rax
    a3d8:	50                   	push   %rax
    a3d9:	48 8c d8             	mov    %ds,%rax
    a3dc:	50                   	push   %rax
    a3dd:	48 c7 c0 10 00 00 00 	mov    $0x10,%rax
    a3e4:	48 8e d8             	mov    %rax,%ds
    a3e7:	48 8e c0             	mov    %rax,%es
    a3ea:	48 c7 c0 07 00 00 00 	mov    $0x7,%rax
    a3f1:	48 8d 1d 48 8a 00 00 	lea    0x8a48(%rip),%rbx        # 0x12e40
    a3f8:	48 89 e7             	mov    %rsp,%rdi
    a3fb:	48 c7 c6 07 00 00 00 	mov    $0x7,%rsi
    a402:	ff 14 c3             	call   *(%rbx,%rax,8)
    a405:	e9 6e fd ff ff       	jmp    0xa178
    a40a:	50                   	push   %rax
    a40b:	53                   	push   %rbx
    a40c:	51                   	push   %rcx
    a40d:	52                   	push   %rdx
    a40e:	55                   	push   %rbp
    a40f:	57                   	push   %rdi
    a410:	56                   	push   %rsi
    a411:	41 50                	push   %r8
    a413:	41 51                	push   %r9
    a415:	41 52                	push   %r10
    a417:	41 53                	push   %r11
    a419:	41 54                	push   %r12
    a41b:	41 55                	push   %r13
    a41d:	41 56                	push   %r14
    a41f:	41 57                	push   %r15
    a421:	48 8c c0             	mov    %es,%rax
    a424:	50                   	push   %rax
    a425:	48 8c d8             	mov    %ds,%rax
    a428:	50                   	push   %rax
    a429:	48 c7 c0 10 00 00 00 	mov    $0x10,%rax
    a430:	48 8e d8             	mov    %rax,%ds
    a433:	48 8e c0             	mov    %rax,%es
    a436:	48 c7 c0 08 00 00 00 	mov    $0x8,%rax
    a43d:	48 8d 1d fc 89 00 00 	lea    0x89fc(%rip),%rbx        # 0x12e40
    a444:	48 89 e7             	mov    %rsp,%rdi
    a447:	48 c7 c6 08 00 00 00 	mov    $0x8,%rsi
    a44e:	ff 14 c3             	call   *(%rbx,%rax,8)
    a451:	e9 22 fd ff ff       	jmp    0xa178
    a456:	6a 00                	push   $0x0
    a458:	50                   	push   %rax
    a459:	53                   	push   %rbx
    a45a:	51                   	push   %rcx
    a45b:	52                   	push   %rdx
    a45c:	55                   	push   %rbp
    a45d:	57                   	push   %rdi
    a45e:	56                   	push   %rsi
    a45f:	41 50                	push   %r8
    a461:	41 51                	push   %r9
    a463:	41 52                	push   %r10
    a465:	41 53                	push   %r11
    a467:	41 54                	push   %r12
    a469:	41 55                	push   %r13
    a46b:	41 56                	push   %r14
    a46d:	41 57                	push   %r15
    a46f:	48 8c c0             	mov    %es,%rax
    a472:	50                   	push   %rax
    a473:	48 8c d8             	mov    %ds,%rax
    a476:	50                   	push   %rax
    a477:	48 c7 c0 10 00 00 00 	mov    $0x10,%rax
    a47e:	48 8e d8             	mov    %rax,%ds
    a481:	48 8e c0             	mov    %rax,%es
    a484:	48 c7 c0 09 00 00 00 	mov    $0x9,%rax
    a48b:	48 8d 1d ae 89 00 00 	lea    0x89ae(%rip),%rbx        # 0x12e40
    a492:	48 89 e7             	mov    %rsp,%rdi
    a495:	48 c7 c6 09 00 00 00 	mov    $0x9,%rsi
    a49c:	ff 14 c3             	call   *(%rbx,%rax,8)
    a49f:	e9 d4 fc ff ff       	jmp    0xa178
    a4a4:	50                   	push   %rax
    a4a5:	53                   	push   %rbx
    a4a6:	51                   	push   %rcx
    a4a7:	52                   	push   %rdx
    a4a8:	55                   	push   %rbp
    a4a9:	57                   	push   %rdi
    a4aa:	56                   	push   %rsi
    a4ab:	41 50                	push   %r8
    a4ad:	41 51                	push   %r9
    a4af:	41 52                	push   %r10
    a4b1:	41 53                	push   %r11
    a4b3:	41 54                	push   %r12
    a4b5:	41 55                	push   %r13
    a4b7:	41 56                	push   %r14
    a4b9:	41 57                	push   %r15
    a4bb:	48 8c c0             	mov    %es,%rax
    a4be:	50                   	push   %rax
    a4bf:	48 8c d8             	mov    %ds,%rax
    a4c2:	50                   	push   %rax
    a4c3:	48 c7 c0 10 00 00 00 	mov    $0x10,%rax
    a4ca:	48 8e d8             	mov    %rax,%ds
    a4cd:	48 8e c0             	mov    %rax,%es
    a4d0:	48 c7 c0 0a 00 00 00 	mov    $0xa,%rax
    a4d7:	48 8d 1d 62 89 00 00 	lea    0x8962(%rip),%rbx        # 0x12e40
    a4de:	48 89 e7             	mov    %rsp,%rdi
    a4e1:	48 c7 c6 0a 00 00 00 	mov    $0xa,%rsi
    a4e8:	ff 14 c3             	call   *(%rbx,%rax,8)
    a4eb:	e9 88 fc ff ff       	jmp    0xa178
    a4f0:	50                   	push   %rax
    a4f1:	53                   	push   %rbx
    a4f2:	51                   	push   %rcx
    a4f3:	52                   	push   %rdx
    a4f4:	55                   	push   %rbp
    a4f5:	57                   	push   %rdi
    a4f6:	56                   	push   %rsi
    a4f7:	41 50                	push   %r8
    a4f9:	41 51                	push   %r9
    a4fb:	41 52                	push   %r10
    a4fd:	41 53                	push   %r11
    a4ff:	41 54                	push   %r12
    a501:	41 55                	push   %r13
    a503:	41 56                	push   %r14
    a505:	41 57                	push   %r15
    a507:	48 8c c0             	mov    %es,%rax
    a50a:	50                   	push   %rax
    a50b:	48 8c d8             	mov    %ds,%rax
    a50e:	50                   	push   %rax
    a50f:	48 c7 c0 10 00 00 00 	mov    $0x10,%rax
    a516:	48 8e d8             	mov    %rax,%ds
    a519:	48 8e c0             	mov    %rax,%es
    a51c:	48 c7 c0 0b 00 00 00 	mov    $0xb,%rax
    a523:	48 8d 1d 16 89 00 00 	lea    0x8916(%rip),%rbx        # 0x12e40
    a52a:	48 89 e7             	mov    %rsp,%rdi
    a52d:	48 c7 c6 0b 00 00 00 	mov    $0xb,%rsi
    a534:	ff 14 c3             	call   *(%rbx,%rax,8)
    a537:	e9 3c fc ff ff       	jmp    0xa178
    a53c:	50                   	push   %rax
    a53d:	53                   	push   %rbx
    a53e:	51                   	push   %rcx
    a53f:	52                   	push   %rdx
    a540:	55                   	push   %rbp
    a541:	57                   	push   %rdi
    a542:	56                   	push   %rsi
    a543:	41 50                	push   %r8
    a545:	41 51                	push   %r9
    a547:	41 52                	push   %r10
    a549:	41 53                	push   %r11
    a54b:	41 54                	push   %r12
    a54d:	41 55                	push   %r13
    a54f:	41 56                	push   %r14
    a551:	41 57                	push   %r15
    a553:	48 8c c0             	mov    %es,%rax
    a556:	50                   	push   %rax
    a557:	48 8c d8             	mov    %ds,%rax
    a55a:	50                   	push   %rax
    a55b:	48 c7 c0 10 00 00 00 	mov    $0x10,%rax
    a562:	48 8e d8             	mov    %rax,%ds
    a565:	48 8e c0             	mov    %rax,%es
    a568:	48 c7 c0 0c 00 00 00 	mov    $0xc,%rax
    a56f:	48 8d 1d ca 88 00 00 	lea    0x88ca(%rip),%rbx        # 0x12e40
    a576:	48 89 e7             	mov    %rsp,%rdi
    a579:	48 c7 c6 0c 00 00 00 	mov    $0xc,%rsi
    a580:	ff 14 c3             	call   *(%rbx,%rax,8)
    a583:	e9 f0 fb ff ff       	jmp    0xa178
    a588:	50                   	push   %rax
    a589:	53                   	push   %rbx
    a58a:	51                   	push   %rcx
    a58b:	52                   	push   %rdx
    a58c:	55                   	push   %rbp
    a58d:	57                   	push   %rdi
    a58e:	56                   	push   %rsi
    a58f:	41 50                	push   %r8
    a591:	41 51                	push   %r9
    a593:	41 52                	push   %r10
    a595:	41 53                	push   %r11
    a597:	41 54                	push   %r12
    a599:	41 55                	push   %r13
    a59b:	41 56                	push   %r14
    a59d:	41 57                	push   %r15
    a59f:	48 8c c0             	mov    %es,%rax
    a5a2:	50                   	push   %rax
    a5a3:	48 8c d8             	mov    %ds,%rax
    a5a6:	50                   	push   %rax
    a5a7:	48 c7 c0 10 00 00 00 	mov    $0x10,%rax
    a5ae:	48 8e d8             	mov    %rax,%ds
    a5b1:	48 8e c0             	mov    %rax,%es
    a5b4:	48 c7 c0 0d 00 00 00 	mov    $0xd,%rax
    a5bb:	48 8d 1d 7e 88 00 00 	lea    0x887e(%rip),%rbx        # 0x12e40
    a5c2:	48 89 e7             	mov    %rsp,%rdi
    a5c5:	48 c7 c6 0d 00 00 00 	mov    $0xd,%rsi
    a5cc:	ff 14 c3             	call   *(%rbx,%rax,8)
    a5cf:	e9 a4 fb ff ff       	jmp    0xa178
    a5d4:	50                   	push   %rax
    a5d5:	53                   	push   %rbx
    a5d6:	51                   	push   %rcx
    a5d7:	52                   	push   %rdx
    a5d8:	55                   	push   %rbp
    a5d9:	57                   	push   %rdi
    a5da:	56                   	push   %rsi
    a5db:	41 50                	push   %r8
    a5dd:	41 51                	push   %r9
    a5df:	41 52                	push   %r10
    a5e1:	41 53                	push   %r11
    a5e3:	41 54                	push   %r12
    a5e5:	41 55                	push   %r13
    a5e7:	41 56                	push   %r14
    a5e9:	41 57                	push   %r15
    a5eb:	48 8c c0             	mov    %es,%rax
    a5ee:	50                   	push   %rax
    a5ef:	48 8c d8             	mov    %ds,%rax
    a5f2:	50                   	push   %rax
    a5f3:	48 c7 c0 10 00 00 00 	mov    $0x10,%rax
    a5fa:	48 8e d8             	mov    %rax,%ds
    a5fd:	48 8e c0             	mov    %rax,%es
    a600:	48 c7 c0 0e 00 00 00 	mov    $0xe,%rax
    a607:	48 8d 1d 32 88 00 00 	lea    0x8832(%rip),%rbx        # 0x12e40
    a60e:	48 89 e7             	mov    %rsp,%rdi
    a611:	48 c7 c6 0e 00 00 00 	mov    $0xe,%rsi
    a618:	ff 14 c3             	call   *(%rbx,%rax,8)
    a61b:	e9 58 fb ff ff       	jmp    0xa178
    a620:	6a 00                	push   $0x0
    a622:	50                   	push   %rax
    a623:	53                   	push   %rbx
    a624:	51                   	push   %rcx
    a625:	52                   	push   %rdx
    a626:	55                   	push   %rbp
    a627:	57                   	push   %rdi
    a628:	56                   	push   %rsi
    a629:	41 50                	push   %r8
    a62b:	41 51                	push   %r9
    a62d:	41 52                	push   %r10
    a62f:	41 53                	push   %r11
    a631:	41 54                	push   %r12
    a633:	41 55                	push   %r13
    a635:	41 56                	push   %r14
    a637:	41 57                	push   %r15
    a639:	48 8c c0             	mov    %es,%rax
    a63c:	50                   	push   %rax
    a63d:	48 8c d8             	mov    %ds,%rax
    a640:	50                   	push   %rax
    a641:	48 c7 c0 10 00 00 00 	mov    $0x10,%rax
    a648:	48 8e d8             	mov    %rax,%ds
    a64b:	48 8e c0             	mov    %rax,%es
    a64e:	48 c7 c0 0f 00 00 00 	mov    $0xf,%rax
    a655:	48 8d 1d e4 87 00 00 	lea    0x87e4(%rip),%rbx        # 0x12e40
    a65c:	48 89 e7             	mov    %rsp,%rdi
    a65f:	48 c7 c6 0f 00 00 00 	mov    $0xf,%rsi
    a666:	ff 14 c3             	call   *(%rbx,%rax,8)
    a669:	e9 0a fb ff ff       	jmp    0xa178
    a66e:	6a 00                	push   $0x0
    a670:	50                   	push   %rax
    a671:	53                   	push   %rbx
    a672:	51                   	push   %rcx
    a673:	52                   	push   %rdx
    a674:	55                   	push   %rbp
    a675:	57                   	push   %rdi
    a676:	56                   	push   %rsi
    a677:	41 50                	push   %r8
    a679:	41 51                	push   %r9
    a67b:	41 52                	push   %r10
    a67d:	41 53                	push   %r11
    a67f:	41 54                	push   %r12
    a681:	41 55                	push   %r13
    a683:	41 56                	push   %r14
    a685:	41 57                	push   %r15
    a687:	48 8c c0             	mov    %es,%rax
    a68a:	50                   	push   %rax
    a68b:	48 8c d8             	mov    %ds,%rax
    a68e:	50                   	push   %rax
    a68f:	48 c7 c0 10 00 00 00 	mov    $0x10,%rax
    a696:	48 8e d8             	mov    %rax,%ds
    a699:	48 8e c0             	mov    %rax,%es
    a69c:	48 c7 c0 10 00 00 00 	mov    $0x10,%rax
    a6a3:	48 8d 1d 96 87 00 00 	lea    0x8796(%rip),%rbx        # 0x12e40
    a6aa:	48 89 e7             	mov    %rsp,%rdi
    a6ad:	48 c7 c6 10 00 00 00 	mov    $0x10,%rsi
    a6b4:	ff 14 c3             	call   *(%rbx,%rax,8)
    a6b7:	e9 bc fa ff ff       	jmp    0xa178
    a6bc:	50                   	push   %rax
    a6bd:	53                   	push   %rbx
    a6be:	51                   	push   %rcx
    a6bf:	52                   	push   %rdx
    a6c0:	55                   	push   %rbp
    a6c1:	57                   	push   %rdi
    a6c2:	56                   	push   %rsi
    a6c3:	41 50                	push   %r8
    a6c5:	41 51                	push   %r9
    a6c7:	41 52                	push   %r10
    a6c9:	41 53                	push   %r11
    a6cb:	41 54                	push   %r12
    a6cd:	41 55                	push   %r13
    a6cf:	41 56                	push   %r14
    a6d1:	41 57                	push   %r15
    a6d3:	48 8c c0             	mov    %es,%rax
    a6d6:	50                   	push   %rax
    a6d7:	48 8c d8             	mov    %ds,%rax
    a6da:	50                   	push   %rax
    a6db:	48 c7 c0 10 00 00 00 	mov    $0x10,%rax
    a6e2:	48 8e d8             	mov    %rax,%ds
    a6e5:	48 8e c0             	mov    %rax,%es
    a6e8:	48 c7 c0 11 00 00 00 	mov    $0x11,%rax
    a6ef:	48 8d 1d 4a 87 00 00 	lea    0x874a(%rip),%rbx        # 0x12e40
    a6f6:	48 89 e7             	mov    %rsp,%rdi
    a6f9:	48 c7 c6 11 00 00 00 	mov    $0x11,%rsi
    a700:	ff 14 c3             	call   *(%rbx,%rax,8)
    a703:	e9 70 fa ff ff       	jmp    0xa178
    a708:	6a 00                	push   $0x0
    a70a:	50                   	push   %rax
    a70b:	53                   	push   %rbx
    a70c:	51                   	push   %rcx
    a70d:	52                   	push   %rdx
    a70e:	55                   	push   %rbp
    a70f:	57                   	push   %rdi
    a710:	56                   	push   %rsi
    a711:	41 50                	push   %r8
    a713:	41 51                	push   %r9
    a715:	41 52                	push   %r10
    a717:	41 53                	push   %r11
    a719:	41 54                	push   %r12
    a71b:	41 55                	push   %r13
    a71d:	41 56                	push   %r14
    a71f:	41 57                	push   %r15
    a721:	48 8c c0             	mov    %es,%rax
    a724:	50                   	push   %rax
    a725:	48 8c d8             	mov    %ds,%rax
    a728:	50                   	push   %rax
    a729:	48 c7 c0 10 00 00 00 	mov    $0x10,%rax
    a730:	48 8e d8             	mov    %rax,%ds
    a733:	48 8e c0             	mov    %rax,%es
    a736:	48 c7 c0 12 00 00 00 	mov    $0x12,%rax
    a73d:	48 8d 1d fc 86 00 00 	lea    0x86fc(%rip),%rbx        # 0x12e40
    a744:	48 89 e7             	mov    %rsp,%rdi
    a747:	48 c7 c6 12 00 00 00 	mov    $0x12,%rsi
    a74e:	ff 14 c3             	call   *(%rbx,%rax,8)
    a751:	e9 22 fa ff ff       	jmp    0xa178
    a756:	6a 00                	push   $0x0
    a758:	50                   	push   %rax
    a759:	53                   	push   %rbx
    a75a:	51                   	push   %rcx
    a75b:	52                   	push   %rdx
    a75c:	55                   	push   %rbp
    a75d:	57                   	push   %rdi
    a75e:	56                   	push   %rsi
    a75f:	41 50                	push   %r8
    a761:	41 51                	push   %r9
    a763:	41 52                	push   %r10
    a765:	41 53                	push   %r11
    a767:	41 54                	push   %r12
    a769:	41 55                	push   %r13
    a76b:	41 56                	push   %r14
    a76d:	41 57                	push   %r15
    a76f:	48 8c c0             	mov    %es,%rax
    a772:	50                   	push   %rax
    a773:	48 8c d8             	mov    %ds,%rax
    a776:	50                   	push   %rax
    a777:	48 c7 c0 10 00 00 00 	mov    $0x10,%rax
    a77e:	48 8e d8             	mov    %rax,%ds
    a781:	48 8e c0             	mov    %rax,%es
    a784:	48 c7 c0 13 00 00 00 	mov    $0x13,%rax
    a78b:	48 8d 1d ae 86 00 00 	lea    0x86ae(%rip),%rbx        # 0x12e40
    a792:	48 89 e7             	mov    %rsp,%rdi
    a795:	48 c7 c6 13 00 00 00 	mov    $0x13,%rsi
    a79c:	ff 14 c3             	call   *(%rbx,%rax,8)
    a79f:	e9 d4 f9 ff ff       	jmp    0xa178
    a7a4:	6a 00                	push   $0x0
    a7a6:	50                   	push   %rax
    a7a7:	53                   	push   %rbx
    a7a8:	51                   	push   %rcx
    a7a9:	52                   	push   %rdx
    a7aa:	55                   	push   %rbp
    a7ab:	57                   	push   %rdi
    a7ac:	56                   	push   %rsi
    a7ad:	41 50                	push   %r8
    a7af:	41 51                	push   %r9
    a7b1:	41 52                	push   %r10
    a7b3:	41 53                	push   %r11
    a7b5:	41 54                	push   %r12
    a7b7:	41 55                	push   %r13
    a7b9:	41 56                	push   %r14
    a7bb:	41 57                	push   %r15
    a7bd:	48 8c c0             	mov    %es,%rax
    a7c0:	50                   	push   %rax
    a7c1:	48 8c d8             	mov    %ds,%rax
    a7c4:	50                   	push   %rax
    a7c5:	48 c7 c0 10 00 00 00 	mov    $0x10,%rax
    a7cc:	48 8e d8             	mov    %rax,%ds
    a7cf:	48 8e c0             	mov    %rax,%es
    a7d2:	48 c7 c0 14 00 00 00 	mov    $0x14,%rax
    a7d9:	48 8d 1d 60 86 00 00 	lea    0x8660(%rip),%rbx        # 0x12e40
    a7e0:	48 89 e7             	mov    %rsp,%rdi
    a7e3:	48 c7 c6 14 00 00 00 	mov    $0x14,%rsi
    a7ea:	ff 14 c3             	call   *(%rbx,%rax,8)
    a7ed:	e9 86 f9 ff ff       	jmp    0xa178
    a7f2:	50                   	push   %rax
    a7f3:	53                   	push   %rbx
    a7f4:	51                   	push   %rcx
    a7f5:	52                   	push   %rdx
    a7f6:	55                   	push   %rbp
    a7f7:	57                   	push   %rdi
    a7f8:	56                   	push   %rsi
    a7f9:	41 50                	push   %r8
    a7fb:	41 51                	push   %r9
    a7fd:	41 52                	push   %r10
    a7ff:	41 53                	push   %r11
    a801:	41 54                	push   %r12
    a803:	41 55                	push   %r13
    a805:	41 56                	push   %r14
    a807:	41 57                	push   %r15
    a809:	48 8c c0             	mov    %es,%rax
    a80c:	50                   	push   %rax
    a80d:	48 8c d8             	mov    %ds,%rax
    a810:	50                   	push   %rax
    a811:	48 c7 c0 10 00 00 00 	mov    $0x10,%rax
    a818:	48 8e d8             	mov    %rax,%ds
    a81b:	48 8e c0             	mov    %rax,%es
    a81e:	48 c7 c0 15 00 00 00 	mov    $0x15,%rax
    a825:	48 8d 1d 14 86 00 00 	lea    0x8614(%rip),%rbx        # 0x12e40
    a82c:	48 89 e7             	mov    %rsp,%rdi
    a82f:	48 c7 c6 15 00 00 00 	mov    $0x15,%rsi
    a836:	ff 14 c3             	call   *(%rbx,%rax,8)
    a839:	e9 3a f9 ff ff       	jmp    0xa178
    a83e:	6a 00                	push   $0x0
    a840:	50                   	push   %rax
    a841:	53                   	push   %rbx
    a842:	51                   	push   %rcx
    a843:	52                   	push   %rdx
    a844:	55                   	push   %rbp
    a845:	57                   	push   %rdi
    a846:	56                   	push   %rsi
    a847:	41 50                	push   %r8
    a849:	41 51                	push   %r9
    a84b:	41 52                	push   %r10
    a84d:	41 53                	push   %r11
    a84f:	41 54                	push   %r12
    a851:	41 55                	push   %r13
    a853:	41 56                	push   %r14
    a855:	41 57                	push   %r15
    a857:	48 8c c0             	mov    %es,%rax
    a85a:	50                   	push   %rax
    a85b:	48 8c d8             	mov    %ds,%rax
    a85e:	50                   	push   %rax
    a85f:	48 c7 c0 10 00 00 00 	mov    $0x10,%rax
    a866:	48 8e d8             	mov    %rax,%ds
    a869:	48 8e c0             	mov    %rax,%es
    a86c:	48 c7 c0 16 00 00 00 	mov    $0x16,%rax
    a873:	48 8d 1d c6 85 00 00 	lea    0x85c6(%rip),%rbx        # 0x12e40
    a87a:	48 89 e7             	mov    %rsp,%rdi
    a87d:	48 c7 c6 16 00 00 00 	mov    $0x16,%rsi
    a884:	ff 14 c3             	call   *(%rbx,%rax,8)
    a887:	e9 ec f8 ff ff       	jmp    0xa178
    a88c:	6a 00                	push   $0x0
    a88e:	50                   	push   %rax
    a88f:	53                   	push   %rbx
    a890:	51                   	push   %rcx
    a891:	52                   	push   %rdx
    a892:	55                   	push   %rbp
    a893:	57                   	push   %rdi
    a894:	56                   	push   %rsi
    a895:	41 50                	push   %r8
    a897:	41 51                	push   %r9
    a899:	41 52                	push   %r10
    a89b:	41 53                	push   %r11
    a89d:	41 54                	push   %r12
    a89f:	41 55                	push   %r13
    a8a1:	41 56                	push   %r14
    a8a3:	41 57                	push   %r15
    a8a5:	48 8c c0             	mov    %es,%rax
    a8a8:	50                   	push   %rax
    a8a9:	48 8c d8             	mov    %ds,%rax
    a8ac:	50                   	push   %rax
    a8ad:	48 c7 c0 10 00 00 00 	mov    $0x10,%rax
    a8b4:	48 8e d8             	mov    %rax,%ds
    a8b7:	48 8e c0             	mov    %rax,%es
    a8ba:	48 c7 c0 17 00 00 00 	mov    $0x17,%rax
    a8c1:	48 8d 1d 78 85 00 00 	lea    0x8578(%rip),%rbx        # 0x12e40
    a8c8:	48 89 e7             	mov    %rsp,%rdi
    a8cb:	48 c7 c6 17 00 00 00 	mov    $0x17,%rsi
    a8d2:	ff 14 c3             	call   *(%rbx,%rax,8)
    a8d5:	e9 9e f8 ff ff       	jmp    0xa178
    a8da:	6a 00                	push   $0x0
    a8dc:	50                   	push   %rax
    a8dd:	53                   	push   %rbx
    a8de:	51                   	push   %rcx
    a8df:	52                   	push   %rdx
    a8e0:	55                   	push   %rbp
    a8e1:	57                   	push   %rdi
    a8e2:	56                   	push   %rsi
    a8e3:	41 50                	push   %r8
    a8e5:	41 51                	push   %r9
    a8e7:	41 52                	push   %r10
    a8e9:	41 53                	push   %r11
    a8eb:	41 54                	push   %r12
    a8ed:	41 55                	push   %r13
    a8ef:	41 56                	push   %r14
    a8f1:	41 57                	push   %r15
    a8f3:	48 8c c0             	mov    %es,%rax
    a8f6:	50                   	push   %rax
    a8f7:	48 8c d8             	mov    %ds,%rax
    a8fa:	50                   	push   %rax
    a8fb:	48 c7 c0 10 00 00 00 	mov    $0x10,%rax
    a902:	48 8e d8             	mov    %rax,%ds
    a905:	48 8e c0             	mov    %rax,%es
    a908:	48 c7 c0 18 00 00 00 	mov    $0x18,%rax
    a90f:	48 8d 1d 2a 85 00 00 	lea    0x852a(%rip),%rbx        # 0x12e40
    a916:	48 89 e7             	mov    %rsp,%rdi
    a919:	48 c7 c6 18 00 00 00 	mov    $0x18,%rsi
    a920:	ff 14 c3             	call   *(%rbx,%rax,8)
    a923:	e9 50 f8 ff ff       	jmp    0xa178
    a928:	6a 00                	push   $0x0
    a92a:	50                   	push   %rax
    a92b:	53                   	push   %rbx
    a92c:	51                   	push   %rcx
    a92d:	52                   	push   %rdx
    a92e:	55                   	push   %rbp
    a92f:	57                   	push   %rdi
    a930:	56                   	push   %rsi
    a931:	41 50                	push   %r8
    a933:	41 51                	push   %r9
    a935:	41 52                	push   %r10
    a937:	41 53                	push   %r11
    a939:	41 54                	push   %r12
    a93b:	41 55                	push   %r13
    a93d:	41 56                	push   %r14
    a93f:	41 57                	push   %r15
    a941:	48 8c c0             	mov    %es,%rax
    a944:	50                   	push   %rax
    a945:	48 8c d8             	mov    %ds,%rax
    a948:	50                   	push   %rax
    a949:	48 c7 c0 10 00 00 00 	mov    $0x10,%rax
    a950:	48 8e d8             	mov    %rax,%ds
    a953:	48 8e c0             	mov    %rax,%es
    a956:	48 c7 c0 19 00 00 00 	mov    $0x19,%rax
    a95d:	48 8d 1d dc 84 00 00 	lea    0x84dc(%rip),%rbx        # 0x12e40
    a964:	48 89 e7             	mov    %rsp,%rdi
    a967:	48 c7 c6 19 00 00 00 	mov    $0x19,%rsi
    a96e:	ff 14 c3             	call   *(%rbx,%rax,8)
    a971:	e9 02 f8 ff ff       	jmp    0xa178
    a976:	6a 00                	push   $0x0
    a978:	50                   	push   %rax
    a979:	53                   	push   %rbx
    a97a:	51                   	push   %rcx
    a97b:	52                   	push   %rdx
    a97c:	55                   	push   %rbp
    a97d:	57                   	push   %rdi
    a97e:	56                   	push   %rsi
    a97f:	41 50                	push   %r8
    a981:	41 51                	push   %r9
    a983:	41 52                	push   %r10
    a985:	41 53                	push   %r11
    a987:	41 54                	push   %r12
    a989:	41 55                	push   %r13
    a98b:	41 56                	push   %r14
    a98d:	41 57                	push   %r15
    a98f:	48 8c c0             	mov    %es,%rax
    a992:	50                   	push   %rax
    a993:	48 8c d8             	mov    %ds,%rax
    a996:	50                   	push   %rax
    a997:	48 c7 c0 10 00 00 00 	mov    $0x10,%rax
    a99e:	48 8e d8             	mov    %rax,%ds
    a9a1:	48 8e c0             	mov    %rax,%es
    a9a4:	48 c7 c0 1a 00 00 00 	mov    $0x1a,%rax
    a9ab:	48 8d 1d 8e 84 00 00 	lea    0x848e(%rip),%rbx        # 0x12e40
    a9b2:	48 89 e7             	mov    %rsp,%rdi
    a9b5:	48 c7 c6 1a 00 00 00 	mov    $0x1a,%rsi
    a9bc:	ff 14 c3             	call   *(%rbx,%rax,8)
    a9bf:	e9 b4 f7 ff ff       	jmp    0xa178
    a9c4:	6a 00                	push   $0x0
    a9c6:	50                   	push   %rax
    a9c7:	53                   	push   %rbx
    a9c8:	51                   	push   %rcx
    a9c9:	52                   	push   %rdx
    a9ca:	55                   	push   %rbp
    a9cb:	57                   	push   %rdi
    a9cc:	56                   	push   %rsi
    a9cd:	41 50                	push   %r8
    a9cf:	41 51                	push   %r9
    a9d1:	41 52                	push   %r10
    a9d3:	41 53                	push   %r11
    a9d5:	41 54                	push   %r12
    a9d7:	41 55                	push   %r13
    a9d9:	41 56                	push   %r14
    a9db:	41 57                	push   %r15
    a9dd:	48 8c c0             	mov    %es,%rax
    a9e0:	50                   	push   %rax
    a9e1:	48 8c d8             	mov    %ds,%rax
    a9e4:	50                   	push   %rax
    a9e5:	48 c7 c0 10 00 00 00 	mov    $0x10,%rax
    a9ec:	48 8e d8             	mov    %rax,%ds
    a9ef:	48 8e c0             	mov    %rax,%es
    a9f2:	48 c7 c0 1b 00 00 00 	mov    $0x1b,%rax
    a9f9:	48 8d 1d 40 84 00 00 	lea    0x8440(%rip),%rbx        # 0x12e40
    aa00:	48 89 e7             	mov    %rsp,%rdi
    aa03:	48 c7 c6 1b 00 00 00 	mov    $0x1b,%rsi
    aa0a:	ff 14 c3             	call   *(%rbx,%rax,8)
    aa0d:	e9 66 f7 ff ff       	jmp    0xa178
    aa12:	6a 00                	push   $0x0
    aa14:	50                   	push   %rax
    aa15:	53                   	push   %rbx
    aa16:	51                   	push   %rcx
    aa17:	52                   	push   %rdx
    aa18:	55                   	push   %rbp
    aa19:	57                   	push   %rdi
    aa1a:	56                   	push   %rsi
    aa1b:	41 50                	push   %r8
    aa1d:	41 51                	push   %r9
    aa1f:	41 52                	push   %r10
    aa21:	41 53                	push   %r11
    aa23:	41 54                	push   %r12
    aa25:	41 55                	push   %r13
    aa27:	41 56                	push   %r14
    aa29:	41 57                	push   %r15
    aa2b:	48 8c c0             	mov    %es,%rax
    aa2e:	50                   	push   %rax
    aa2f:	48 8c d8             	mov    %ds,%rax
    aa32:	50                   	push   %rax
    aa33:	48 c7 c0 10 00 00 00 	mov    $0x10,%rax
    aa3a:	48 8e d8             	mov    %rax,%ds
    aa3d:	48 8e c0             	mov    %rax,%es
    aa40:	48 c7 c0 1c 00 00 00 	mov    $0x1c,%rax
    aa47:	48 8d 1d f2 83 00 00 	lea    0x83f2(%rip),%rbx        # 0x12e40
    aa4e:	48 89 e7             	mov    %rsp,%rdi
    aa51:	48 c7 c6 1c 00 00 00 	mov    $0x1c,%rsi
    aa58:	ff 14 c3             	call   *(%rbx,%rax,8)
    aa5b:	e9 18 f7 ff ff       	jmp    0xa178
    aa60:	6a 00                	push   $0x0
    aa62:	50                   	push   %rax
    aa63:	53                   	push   %rbx
    aa64:	51                   	push   %rcx
    aa65:	52                   	push   %rdx
    aa66:	55                   	push   %rbp
    aa67:	57                   	push   %rdi
    aa68:	56                   	push   %rsi
    aa69:	41 50                	push   %r8
    aa6b:	41 51                	push   %r9
    aa6d:	41 52                	push   %r10
    aa6f:	41 53                	push   %r11
    aa71:	41 54                	push   %r12
    aa73:	41 55                	push   %r13
    aa75:	41 56                	push   %r14
    aa77:	41 57                	push   %r15
    aa79:	48 8c c0             	mov    %es,%rax
    aa7c:	50                   	push   %rax
    aa7d:	48 8c d8             	mov    %ds,%rax
    aa80:	50                   	push   %rax
    aa81:	48 c7 c0 10 00 00 00 	mov    $0x10,%rax
    aa88:	48 8e d8             	mov    %rax,%ds
    aa8b:	48 8e c0             	mov    %rax,%es
    aa8e:	48 c7 c0 1d 00 00 00 	mov    $0x1d,%rax
    aa95:	48 8d 1d a4 83 00 00 	lea    0x83a4(%rip),%rbx        # 0x12e40
    aa9c:	48 89 e7             	mov    %rsp,%rdi
    aa9f:	48 c7 c6 1d 00 00 00 	mov    $0x1d,%rsi
    aaa6:	ff 14 c3             	call   *(%rbx,%rax,8)
    aaa9:	e9 ca f6 ff ff       	jmp    0xa178
    aaae:	6a 00                	push   $0x0
    aab0:	50                   	push   %rax
    aab1:	53                   	push   %rbx
    aab2:	51                   	push   %rcx
    aab3:	52                   	push   %rdx
    aab4:	55                   	push   %rbp
    aab5:	57                   	push   %rdi
    aab6:	56                   	push   %rsi
    aab7:	41 50                	push   %r8
    aab9:	41 51                	push   %r9
    aabb:	41 52                	push   %r10
    aabd:	41 53                	push   %r11
    aabf:	41 54                	push   %r12
    aac1:	41 55                	push   %r13
    aac3:	41 56                	push   %r14
    aac5:	41 57                	push   %r15
    aac7:	48 8c c0             	mov    %es,%rax
    aaca:	50                   	push   %rax
    aacb:	48 8c d8             	mov    %ds,%rax
    aace:	50                   	push   %rax
    aacf:	48 c7 c0 10 00 00 00 	mov    $0x10,%rax
    aad6:	48 8e d8             	mov    %rax,%ds
    aad9:	48 8e c0             	mov    %rax,%es
    aadc:	48 c7 c0 1e 00 00 00 	mov    $0x1e,%rax
    aae3:	48 8d 1d 56 83 00 00 	lea    0x8356(%rip),%rbx        # 0x12e40
    aaea:	48 89 e7             	mov    %rsp,%rdi
    aaed:	48 c7 c6 1e 00 00 00 	mov    $0x1e,%rsi
    aaf4:	ff 14 c3             	call   *(%rbx,%rax,8)
    aaf7:	e9 7c f6 ff ff       	jmp    0xa178
    aafc:	6a 00                	push   $0x0
    aafe:	50                   	push   %rax
    aaff:	53                   	push   %rbx
    ab00:	51                   	push   %rcx
    ab01:	52                   	push   %rdx
    ab02:	55                   	push   %rbp
    ab03:	57                   	push   %rdi
    ab04:	56                   	push   %rsi
    ab05:	41 50                	push   %r8
    ab07:	41 51                	push   %r9
    ab09:	41 52                	push   %r10
    ab0b:	41 53                	push   %r11
    ab0d:	41 54                	push   %r12
    ab0f:	41 55                	push   %r13
    ab11:	41 56                	push   %r14
    ab13:	41 57                	push   %r15
    ab15:	48 8c c0             	mov    %es,%rax
    ab18:	50                   	push   %rax
    ab19:	48 8c d8             	mov    %ds,%rax
    ab1c:	50                   	push   %rax
    ab1d:	48 c7 c0 10 00 00 00 	mov    $0x10,%rax
    ab24:	48 8e d8             	mov    %rax,%ds
    ab27:	48 8e c0             	mov    %rax,%es
    ab2a:	48 c7 c0 1f 00 00 00 	mov    $0x1f,%rax
    ab31:	48 8d 1d 08 83 00 00 	lea    0x8308(%rip),%rbx        # 0x12e40
    ab38:	48 89 e7             	mov    %rsp,%rdi
    ab3b:	48 c7 c6 1f 00 00 00 	mov    $0x1f,%rsi
    ab42:	ff 14 c3             	call   *(%rbx,%rax,8)
    ab45:	e9 2e f6 ff ff       	jmp    0xa178
    ab4a:	6a 00                	push   $0x0
    ab4c:	50                   	push   %rax
    ab4d:	53                   	push   %rbx
    ab4e:	51                   	push   %rcx
    ab4f:	52                   	push   %rdx
    ab50:	55                   	push   %rbp
    ab51:	57                   	push   %rdi
    ab52:	56                   	push   %rsi
    ab53:	41 50                	push   %r8
    ab55:	41 51                	push   %r9
    ab57:	41 52                	push   %r10
    ab59:	41 53                	push   %r11
    ab5b:	41 54                	push   %r12
    ab5d:	41 55                	push   %r13
    ab5f:	41 56                	push   %r14
    ab61:	41 57                	push   %r15
    ab63:	48 8c c0             	mov    %es,%rax
    ab66:	50                   	push   %rax
    ab67:	48 8c d8             	mov    %ds,%rax
    ab6a:	50                   	push   %rax
    ab6b:	48 c7 c0 10 00 00 00 	mov    $0x10,%rax
    ab72:	48 8e d8             	mov    %rax,%ds
    ab75:	48 8e c0             	mov    %rax,%es
    ab78:	48 c7 c0 20 00 00 00 	mov    $0x20,%rax
    ab7f:	48 8d 1d ba 82 00 00 	lea    0x82ba(%rip),%rbx        # 0x12e40
    ab86:	48 89 e7             	mov    %rsp,%rdi
    ab89:	48 c7 c6 20 00 00 00 	mov    $0x20,%rsi
    ab90:	ff 14 c3             	call   *(%rbx,%rax,8)
    ab93:	e9 e0 f5 ff ff       	jmp    0xa178
    ab98:	6a 00                	push   $0x0
    ab9a:	50                   	push   %rax
    ab9b:	53                   	push   %rbx
    ab9c:	51                   	push   %rcx
    ab9d:	52                   	push   %rdx
    ab9e:	55                   	push   %rbp
    ab9f:	57                   	push   %rdi
    aba0:	56                   	push   %rsi
    aba1:	41 50                	push   %r8
    aba3:	41 51                	push   %r9
    aba5:	41 52                	push   %r10
    aba7:	41 53                	push   %r11
    aba9:	41 54                	push   %r12
    abab:	41 55                	push   %r13
    abad:	41 56                	push   %r14
    abaf:	41 57                	push   %r15
    abb1:	48 8c c0             	mov    %es,%rax
    abb4:	50                   	push   %rax
    abb5:	48 8c d8             	mov    %ds,%rax
    abb8:	50                   	push   %rax
    abb9:	48 c7 c0 10 00 00 00 	mov    $0x10,%rax
    abc0:	48 8e d8             	mov    %rax,%ds
    abc3:	48 8e c0             	mov    %rax,%es
    abc6:	48 c7 c0 21 00 00 00 	mov    $0x21,%rax
    abcd:	48 8d 1d 6c 82 00 00 	lea    0x826c(%rip),%rbx        # 0x12e40
    abd4:	48 89 e7             	mov    %rsp,%rdi
    abd7:	48 c7 c6 21 00 00 00 	mov    $0x21,%rsi
    abde:	ff 14 c3             	call   *(%rbx,%rax,8)
    abe1:	e9 92 f5 ff ff       	jmp    0xa178
    abe6:	6a 00                	push   $0x0
    abe8:	50                   	push   %rax
    abe9:	53                   	push   %rbx
    abea:	51                   	push   %rcx
    abeb:	52                   	push   %rdx
    abec:	55                   	push   %rbp
    abed:	57                   	push   %rdi
    abee:	56                   	push   %rsi
    abef:	41 50                	push   %r8
    abf1:	41 51                	push   %r9
    abf3:	41 52                	push   %r10
    abf5:	41 53                	push   %r11
    abf7:	41 54                	push   %r12
    abf9:	41 55                	push   %r13
    abfb:	41 56                	push   %r14
    abfd:	41 57                	push   %r15
    abff:	48 8c c0             	mov    %es,%rax
    ac02:	50                   	push   %rax
    ac03:	48 8c d8             	mov    %ds,%rax
    ac06:	50                   	push   %rax
    ac07:	48 c7 c0 10 00 00 00 	mov    $0x10,%rax
    ac0e:	48 8e d8             	mov    %rax,%ds
    ac11:	48 8e c0             	mov    %rax,%es
    ac14:	48 c7 c0 22 00 00 00 	mov    $0x22,%rax
    ac1b:	48 8d 1d 1e 82 00 00 	lea    0x821e(%rip),%rbx        # 0x12e40
    ac22:	48 89 e7             	mov    %rsp,%rdi
    ac25:	48 c7 c6 22 00 00 00 	mov    $0x22,%rsi
    ac2c:	ff 14 c3             	call   *(%rbx,%rax,8)
    ac2f:	e9 44 f5 ff ff       	jmp    0xa178
    ac34:	6a 00                	push   $0x0
    ac36:	50                   	push   %rax
    ac37:	53                   	push   %rbx
    ac38:	51                   	push   %rcx
    ac39:	52                   	push   %rdx
    ac3a:	55                   	push   %rbp
    ac3b:	57                   	push   %rdi
    ac3c:	56                   	push   %rsi
    ac3d:	41 50                	push   %r8
    ac3f:	41 51                	push   %r9
    ac41:	41 52                	push   %r10
    ac43:	41 53                	push   %r11
    ac45:	41 54                	push   %r12
    ac47:	41 55                	push   %r13
    ac49:	41 56                	push   %r14
    ac4b:	41 57                	push   %r15
    ac4d:	48 8c c0             	mov    %es,%rax
    ac50:	50                   	push   %rax
    ac51:	48 8c d8             	mov    %ds,%rax
    ac54:	50                   	push   %rax
    ac55:	48 c7 c0 10 00 00 00 	mov    $0x10,%rax
    ac5c:	48 8e d8             	mov    %rax,%ds
    ac5f:	48 8e c0             	mov    %rax,%es
    ac62:	48 c7 c0 23 00 00 00 	mov    $0x23,%rax
    ac69:	48 8d 1d d0 81 00 00 	lea    0x81d0(%rip),%rbx        # 0x12e40
    ac70:	48 89 e7             	mov    %rsp,%rdi
    ac73:	48 c7 c6 23 00 00 00 	mov    $0x23,%rsi
    ac7a:	ff 14 c3             	call   *(%rbx,%rax,8)
    ac7d:	e9 f6 f4 ff ff       	jmp    0xa178
    ac82:	6a 00                	push   $0x0
    ac84:	50                   	push   %rax
    ac85:	53                   	push   %rbx
    ac86:	51                   	push   %rcx
    ac87:	52                   	push   %rdx
    ac88:	55                   	push   %rbp
    ac89:	57                   	push   %rdi
    ac8a:	56                   	push   %rsi
    ac8b:	41 50                	push   %r8
    ac8d:	41 51                	push   %r9
    ac8f:	41 52                	push   %r10
    ac91:	41 53                	push   %r11
    ac93:	41 54                	push   %r12
    ac95:	41 55                	push   %r13
    ac97:	41 56                	push   %r14
    ac99:	41 57                	push   %r15
    ac9b:	48 8c c0             	mov    %es,%rax
    ac9e:	50                   	push   %rax
    ac9f:	48 8c d8             	mov    %ds,%rax
    aca2:	50                   	push   %rax
    aca3:	48 c7 c0 10 00 00 00 	mov    $0x10,%rax
    acaa:	48 8e d8             	mov    %rax,%ds
    acad:	48 8e c0             	mov    %rax,%es
    acb0:	48 c7 c0 24 00 00 00 	mov    $0x24,%rax
    acb7:	48 8d 1d 82 81 00 00 	lea    0x8182(%rip),%rbx        # 0x12e40
    acbe:	48 89 e7             	mov    %rsp,%rdi
    acc1:	48 c7 c6 24 00 00 00 	mov    $0x24,%rsi
    acc8:	ff 14 c3             	call   *(%rbx,%rax,8)
    accb:	e9 a8 f4 ff ff       	jmp    0xa178
    acd0:	6a 00                	push   $0x0
    acd2:	50                   	push   %rax
    acd3:	53                   	push   %rbx
    acd4:	51                   	push   %rcx
    acd5:	52                   	push   %rdx
    acd6:	55                   	push   %rbp
    acd7:	57                   	push   %rdi
    acd8:	56                   	push   %rsi
    acd9:	41 50                	push   %r8
    acdb:	41 51                	push   %r9
    acdd:	41 52                	push   %r10
    acdf:	41 53                	push   %r11
    ace1:	41 54                	push   %r12
    ace3:	41 55                	push   %r13
    ace5:	41 56                	push   %r14
    ace7:	41 57                	push   %r15
    ace9:	48 8c c0             	mov    %es,%rax
    acec:	50                   	push   %rax
    aced:	48 8c d8             	mov    %ds,%rax
    acf0:	50                   	push   %rax
    acf1:	48 c7 c0 10 00 00 00 	mov    $0x10,%rax
    acf8:	48 8e d8             	mov    %rax,%ds
    acfb:	48 8e c0             	mov    %rax,%es
    acfe:	48 c7 c0 25 00 00 00 	mov    $0x25,%rax
    ad05:	48 8d 1d 34 81 00 00 	lea    0x8134(%rip),%rbx        # 0x12e40
    ad0c:	48 89 e7             	mov    %rsp,%rdi
    ad0f:	48 c7 c6 25 00 00 00 	mov    $0x25,%rsi
    ad16:	ff 14 c3             	call   *(%rbx,%rax,8)
    ad19:	e9 5a f4 ff ff       	jmp    0xa178
    ad1e:	6a 00                	push   $0x0
    ad20:	50                   	push   %rax
    ad21:	53                   	push   %rbx
    ad22:	51                   	push   %rcx
    ad23:	52                   	push   %rdx
    ad24:	55                   	push   %rbp
    ad25:	57                   	push   %rdi
    ad26:	56                   	push   %rsi
    ad27:	41 50                	push   %r8
    ad29:	41 51                	push   %r9
    ad2b:	41 52                	push   %r10
    ad2d:	41 53                	push   %r11
    ad2f:	41 54                	push   %r12
    ad31:	41 55                	push   %r13
    ad33:	41 56                	push   %r14
    ad35:	41 57                	push   %r15
    ad37:	48 8c c0             	mov    %es,%rax
    ad3a:	50                   	push   %rax
    ad3b:	48 8c d8             	mov    %ds,%rax
    ad3e:	50                   	push   %rax
    ad3f:	48 c7 c0 10 00 00 00 	mov    $0x10,%rax
    ad46:	48 8e d8             	mov    %rax,%ds
    ad49:	48 8e c0             	mov    %rax,%es
    ad4c:	48 c7 c0 26 00 00 00 	mov    $0x26,%rax
    ad53:	48 8d 1d e6 80 00 00 	lea    0x80e6(%rip),%rbx        # 0x12e40
    ad5a:	48 89 e7             	mov    %rsp,%rdi
    ad5d:	48 c7 c6 26 00 00 00 	mov    $0x26,%rsi
    ad64:	ff 14 c3             	call   *(%rbx,%rax,8)
    ad67:	e9 0c f4 ff ff       	jmp    0xa178
    ad6c:	6a 00                	push   $0x0
    ad6e:	50                   	push   %rax
    ad6f:	53                   	push   %rbx
    ad70:	51                   	push   %rcx
    ad71:	52                   	push   %rdx
    ad72:	55                   	push   %rbp
    ad73:	57                   	push   %rdi
    ad74:	56                   	push   %rsi
    ad75:	41 50                	push   %r8
    ad77:	41 51                	push   %r9
    ad79:	41 52                	push   %r10
    ad7b:	41 53                	push   %r11
    ad7d:	41 54                	push   %r12
    ad7f:	41 55                	push   %r13
    ad81:	41 56                	push   %r14
    ad83:	41 57                	push   %r15
    ad85:	48 8c c0             	mov    %es,%rax
    ad88:	50                   	push   %rax
    ad89:	48 8c d8             	mov    %ds,%rax
    ad8c:	50                   	push   %rax
    ad8d:	48 c7 c0 10 00 00 00 	mov    $0x10,%rax
    ad94:	48 8e d8             	mov    %rax,%ds
    ad97:	48 8e c0             	mov    %rax,%es
    ad9a:	48 c7 c0 27 00 00 00 	mov    $0x27,%rax
    ada1:	48 8d 1d 98 80 00 00 	lea    0x8098(%rip),%rbx        # 0x12e40
    ada8:	48 89 e7             	mov    %rsp,%rdi
    adab:	48 c7 c6 27 00 00 00 	mov    $0x27,%rsi
    adb2:	ff 14 c3             	call   *(%rbx,%rax,8)
    adb5:	e9 be f3 ff ff       	jmp    0xa178
    adba:	6a 00                	push   $0x0
    adbc:	50                   	push   %rax
    adbd:	53                   	push   %rbx
    adbe:	51                   	push   %rcx
    adbf:	52                   	push   %rdx
    adc0:	55                   	push   %rbp
    adc1:	57                   	push   %rdi
    adc2:	56                   	push   %rsi
    adc3:	41 50                	push   %r8
    adc5:	41 51                	push   %r9
    adc7:	41 52                	push   %r10
    adc9:	41 53                	push   %r11
    adcb:	41 54                	push   %r12
    adcd:	41 55                	push   %r13
    adcf:	41 56                	push   %r14
    add1:	41 57                	push   %r15
    add3:	48 8c c0             	mov    %es,%rax
    add6:	50                   	push   %rax
    add7:	48 8c d8             	mov    %ds,%rax
    adda:	50                   	push   %rax
    addb:	48 c7 c0 10 00 00 00 	mov    $0x10,%rax
    ade2:	48 8e d8             	mov    %rax,%ds
    ade5:	48 8e c0             	mov    %rax,%es
    ade8:	48 c7 c0 28 00 00 00 	mov    $0x28,%rax
    adef:	48 8d 1d 4a 80 00 00 	lea    0x804a(%rip),%rbx        # 0x12e40
    adf6:	48 89 e7             	mov    %rsp,%rdi
    adf9:	48 c7 c6 28 00 00 00 	mov    $0x28,%rsi
    ae00:	ff 14 c3             	call   *(%rbx,%rax,8)
    ae03:	e9 70 f3 ff ff       	jmp    0xa178
    ae08:	6a 00                	push   $0x0
    ae0a:	50                   	push   %rax
    ae0b:	53                   	push   %rbx
    ae0c:	51                   	push   %rcx
    ae0d:	52                   	push   %rdx
    ae0e:	55                   	push   %rbp
    ae0f:	57                   	push   %rdi
    ae10:	56                   	push   %rsi
    ae11:	41 50                	push   %r8
    ae13:	41 51                	push   %r9
    ae15:	41 52                	push   %r10
    ae17:	41 53                	push   %r11
    ae19:	41 54                	push   %r12
    ae1b:	41 55                	push   %r13
    ae1d:	41 56                	push   %r14
    ae1f:	41 57                	push   %r15
    ae21:	48 8c c0             	mov    %es,%rax
    ae24:	50                   	push   %rax
    ae25:	48 8c d8             	mov    %ds,%rax
    ae28:	50                   	push   %rax
    ae29:	48 c7 c0 10 00 00 00 	mov    $0x10,%rax
    ae30:	48 8e d8             	mov    %rax,%ds
    ae33:	48 8e c0             	mov    %rax,%es
    ae36:	48 c7 c0 29 00 00 00 	mov    $0x29,%rax
    ae3d:	48 8d 1d fc 7f 00 00 	lea    0x7ffc(%rip),%rbx        # 0x12e40
    ae44:	48 89 e7             	mov    %rsp,%rdi
    ae47:	48 c7 c6 29 00 00 00 	mov    $0x29,%rsi
    ae4e:	ff 14 c3             	call   *(%rbx,%rax,8)
    ae51:	e9 22 f3 ff ff       	jmp    0xa178
    ae56:	6a 00                	push   $0x0
    ae58:	50                   	push   %rax
    ae59:	53                   	push   %rbx
    ae5a:	51                   	push   %rcx
    ae5b:	52                   	push   %rdx
    ae5c:	55                   	push   %rbp
    ae5d:	57                   	push   %rdi
    ae5e:	56                   	push   %rsi
    ae5f:	41 50                	push   %r8
    ae61:	41 51                	push   %r9
    ae63:	41 52                	push   %r10
    ae65:	41 53                	push   %r11
    ae67:	41 54                	push   %r12
    ae69:	41 55                	push   %r13
    ae6b:	41 56                	push   %r14
    ae6d:	41 57                	push   %r15
    ae6f:	48 8c c0             	mov    %es,%rax
    ae72:	50                   	push   %rax
    ae73:	48 8c d8             	mov    %ds,%rax
    ae76:	50                   	push   %rax
    ae77:	48 c7 c0 10 00 00 00 	mov    $0x10,%rax
    ae7e:	48 8e d8             	mov    %rax,%ds
    ae81:	48 8e c0             	mov    %rax,%es
    ae84:	48 c7 c0 2a 00 00 00 	mov    $0x2a,%rax
    ae8b:	48 8d 1d ae 7f 00 00 	lea    0x7fae(%rip),%rbx        # 0x12e40
    ae92:	48 89 e7             	mov    %rsp,%rdi
    ae95:	48 c7 c6 2a 00 00 00 	mov    $0x2a,%rsi
    ae9c:	ff 14 c3             	call   *(%rbx,%rax,8)
    ae9f:	e9 d4 f2 ff ff       	jmp    0xa178
    aea4:	6a 00                	push   $0x0
    aea6:	50                   	push   %rax
    aea7:	53                   	push   %rbx
    aea8:	51                   	push   %rcx
    aea9:	52                   	push   %rdx
    aeaa:	55                   	push   %rbp
    aeab:	57                   	push   %rdi
    aeac:	56                   	push   %rsi
    aead:	41 50                	push   %r8
    aeaf:	41 51                	push   %r9
    aeb1:	41 52                	push   %r10
    aeb3:	41 53                	push   %r11
    aeb5:	41 54                	push   %r12
    aeb7:	41 55                	push   %r13
    aeb9:	41 56                	push   %r14
    aebb:	41 57                	push   %r15
    aebd:	48 8c c0             	mov    %es,%rax
    aec0:	50                   	push   %rax
    aec1:	48 8c d8             	mov    %ds,%rax
    aec4:	50                   	push   %rax
    aec5:	48 c7 c0 10 00 00 00 	mov    $0x10,%rax
    aecc:	48 8e d8             	mov    %rax,%ds
    aecf:	48 8e c0             	mov    %rax,%es
    aed2:	48 c7 c0 2b 00 00 00 	mov    $0x2b,%rax
    aed9:	48 8d 1d 60 7f 00 00 	lea    0x7f60(%rip),%rbx        # 0x12e40
    aee0:	48 89 e7             	mov    %rsp,%rdi
    aee3:	48 c7 c6 2b 00 00 00 	mov    $0x2b,%rsi
    aeea:	ff 14 c3             	call   *(%rbx,%rax,8)
    aeed:	e9 86 f2 ff ff       	jmp    0xa178
    aef2:	6a 00                	push   $0x0
    aef4:	50                   	push   %rax
    aef5:	53                   	push   %rbx
    aef6:	51                   	push   %rcx
    aef7:	52                   	push   %rdx
    aef8:	55                   	push   %rbp
    aef9:	57                   	push   %rdi
    aefa:	56                   	push   %rsi
    aefb:	41 50                	push   %r8
    aefd:	41 51                	push   %r9
    aeff:	41 52                	push   %r10
    af01:	41 53                	push   %r11
    af03:	41 54                	push   %r12
    af05:	41 55                	push   %r13
    af07:	41 56                	push   %r14
    af09:	41 57                	push   %r15
    af0b:	48 8c c0             	mov    %es,%rax
    af0e:	50                   	push   %rax
    af0f:	48 8c d8             	mov    %ds,%rax
    af12:	50                   	push   %rax
    af13:	48 c7 c0 10 00 00 00 	mov    $0x10,%rax
    af1a:	48 8e d8             	mov    %rax,%ds
    af1d:	48 8e c0             	mov    %rax,%es
    af20:	48 c7 c0 2c 00 00 00 	mov    $0x2c,%rax
    af27:	48 8d 1d 12 7f 00 00 	lea    0x7f12(%rip),%rbx        # 0x12e40
    af2e:	48 89 e7             	mov    %rsp,%rdi
    af31:	48 c7 c6 2c 00 00 00 	mov    $0x2c,%rsi
    af38:	ff 14 c3             	call   *(%rbx,%rax,8)
    af3b:	e9 38 f2 ff ff       	jmp    0xa178
    af40:	6a 00                	push   $0x0
    af42:	50                   	push   %rax
    af43:	53                   	push   %rbx
    af44:	51                   	push   %rcx
    af45:	52                   	push   %rdx
    af46:	55                   	push   %rbp
    af47:	57                   	push   %rdi
    af48:	56                   	push   %rsi
    af49:	41 50                	push   %r8
    af4b:	41 51                	push   %r9
    af4d:	41 52                	push   %r10
    af4f:	41 53                	push   %r11
    af51:	41 54                	push   %r12
    af53:	41 55                	push   %r13
    af55:	41 56                	push   %r14
    af57:	41 57                	push   %r15
    af59:	48 8c c0             	mov    %es,%rax
    af5c:	50                   	push   %rax
    af5d:	48 8c d8             	mov    %ds,%rax
    af60:	50                   	push   %rax
    af61:	48 c7 c0 10 00 00 00 	mov    $0x10,%rax
    af68:	48 8e d8             	mov    %rax,%ds
    af6b:	48 8e c0             	mov    %rax,%es
    af6e:	48 c7 c0 2d 00 00 00 	mov    $0x2d,%rax
    af75:	48 8d 1d c4 7e 00 00 	lea    0x7ec4(%rip),%rbx        # 0x12e40
    af7c:	48 89 e7             	mov    %rsp,%rdi
    af7f:	48 c7 c6 2d 00 00 00 	mov    $0x2d,%rsi
    af86:	ff 14 c3             	call   *(%rbx,%rax,8)
    af89:	e9 ea f1 ff ff       	jmp    0xa178
    af8e:	6a 00                	push   $0x0
    af90:	50                   	push   %rax
    af91:	53                   	push   %rbx
    af92:	51                   	push   %rcx
    af93:	52                   	push   %rdx
    af94:	55                   	push   %rbp
    af95:	57                   	push   %rdi
    af96:	56                   	push   %rsi
    af97:	41 50                	push   %r8
    af99:	41 51                	push   %r9
    af9b:	41 52                	push   %r10
    af9d:	41 53                	push   %r11
    af9f:	41 54                	push   %r12
    afa1:	41 55                	push   %r13
    afa3:	41 56                	push   %r14
    afa5:	41 57                	push   %r15
    afa7:	48 8c c0             	mov    %es,%rax
    afaa:	50                   	push   %rax
    afab:	48 8c d8             	mov    %ds,%rax
    afae:	50                   	push   %rax
    afaf:	48 c7 c0 10 00 00 00 	mov    $0x10,%rax
    afb6:	48 8e d8             	mov    %rax,%ds
    afb9:	48 8e c0             	mov    %rax,%es
    afbc:	48 c7 c0 2e 00 00 00 	mov    $0x2e,%rax
    afc3:	48 8d 1d 76 7e 00 00 	lea    0x7e76(%rip),%rbx        # 0x12e40
    afca:	48 89 e7             	mov    %rsp,%rdi
    afcd:	48 c7 c6 2e 00 00 00 	mov    $0x2e,%rsi
    afd4:	ff 14 c3             	call   *(%rbx,%rax,8)
    afd7:	e9 9c f1 ff ff       	jmp    0xa178
    afdc:	6a 00                	push   $0x0
    afde:	50                   	push   %rax
    afdf:	53                   	push   %rbx
    afe0:	51                   	push   %rcx
    afe1:	52                   	push   %rdx
    afe2:	55                   	push   %rbp
    afe3:	57                   	push   %rdi
    afe4:	56                   	push   %rsi
    afe5:	41 50                	push   %r8
    afe7:	41 51                	push   %r9
    afe9:	41 52                	push   %r10
    afeb:	41 53                	push   %r11
    afed:	41 54                	push   %r12
    afef:	41 55                	push   %r13
    aff1:	41 56                	push   %r14
    aff3:	41 57                	push   %r15
    aff5:	48 8c c0             	mov    %es,%rax
    aff8:	50                   	push   %rax
    aff9:	48 8c d8             	mov    %ds,%rax
    affc:	50                   	push   %rax
    affd:	48 c7 c0 10 00 00 00 	mov    $0x10,%rax
    b004:	48 8e d8             	mov    %rax,%ds
    b007:	48 8e c0             	mov    %rax,%es
    b00a:	48 c7 c0 2f 00 00 00 	mov    $0x2f,%rax
    b011:	48 8d 1d 28 7e 00 00 	lea    0x7e28(%rip),%rbx        # 0x12e40
    b018:	48 89 e7             	mov    %rsp,%rdi
    b01b:	48 c7 c6 2f 00 00 00 	mov    $0x2f,%rsi
    b022:	ff 14 c3             	call   *(%rbx,%rax,8)
    b025:	e9 4e f1 ff ff       	jmp    0xa178
    b02a:	f3 0f 1e fa          	endbr64 
    b02e:	55                   	push   %rbp
    b02f:	48 89 e5             	mov    %rsp,%rbp
    b032:	48 8d 05 f9 ff ff ff 	lea    -0x7(%rip),%rax        # 0xb032
    b039:	49 bb 26 4c 00 00 00 	movabs $0x4c26,%r11
    b040:	00 00 00 
    b043:	4c 01 d8             	add    %r11,%rax
    b046:	68 00 7c 00 00       	push   $0x7c00
    b04b:	c7 44 24 04 00 80 ff 	movl   $0xffff8000,0x4(%rsp)
    b052:	ff 
    b053:	68 00 7c 00 00       	push   $0x7c00
    b058:	c7 44 24 04 00 80 ff 	movl   $0xffff8000,0x4(%rsp)
    b05f:	ff 
    b060:	68 00 7c 00 00       	push   $0x7c00
    b065:	c7 44 24 04 00 80 ff 	movl   $0xffff8000,0x4(%rsp)
    b06c:	ff 
    b06d:	68 00 7c 00 00       	push   $0x7c00
    b072:	c7 44 24 04 00 80 ff 	movl   $0xffff8000,0x4(%rsp)
    b079:	ff 
    b07a:	49 b9 00 7c 00 00 00 	movabs $0xffff800000007c00,%r9
    b081:	80 ff ff 
    b084:	49 b8 00 7c 00 00 00 	movabs $0xffff800000007c00,%r8
    b08b:	80 ff ff 
    b08e:	48 ba 00 7c 00 00 00 	movabs $0xffff800000007c00,%rdx
    b095:	80 ff ff 
    b098:	48 89 d1             	mov    %rdx,%rcx
    b09b:	48 ba 00 7c 00 00 00 	movabs $0xffff800000007c00,%rdx
    b0a2:	80 ff ff 
    b0a5:	48 be 00 7c 00 00 00 	movabs $0xffff800000007c00,%rsi
    b0ac:	80 ff ff 
    b0af:	48 bf 00 7c 00 00 00 	movabs $0xffff800000007c00,%rdi
    b0b6:	80 ff ff 
    b0b9:	49 ba 78 b4 ff ff ff 	movabs $0xffffffffffffb478,%r10
    b0c0:	ff ff ff 
    b0c3:	4a 8d 04 10          	lea    (%rax,%r10,1),%rax
    b0c7:	ff d0                	call   *%rax
    b0c9:	48 83 c4 20          	add    $0x20,%rsp
    b0cd:	90                   	nop
    b0ce:	c9                   	leave  
    b0cf:	c3                   	ret    
    b0d0:	f3 0f 1e fa          	endbr64 
    b0d4:	55                   	push   %rbp
    b0d5:	48 89 e5             	mov    %rsp,%rbp
    b0d8:	48 8d 05 f9 ff ff ff 	lea    -0x7(%rip),%rax        # 0xb0d8
    b0df:	49 bb 80 4b 00 00 00 	movabs $0x4b80,%r11
    b0e6:	00 00 00 
    b0e9:	4c 01 d8             	add    %r11,%rax
    b0ec:	48 89 7d f8          	mov    %rdi,-0x8(%rbp)
    b0f0:	48 89 75 f0          	mov    %rsi,-0x10(%rbp)
    b0f4:	48 89 55 e8          	mov    %rdx,-0x18(%rbp)
    b0f8:	48 89 4d e0          	mov    %rcx,-0x20(%rbp)
    b0fc:	4c 89 45 d8          	mov    %r8,-0x28(%rbp)
    b100:	4c 89 4d d0          	mov    %r9,-0x30(%rbp)
    b104:	48 ba e0 ff ff ff ff 	movabs $0xffffffffffffffe0,%rdx
    b10b:	ff ff ff 
    b10e:	48 8b 14 10          	mov    (%rax,%rdx,1),%rdx
    b112:	48 8d 52 04          	lea    0x4(%rdx),%rdx
    b116:	48 8b 4d f8          	mov    -0x8(%rbp),%rcx
    b11a:	48 89 0a             	mov    %rcx,(%rdx)
    b11d:	48 ba e0 ff ff ff ff 	movabs $0xffffffffffffffe0,%rdx
    b124:	ff ff ff 
    b127:	48 8b 14 10          	mov    (%rax,%rdx,1),%rdx
    b12b:	48 8d 52 0c          	lea    0xc(%rdx),%rdx
    b12f:	48 8b 4d f0          	mov    -0x10(%rbp),%rcx
    b133:	48 89 0a             	mov    %rcx,(%rdx)
    b136:	48 ba e0 ff ff ff ff 	movabs $0xffffffffffffffe0,%rdx
    b13d:	ff ff ff 
    b140:	48 8b 14 10          	mov    (%rax,%rdx,1),%rdx
    b144:	48 8d 52 14          	lea    0x14(%rdx),%rdx
    b148:	48 8b 4d e8          	mov    -0x18(%rbp),%rcx
    b14c:	48 89 0a             	mov    %rcx,(%rdx)
    b14f:	48 ba e0 ff ff ff ff 	movabs $0xffffffffffffffe0,%rdx
    b156:	ff ff ff 
    b159:	48 8b 14 10          	mov    (%rax,%rdx,1),%rdx
    b15d:	48 8d 52 24          	lea    0x24(%rdx),%rdx
    b161:	48 8b 4d e0          	mov    -0x20(%rbp),%rcx
    b165:	48 89 0a             	mov    %rcx,(%rdx)
    b168:	48 ba e0 ff ff ff ff 	movabs $0xffffffffffffffe0,%rdx
    b16f:	ff ff ff 
    b172:	48 8b 14 10          	mov    (%rax,%rdx,1),%rdx
    b176:	48 8d 52 2c          	lea    0x2c(%rdx),%rdx
    b17a:	48 8b 4d d8          	mov    -0x28(%rbp),%rcx
    b17e:	48 89 0a             	mov    %rcx,(%rdx)
    b181:	48 ba e0 ff ff ff ff 	movabs $0xffffffffffffffe0,%rdx
    b188:	ff ff ff 
    b18b:	48 8b 14 10          	mov    (%rax,%rdx,1),%rdx
    b18f:	48 8d 52 34          	lea    0x34(%rdx),%rdx
    b193:	48 8b 4d d0          	mov    -0x30(%rbp),%rcx
    b197:	48 89 0a             	mov    %rcx,(%rdx)
    b19a:	48 ba e0 ff ff ff ff 	movabs $0xffffffffffffffe0,%rdx
    b1a1:	ff ff ff 
    b1a4:	48 8b 14 10          	mov    (%rax,%rdx,1),%rdx
    b1a8:	48 8d 52 3c          	lea    0x3c(%rdx),%rdx
    b1ac:	48 8b 4d 10          	mov    0x10(%rbp),%rcx
    b1b0:	48 89 0a             	mov    %rcx,(%rdx)
    b1b3:	48 ba e0 ff ff ff ff 	movabs $0xffffffffffffffe0,%rdx
    b1ba:	ff ff ff 
    b1bd:	48 8b 14 10          	mov    (%rax,%rdx,1),%rdx
    b1c1:	48 8d 52 44          	lea    0x44(%rdx),%rdx
    b1c5:	48 8b 4d 18          	mov    0x18(%rbp),%rcx
    b1c9:	48 89 0a             	mov    %rcx,(%rdx)
    b1cc:	48 ba e0 ff ff ff ff 	movabs $0xffffffffffffffe0,%rdx
    b1d3:	ff ff ff 
    b1d6:	48 8b 14 10          	mov    (%rax,%rdx,1),%rdx
    b1da:	48 8d 52 4c          	lea    0x4c(%rdx),%rdx
    b1de:	48 8b 4d 20          	mov    0x20(%rbp),%rcx
    b1e2:	48 89 0a             	mov    %rcx,(%rdx)
    b1e5:	48 ba e0 ff ff ff ff 	movabs $0xffffffffffffffe0,%rdx
    b1ec:	ff ff ff 
    b1ef:	48 8b 04 10          	mov    (%rax,%rdx,1),%rax
    b1f3:	48 8d 40 54          	lea    0x54(%rax),%rax
    b1f7:	48 8b 55 28          	mov    0x28(%rbp),%rdx
    b1fb:	48 89 10             	mov    %rdx,(%rax)
    b1fe:	90                   	nop
    b1ff:	5d                   	pop    %rbp
    b200:	c3                   	ret    
    b201:	f3 0f 1e fa          	endbr64 
    b205:	55                   	push   %rbp
    b206:	48 89 e5             	mov    %rsp,%rbp
    b209:	41 57                	push   %r15
    b20b:	53                   	push   %rbx
    b20c:	48 8d 1d f9 ff ff ff 	lea    -0x7(%rip),%rbx        # 0xb20c
    b213:	49 bb 4c 4a 00 00 00 	movabs $0x4a4c,%r11
    b21a:	00 00 00 
    b21d:	4c 01 db             	add    %r11,%rbx
    b220:	49 89 df             	mov    %rbx,%r15
    b223:	b8 00 00 00 00       	mov    $0x0,%eax
    b228:	48 ba fd 46 ff ff ff 	movabs $0xffffffffffff46fd,%rdx
    b22f:	ff ff ff 
    b232:	48 01 da             	add    %rbx,%rdx
    b235:	ff d2                	call   *%rdx
    b237:	49 89 df             	mov    %rbx,%r15
    b23a:	b8 00 00 00 00       	mov    $0x0,%eax
    b23f:	48 ba d2 b3 ff ff ff 	movabs $0xffffffffffffb3d2,%rdx
    b246:	ff ff ff 
    b249:	48 01 da             	add    %rbx,%rdx
    b24c:	ff d2                	call   *%rdx
    b24e:	49 89 df             	mov    %rbx,%r15
    b251:	b8 00 00 00 00       	mov    $0x0,%eax
    b256:	48 ba 44 a2 ff ff ff 	movabs $0xffffffffffffa244,%rdx
    b25d:	ff ff ff 
    b260:	48 01 da             	add    %rbx,%rdx
    b263:	ff d2                	call   *%rdx
    b265:	49 89 df             	mov    %rbx,%r15
    b268:	b8 00 00 00 00       	mov    $0x0,%eax
    b26d:	48 ba 32 4f ff ff ff 	movabs $0xffffffffffff4f32,%rdx
    b274:	ff ff ff 
    b277:	48 01 da             	add    %rbx,%rdx
    b27a:	ff d2                	call   *%rdx
    b27c:	49 89 df             	mov    %rbx,%r15
    b27f:	b8 00 00 00 00       	mov    $0x0,%eax
    b284:	48 ba 1f bd ff ff ff 	movabs $0xffffffffffffbd1f,%rdx
    b28b:	ff ff ff 
    b28e:	48 01 da             	add    %rbx,%rdx
    b291:	ff d2                	call   *%rdx
    b293:	49 89 df             	mov    %rbx,%r15
    b296:	b8 00 00 00 00       	mov    $0x0,%eax
    b29b:	48 ba 47 b8 ff ff ff 	movabs $0xffffffffffffb847,%rdx
    b2a2:	ff ff ff 
    b2a5:	48 01 da             	add    %rbx,%rdx
    b2a8:	ff d2                	call   *%rdx
    b2aa:	49 89 df             	mov    %rbx,%r15
    b2ad:	b8 00 00 00 00       	mov    $0x0,%eax
    b2b2:	48 ba 98 5e ff ff ff 	movabs $0xffffffffffff5e98,%rdx
    b2b9:	ff ff ff 
    b2bc:	48 01 da             	add    %rbx,%rdx
    b2bf:	ff d2                	call   *%rdx
    b2c1:	90                   	nop
    b2c2:	5b                   	pop    %rbx
    b2c3:	41 5f                	pop    %r15
    b2c5:	5d                   	pop    %rbp
    b2c6:	c3                   	ret    
    b2c7:	f3 0f 1e fa          	endbr64 
    b2cb:	55                   	push   %rbp
    b2cc:	48 89 e5             	mov    %rsp,%rbp
    b2cf:	41 57                	push   %r15
    b2d1:	48 83 ec 28          	sub    $0x28,%rsp
    b2d5:	4c 8d 15 f9 ff ff ff 	lea    -0x7(%rip),%r10        # 0xb2d5
    b2dc:	49 bb 83 49 00 00 00 	movabs $0x4983,%r11
    b2e3:	00 00 00 
    b2e6:	4d 01 da             	add    %r11,%r10
    b2e9:	48 89 7d d8          	mov    %rdi,-0x28(%rbp)
    b2ed:	48 89 75 d0          	mov    %rsi,-0x30(%rbp)
    b2f1:	48 c7 45 e8 00 00 00 	movq   $0x0,-0x18(%rbp)
    b2f8:	00 
    b2f9:	48 8b 55 d8          	mov    -0x28(%rbp),%rdx
    b2fd:	48 81 c2 90 00 00 00 	add    $0x90,%rdx
    b304:	48 89 55 e8          	mov    %rdx,-0x18(%rbp)
    b308:	48 8b 55 e8          	mov    -0x18(%rbp),%rdx
    b30c:	48 8b 12             	mov    (%rdx),%rdx
    b30f:	48 be 28 00 00 00 00 	movabs $0x28,%rsi
    b316:	00 00 00 
    b319:	48 8b 4d d0          	mov    -0x30(%rbp),%rcx
    b31d:	4c 01 d6             	add    %r10,%rsi
    b320:	48 8b 34 ce          	mov    (%rsi,%rcx,8),%rsi
    b324:	b0 00                	mov    $0x0,%al
    b326:	b9 00 00 00 00       	mov    $0x0,%ecx
    b32b:	88 cc                	mov    %cl,%ah
    b32d:	0d 00 00 ff 00       	or     $0xff0000,%eax
    b332:	25 ff ff ff 00       	and    $0xffffff,%eax
    b337:	48 8b 4d d0          	mov    -0x30(%rbp),%rcx
    b33b:	48 83 ec 08          	sub    $0x8,%rsp
    b33f:	52                   	push   %rdx
    b340:	49 89 f1             	mov    %rsi,%r9
    b343:	49 89 c8             	mov    %rcx,%r8
    b346:	48 ba 30 05 00 00 00 	movabs $0x530,%rdx
    b34d:	00 00 00 
    b350:	49 8d 14 12          	lea    (%r10,%rdx,1),%rdx
    b354:	48 89 d1             	mov    %rdx,%rcx
    b357:	89 c2                	mov    %eax,%edx
    b359:	be 00 00 00 00       	mov    $0x0,%esi
    b35e:	bf 00 00 00 00       	mov    $0x0,%edi
    b363:	4d 89 d7             	mov    %r10,%r15
    b366:	b8 00 00 00 00       	mov    $0x0,%eax
    b36b:	49 bb e6 4d ff ff ff 	movabs $0xffffffffffff4de6,%r11
    b372:	ff ff ff 
    b375:	4d 01 d3             	add    %r10,%r11
    b378:	41 ff d3             	call   *%r11
    b37b:	48 83 c4 10          	add    $0x10,%rsp
    b37f:	eb fe                	jmp    0xb37f
    b381:	f3 0f 1e fa          	endbr64 
    b385:	55                   	push   %rbp
    b386:	48 89 e5             	mov    %rsp,%rbp
    b389:	41 57                	push   %r15
    b38b:	48 83 ec 08          	sub    $0x8,%rsp
    b38f:	48 8d 05 f9 ff ff ff 	lea    -0x7(%rip),%rax        # 0xb38f
    b396:	49 bb c9 48 00 00 00 	movabs $0x48c9,%r11
    b39d:	00 00 00 
    b3a0:	4c 01 d8             	add    %r11,%rax
    b3a3:	ba 40 00 00 00       	mov    $0x40,%edx
    b3a8:	48 b9 c8 0f 00 00 00 	movabs $0xfc8,%rcx
    b3af:	00 00 00 
    b3b2:	48 8d 0c 08          	lea    (%rax,%rcx,1),%rcx
    b3b6:	48 89 ce             	mov    %rcx,%rsi
    b3b9:	48 b9 a8 0f 00 00 00 	movabs $0xfa8,%rcx
    b3c0:	00 00 00 
    b3c3:	48 8d 0c 08          	lea    (%rax,%rcx,1),%rcx
    b3c7:	48 89 cf             	mov    %rcx,%rdi
    b3ca:	49 89 c7             	mov    %rax,%r15
    b3cd:	48 b9 dc ba ff ff ff 	movabs $0xffffffffffffbadc,%rcx
    b3d4:	ff ff ff 
    b3d7:	48 01 c1             	add    %rax,%rcx
    b3da:	ff d1                	call   *%rcx
    b3dc:	90                   	nop
    b3dd:	4c 8b 7d f8          	mov    -0x8(%rbp),%r15
    b3e1:	c9                   	leave  
    b3e2:	c3                   	ret    
    b3e3:	f3 0f 1e fa          	endbr64 
    b3e7:	55                   	push   %rbp
    b3e8:	48 89 e5             	mov    %rsp,%rbp
    b3eb:	41 57                	push   %r15
    b3ed:	53                   	push   %rbx
    b3ee:	48 83 ec 20          	sub    $0x20,%rsp
    b3f2:	48 8d 1d f9 ff ff ff 	lea    -0x7(%rip),%rbx        # 0xb3f2
    b3f9:	49 bb 66 48 00 00 00 	movabs $0x4866,%r11
    b400:	00 00 00 
    b403:	4c 01 db             	add    %r11,%rbx
    b406:	48 89 7d d8          	mov    %rdi,-0x28(%rbp)
    b40a:	48 89 75 d0          	mov    %rsi,-0x30(%rbp)
    b40e:	66 c7 45 ec 60 00    	movw   $0x60,-0x14(%rbp)
    b414:	c6 45 eb 00          	movb   $0x0,-0x15(%rbp)
    b418:	0f b7 45 ec          	movzwl -0x14(%rbp),%eax
    b41c:	89 c2                	mov    %eax,%edx
    b41e:	ec                   	in     (%dx),%al
    b41f:	0f ae f0             	mfence 
    b422:	88 45 eb             	mov    %al,-0x15(%rbp)
    b425:	0f b6 45 eb          	movzbl -0x15(%rbp),%eax
    b429:	88 45 ef             	mov    %al,-0x11(%rbp)
    b42c:	48 b8 a8 0f 00 00 00 	movabs $0xfa8,%rax
    b433:	00 00 00 
    b436:	48 8d 04 03          	lea    (%rbx,%rax,1),%rax
    b43a:	48 89 c7             	mov    %rax,%rdi
    b43d:	49 89 df             	mov    %rbx,%r15
    b440:	48 b8 ff bb ff ff ff 	movabs $0xffffffffffffbbff,%rax
    b447:	ff ff ff 
    b44a:	48 01 d8             	add    %rbx,%rax
    b44d:	ff d0                	call   *%rax
    b44f:	85 c0                	test   %eax,%eax
    b451:	75 29                	jne    0xb47c
    b453:	0f b6 45 ef          	movzbl -0x11(%rbp),%eax
    b457:	89 c6                	mov    %eax,%esi
    b459:	48 b8 a8 0f 00 00 00 	movabs $0xfa8,%rax
    b460:	00 00 00 
    b463:	48 8d 04 03          	lea    (%rbx,%rax,1),%rax
    b467:	48 89 c7             	mov    %rax,%rdi
    b46a:	49 89 df             	mov    %rbx,%r15
    b46d:	48 b8 31 bb ff ff ff 	movabs $0xffffffffffffbb31,%rax
    b474:	ff ff ff 
    b477:	48 01 d8             	add    %rbx,%rax
    b47a:	ff d0                	call   *%rax
    b47c:	48 8b 45 d0          	mov    -0x30(%rbp),%rax
    b480:	48 89 c7             	mov    %rax,%rdi
    b483:	49 89 df             	mov    %rbx,%r15
    b486:	48 b8 7d ba ff ff ff 	movabs $0xffffffffffffba7d,%rax
    b48d:	ff ff ff 
    b490:	48 01 d8             	add    %rbx,%rax
    b493:	ff d0                	call   *%rax
    b495:	90                   	nop
    b496:	48 83 c4 20          	add    $0x20,%rsp
    b49a:	5b                   	pop    %rbx
    b49b:	41 5f                	pop    %r15
    b49d:	5d                   	pop    %rbp
    b49e:	c3                   	ret    
    b49f:	f3 0f 1e fa          	endbr64 
    b4a3:	55                   	push   %rbp
    b4a4:	48 89 e5             	mov    %rsp,%rbp
    b4a7:	41 57                	push   %r15
    b4a9:	53                   	push   %rbx
    b4aa:	48 83 ec 10          	sub    $0x10,%rsp
    b4ae:	48 8d 1d f9 ff ff ff 	lea    -0x7(%rip),%rbx        # 0xb4ae
    b4b5:	49 bb aa 47 00 00 00 	movabs $0x47aa,%r11
    b4bc:	00 00 00 
    b4bf:	4c 01 db             	add    %r11,%rbx
    b4c2:	b8 00 00 00 00       	mov    $0x0,%eax
    b4c7:	48 ba 29 b7 ff ff ff 	movabs $0xffffffffffffb729,%rdx
    b4ce:	ff ff ff 
    b4d1:	48 8d 14 13          	lea    (%rbx,%rdx,1),%rdx
    b4d5:	ff d2                	call   *%rdx
    b4d7:	48 b8 8b b7 ff ff ff 	movabs $0xffffffffffffb78b,%rax
    b4de:	ff ff ff 
    b4e1:	48 8d 04 03          	lea    (%rbx,%rax,1),%rax
    b4e5:	48 89 c6             	mov    %rax,%rsi
    b4e8:	bf 21 00 00 00       	mov    $0x21,%edi
    b4ed:	49 89 df             	mov    %rbx,%r15
    b4f0:	48 b8 b8 a3 ff ff ff 	movabs $0xffffffffffffa3b8,%rax
    b4f7:	ff ff ff 
    b4fa:	48 01 d8             	add    %rbx,%rax
    b4fd:	ff d0                	call   *%rax
    b4ff:	48 b8 ff b8 ff ff ff 	movabs $0xffffffffffffb8ff,%rax
    b506:	ff ff ff 
    b509:	48 8d 04 03          	lea    (%rbx,%rax,1),%rax
    b50d:	ff d0                	call   *%rax
    b50f:	66 c7 45 ea 64 00    	movw   $0x64,-0x16(%rbp)
    b515:	c6 45 e9 60          	movb   $0x60,-0x17(%rbp)
    b519:	0f b6 45 e9          	movzbl -0x17(%rbp),%eax
    b51d:	0f b7 55 ea          	movzwl -0x16(%rbp),%edx
    b521:	ee                   	out    %al,(%dx)
    b522:	0f ae f0             	mfence 
    b525:	90                   	nop
    b526:	48 b8 ff b8 ff ff ff 	movabs $0xffffffffffffb8ff,%rax
    b52d:	ff ff ff 
    b530:	48 8d 04 03          	lea    (%rbx,%rax,1),%rax
    b534:	ff d0                	call   *%rax
    b536:	66 c7 45 ee 60 00    	movw   $0x60,-0x12(%rbp)
    b53c:	c6 45 ed 47          	movb   $0x47,-0x13(%rbp)
    b540:	0f b6 45 ed          	movzbl -0x13(%rbp),%eax
    b544:	0f b7 55 ee          	movzwl -0x12(%rbp),%edx
    b548:	ee                   	out    %al,(%dx)
    b549:	0f ae f0             	mfence 
    b54c:	90                   	nop
    b54d:	90                   	nop
    b54e:	48 83 c4 10          	add    $0x10,%rsp
    b552:	5b                   	pop    %rbx
    b553:	41 5f                	pop    %r15
    b555:	5d                   	pop    %rbp
    b556:	c3                   	ret    
    b557:	f3 0f 1e fa          	endbr64 
    b55b:	55                   	push   %rbp
    b55c:	48 89 e5             	mov    %rsp,%rbp
    b55f:	48 8d 05 f9 ff ff ff 	lea    -0x7(%rip),%rax        # 0xb55f
    b566:	49 bb f9 46 00 00 00 	movabs $0x46f9,%r11
    b56d:	00 00 00 
    b570:	4c 01 d8             	add    %r11,%rax
    b573:	66 c7 45 fe 64 00    	movw   $0x64,-0x2(%rbp)
    b579:	c6 45 fd 00          	movb   $0x0,-0x3(%rbp)
    b57d:	0f b7 45 fe          	movzwl -0x2(%rbp),%eax
    b581:	89 c2                	mov    %eax,%edx
    b583:	ec                   	in     (%dx),%al
    b584:	0f ae f0             	mfence 
    b587:	88 45 fd             	mov    %al,-0x3(%rbp)
    b58a:	0f b6 45 fd          	movzbl -0x3(%rbp),%eax
    b58e:	0f b6 c0             	movzbl %al,%eax
    b591:	83 e0 02             	and    $0x2,%eax
    b594:	85 c0                	test   %eax,%eax
    b596:	74 02                	je     0xb59a
    b598:	eb d9                	jmp    0xb573
    b59a:	90                   	nop
    b59b:	90                   	nop
    b59c:	5d                   	pop    %rbp
    b59d:	c3                   	ret    
    b59e:	f3 0f 1e fa          	endbr64 
    b5a2:	55                   	push   %rbp
    b5a3:	48 89 e5             	mov    %rsp,%rbp
    b5a6:	41 57                	push   %r15
    b5a8:	53                   	push   %rbx
    b5a9:	48 83 ec 30          	sub    $0x30,%rsp
    b5ad:	48 8d 1d f9 ff ff ff 	lea    -0x7(%rip),%rbx        # 0xb5ad
    b5b4:	49 bb ab 46 00 00 00 	movabs $0x46ab,%r11
    b5bb:	00 00 00 
    b5be:	4c 01 db             	add    %r11,%rbx
    b5c1:	49 89 df             	mov    %rbx,%r15
    b5c4:	48 b8 81 a4 ff ff ff 	movabs $0xffffffffffffa481,%rax
    b5cb:	ff ff ff 
    b5ce:	48 01 d8             	add    %rbx,%rax
    b5d1:	ff d0                	call   *%rax
    b5d3:	66 c7 45 ca 20 00    	movw   $0x20,-0x36(%rbp)
    b5d9:	c6 45 c9 11          	movb   $0x11,-0x37(%rbp)
    b5dd:	0f b6 45 c9          	movzbl -0x37(%rbp),%eax
    b5e1:	0f b7 55 ca          	movzwl -0x36(%rbp),%edx
    b5e5:	ee                   	out    %al,(%dx)
    b5e6:	0f ae f0             	mfence 
    b5e9:	90                   	nop
    b5ea:	66 c7 45 ce 21 00    	movw   $0x21,-0x32(%rbp)
    b5f0:	c6 45 cd 20          	movb   $0x20,-0x33(%rbp)
    b5f4:	0f b6 45 cd          	movzbl -0x33(%rbp),%eax
    b5f8:	0f b7 55 ce          	movzwl -0x32(%rbp),%edx
    b5fc:	ee                   	out    %al,(%dx)
    b5fd:	0f ae f0             	mfence 
    b600:	90                   	nop
    b601:	66 c7 45 d2 21 00    	movw   $0x21,-0x2e(%rbp)
    b607:	c6 45 d1 04          	movb   $0x4,-0x2f(%rbp)
    b60b:	0f b6 45 d1          	movzbl -0x2f(%rbp),%eax
    b60f:	0f b7 55 d2          	movzwl -0x2e(%rbp),%edx
    b613:	ee                   	out    %al,(%dx)
    b614:	0f ae f0             	mfence 
    b617:	90                   	nop
    b618:	66 c7 45 d6 21 00    	movw   $0x21,-0x2a(%rbp)
    b61e:	c6 45 d5 01          	movb   $0x1,-0x2b(%rbp)
    b622:	0f b6 45 d5          	movzbl -0x2b(%rbp),%eax
    b626:	0f b7 55 d6          	movzwl -0x2a(%rbp),%edx
    b62a:	ee                   	out    %al,(%dx)
    b62b:	0f ae f0             	mfence 
    b62e:	90                   	nop
    b62f:	66 c7 45 da a0 00    	movw   $0xa0,-0x26(%rbp)
    b635:	c6 45 d9 11          	movb   $0x11,-0x27(%rbp)
    b639:	0f b6 45 d9          	movzbl -0x27(%rbp),%eax
    b63d:	0f b7 55 da          	movzwl -0x26(%rbp),%edx
    b641:	ee                   	out    %al,(%dx)
    b642:	0f ae f0             	mfence 
    b645:	90                   	nop
    b646:	66 c7 45 de a1 00    	movw   $0xa1,-0x22(%rbp)
    b64c:	c6 45 dd 28          	movb   $0x28,-0x23(%rbp)
    b650:	0f b6 45 dd          	movzbl -0x23(%rbp),%eax
    b654:	0f b7 55 de          	movzwl -0x22(%rbp),%edx
    b658:	ee                   	out    %al,(%dx)
    b659:	0f ae f0             	mfence 
    b65c:	90                   	nop
    b65d:	66 c7 45 e2 a1 00    	movw   $0xa1,-0x1e(%rbp)
    b663:	c6 45 e1 02          	movb   $0x2,-0x1f(%rbp)
    b667:	0f b6 45 e1          	movzbl -0x1f(%rbp),%eax
    b66b:	0f b7 55 e2          	movzwl -0x1e(%rbp),%edx
    b66f:	ee                   	out    %al,(%dx)
    b670:	0f ae f0             	mfence 
    b673:	90                   	nop
    b674:	66 c7 45 e6 a1 00    	movw   $0xa1,-0x1a(%rbp)
    b67a:	c6 45 e5 01          	movb   $0x1,-0x1b(%rbp)
    b67e:	0f b6 45 e5          	movzbl -0x1b(%rbp),%eax
    b682:	0f b7 55 e6          	movzwl -0x1a(%rbp),%edx
    b686:	ee                   	out    %al,(%dx)
    b687:	0f ae f0             	mfence 
    b68a:	90                   	nop
    b68b:	66 c7 45 ea 21 00    	movw   $0x21,-0x16(%rbp)
    b691:	c6 45 e9 f9          	movb   $0xf9,-0x17(%rbp)
    b695:	0f b6 45 e9          	movzbl -0x17(%rbp),%eax
    b699:	0f b7 55 ea          	movzwl -0x16(%rbp),%edx
    b69d:	ee                   	out    %al,(%dx)
    b69e:	0f ae f0             	mfence 
    b6a1:	90                   	nop
    b6a2:	66 c7 45 ee a1 00    	movw   $0xa1,-0x12(%rbp)
    b6a8:	c6 45 ed ef          	movb   $0xef,-0x13(%rbp)
    b6ac:	0f b6 45 ed          	movzbl -0x13(%rbp),%eax
    b6b0:	0f b7 55 ee          	movzwl -0x12(%rbp),%edx
    b6b4:	ee                   	out    %al,(%dx)
    b6b5:	0f ae f0             	mfence 
    b6b8:	90                   	nop
    b6b9:	49 89 df             	mov    %rbx,%r15
    b6bc:	48 b8 33 a4 ff ff ff 	movabs $0xffffffffffffa433,%rax
    b6c3:	ff ff ff 
    b6c6:	48 01 d8             	add    %rbx,%rax
    b6c9:	ff d0                	call   *%rax
    b6cb:	90                   	nop
    b6cc:	48 83 c4 30          	add    $0x30,%rsp
    b6d0:	5b                   	pop    %rbx
    b6d1:	41 5f                	pop    %r15
    b6d3:	5d                   	pop    %rbp
    b6d4:	c3                   	ret    
    b6d5:	f3 0f 1e fa          	endbr64 
    b6d9:	55                   	push   %rbp
    b6da:	48 89 e5             	mov    %rsp,%rbp
    b6dd:	48 8d 05 f9 ff ff ff 	lea    -0x7(%rip),%rax        # 0xb6dd
    b6e4:	49 bb 7b 45 00 00 00 	movabs $0x457b,%r11
    b6eb:	00 00 00 
    b6ee:	4c 01 d8             	add    %r11,%rax
    b6f1:	48 89 7d e8          	mov    %rdi,-0x18(%rbp)
    b6f5:	48 8b 45 e8          	mov    -0x18(%rbp),%rax
    b6f9:	48 83 e8 20          	sub    $0x20,%rax
    b6fd:	48 83 f8 07          	cmp    $0x7,%rax
    b701:	76 17                	jbe    0xb71a
    b703:	66 c7 45 fe a0 00    	movw   $0xa0,-0x2(%rbp)
    b709:	c6 45 fd 20          	movb   $0x20,-0x3(%rbp)
    b70d:	0f b6 45 fd          	movzbl -0x3(%rbp),%eax
    b711:	0f b7 55 fe          	movzwl -0x2(%rbp),%edx
    b715:	ee                   	out    %al,(%dx)
    b716:	0f ae f0             	mfence 
    b719:	90                   	nop
    b71a:	66 c7 45 fa 20 00    	movw   $0x20,-0x6(%rbp)
    b720:	c6 45 f9 20          	movb   $0x20,-0x7(%rbp)
    b724:	0f b6 45 f9          	movzbl -0x7(%rbp),%eax
    b728:	0f b7 55 fa          	movzwl -0x6(%rbp),%edx
    b72c:	ee                   	out    %al,(%dx)
    b72d:	0f ae f0             	mfence 
    b730:	90                   	nop
    b731:	90                   	nop
    b732:	5d                   	pop    %rbp
    b733:	c3                   	ret    
    b734:	f3 0f 1e fa          	endbr64 
    b738:	55                   	push   %rbp
    b739:	48 89 e5             	mov    %rsp,%rbp
    b73c:	48 8d 05 f9 ff ff ff 	lea    -0x7(%rip),%rax        # 0xb73c
    b743:	49 bb 1c 45 00 00 00 	movabs $0x451c,%r11
    b74a:	00 00 00 
    b74d:	4c 01 d8             	add    %r11,%rax
    b750:	48 89 7d f8          	mov    %rdi,-0x8(%rbp)
    b754:	48 89 75 f0          	mov    %rsi,-0x10(%rbp)
    b758:	89 55 ec             	mov    %edx,-0x14(%rbp)
    b75b:	48 8b 45 f8          	mov    -0x8(%rbp),%rax
    b75f:	48 8b 55 f0          	mov    -0x10(%rbp),%rdx
    b763:	48 89 10             	mov    %rdx,(%rax)
    b766:	48 8b 45 f8          	mov    -0x8(%rbp),%rax
    b76a:	8b 55 ec             	mov    -0x14(%rbp),%edx
    b76d:	89 50 10             	mov    %edx,0x10(%rax)
    b770:	48 8b 45 f8          	mov    -0x8(%rbp),%rax
    b774:	c7 40 08 00 00 00 00 	movl   $0x0,0x8(%rax)
    b77b:	48 8b 45 f8          	mov    -0x8(%rbp),%rax
    b77f:	c7 40 0c 00 00 00 00 	movl   $0x0,0xc(%rax)
    b786:	90                   	nop
    b787:	5d                   	pop    %rbp
    b788:	c3                   	ret    
    b789:	f3 0f 1e fa          	endbr64 
    b78d:	55                   	push   %rbp
    b78e:	48 89 e5             	mov    %rsp,%rbp
    b791:	48 8d 05 f9 ff ff ff 	lea    -0x7(%rip),%rax        # 0xb791
    b798:	49 bb c7 44 00 00 00 	movabs $0x44c7,%r11
    b79f:	00 00 00 
    b7a2:	4c 01 d8             	add    %r11,%rax
    b7a5:	48 89 7d f8          	mov    %rdi,-0x8(%rbp)
    b7a9:	89 f0                	mov    %esi,%eax
    b7ab:	88 45 f4             	mov    %al,-0xc(%rbp)
    b7ae:	48 8b 45 f8          	mov    -0x8(%rbp),%rax
    b7b2:	48 8b 10             	mov    (%rax),%rdx
    b7b5:	48 8b 45 f8          	mov    -0x8(%rbp),%rax
    b7b9:	8b 40 08             	mov    0x8(%rax),%eax
    b7bc:	48 98                	cltq   
    b7be:	48 01 c2             	add    %rax,%rdx
    b7c1:	0f b6 45 f4          	movzbl -0xc(%rbp),%eax
    b7c5:	88 02                	mov    %al,(%rdx)
    b7c7:	48 8b 45 f8          	mov    -0x8(%rbp),%rax
    b7cb:	8b 40 08             	mov    0x8(%rax),%eax
    b7ce:	83 c0 01             	add    $0x1,%eax
    b7d1:	89 c2                	mov    %eax,%edx
    b7d3:	48 8b 45 f8          	mov    -0x8(%rbp),%rax
    b7d7:	8b 48 10             	mov    0x10(%rax),%ecx
    b7da:	89 d0                	mov    %edx,%eax
    b7dc:	ba 00 00 00 00       	mov    $0x0,%edx
    b7e1:	f7 f1                	div    %ecx
    b7e3:	89 d0                	mov    %edx,%eax
    b7e5:	89 c2                	mov    %eax,%edx
    b7e7:	48 8b 45 f8          	mov    -0x8(%rbp),%rax
    b7eb:	89 50 08             	mov    %edx,0x8(%rax)
    b7ee:	90                   	nop
    b7ef:	5d                   	pop    %rbp
    b7f0:	c3                   	ret    
    b7f1:	f3 0f 1e fa          	endbr64 
    b7f5:	55                   	push   %rbp
    b7f6:	48 89 e5             	mov    %rsp,%rbp
    b7f9:	48 8d 05 f9 ff ff ff 	lea    -0x7(%rip),%rax        # 0xb7f9
    b800:	49 bb 5f 44 00 00 00 	movabs $0x445f,%r11
    b807:	00 00 00 
    b80a:	4c 01 d8             	add    %r11,%rax
    b80d:	48 89 7d e8          	mov    %rdi,-0x18(%rbp)
    b811:	48 8b 45 e8          	mov    -0x18(%rbp),%rax
    b815:	48 8b 10             	mov    (%rax),%rdx
    b818:	48 8b 45 e8          	mov    -0x18(%rbp),%rax
    b81c:	8b 40 0c             	mov    0xc(%rax),%eax
    b81f:	48 98                	cltq   
    b821:	48 01 d0             	add    %rdx,%rax
    b824:	0f b6 00             	movzbl (%rax),%eax
    b827:	88 45 ff             	mov    %al,-0x1(%rbp)
    b82a:	48 8b 45 e8          	mov    -0x18(%rbp),%rax
    b82e:	8b 40 0c             	mov    0xc(%rax),%eax
    b831:	83 c0 01             	add    $0x1,%eax
    b834:	89 c2                	mov    %eax,%edx
    b836:	48 8b 45 e8          	mov    -0x18(%rbp),%rax
    b83a:	8b 48 10             	mov    0x10(%rax),%ecx
    b83d:	89 d0                	mov    %edx,%eax
    b83f:	ba 00 00 00 00       	mov    $0x0,%edx
    b844:	f7 f1                	div    %ecx
    b846:	89 d0                	mov    %edx,%eax
    b848:	89 c2                	mov    %eax,%edx
    b84a:	48 8b 45 e8          	mov    -0x18(%rbp),%rax
    b84e:	89 50 0c             	mov    %edx,0xc(%rax)
    b851:	0f b6 45 ff          	movzbl -0x1(%rbp),%eax
    b855:	5d                   	pop    %rbp
    b856:	c3                   	ret    
    b857:	f3 0f 1e fa          	endbr64 
    b85b:	55                   	push   %rbp
    b85c:	48 89 e5             	mov    %rsp,%rbp
    b85f:	48 8d 05 f9 ff ff ff 	lea    -0x7(%rip),%rax        # 0xb85f
    b866:	49 bb f9 43 00 00 00 	movabs $0x43f9,%r11
    b86d:	00 00 00 
    b870:	4c 01 d8             	add    %r11,%rax
    b873:	48 89 7d f8          	mov    %rdi,-0x8(%rbp)
    b877:	48 8b 45 f8          	mov    -0x8(%rbp),%rax
    b87b:	8b 40 08             	mov    0x8(%rax),%eax
    b87e:	83 c0 01             	add    $0x1,%eax
    b881:	89 c2                	mov    %eax,%edx
    b883:	48 8b 45 f8          	mov    -0x8(%rbp),%rax
    b887:	8b 48 10             	mov    0x10(%rax),%ecx
    b88a:	89 d0                	mov    %edx,%eax
    b88c:	ba 00 00 00 00       	mov    $0x0,%edx
    b891:	f7 f1                	div    %ecx
    b893:	48 8b 45 f8          	mov    -0x8(%rbp),%rax
    b897:	8b 40 0c             	mov    0xc(%rax),%eax
    b89a:	39 c2                	cmp    %eax,%edx
    b89c:	0f 94 c0             	sete   %al
    b89f:	0f b6 c0             	movzbl %al,%eax
    b8a2:	5d                   	pop    %rbp
    b8a3:	c3                   	ret    
    b8a4:	f3 0f 1e fa          	endbr64 
    b8a8:	55                   	push   %rbp
    b8a9:	48 89 e5             	mov    %rsp,%rbp
    b8ac:	48 8d 05 f9 ff ff ff 	lea    -0x7(%rip),%rax        # 0xb8ac
    b8b3:	49 bb ac 43 00 00 00 	movabs $0x43ac,%r11
    b8ba:	00 00 00 
    b8bd:	4c 01 d8             	add    %r11,%rax
    b8c0:	48 89 7d f8          	mov    %rdi,-0x8(%rbp)
    b8c4:	48 8b 45 f8          	mov    -0x8(%rbp),%rax
    b8c8:	8b 50 08             	mov    0x8(%rax),%edx
    b8cb:	48 8b 45 f8          	mov    -0x8(%rbp),%rax
    b8cf:	8b 40 0c             	mov    0xc(%rax),%eax
    b8d2:	39 c2                	cmp    %eax,%edx
    b8d4:	0f 94 c0             	sete   %al
    b8d7:	0f b6 c0             	movzbl %al,%eax
    b8da:	5d                   	pop    %rbp
    b8db:	c3                   	ret    
    b8dc:	f3 0f 1e fa          	endbr64 
    b8e0:	55                   	push   %rbp
    b8e1:	48 89 e5             	mov    %rsp,%rbp
    b8e4:	48 8d 05 f9 ff ff ff 	lea    -0x7(%rip),%rax        # 0xb8e4
    b8eb:	49 bb 74 43 00 00 00 	movabs $0x4374,%r11
    b8f2:	00 00 00 
    b8f5:	4c 01 d8             	add    %r11,%rax
    b8f8:	89 7d fc             	mov    %edi,-0x4(%rbp)
    b8fb:	48 b9 c8 3a 00 00 00 	movabs $0x3ac8,%rcx
    b902:	00 00 00 
    b905:	8b 55 fc             	mov    -0x4(%rbp),%edx
    b908:	48 c1 e2 05          	shl    $0x5,%rdx
    b90c:	48 01 c2             	add    %rax,%rdx
    b90f:	48 01 ca             	add    %rcx,%rdx
    b912:	48 83 c2 18          	add    $0x18,%rdx
    b916:	48 8b 12             	mov    (%rdx),%rdx
    b919:	48 81 fa 00 00 10 00 	cmp    $0x100000,%rdx
    b920:	77 4e                	ja     0xb970
    b922:	48 b9 c8 3a 00 00 00 	movabs $0x3ac8,%rcx
    b929:	00 00 00 
    b92c:	8b 55 fc             	mov    -0x4(%rbp),%edx
    b92f:	48 c1 e2 05          	shl    $0x5,%rdx
    b933:	48 01 c2             	add    %rax,%rdx
    b936:	48 01 ca             	add    %rcx,%rdx
    b939:	48 83 c2 18          	add    $0x18,%rdx
    b93d:	48 8b 0a             	mov    (%rdx),%rcx
    b940:	48 be c8 3a 00 00 00 	movabs $0x3ac8,%rsi
    b947:	00 00 00 
    b94a:	8b 55 fc             	mov    -0x4(%rbp),%edx
    b94d:	48 c1 e2 05          	shl    $0x5,%rdx
    b951:	48 01 d0             	add    %rdx,%rax
    b954:	48 01 f0             	add    %rsi,%rax
    b957:	48 83 c0 20          	add    $0x20,%rax
    b95b:	48 8b 00             	mov    (%rax),%rax
    b95e:	48 01 c8             	add    %rcx,%rax
    b961:	48 3d 00 00 10 00    	cmp    $0x100000,%rax
    b967:	76 07                	jbe    0xb970
    b969:	b8 01 00 00 00       	mov    $0x1,%eax
    b96e:	eb 05                	jmp    0xb975
    b970:	b8 00 00 00 00       	mov    $0x0,%eax
    b975:	5d                   	pop    %rbp
    b976:	c3                   	ret    
    b977:	f3 0f 1e fa          	endbr64 
    b97b:	55                   	push   %rbp
    b97c:	48 89 e5             	mov    %rsp,%rbp
    b97f:	41 57                	push   %r15
    b981:	41 55                	push   %r13
    b983:	41 54                	push   %r12
    b985:	53                   	push   %rbx
    b986:	48 83 c4 80          	add    $0xffffffffffffff80,%rsp
    b98a:	48 8d 1d f9 ff ff ff 	lea    -0x7(%rip),%rbx        # 0xb98a
    b991:	49 bb ce 42 00 00 00 	movabs $0x42ce,%r11
    b998:	00 00 00 
    b99b:	4c 01 db             	add    %r11,%rbx
    b99e:	48 c7 45 d8 00 00 00 	movq   $0x0,-0x28(%rbp)
    b9a5:	00 
    b9a6:	48 b8 c8 3a 00 00 00 	movabs $0x3ac8,%rax
    b9ad:	00 00 00 
    b9b0:	c7 04 03 00 00 00 00 	movl   $0x0,(%rbx,%rax,1)
    b9b7:	48 c7 45 d0 00 00 00 	movq   $0x0,-0x30(%rbp)
    b9be:	00 
    b9bf:	c7 45 cc 00 00 00 00 	movl   $0x0,-0x34(%rbp)
    b9c6:	e9 d1 01 00 00       	jmp    0xbb9c
    b9cb:	48 b8 c8 ff ff ff ff 	movabs $0xffffffffffffffc8,%rax
    b9d2:	ff ff ff 
    b9d5:	48 8b 04 03          	mov    (%rbx,%rax,1),%rax
    b9d9:	48 8b 08             	mov    (%rax),%rcx
    b9dc:	8b 55 cc             	mov    -0x34(%rbp),%edx
    b9df:	48 89 d0             	mov    %rdx,%rax
    b9e2:	48 c1 e0 02          	shl    $0x2,%rax
    b9e6:	48 01 d0             	add    %rdx,%rax
    b9e9:	48 c1 e0 02          	shl    $0x2,%rax
    b9ed:	48 83 c0 20          	add    $0x20,%rax
    b9f1:	48 01 c8             	add    %rcx,%rax
    b9f4:	48 83 c0 04          	add    $0x4,%rax
    b9f8:	48 89 85 78 ff ff ff 	mov    %rax,-0x88(%rbp)
    b9ff:	48 8b 85 78 ff ff ff 	mov    -0x88(%rbp),%rax
    ba06:	8b 40 10             	mov    0x10(%rax),%eax
    ba09:	83 f8 01             	cmp    $0x1,%eax
    ba0c:	0f 85 e6 00 00 00    	jne    0xbaf8
    ba12:	48 8b 85 78 ff ff ff 	mov    -0x88(%rbp),%rax
    ba19:	48 8b 40 08          	mov    0x8(%rax),%rax
    ba1d:	48 3d ff ff 1f 00    	cmp    $0x1fffff,%rax
    ba23:	0f 86 cf 00 00 00    	jbe    0xbaf8
    ba29:	48 8b 85 78 ff ff ff 	mov    -0x88(%rbp),%rax
    ba30:	48 8b 40 08          	mov    0x8(%rax),%rax
    ba34:	48 01 45 d8          	add    %rax,-0x28(%rbp)
    ba38:	48 b8 c8 3a 00 00 00 	movabs $0x3ac8,%rax
    ba3f:	00 00 00 
    ba42:	8b 14 03             	mov    (%rbx,%rax,1),%edx
    ba45:	48 8b 85 78 ff ff ff 	mov    -0x88(%rbp),%rax
    ba4c:	48 8b 00             	mov    (%rax),%rax
    ba4f:	48 b9 c8 3a 00 00 00 	movabs $0x3ac8,%rcx
    ba56:	00 00 00 
    ba59:	89 d2                	mov    %edx,%edx
    ba5b:	48 c1 e2 05          	shl    $0x5,%rdx
    ba5f:	48 01 da             	add    %rbx,%rdx
    ba62:	48 01 ca             	add    %rcx,%rdx
    ba65:	48 83 c2 18          	add    $0x18,%rdx
    ba69:	48 89 02             	mov    %rax,(%rdx)
    ba6c:	48 b8 c8 3a 00 00 00 	movabs $0x3ac8,%rax
    ba73:	00 00 00 
    ba76:	8b 14 03             	mov    (%rbx,%rax,1),%edx
    ba79:	48 8b 85 78 ff ff ff 	mov    -0x88(%rbp),%rax
    ba80:	48 8b 40 08          	mov    0x8(%rax),%rax
    ba84:	48 b9 c8 3a 00 00 00 	movabs $0x3ac8,%rcx
    ba8b:	00 00 00 
    ba8e:	89 d2                	mov    %edx,%edx
    ba90:	48 c1 e2 05          	shl    $0x5,%rdx
    ba94:	48 01 da             	add    %rbx,%rdx
    ba97:	48 01 ca             	add    %rcx,%rdx
    ba9a:	48 83 c2 20          	add    $0x20,%rdx
    ba9e:	48 89 02             	mov    %rax,(%rdx)
    baa1:	48 b8 c8 3a 00 00 00 	movabs $0x3ac8,%rax
    baa8:	00 00 00 
    baab:	8b 04 03             	mov    (%rbx,%rax,1),%eax
    baae:	8d 50 01             	lea    0x1(%rax),%edx
    bab1:	48 b8 c8 3a 00 00 00 	movabs $0x3ac8,%rax
    bab8:	00 00 00 
    babb:	89 14 03             	mov    %edx,(%rbx,%rax,1)
    babe:	48 8b 85 78 ff ff ff 	mov    -0x88(%rbp),%rax
    bac5:	48 8b 10             	mov    (%rax),%rdx
    bac8:	48 8b 85 78 ff ff ff 	mov    -0x88(%rbp),%rax
    bacf:	48 8b 40 08          	mov    0x8(%rax),%rax
    bad3:	48 01 d0             	add    %rdx,%rax
    bad6:	48 39 45 d0          	cmp    %rax,-0x30(%rbp)
    bada:	73 1c                	jae    0xbaf8
    badc:	48 8b 85 78 ff ff ff 	mov    -0x88(%rbp),%rax
    bae3:	48 8b 10             	mov    (%rax),%rdx
    bae6:	48 8b 85 78 ff ff ff 	mov    -0x88(%rbp),%rax
    baed:	48 8b 40 08          	mov    0x8(%rax),%rax
    baf1:	48 01 d0             	add    %rdx,%rax
    baf4:	48 89 45 d0          	mov    %rax,-0x30(%rbp)
    baf8:	48 8b 85 78 ff ff ff 	mov    -0x88(%rbp),%rax
    baff:	44 8b 58 10          	mov    0x10(%rax),%r11d
    bb03:	48 8b 95 78 ff ff ff 	mov    -0x88(%rbp),%rdx
    bb0a:	48 8b 52 08          	mov    0x8(%rdx),%rdx
    bb0e:	48 89 d1             	mov    %rdx,%rcx
    bb11:	48 c1 e9 14          	shr    $0x14,%rcx
    bb15:	48 8b 95 78 ff ff ff 	mov    -0x88(%rbp),%rdx
    bb1c:	4c 8b 42 08          	mov    0x8(%rdx),%r8
    bb20:	48 8b 95 78 ff ff ff 	mov    -0x88(%rbp),%rdx
    bb27:	48 8b 3a             	mov    (%rdx),%rdi
    bb2a:	8b 85 6c ff ff ff    	mov    -0x94(%rbp),%eax
    bb30:	b0 ff                	mov    $0xff,%al
    bb32:	ba ff ff ff ff       	mov    $0xffffffff,%edx
    bb37:	88 d4                	mov    %dl,%ah
    bb39:	0d 00 00 ff 00       	or     $0xff0000,%eax
    bb3e:	89 c2                	mov    %eax,%edx
    bb40:	81 e2 ff ff ff 00    	and    $0xffffff,%edx
    bb46:	89 95 6c ff ff ff    	mov    %edx,-0x94(%rbp)
    bb4c:	8b 55 cc             	mov    -0x34(%rbp),%edx
    bb4f:	83 c2 08             	add    $0x8,%edx
    bb52:	89 d6                	mov    %edx,%esi
    bb54:	c1 e6 04             	shl    $0x4,%esi
    bb57:	41 53                	push   %r11
    bb59:	51                   	push   %rcx
    bb5a:	4d 89 c1             	mov    %r8,%r9
    bb5d:	49 89 f8             	mov    %rdi,%r8
    bb60:	48 b8 58 05 00 00 00 	movabs $0x558,%rax
    bb67:	00 00 00 
    bb6a:	48 8d 04 03          	lea    (%rbx,%rax,1),%rax
    bb6e:	48 89 c1             	mov    %rax,%rcx
    bb71:	8b 95 6c ff ff ff    	mov    -0x94(%rbp),%edx
    bb77:	bf 00 00 00 00       	mov    $0x0,%edi
    bb7c:	49 89 df             	mov    %rbx,%r15
    bb7f:	b8 00 00 00 00       	mov    $0x0,%eax
    bb84:	49 ba e6 4d ff ff ff 	movabs $0xffffffffffff4de6,%r10
    bb8b:	ff ff ff 
    bb8e:	49 01 da             	add    %rbx,%r10
    bb91:	41 ff d2             	call   *%r10
    bb94:	48 83 c4 10          	add    $0x10,%rsp
    bb98:	83 45 cc 01          	addl   $0x1,-0x34(%rbp)
    bb9c:	48 b8 c8 ff ff ff ff 	movabs $0xffffffffffffffc8,%rax
    bba3:	ff ff ff 
    bba6:	48 8b 04 03          	mov    (%rbx,%rax,1),%rax
    bbaa:	48 8b 00             	mov    (%rax),%rax
    bbad:	8b 40 20             	mov    0x20(%rax),%eax
    bbb0:	39 45 cc             	cmp    %eax,-0x34(%rbp)
    bbb3:	0f 82 12 fe ff ff    	jb     0xb9cb
    bbb9:	48 8b 45 d8          	mov    -0x28(%rbp),%rax
    bbbd:	48 c1 e8 14          	shr    $0x14,%rax
    bbc1:	48 89 c2             	mov    %rax,%rdx
    bbc4:	41 b5 ff             	mov    $0xff,%r13b
    bbc7:	b8 ff ff ff ff       	mov    $0xffffffff,%eax
    bbcc:	44 89 e9             	mov    %r13d,%ecx
    bbcf:	88 c5                	mov    %al,%ch
    bbd1:	41 89 cd             	mov    %ecx,%r13d
    bbd4:	44 89 e8             	mov    %r13d,%eax
    bbd7:	0d 00 00 ff 00       	or     $0xff0000,%eax
    bbdc:	41 89 c5             	mov    %eax,%r13d
    bbdf:	44 89 e8             	mov    %r13d,%eax
    bbe2:	25 ff ff ff 00       	and    $0xffffff,%eax
    bbe7:	41 89 c5             	mov    %eax,%r13d
    bbea:	48 8b 45 d8          	mov    -0x28(%rbp),%rax
    bbee:	49 89 d1             	mov    %rdx,%r9
    bbf1:	49 89 c0             	mov    %rax,%r8
    bbf4:	48 b8 88 05 00 00 00 	movabs $0x588,%rax
    bbfb:	00 00 00 
    bbfe:	48 8d 04 03          	lea    (%rbx,%rax,1),%rax
    bc02:	48 89 c1             	mov    %rax,%rcx
    bc05:	44 89 ea             	mov    %r13d,%edx
    bc08:	be 70 00 00 00       	mov    $0x70,%esi
    bc0d:	bf 00 00 00 00       	mov    $0x0,%edi
    bc12:	49 89 df             	mov    %rbx,%r15
    bc15:	b8 00 00 00 00       	mov    $0x0,%eax
    bc1a:	49 ba e6 4d ff ff ff 	movabs $0xffffffffffff4de6,%r10
    bc21:	ff ff ff 
    bc24:	49 01 da             	add    %rbx,%r10
    bc27:	41 ff d2             	call   *%r10
    bc2a:	48 8b 45 d0          	mov    -0x30(%rbp),%rax
    bc2e:	48 c1 e8 14          	shr    $0x14,%rax
    bc32:	48 89 c2             	mov    %rax,%rdx
    bc35:	41 b4 ff             	mov    $0xff,%r12b
    bc38:	b8 ff ff ff ff       	mov    $0xffffffff,%eax
    bc3d:	44 89 e1             	mov    %r12d,%ecx
    bc40:	88 c5                	mov    %al,%ch
    bc42:	41 89 cc             	mov    %ecx,%r12d
    bc45:	44 89 e0             	mov    %r12d,%eax
    bc48:	0d 00 00 ff 00       	or     $0xff0000,%eax
    bc4d:	41 89 c4             	mov    %eax,%r12d
    bc50:	44 89 e0             	mov    %r12d,%eax
    bc53:	25 ff ff ff 00       	and    $0xffffff,%eax
    bc58:	41 89 c4             	mov    %eax,%r12d
    bc5b:	48 8b 45 d0          	mov    -0x30(%rbp),%rax
    bc5f:	49 89 d1             	mov    %rdx,%r9
    bc62:	49 89 c0             	mov    %rax,%r8
    bc65:	48 b8 b8 05 00 00 00 	movabs $0x5b8,%rax
    bc6c:	00 00 00 
    bc6f:	48 8d 04 03          	lea    (%rbx,%rax,1),%rax
    bc73:	48 89 c1             	mov    %rax,%rcx
    bc76:	44 89 e2             	mov    %r12d,%edx
    bc79:	be 60 00 00 00       	mov    $0x60,%esi
    bc7e:	bf 00 00 00 00       	mov    $0x0,%edi
    bc83:	49 89 df             	mov    %rbx,%r15
    bc86:	b8 00 00 00 00       	mov    $0x0,%eax
    bc8b:	49 ba e6 4d ff ff ff 	movabs $0xffffffffffff4de6,%r10
    bc92:	ff ff ff 
    bc95:	49 01 da             	add    %rbx,%r10
    bc98:	41 ff d2             	call   *%r10
    bc9b:	c7 45 c8 00 00 00 00 	movl   $0x0,-0x38(%rbp)
    bca2:	e9 d6 00 00 00       	jmp    0xbd7d
    bca7:	48 ba c8 3a 00 00 00 	movabs $0x3ac8,%rdx
    bcae:	00 00 00 
    bcb1:	8b 45 c8             	mov    -0x38(%rbp),%eax
    bcb4:	48 c1 e0 05          	shl    $0x5,%rax
    bcb8:	48 01 d8             	add    %rbx,%rax
    bcbb:	48 01 d0             	add    %rdx,%rax
    bcbe:	48 83 c0 20          	add    $0x20,%rax
    bcc2:	48 8b 00             	mov    (%rax),%rax
    bcc5:	48 c1 e8 14          	shr    $0x14,%rax
    bcc9:	49 89 c1             	mov    %rax,%r9
    bccc:	48 b9 c8 3a 00 00 00 	movabs $0x3ac8,%rcx
    bcd3:	00 00 00 
    bcd6:	8b 55 c8             	mov    -0x38(%rbp),%edx
    bcd9:	48 c1 e2 05          	shl    $0x5,%rdx
    bcdd:	48 01 da             	add    %rbx,%rdx
    bce0:	48 01 ca             	add    %rcx,%rdx
    bce3:	48 83 c2 20          	add    $0x20,%rdx
    bce7:	48 8b 3a             	mov    (%rdx),%rdi
    bcea:	48 b9 c8 3a 00 00 00 	movabs $0x3ac8,%rcx
    bcf1:	00 00 00 
    bcf4:	8b 55 c8             	mov    -0x38(%rbp),%edx
    bcf7:	48 c1 e2 05          	shl    $0x5,%rdx
    bcfb:	48 01 da             	add    %rbx,%rdx
    bcfe:	48 01 ca             	add    %rcx,%rdx
    bd01:	48 83 c2 18          	add    $0x18,%rdx
    bd05:	48 8b 0a             	mov    (%rdx),%rcx
    bd08:	8b 85 68 ff ff ff    	mov    -0x98(%rbp),%eax
    bd0e:	b0 ff                	mov    $0xff,%al
    bd10:	ba ff ff ff ff       	mov    $0xffffffff,%edx
    bd15:	88 d4                	mov    %dl,%ah
    bd17:	0d 00 00 ff 00       	or     $0xff0000,%eax
    bd1c:	89 c2                	mov    %eax,%edx
    bd1e:	81 e2 ff ff ff 00    	and    $0xffffff,%edx
    bd24:	89 95 68 ff ff ff    	mov    %edx,-0x98(%rbp)
    bd2a:	8b 55 c8             	mov    -0x38(%rbp),%edx
    bd2d:	83 c2 08             	add    $0x8,%edx
    bd30:	89 d6                	mov    %edx,%esi
    bd32:	c1 e6 04             	shl    $0x4,%esi
    bd35:	48 83 ec 08          	sub    $0x8,%rsp
    bd39:	41 51                	push   %r9
    bd3b:	49 89 f9             	mov    %rdi,%r9
    bd3e:	49 89 c8             	mov    %rcx,%r8
    bd41:	48 b8 e8 05 00 00 00 	movabs $0x5e8,%rax
    bd48:	00 00 00 
    bd4b:	48 8d 04 03          	lea    (%rbx,%rax,1),%rax
    bd4f:	48 89 c1             	mov    %rax,%rcx
    bd52:	8b 95 68 ff ff ff    	mov    -0x98(%rbp),%edx
    bd58:	bf 00 02 00 00       	mov    $0x200,%edi
    bd5d:	49 89 df             	mov    %rbx,%r15
    bd60:	b8 00 00 00 00       	mov    $0x0,%eax
    bd65:	49 ba e6 4d ff ff ff 	movabs $0xffffffffffff4de6,%r10
    bd6c:	ff ff ff 
    bd6f:	49 01 da             	add    %rbx,%r10
    bd72:	41 ff d2             	call   *%r10
    bd75:	48 83 c4 10          	add    $0x10,%rsp
    bd79:	83 45 c8 01          	addl   $0x1,-0x38(%rbp)
    bd7d:	48 b8 c8 3a 00 00 00 	movabs $0x3ac8,%rax
    bd84:	00 00 00 
    bd87:	8b 04 03             	mov    (%rbx,%rax,1),%eax
    bd8a:	39 45 c8             	cmp    %eax,-0x38(%rbp)
    bd8d:	0f 82 14 ff ff ff    	jb     0xbca7
    bd93:	48 b8 f0 ff ff ff ff 	movabs $0xfffffffffffffff0,%rax
    bd9a:	ff ff ff 
    bd9d:	48 8b 04 03          	mov    (%rbx,%rax,1),%rax
    bda1:	48 89 45 a8          	mov    %rax,-0x58(%rbp)
    bda5:	48 8b 45 a8          	mov    -0x58(%rbp),%rax
    bda9:	48 89 45 c0          	mov    %rax,-0x40(%rbp)
    bdad:	c7 45 bc 00 00 00 00 	movl   $0x0,-0x44(%rbp)
    bdb4:	e9 17 01 00 00       	jmp    0xbed0
    bdb9:	48 ba c8 3a 00 00 00 	movabs $0x3ac8,%rdx
    bdc0:	00 00 00 
    bdc3:	8b 45 bc             	mov    -0x44(%rbp),%eax
    bdc6:	48 c1 e0 05          	shl    $0x5,%rax
    bdca:	48 01 d8             	add    %rbx,%rax
    bdcd:	48 01 d0             	add    %rdx,%rax
    bdd0:	48 83 c0 18          	add    $0x18,%rax
    bdd4:	48 8b 00             	mov    (%rax),%rax
    bdd7:	48 89 45 90          	mov    %rax,-0x70(%rbp)
    bddb:	48 ba c8 3a 00 00 00 	movabs $0x3ac8,%rdx
    bde2:	00 00 00 
    bde5:	8b 45 bc             	mov    -0x44(%rbp),%eax
    bde8:	48 c1 e0 05          	shl    $0x5,%rax
    bdec:	48 01 d8             	add    %rbx,%rax
    bdef:	48 01 d0             	add    %rdx,%rax
    bdf2:	48 83 c0 20          	add    $0x20,%rax
    bdf6:	48 8b 00             	mov    (%rax),%rax
    bdf9:	48 89 45 88          	mov    %rax,-0x78(%rbp)
    bdfd:	8b 45 bc             	mov    -0x44(%rbp),%eax
    be00:	48 c1 e0 05          	shl    $0x5,%rax
    be04:	48 89 c2             	mov    %rax,%rdx
    be07:	48 b8 c8 3a 00 00 00 	movabs $0x3ac8,%rax
    be0e:	00 00 00 
    be11:	48 8d 04 03          	lea    (%rbx,%rax,1),%rax
    be15:	48 01 d0             	add    %rdx,%rax
    be18:	48 83 c0 08          	add    $0x8,%rax
    be1c:	48 89 45 80          	mov    %rax,-0x80(%rbp)
    be20:	48 8b 45 88          	mov    -0x78(%rbp),%rax
    be24:	48 c1 e8 15          	shr    $0x15,%rax
    be28:	48 83 c0 07          	add    $0x7,%rax
    be2c:	48 c1 e8 03          	shr    $0x3,%rax
    be30:	89 c2                	mov    %eax,%edx
    be32:	48 8b 45 80          	mov    -0x80(%rbp),%rax
    be36:	89 10                	mov    %edx,(%rax)
    be38:	48 8b 45 88          	mov    -0x78(%rbp),%rax
    be3c:	48 c1 e8 15          	shr    $0x15,%rax
    be40:	83 e0 07             	and    $0x7,%eax
    be43:	89 c2                	mov    %eax,%edx
    be45:	48 8b 45 80          	mov    -0x80(%rbp),%rax
    be49:	89 50 04             	mov    %edx,0x4(%rax)
    be4c:	48 8b 45 80          	mov    -0x80(%rbp),%rax
    be50:	48 8b 55 c0          	mov    -0x40(%rbp),%rdx
    be54:	48 89 50 08          	mov    %rdx,0x8(%rax)
    be58:	48 8b 45 80          	mov    -0x80(%rbp),%rax
    be5c:	48 89 c7             	mov    %rax,%rdi
    be5f:	49 89 df             	mov    %rbx,%r15
    be62:	48 b8 8e c5 ff ff ff 	movabs $0xffffffffffffc58e,%rax
    be69:	ff ff ff 
    be6c:	48 01 d8             	add    %rbx,%rax
    be6f:	ff d0                	call   *%rax
    be71:	48 8b 45 80          	mov    -0x80(%rbp),%rax
    be75:	8b 00                	mov    (%rax),%eax
    be77:	89 c0                	mov    %eax,%eax
    be79:	48 01 45 c0          	add    %rax,-0x40(%rbp)
    be7d:	8b 45 bc             	mov    -0x44(%rbp),%eax
    be80:	89 c7                	mov    %eax,%edi
    be82:	48 b8 84 bc ff ff ff 	movabs $0xffffffffffffbc84,%rax
    be89:	ff ff ff 
    be8c:	48 8d 04 03          	lea    (%rbx,%rax,1),%rax
    be90:	ff d0                	call   *%rax
    be92:	85 c0                	test   %eax,%eax
    be94:	74 36                	je     0xbecc
    be96:	c7 45 b8 00 00 00 00 	movl   $0x0,-0x48(%rbp)
    be9d:	eb 27                	jmp    0xbec6
    be9f:	8b 4d b8             	mov    -0x48(%rbp),%ecx
    bea2:	48 8b 45 80          	mov    -0x80(%rbp),%rax
    bea6:	ba 01 00 00 00       	mov    $0x1,%edx
    beab:	89 ce                	mov    %ecx,%esi
    bead:	48 89 c7             	mov    %rax,%rdi
    beb0:	49 89 df             	mov    %rbx,%r15
    beb3:	48 b8 e2 c6 ff ff ff 	movabs $0xffffffffffffc6e2,%rax
    beba:	ff ff ff 
    bebd:	48 01 d8             	add    %rbx,%rax
    bec0:	ff d0                	call   *%rax
    bec2:	83 45 b8 01          	addl   $0x1,-0x48(%rbp)
    bec6:	83 7d b8 02          	cmpl   $0x2,-0x48(%rbp)
    beca:	76 d3                	jbe    0xbe9f
    becc:	83 45 bc 01          	addl   $0x1,-0x44(%rbp)
    bed0:	48 b8 c8 3a 00 00 00 	movabs $0x3ac8,%rax
    bed7:	00 00 00 
    beda:	8b 04 03             	mov    (%rbx,%rax,1),%eax
    bedd:	39 45 bc             	cmp    %eax,-0x44(%rbp)
    bee0:	0f 82 d3 fe ff ff    	jb     0xbdb9
    bee6:	48 8b 45 d8          	mov    -0x28(%rbp),%rax
    beea:	48 c1 e8 15          	shr    $0x15,%rax
    beee:	48 83 c0 07          	add    $0x7,%rax
    bef2:	48 c1 e8 03          	shr    $0x3,%rax
    bef6:	89 c2                	mov    %eax,%edx
    bef8:	48 b8 d8 3e 00 00 00 	movabs $0x3ed8,%rax
    beff:	00 00 00 
    bf02:	89 14 03             	mov    %edx,(%rbx,%rax,1)
    bf05:	48 8b 45 d8          	mov    -0x28(%rbp),%rax
    bf09:	48 c1 e8 15          	shr    $0x15,%rax
    bf0d:	83 e0 07             	and    $0x7,%eax
    bf10:	89 c2                	mov    %eax,%edx
    bf12:	48 b8 d8 3e 00 00 00 	movabs $0x3ed8,%rax
    bf19:	00 00 00 
    bf1c:	89 54 03 04          	mov    %edx,0x4(%rbx,%rax,1)
    bf20:	48 ba d8 3e 00 00 00 	movabs $0x3ed8,%rdx
    bf27:	00 00 00 
    bf2a:	48 8b 45 c0          	mov    -0x40(%rbp),%rax
    bf2e:	48 89 44 13 08       	mov    %rax,0x8(%rbx,%rdx,1)
    bf33:	48 b8 d8 3e 00 00 00 	movabs $0x3ed8,%rax
    bf3a:	00 00 00 
    bf3d:	48 bf 00 00 00 01 00 	movabs $0xffff800001000000,%rdi
    bf44:	80 ff ff 
    bf47:	48 89 7c 03 10       	mov    %rdi,0x10(%rbx,%rax,1)
    bf4c:	48 b8 d8 3e 00 00 00 	movabs $0x3ed8,%rax
    bf53:	00 00 00 
    bf56:	8b 04 03             	mov    (%rbx,%rax,1),%eax
    bf59:	89 c0                	mov    %eax,%eax
    bf5b:	48 01 45 c0          	add    %rax,-0x40(%rbp)
    bf5f:	48 b8 d8 3e 00 00 00 	movabs $0x3ed8,%rax
    bf66:	00 00 00 
    bf69:	48 8d 04 03          	lea    (%rbx,%rax,1),%rax
    bf6d:	48 89 c7             	mov    %rax,%rdi
    bf70:	49 89 df             	mov    %rbx,%r15
    bf73:	48 b8 8e c5 ff ff ff 	movabs $0xffffffffffffc58e,%rax
    bf7a:	ff ff ff 
    bf7d:	48 01 d8             	add    %rbx,%rax
    bf80:	ff d0                	call   *%rax
    bf82:	48 8b 45 d0          	mov    -0x30(%rbp),%rax
    bf86:	48 05 ff ff ff 3f    	add    $0x3fffffff,%rax
    bf8c:	48 c1 e8 1e          	shr    $0x1e,%rax
    bf90:	89 45 a4             	mov    %eax,-0x5c(%rbp)
    bf93:	48 83 6d c0 01       	subq   $0x1,-0x40(%rbp)
    bf98:	48 8b 45 c0          	mov    -0x40(%rbp),%rax
    bf9c:	48 25 00 f0 ff ff    	and    $0xfffffffffffff000,%rax
    bfa2:	48 89 45 c0          	mov    %rax,-0x40(%rbp)
    bfa6:	48 81 45 c0 00 10 00 	addq   $0x1000,-0x40(%rbp)
    bfad:	00 
    bfae:	c7 45 b4 01 00 00 00 	movl   $0x1,-0x4c(%rbp)
    bfb5:	eb 61                	jmp    0xc018
    bfb7:	48 8b 45 c0          	mov    -0x40(%rbp),%rax
    bfbb:	48 89 c7             	mov    %rax,%rdi
    bfbe:	48 b8 53 c4 ff ff ff 	movabs $0xffffffffffffc453,%rax
    bfc5:	ff ff ff 
    bfc8:	48 8d 04 03          	lea    (%rbx,%rax,1),%rax
    bfcc:	ff d0                	call   *%rax
    bfce:	48 89 c2             	mov    %rax,%rdx
    bfd1:	8b 45 b4             	mov    -0x4c(%rbp),%eax
    bfd4:	48 89 d6             	mov    %rdx,%rsi
    bfd7:	89 c7                	mov    %eax,%edi
    bfd9:	48 b8 02 c4 ff ff ff 	movabs $0xffffffffffffc402,%rax
    bfe0:	ff ff ff 
    bfe3:	48 8d 04 03          	lea    (%rbx,%rax,1),%rax
    bfe7:	ff d0                	call   *%rax
    bfe9:	48 8b 45 c0          	mov    -0x40(%rbp),%rax
    bfed:	ba 00 02 00 00       	mov    $0x200,%edx
    bff2:	be 00 00 00 00       	mov    $0x0,%esi
    bff7:	48 89 c7             	mov    %rax,%rdi
    bffa:	49 89 df             	mov    %rbx,%r15
    bffd:	48 b8 b6 4f ff ff ff 	movabs $0xffffffffffff4fb6,%rax
    c004:	ff ff ff 
    c007:	48 01 d8             	add    %rbx,%rax
    c00a:	ff d0                	call   *%rax
    c00c:	48 81 45 c0 00 10 00 	addq   $0x1000,-0x40(%rbp)
    c013:	00 
    c014:	83 45 b4 01          	addl   $0x1,-0x4c(%rbp)
    c018:	8b 45 b4             	mov    -0x4c(%rbp),%eax
    c01b:	3b 45 a4             	cmp    -0x5c(%rbp),%eax
    c01e:	72 97                	jb     0xbfb7
    c020:	c7 45 b0 00 00 00 00 	movl   $0x0,-0x50(%rbp)
    c027:	eb 1d                	jmp    0xc046
    c029:	b8 00 00 00 00       	mov    $0x0,%eax
    c02e:	48 ba 86 c4 ff ff ff 	movabs $0xffffffffffffc486,%rdx
    c035:	ff ff ff 
    c038:	48 8d 14 13          	lea    (%rbx,%rdx,1),%rdx
    c03c:	ff d2                	call   *%rdx
    c03e:	48 89 45 98          	mov    %rax,-0x68(%rbp)
    c042:	83 45 b0 01          	addl   $0x1,-0x50(%rbp)
    c046:	83 7d b0 63          	cmpl   $0x63,-0x50(%rbp)
    c04a:	76 dd                	jbe    0xc029
    c04c:	90                   	nop
    c04d:	48 8d 65 e0          	lea    -0x20(%rbp),%rsp
    c051:	5b                   	pop    %rbx
    c052:	41 5c                	pop    %r12
    c054:	41 5d                	pop    %r13
    c056:	41 5f                	pop    %r15
    c058:	5d                   	pop    %rbp
    c059:	c3                   	ret    
    c05a:	f3 0f 1e fa          	endbr64 
    c05e:	55                   	push   %rbp
    c05f:	48 89 e5             	mov    %rsp,%rbp
    c062:	48 8d 05 f9 ff ff ff 	lea    -0x7(%rip),%rax        # 0xc062
    c069:	49 bb f6 3b 00 00 00 	movabs $0x3bf6,%r11
    c070:	00 00 00 
    c073:	4c 01 d8             	add    %r11,%rax
    c076:	89 7d ec             	mov    %edi,-0x14(%rbp)
    c079:	48 89 75 e0          	mov    %rsi,-0x20(%rbp)
    c07d:	48 b8 00 20 10 00 00 	movabs $0xffff800000102000,%rax
    c084:	80 ff ff 
    c087:	48 89 45 f8          	mov    %rax,-0x8(%rbp)
    c08b:	8b 45 ec             	mov    -0x14(%rbp),%eax
    c08e:	48 c1 e0 03          	shl    $0x3,%rax
    c092:	48 01 45 f8          	add    %rax,-0x8(%rbp)
    c096:	48 8b 45 e0          	mov    -0x20(%rbp),%rax
    c09a:	48 83 c8 07          	or     $0x7,%rax
    c09e:	48 89 c2             	mov    %rax,%rdx
    c0a1:	48 8b 45 f8          	mov    -0x8(%rbp),%rax
    c0a5:	48 89 10             	mov    %rdx,(%rax)
    c0a8:	90                   	nop
    c0a9:	5d                   	pop    %rbp
    c0aa:	c3                   	ret    
    c0ab:	f3 0f 1e fa          	endbr64 
    c0af:	55                   	push   %rbp
    c0b0:	48 89 e5             	mov    %rsp,%rbp
    c0b3:	48 8d 05 f9 ff ff ff 	lea    -0x7(%rip),%rax        # 0xc0b3
    c0ba:	49 bb a5 3b 00 00 00 	movabs $0x3ba5,%r11
    c0c1:	00 00 00 
    c0c4:	4c 01 d8             	add    %r11,%rax
    c0c7:	48 89 7d f8          	mov    %rdi,-0x8(%rbp)
    c0cb:	48 ba 00 00 00 00 00 	movabs $0x800000000000,%rdx
    c0d2:	80 00 00 
    c0d5:	48 8b 45 f8          	mov    -0x8(%rbp),%rax
    c0d9:	48 01 d0             	add    %rdx,%rax
    c0dc:	5d                   	pop    %rbp
    c0dd:	c3                   	ret    
    c0de:	f3 0f 1e fa          	endbr64 
    c0e2:	55                   	push   %rbp
    c0e3:	48 89 e5             	mov    %rsp,%rbp
    c0e6:	41 57                	push   %r15
    c0e8:	53                   	push   %rbx
    c0e9:	48 83 ec 10          	sub    $0x10,%rsp
    c0ed:	48 8d 1d f9 ff ff ff 	lea    -0x7(%rip),%rbx        # 0xc0ed
    c0f4:	49 bb 6b 3b 00 00 00 	movabs $0x3b6b,%r11
    c0fb:	00 00 00 
    c0fe:	4c 01 db             	add    %r11,%rbx
    c101:	48 b8 c8 3a 00 00 00 	movabs $0x3ac8,%rax
    c108:	00 00 00 
    c10b:	8b 04 03             	mov    (%rbx,%rax,1),%eax
    c10e:	89 45 e8             	mov    %eax,-0x18(%rbp)
    c111:	c7 45 ec 00 00 00 00 	movl   $0x0,-0x14(%rbp)
    c118:	e9 af 00 00 00       	jmp    0xc1cc
    c11d:	8b 45 ec             	mov    -0x14(%rbp),%eax
    c120:	48 c1 e0 05          	shl    $0x5,%rax
    c124:	48 89 c2             	mov    %rax,%rdx
    c127:	48 b8 c8 3a 00 00 00 	movabs $0x3ac8,%rax
    c12e:	00 00 00 
    c131:	48 8d 04 03          	lea    (%rbx,%rax,1),%rax
    c135:	48 01 d0             	add    %rdx,%rax
    c138:	48 83 c0 08          	add    $0x8,%rax
    c13c:	be 01 00 00 00       	mov    $0x1,%esi
    c141:	48 89 c7             	mov    %rax,%rdi
    c144:	49 89 df             	mov    %rbx,%r15
    c147:	48 b8 f0 c7 ff ff ff 	movabs $0xffffffffffffc7f0,%rax
    c14e:	ff ff ff 
    c151:	48 01 d8             	add    %rbx,%rax
    c154:	ff d0                	call   *%rax
    c156:	89 45 e4             	mov    %eax,-0x1c(%rbp)
    c159:	83 7d e4 ff          	cmpl   $0xffffffff,-0x1c(%rbp)
    c15d:	74 69                	je     0xc1c8
    c15f:	8b 45 e4             	mov    -0x1c(%rbp),%eax
    c162:	8b 55 ec             	mov    -0x14(%rbp),%edx
    c165:	48 89 d1             	mov    %rdx,%rcx
    c168:	48 c1 e1 05          	shl    $0x5,%rcx
    c16c:	48 ba c8 3a 00 00 00 	movabs $0x3ac8,%rdx
    c173:	00 00 00 
    c176:	48 8d 14 13          	lea    (%rbx,%rdx,1),%rdx
    c17a:	48 01 ca             	add    %rcx,%rdx
    c17d:	48 8d 4a 08          	lea    0x8(%rdx),%rcx
    c181:	ba 01 00 00 00       	mov    $0x1,%edx
    c186:	89 c6                	mov    %eax,%esi
    c188:	48 89 cf             	mov    %rcx,%rdi
    c18b:	49 89 df             	mov    %rbx,%r15
    c18e:	48 b8 e2 c6 ff ff ff 	movabs $0xffffffffffffc6e2,%rax
    c195:	ff ff ff 
    c198:	48 01 d8             	add    %rbx,%rax
    c19b:	ff d0                	call   *%rax
    c19d:	48 ba c8 3a 00 00 00 	movabs $0x3ac8,%rdx
    c1a4:	00 00 00 
    c1a7:	8b 45 ec             	mov    -0x14(%rbp),%eax
    c1aa:	48 c1 e0 05          	shl    $0x5,%rax
    c1ae:	48 01 d8             	add    %rbx,%rax
    c1b1:	48 01 d0             	add    %rdx,%rax
    c1b4:	48 83 c0 18          	add    $0x18,%rax
    c1b8:	48 8b 10             	mov    (%rax),%rdx
    c1bb:	8b 45 e4             	mov    -0x1c(%rbp),%eax
    c1be:	c1 e0 15             	shl    $0x15,%eax
    c1c1:	48 98                	cltq   
    c1c3:	48 01 d0             	add    %rdx,%rax
    c1c6:	eb 15                	jmp    0xc1dd
    c1c8:	83 45 ec 01          	addl   $0x1,-0x14(%rbp)
    c1cc:	8b 45 ec             	mov    -0x14(%rbp),%eax
    c1cf:	3b 45 e8             	cmp    -0x18(%rbp),%eax
    c1d2:	0f 82 45 ff ff ff    	jb     0xc11d
    c1d8:	b8 00 00 00 00       	mov    $0x0,%eax
    c1dd:	48 83 c4 10          	add    $0x10,%rsp
    c1e1:	5b                   	pop    %rbx
    c1e2:	41 5f                	pop    %r15
    c1e4:	5d                   	pop    %rbp
    c1e5:	c3                   	ret    
    c1e6:	f3 0f 1e fa          	endbr64 
    c1ea:	55                   	push   %rbp
    c1eb:	48 89 e5             	mov    %rsp,%rbp
    c1ee:	41 57                	push   %r15
    c1f0:	53                   	push   %rbx
    c1f1:	48 83 ec 20          	sub    $0x20,%rsp
    c1f5:	48 8d 1d f9 ff ff ff 	lea    -0x7(%rip),%rbx        # 0xc1f5
    c1fc:	49 bb 63 3a 00 00 00 	movabs $0x3a63,%r11
    c203:	00 00 00 
    c206:	4c 01 db             	add    %r11,%rbx
    c209:	48 89 7d d8          	mov    %rdi,-0x28(%rbp)
    c20d:	48 8b 45 d8          	mov    -0x28(%rbp),%rax
    c211:	8b 00                	mov    (%rax),%eax
    c213:	85 c0                	test   %eax,%eax
    c215:	75 4a                	jne    0xc261
    c217:	48 b8 18 06 00 00 00 	movabs $0x618,%rax
    c21e:	00 00 00 
    c221:	48 8d 04 03          	lea    (%rbx,%rax,1),%rax
    c225:	48 89 c1             	mov    %rax,%rcx
    c228:	48 b8 60 06 00 00 00 	movabs $0x660,%rax
    c22f:	00 00 00 
    c232:	48 8d 04 03          	lea    (%rbx,%rax,1),%rax
    c236:	48 89 c2             	mov    %rax,%rdx
    c239:	be 07 00 00 00       	mov    $0x7,%esi
    c23e:	48 b8 2c 06 00 00 00 	movabs $0x62c,%rax
    c245:	00 00 00 
    c248:	48 8d 04 03          	lea    (%rbx,%rax,1),%rax
    c24c:	48 89 c7             	mov    %rax,%rdi
    c24f:	49 89 df             	mov    %rbx,%r15
    c252:	48 b8 fa c8 ff ff ff 	movabs $0xffffffffffffc8fa,%rax
    c259:	ff ff ff 
    c25c:	48 01 d8             	add    %rbx,%rax
    c25f:	ff d0                	call   *%rax
    c261:	48 8b 45 d8          	mov    -0x28(%rbp),%rax
    c265:	8b 10                	mov    (%rax),%edx
    c267:	48 8b 45 d8          	mov    -0x28(%rbp),%rax
    c26b:	48 8b 40 08          	mov    0x8(%rax),%rax
    c26f:	be 00 00 00 00       	mov    $0x0,%esi
    c274:	48 89 c7             	mov    %rax,%rdi
    c277:	49 89 df             	mov    %rbx,%r15
    c27a:	48 b8 ee 55 ff ff ff 	movabs $0xffffffffffff55ee,%rax
    c281:	ff ff ff 
    c284:	48 01 d8             	add    %rbx,%rax
    c287:	ff d0                	call   *%rax
    c289:	c7 45 ec 00 00 00 00 	movl   $0x0,-0x14(%rbp)
    c290:	eb 2f                	jmp    0xc2c1
    c292:	48 8b 45 d8          	mov    -0x28(%rbp),%rax
    c296:	8b 50 04             	mov    0x4(%rax),%edx
    c299:	8b 45 ec             	mov    -0x14(%rbp),%eax
    c29c:	8d 0c 02             	lea    (%rdx,%rax,1),%ecx
    c29f:	48 8b 45 d8          	mov    -0x28(%rbp),%rax
    c2a3:	ba 01 00 00 00       	mov    $0x1,%edx
    c2a8:	89 ce                	mov    %ecx,%esi
    c2aa:	48 89 c7             	mov    %rax,%rdi
    c2ad:	48 b8 e2 c6 ff ff ff 	movabs $0xffffffffffffc6e2,%rax
    c2b4:	ff ff ff 
    c2b7:	48 8d 04 03          	lea    (%rbx,%rax,1),%rax
    c2bb:	ff d0                	call   *%rax
    c2bd:	83 45 ec 01          	addl   $0x1,-0x14(%rbp)
    c2c1:	48 8b 45 d8          	mov    -0x28(%rbp),%rax
    c2c5:	8b 50 04             	mov    0x4(%rax),%edx
    c2c8:	b8 08 00 00 00       	mov    $0x8,%eax
    c2cd:	29 d0                	sub    %edx,%eax
    c2cf:	39 45 ec             	cmp    %eax,-0x14(%rbp)
    c2d2:	72 be                	jb     0xc292
    c2d4:	90                   	nop
    c2d5:	90                   	nop
    c2d6:	48 83 c4 20          	add    $0x20,%rsp
    c2da:	5b                   	pop    %rbx
    c2db:	41 5f                	pop    %r15
    c2dd:	5d                   	pop    %rbp
    c2de:	c3                   	ret    
    c2df:	f3 0f 1e fa          	endbr64 
    c2e3:	55                   	push   %rbp
    c2e4:	48 89 e5             	mov    %rsp,%rbp
    c2e7:	48 8d 05 f9 ff ff ff 	lea    -0x7(%rip),%rax        # 0xc2e7
    c2ee:	49 bb 71 39 00 00 00 	movabs $0x3971,%r11
    c2f5:	00 00 00 
    c2f8:	4c 01 d8             	add    %r11,%rax
    c2fb:	48 89 7d e8          	mov    %rdi,-0x18(%rbp)
    c2ff:	89 75 e4             	mov    %esi,-0x1c(%rbp)
    c302:	8b 45 e4             	mov    -0x1c(%rbp),%eax
    c305:	c1 e8 03             	shr    $0x3,%eax
    c308:	89 45 fc             	mov    %eax,-0x4(%rbp)
    c30b:	8b 45 e4             	mov    -0x1c(%rbp),%eax
    c30e:	83 e0 07             	and    $0x7,%eax
    c311:	89 45 f8             	mov    %eax,-0x8(%rbp)
    c314:	48 8b 45 e8          	mov    -0x18(%rbp),%rax
    c318:	48 8b 50 08          	mov    0x8(%rax),%rdx
    c31c:	8b 45 fc             	mov    -0x4(%rbp),%eax
    c31f:	48 01 d0             	add    %rdx,%rax
    c322:	0f b6 00             	movzbl (%rax),%eax
    c325:	0f b6 d0             	movzbl %al,%edx
    c328:	8b 45 f8             	mov    -0x8(%rbp),%eax
    c32b:	be 01 00 00 00       	mov    $0x1,%esi
    c330:	89 c1                	mov    %eax,%ecx
    c332:	d3 e6                	shl    %cl,%esi
    c334:	89 f0                	mov    %esi,%eax
    c336:	21 d0                	and    %edx,%eax
    c338:	5d                   	pop    %rbp
    c339:	c3                   	ret    
    c33a:	f3 0f 1e fa          	endbr64 
    c33e:	55                   	push   %rbp
    c33f:	48 89 e5             	mov    %rsp,%rbp
    c342:	41 57                	push   %r15
    c344:	48 83 ec 28          	sub    $0x28,%rsp
    c348:	48 8d 05 f9 ff ff ff 	lea    -0x7(%rip),%rax        # 0xc348
    c34f:	49 bb 10 39 00 00 00 	movabs $0x3910,%r11
    c356:	00 00 00 
    c359:	4c 01 d8             	add    %r11,%rax
    c35c:	48 89 7d d8          	mov    %rdi,-0x28(%rbp)
    c360:	89 75 d4             	mov    %esi,-0x2c(%rbp)
    c363:	88 55 d0             	mov    %dl,-0x30(%rbp)
    c366:	80 7d d0 00          	cmpb   $0x0,-0x30(%rbp)
    c36a:	74 4b                	je     0xc3b7
    c36c:	80 7d d0 01          	cmpb   $0x1,-0x30(%rbp)
    c370:	74 45                	je     0xc3b7
    c372:	48 ba 3d 06 00 00 00 	movabs $0x63d,%rdx
    c379:	00 00 00 
    c37c:	48 8d 14 10          	lea    (%rax,%rdx,1),%rdx
    c380:	48 89 d1             	mov    %rdx,%rcx
    c383:	48 ba 70 06 00 00 00 	movabs $0x670,%rdx
    c38a:	00 00 00 
    c38d:	48 8d 14 10          	lea    (%rax,%rdx,1),%rdx
    c391:	be 19 00 00 00       	mov    $0x19,%esi
    c396:	48 bf 2c 06 00 00 00 	movabs $0x62c,%rdi
    c39d:	00 00 00 
    c3a0:	48 8d 3c 38          	lea    (%rax,%rdi,1),%rdi
    c3a4:	49 89 c7             	mov    %rax,%r15
    c3a7:	49 b8 fa c8 ff ff ff 	movabs $0xffffffffffffc8fa,%r8
    c3ae:	ff ff ff 
    c3b1:	49 01 c0             	add    %rax,%r8
    c3b4:	41 ff d0             	call   *%r8
    c3b7:	8b 45 d4             	mov    -0x2c(%rbp),%eax
    c3ba:	c1 e8 03             	shr    $0x3,%eax
    c3bd:	89 45 ec             	mov    %eax,-0x14(%rbp)
    c3c0:	8b 45 d4             	mov    -0x2c(%rbp),%eax
    c3c3:	83 e0 07             	and    $0x7,%eax
    c3c6:	89 45 e8             	mov    %eax,-0x18(%rbp)
    c3c9:	80 7d d0 00          	cmpb   $0x0,-0x30(%rbp)
    c3cd:	74 39                	je     0xc408
    c3cf:	48 8b 45 d8          	mov    -0x28(%rbp),%rax
    c3d3:	48 8b 50 08          	mov    0x8(%rax),%rdx
    c3d7:	8b 45 ec             	mov    -0x14(%rbp),%eax
    c3da:	48 01 d0             	add    %rdx,%rax
    c3dd:	0f b6 00             	movzbl (%rax),%eax
    c3e0:	89 c6                	mov    %eax,%esi
    c3e2:	8b 45 e8             	mov    -0x18(%rbp),%eax
    c3e5:	ba 01 00 00 00       	mov    $0x1,%edx
    c3ea:	89 c1                	mov    %eax,%ecx
    c3ec:	d3 e2                	shl    %cl,%edx
    c3ee:	89 d0                	mov    %edx,%eax
    c3f0:	09 c6                	or     %eax,%esi
    c3f2:	89 f1                	mov    %esi,%ecx
    c3f4:	48 8b 45 d8          	mov    -0x28(%rbp),%rax
    c3f8:	48 8b 50 08          	mov    0x8(%rax),%rdx
    c3fc:	8b 45 ec             	mov    -0x14(%rbp),%eax
    c3ff:	48 01 d0             	add    %rdx,%rax
    c402:	89 ca                	mov    %ecx,%edx
    c404:	88 10                	mov    %dl,(%rax)
    c406:	eb 39                	jmp    0xc441
    c408:	48 8b 45 d8          	mov    -0x28(%rbp),%rax
    c40c:	48 8b 50 08          	mov    0x8(%rax),%rdx
    c410:	8b 45 ec             	mov    -0x14(%rbp),%eax
    c413:	48 01 d0             	add    %rdx,%rax
    c416:	0f b6 00             	movzbl (%rax),%eax
    c419:	89 c6                	mov    %eax,%esi
    c41b:	8b 45 e8             	mov    -0x18(%rbp),%eax
    c41e:	ba 01 00 00 00       	mov    $0x1,%edx
    c423:	89 c1                	mov    %eax,%ecx
    c425:	d3 e2                	shl    %cl,%edx
    c427:	89 d0                	mov    %edx,%eax
    c429:	f7 d0                	not    %eax
    c42b:	89 f1                	mov    %esi,%ecx
    c42d:	21 c1                	and    %eax,%ecx
    c42f:	48 8b 45 d8          	mov    -0x28(%rbp),%rax
    c433:	48 8b 50 08          	mov    0x8(%rax),%rdx
    c437:	8b 45 ec             	mov    -0x14(%rbp),%eax
    c43a:	48 01 d0             	add    %rdx,%rax
    c43d:	89 ca                	mov    %ecx,%edx
    c43f:	88 10                	mov    %dl,(%rax)
    c441:	90                   	nop
    c442:	4c 8b 7d f8          	mov    -0x8(%rbp),%r15
    c446:	c9                   	leave  
    c447:	c3                   	ret    
    c448:	f3 0f 1e fa          	endbr64 
    c44c:	55                   	push   %rbp
    c44d:	48 89 e5             	mov    %rsp,%rbp
    c450:	53                   	push   %rbx
    c451:	48 83 ec 20          	sub    $0x20,%rsp
    c455:	48 8d 1d f9 ff ff ff 	lea    -0x7(%rip),%rbx        # 0xc455
    c45c:	49 bb 03 38 00 00 00 	movabs $0x3803,%r11
    c463:	00 00 00 
    c466:	4c 01 db             	add    %r11,%rbx
    c469:	48 89 7d e0          	mov    %rdi,-0x20(%rbp)
    c46d:	89 75 dc             	mov    %esi,-0x24(%rbp)
    c470:	c7 45 f4 00 00 00 00 	movl   $0x0,-0xc(%rbp)
    c477:	c7 45 f0 00 00 00 00 	movl   $0x0,-0x10(%rbp)
    c47e:	eb 04                	jmp    0xc484
    c480:	83 45 f4 01          	addl   $0x1,-0xc(%rbp)
    c484:	8b 55 f4             	mov    -0xc(%rbp),%edx
    c487:	48 8b 45 e0          	mov    -0x20(%rbp),%rax
    c48b:	89 d6                	mov    %edx,%esi
    c48d:	48 89 c7             	mov    %rax,%rdi
    c490:	48 b8 87 c6 ff ff ff 	movabs $0xffffffffffffc687,%rax
    c497:	ff ff ff 
    c49a:	48 8d 04 03          	lea    (%rbx,%rax,1),%rax
    c49e:	ff d0                	call   *%rax
    c4a0:	85 c0                	test   %eax,%eax
    c4a2:	74 12                	je     0xc4b6
    c4a4:	8b 45 f4             	mov    -0xc(%rbp),%eax
    c4a7:	c1 e8 03             	shr    $0x3,%eax
    c4aa:	89 c2                	mov    %eax,%edx
    c4ac:	48 8b 45 e0          	mov    -0x20(%rbp),%rax
    c4b0:	8b 00                	mov    (%rax),%eax
    c4b2:	39 c2                	cmp    %eax,%edx
    c4b4:	72 ca                	jb     0xc480
    c4b6:	8b 45 f4             	mov    -0xc(%rbp),%eax
    c4b9:	c1 e8 03             	shr    $0x3,%eax
    c4bc:	89 c2                	mov    %eax,%edx
    c4be:	48 8b 45 e0          	mov    -0x20(%rbp),%rax
    c4c2:	8b 00                	mov    (%rax),%eax
    c4c4:	39 c2                	cmp    %eax,%edx
    c4c6:	72 07                	jb     0xc4cf
    c4c8:	b8 ff ff ff ff       	mov    $0xffffffff,%eax
    c4cd:	eb 7d                	jmp    0xc54c
    c4cf:	c7 45 f0 01 00 00 00 	movl   $0x1,-0x10(%rbp)
    c4d6:	eb 49                	jmp    0xc521
    c4d8:	8b 55 f4             	mov    -0xc(%rbp),%edx
    c4db:	8b 45 f0             	mov    -0x10(%rbp),%eax
    c4de:	01 d0                	add    %edx,%eax
    c4e0:	c1 e8 03             	shr    $0x3,%eax
    c4e3:	89 c2                	mov    %eax,%edx
    c4e5:	48 8b 45 e0          	mov    -0x20(%rbp),%rax
    c4e9:	8b 00                	mov    (%rax),%eax
    c4eb:	39 c2                	cmp    %eax,%edx
    c4ed:	73 2b                	jae    0xc51a
    c4ef:	8b 55 f4             	mov    -0xc(%rbp),%edx
    c4f2:	8b 45 f0             	mov    -0x10(%rbp),%eax
    c4f5:	01 c2                	add    %eax,%edx
    c4f7:	48 8b 45 e0          	mov    -0x20(%rbp),%rax
    c4fb:	89 d6                	mov    %edx,%esi
    c4fd:	48 89 c7             	mov    %rax,%rdi
    c500:	48 b8 87 c6 ff ff ff 	movabs $0xffffffffffffc687,%rax
    c507:	ff ff ff 
    c50a:	48 8d 04 03          	lea    (%rbx,%rax,1),%rax
    c50e:	ff d0                	call   *%rax
    c510:	85 c0                	test   %eax,%eax
    c512:	75 17                	jne    0xc52b
    c514:	83 45 f0 01          	addl   $0x1,-0x10(%rbp)
    c518:	eb 07                	jmp    0xc521
    c51a:	b8 ff ff ff ff       	mov    $0xffffffff,%eax
    c51f:	eb 2b                	jmp    0xc54c
    c521:	8b 45 f0             	mov    -0x10(%rbp),%eax
    c524:	3b 45 dc             	cmp    -0x24(%rbp),%eax
    c527:	72 af                	jb     0xc4d8
    c529:	eb 01                	jmp    0xc52c
    c52b:	90                   	nop
    c52c:	8b 45 f0             	mov    -0x10(%rbp),%eax
    c52f:	3b 45 dc             	cmp    -0x24(%rbp),%eax
    c532:	75 05                	jne    0xc539
    c534:	8b 45 f4             	mov    -0xc(%rbp),%eax
    c537:	eb 13                	jmp    0xc54c
    c539:	8b 55 f0             	mov    -0x10(%rbp),%edx
    c53c:	8b 45 f4             	mov    -0xc(%rbp),%eax
    c53f:	01 d0                	add    %edx,%eax
    c541:	83 c0 01             	add    $0x1,%eax
    c544:	89 45 f4             	mov    %eax,-0xc(%rbp)
    c547:	e9 38 ff ff ff       	jmp    0xc484
    c54c:	48 8b 5d f8          	mov    -0x8(%rbp),%rbx
    c550:	c9                   	leave  
    c551:	c3                   	ret    
    c552:	f3 0f 1e fa          	endbr64 
    c556:	55                   	push   %rbp
    c557:	48 89 e5             	mov    %rsp,%rbp
    c55a:	41 57                	push   %r15
    c55c:	41 56                	push   %r14
    c55e:	41 55                	push   %r13
    c560:	41 54                	push   %r12
    c562:	53                   	push   %rbx
    c563:	48 83 ec 38          	sub    $0x38,%rsp
    c567:	48 8d 1d f9 ff ff ff 	lea    -0x7(%rip),%rbx        # 0xc567
    c56e:	49 bb f1 36 00 00 00 	movabs $0x36f1,%r11
    c575:	00 00 00 
    c578:	4c 01 db             	add    %r11,%rbx
    c57b:	48 89 7d c8          	mov    %rdi,-0x38(%rbp)
    c57f:	89 75 c4             	mov    %esi,-0x3c(%rbp)
    c582:	48 89 55 b8          	mov    %rdx,-0x48(%rbp)
    c586:	48 89 4d b0          	mov    %rcx,-0x50(%rbp)
    c58a:	49 89 df             	mov    %rbx,%r15
    c58d:	48 b8 81 a4 ff ff ff 	movabs $0xffffffffffffa481,%rax
    c594:	ff ff ff 
    c597:	48 01 d8             	add    %rbx,%rax
    c59a:	ff d0                	call   *%rax
    c59c:	8b 55 c0             	mov    -0x40(%rbp),%edx
    c59f:	b2 00                	mov    $0x0,%dl
    c5a1:	b8 00 00 00 00       	mov    $0x0,%eax
    c5a6:	88 c6                	mov    %al,%dh
    c5a8:	81 ca 00 00 ff 00    	or     $0xff0000,%edx
    c5ae:	89 d0                	mov    %edx,%eax
    c5b0:	25 ff ff ff 00       	and    $0xffffff,%eax
    c5b5:	89 c2                	mov    %eax,%edx
    c5b7:	48 b8 7b 06 00 00 00 	movabs $0x67b,%rax
    c5be:	00 00 00 
    c5c1:	48 8d 04 03          	lea    (%rbx,%rax,1),%rax
    c5c5:	48 89 c1             	mov    %rax,%rcx
    c5c8:	be 20 03 00 00       	mov    $0x320,%esi
    c5cd:	bf 00 00 00 00       	mov    $0x0,%edi
    c5d2:	49 89 df             	mov    %rbx,%r15
    c5d5:	b8 00 00 00 00       	mov    $0x0,%eax
    c5da:	49 b8 e6 4d ff ff ff 	movabs $0xffffffffffff4de6,%r8
    c5e1:	ff ff ff 
    c5e4:	49 01 d8             	add    %rbx,%r8
    c5e7:	41 ff d0             	call   *%r8
    c5ea:	8b 4d ac             	mov    -0x54(%rbp),%ecx
    c5ed:	b1 00                	mov    $0x0,%cl
    c5ef:	b8 00 00 00 00       	mov    $0x0,%eax
    c5f4:	88 c5                	mov    %al,%ch
    c5f6:	81 c9 00 00 ff 00    	or     $0xff0000,%ecx
    c5fc:	89 c8                	mov    %ecx,%eax
    c5fe:	25 ff ff ff 00       	and    $0xffffff,%eax
    c603:	89 c2                	mov    %eax,%edx
    c605:	48 8b 45 c8          	mov    -0x38(%rbp),%rax
    c609:	49 89 c0             	mov    %rax,%r8
    c60c:	48 b8 8d 06 00 00 00 	movabs $0x68d,%rax
    c613:	00 00 00 
    c616:	48 8d 04 03          	lea    (%rbx,%rax,1),%rax
    c61a:	48 89 c1             	mov    %rax,%rcx
    c61d:	be 30 03 00 00       	mov    $0x330,%esi
    c622:	bf 00 00 00 00       	mov    $0x0,%edi
    c627:	49 89 df             	mov    %rbx,%r15
    c62a:	b8 00 00 00 00       	mov    $0x0,%eax
    c62f:	49 b9 e6 4d ff ff ff 	movabs $0xffffffffffff4de6,%r9
    c636:	ff ff ff 
    c639:	49 01 d9             	add    %rbx,%r9
    c63c:	41 ff d1             	call   *%r9
    c63f:	41 b6 00             	mov    $0x0,%r14b
    c642:	b8 00 00 00 00       	mov    $0x0,%eax
    c647:	44 89 f2             	mov    %r14d,%edx
    c64a:	88 c6                	mov    %al,%dh
    c64c:	41 89 d6             	mov    %edx,%r14d
    c64f:	44 89 f0             	mov    %r14d,%eax
    c652:	0d 00 00 ff 00       	or     $0xff0000,%eax
    c657:	41 89 c6             	mov    %eax,%r14d
    c65a:	44 89 f0             	mov    %r14d,%eax
    c65d:	25 ff ff ff 00       	and    $0xffffff,%eax
    c662:	41 89 c6             	mov    %eax,%r14d
    c665:	8b 45 c4             	mov    -0x3c(%rbp),%eax
    c668:	41 89 c0             	mov    %eax,%r8d
    c66b:	48 b8 99 06 00 00 00 	movabs $0x699,%rax
    c672:	00 00 00 
    c675:	48 8d 04 03          	lea    (%rbx,%rax,1),%rax
    c679:	48 89 c1             	mov    %rax,%rcx
    c67c:	44 89 f2             	mov    %r14d,%edx
    c67f:	be 40 03 00 00       	mov    $0x340,%esi
    c684:	bf 00 00 00 00       	mov    $0x0,%edi
    c689:	49 89 df             	mov    %rbx,%r15
    c68c:	b8 00 00 00 00       	mov    $0x0,%eax
    c691:	49 b9 e6 4d ff ff ff 	movabs $0xffffffffffff4de6,%r9
    c698:	ff ff ff 
    c69b:	49 01 d9             	add    %rbx,%r9
    c69e:	41 ff d1             	call   *%r9
    c6a1:	41 b5 00             	mov    $0x0,%r13b
    c6a4:	b8 00 00 00 00       	mov    $0x0,%eax
    c6a9:	44 89 e9             	mov    %r13d,%ecx
    c6ac:	88 c5                	mov    %al,%ch
    c6ae:	41 89 cd             	mov    %ecx,%r13d
    c6b1:	44 89 e8             	mov    %r13d,%eax
    c6b4:	0d 00 00 ff 00       	or     $0xff0000,%eax
    c6b9:	41 89 c5             	mov    %eax,%r13d
    c6bc:	44 89 e8             	mov    %r13d,%eax
    c6bf:	25 ff ff ff 00       	and    $0xffffff,%eax
    c6c4:	41 89 c5             	mov    %eax,%r13d
    c6c7:	48 8b 45 b8          	mov    -0x48(%rbp),%rax
    c6cb:	49 89 c0             	mov    %rax,%r8
    c6ce:	48 b8 a1 06 00 00 00 	movabs $0x6a1,%rax
    c6d5:	00 00 00 
    c6d8:	48 8d 04 03          	lea    (%rbx,%rax,1),%rax
    c6dc:	48 89 c1             	mov    %rax,%rcx
    c6df:	44 89 ea             	mov    %r13d,%edx
    c6e2:	be 50 03 00 00       	mov    $0x350,%esi
    c6e7:	bf 00 00 00 00       	mov    $0x0,%edi
    c6ec:	49 89 df             	mov    %rbx,%r15
    c6ef:	b8 00 00 00 00       	mov    $0x0,%eax
    c6f4:	49 b9 e6 4d ff ff ff 	movabs $0xffffffffffff4de6,%r9
    c6fb:	ff ff ff 
    c6fe:	49 01 d9             	add    %rbx,%r9
    c701:	41 ff d1             	call   *%r9
    c704:	41 b4 00             	mov    $0x0,%r12b
    c707:	b8 00 00 00 00       	mov    $0x0,%eax
    c70c:	44 89 e2             	mov    %r12d,%edx
    c70f:	88 c6                	mov    %al,%dh
    c711:	41 89 d4             	mov    %edx,%r12d
    c714:	44 89 e0             	mov    %r12d,%eax
    c717:	0d 00 00 ff 00       	or     $0xff0000,%eax
    c71c:	41 89 c4             	mov    %eax,%r12d
    c71f:	44 89 e0             	mov    %r12d,%eax
    c722:	25 ff ff ff 00       	and    $0xffffff,%eax
    c727:	41 89 c4             	mov    %eax,%r12d
    c72a:	48 8b 45 b0          	mov    -0x50(%rbp),%rax
    c72e:	49 89 c0             	mov    %rax,%r8
    c731:	48 b8 ad 06 00 00 00 	movabs $0x6ad,%rax
    c738:	00 00 00 
    c73b:	48 8d 04 03          	lea    (%rbx,%rax,1),%rax
    c73f:	48 89 c1             	mov    %rax,%rcx
    c742:	44 89 e2             	mov    %r12d,%edx
    c745:	be 60 03 00 00       	mov    $0x360,%esi
    c74a:	bf 00 00 00 00       	mov    $0x0,%edi
    c74f:	49 89 df             	mov    %rbx,%r15
    c752:	b8 00 00 00 00       	mov    $0x0,%eax
    c757:	49 b9 e6 4d ff ff ff 	movabs $0xffffffffffff4de6,%r9
    c75e:	ff ff ff 
    c761:	49 01 d9             	add    %rbx,%r9
    c764:	41 ff d1             	call   *%r9
    c767:	eb fe                	jmp    0xc767
	...
    c991:	10 10                	adc    %dl,(%rax)
    c993:	10 10                	adc    %dl,(%rax)
    c995:	10 10                	adc    %dl,(%rax)
    c997:	10 10                	adc    %dl,(%rax)
    c999:	10 00                	adc    %al,(%rax)
    c99b:	00 10                	add    %dl,(%rax)
    c99d:	10 00                	adc    %al,(%rax)
    c99f:	00 28                	add    %ch,(%rax)
    c9a1:	28 28                	sub    %ch,(%rax)
	...
    c9af:	00 00                	add    %al,(%rax)
    c9b1:	44                   	rex.R
    c9b2:	44                   	rex.R
    c9b3:	44 fe 44 44 44       	rex.R incb 0x44(%rsp,%rax,2)
    c9b8:	44                   	rex.R
    c9b9:	44 fe 44 44 44       	rex.R incb 0x44(%rsp,%rax,2)
    c9be:	00 00                	add    %al,(%rax)
    c9c0:	10 3a                	adc    %bh,(%rdx)
    c9c2:	56                   	push   %rsi
    c9c3:	92                   	xchg   %eax,%edx
    c9c4:	92                   	xchg   %eax,%edx
    c9c5:	90                   	nop
    c9c6:	50                   	push   %rax
    c9c7:	38 14 12             	cmp    %dl,(%rdx,%rdx,1)
    c9ca:	92                   	xchg   %eax,%edx
    c9cb:	92                   	xchg   %eax,%edx
    c9cc:	d4                   	(bad)  
    c9cd:	b8 10 10 62 92       	mov    $0x92621010,%eax
    c9d2:	94                   	xchg   %eax,%esp
    c9d3:	94                   	xchg   %eax,%esp
    c9d4:	68 08 10 10 20       	push   $0x20101008
    c9d9:	2c 52                	sub    $0x52,%al
    c9db:	52                   	push   %rdx
    c9dc:	92                   	xchg   %eax,%edx
    c9dd:	8c 00                	mov    %es,(%rax)
    c9df:	00 00                	add    %al,(%rax)
    c9e1:	70 88                	jo     0xc96b
    c9e3:	88 88 90 60 47 a2    	mov    %cl,-0x5db89f70(%rax)
    c9e9:	92                   	xchg   %eax,%edx
    c9ea:	8a 84 46 39 00 00 04 	mov    0x4000039(%rsi,%rax,2),%al
    c9f1:	08 10                	or     %dl,(%rax)
	...
    c9ff:	00 02                	add    %al,(%rdx)
    ca01:	04 08                	add    $0x8,%al
    ca03:	08 10                	or     %dl,(%rax)
    ca05:	10 10                	adc    %dl,(%rax)
    ca07:	10 10                	adc    %dl,(%rax)
    ca09:	10 10                	adc    %dl,(%rax)
    ca0b:	08 08                	or     %cl,(%rax)
    ca0d:	04 02                	add    $0x2,%al
    ca0f:	00 80 40 20 20 10    	add    %al,0x10202040(%rax)
    ca15:	10 10                	adc    %dl,(%rax)
    ca17:	10 10                	adc    %dl,(%rax)
    ca19:	10 10                	adc    %dl,(%rax)
    ca1b:	20 20                	and    %ah,(%rax)
    ca1d:	40 80 00 00          	rex addb $0x0,(%rax)
    ca21:	00 00                	add    %al,(%rax)
    ca23:	00 00                	add    %al,(%rax)
    ca25:	10 92 54 38 54 92    	adc    %dl,-0x6dabc7ac(%rdx)
    ca2b:	10 00                	adc    %al,(%rax)
	...
    ca35:	10 10                	adc    %dl,(%rax)
    ca37:	10 fe                	adc    %bh,%dh
    ca39:	10 10                	adc    %dl,(%rax)
    ca3b:	10 00                	adc    %al,(%rax)
	...
    ca49:	00 00                	add    %al,(%rax)
    ca4b:	18 18                	sbb    %bl,(%rax)
    ca4d:	08 08                	or     %cl,(%rax)
    ca4f:	10 00                	adc    %al,(%rax)
    ca51:	00 00                	add    %al,(%rax)
    ca53:	00 00                	add    %al,(%rax)
    ca55:	00 00                	add    %al,(%rax)
    ca57:	00 fe                	add    %bh,%dh
	...
    ca69:	00 00                	add    %al,(%rax)
    ca6b:	00 18                	add    %bl,(%rax)
    ca6d:	18 00                	sbb    %al,(%rax)
    ca6f:	00 02                	add    %al,(%rdx)
    ca71:	02 04 04             	add    (%rsp,%rax,1),%al
    ca74:	08 08                	or     %cl,(%rax)
    ca76:	08 10                	or     %dl,(%rax)
    ca78:	10 20                	adc    %ah,(%rax)
    ca7a:	20 40 40             	and    %al,0x40(%rax)
    ca7d:	40 80 80 00 18 24 24 	rex addb $0x42,0x24241800(%rax)
    ca84:	42 
    ca85:	42                   	rex.X
    ca86:	42                   	rex.X
    ca87:	42                   	rex.X
    ca88:	42                   	rex.X
    ca89:	42                   	rex.X
    ca8a:	42 24 24             	rex.X and $0x24,%al
    ca8d:	18 00                	sbb    %al,(%rax)
    ca8f:	00 00                	add    %al,(%rax)
    ca91:	08 18                	or     %bl,(%rax)
    ca93:	28 08                	sub    %cl,(%rax)
    ca95:	08 08                	or     %cl,(%rax)
    ca97:	08 08                	or     %cl,(%rax)
    ca99:	08 08                	or     %cl,(%rax)
    ca9b:	08 08                	or     %cl,(%rax)
    ca9d:	3e 00 00             	ds add %al,(%rax)
    caa0:	00 18                	add    %bl,(%rax)
    caa2:	24 42                	and    $0x42,%al
    caa4:	42 02 04 08          	add    (%rax,%r9,1),%al
    caa8:	10 20                	adc    %ah,(%rax)
    caaa:	20 40 40             	and    %al,0x40(%rax)
    caad:	7e 00                	jle    0xcaaf
    caaf:	00 00                	add    %al,(%rax)
    cab1:	18 24 42             	sbb    %ah,(%rdx,%rax,2)
    cab4:	02 02                	add    (%rdx),%al
    cab6:	04 18                	add    $0x18,%al
    cab8:	04 02                	add    $0x2,%al
    caba:	02 42 24             	add    0x24(%rdx),%al
    cabd:	18 00                	sbb    %al,(%rax)
    cabf:	00 00                	add    %al,(%rax)
    cac1:	0c 0c                	or     $0xc,%al
    cac3:	0c 14                	or     $0x14,%al
    cac5:	14 14                	adc    $0x14,%al
    cac7:	24 24                	and    $0x24,%al
    cac9:	44 7e 04             	rex.R jle 0xcad0
    cacc:	04 1e                	add    $0x1e,%al
    cace:	00 00                	add    %al,(%rax)
    cad0:	00 7c 40 40          	add    %bh,0x40(%rax,%rax,2)
    cad4:	40 58                	rex pop %rax
    cad6:	64 02 02             	add    %fs:(%rdx),%al
    cad9:	02 02                	add    (%rdx),%al
    cadb:	42 24 18             	rex.X and $0x18,%al
    cade:	00 00                	add    %al,(%rax)
    cae0:	00 18                	add    %bl,(%rax)
    cae2:	24 42                	and    $0x42,%al
    cae4:	40 58                	rex pop %rax
    cae6:	64 42                	fs rex.X
    cae8:	42                   	rex.X
    cae9:	42                   	rex.X
    caea:	42                   	rex.X
    caeb:	42 24 18             	rex.X and $0x18,%al
    caee:	00 00                	add    %al,(%rax)
    caf0:	00 7e 42             	add    %bh,0x42(%rsi)
    caf3:	42 04 04             	rex.X add $0x4,%al
    caf6:	08 08                	or     %cl,(%rax)
    caf8:	08 10                	or     %dl,(%rax)
    cafa:	10 10                	adc    %dl,(%rax)
    cafc:	10 38                	adc    %bh,(%rax)
    cafe:	00 00                	add    %al,(%rax)
    cb00:	00 18                	add    %bl,(%rax)
    cb02:	24 42                	and    $0x42,%al
    cb04:	42                   	rex.X
    cb05:	42 24 18             	rex.X and $0x18,%al
    cb08:	24 42                	and    $0x42,%al
    cb0a:	42                   	rex.X
    cb0b:	42 24 18             	rex.X and $0x18,%al
    cb0e:	00 00                	add    %al,(%rax)
    cb10:	00 18                	add    %bl,(%rax)
    cb12:	24 42                	and    $0x42,%al
    cb14:	42                   	rex.X
    cb15:	42                   	rex.X
    cb16:	42                   	rex.X
    cb17:	42                   	rex.X
    cb18:	26 1a 02             	es sbb (%rdx),%al
    cb1b:	42 24 18             	rex.X and $0x18,%al
    cb1e:	00 00                	add    %al,(%rax)
    cb20:	00 00                	add    %al,(%rax)
    cb22:	00 00                	add    %al,(%rax)
    cb24:	00 18                	add    %bl,(%rax)
    cb26:	18 00                	sbb    %al,(%rax)
    cb28:	00 00                	add    %al,(%rax)
    cb2a:	00 00                	add    %al,(%rax)
    cb2c:	18 18                	sbb    %bl,(%rax)
    cb2e:	00 00                	add    %al,(%rax)
    cb30:	00 00                	add    %al,(%rax)
    cb32:	00 00                	add    %al,(%rax)
    cb34:	00 18                	add    %bl,(%rax)
    cb36:	18 00                	sbb    %al,(%rax)
    cb38:	00 00                	add    %al,(%rax)
    cb3a:	00 18                	add    %bl,(%rax)
    cb3c:	18 08                	sbb    %cl,(%rax)
    cb3e:	08 10                	or     %dl,(%rax)
    cb40:	00 02                	add    %al,(%rdx)
    cb42:	04 08                	add    $0x8,%al
    cb44:	10 20                	adc    %ah,(%rax)
    cb46:	40 80 80 40 20 10 08 	rex addb $0x4,0x8102040(%rax)
    cb4d:	04 
    cb4e:	02 00                	add    (%rax),%al
    cb50:	00 00                	add    %al,(%rax)
    cb52:	00 00                	add    %al,(%rax)
    cb54:	00 00                	add    %al,(%rax)
    cb56:	fe 00                	incb   (%rax)
    cb58:	00 fe                	add    %bh,%dh
    cb5a:	00 00                	add    %al,(%rax)
    cb5c:	00 00                	add    %al,(%rax)
    cb5e:	00 00                	add    %al,(%rax)
    cb60:	00 80 40 20 10 08    	add    %al,0x8102040(%rax)
    cb66:	04 02                	add    $0x2,%al
    cb68:	02 04 08             	add    (%rax,%rcx,1),%al
    cb6b:	10 20                	adc    %ah,(%rax)
    cb6d:	40 80 00 00          	rex addb $0x0,(%rax)
    cb71:	38 44 82 82          	cmp    %al,-0x7e(%rdx,%rax,4)
    cb75:	82                   	(bad)  
    cb76:	04 08                	add    $0x8,%al
    cb78:	10 10                	adc    %dl,(%rax)
    cb7a:	00 00                	add    %al,(%rax)
    cb7c:	18 18                	sbb    %bl,(%rax)
    cb7e:	00 00                	add    %al,(%rax)
    cb80:	00 38                	add    %bh,(%rax)
    cb82:	44 82                	rex.R (bad) 
    cb84:	9a                   	(bad)  
    cb85:	aa                   	stos   %al,%es:(%rdi)
    cb86:	aa                   	stos   %al,%es:(%rdi)
    cb87:	aa                   	stos   %al,%es:(%rdi)
    cb88:	aa                   	stos   %al,%es:(%rdi)
    cb89:	aa                   	stos   %al,%es:(%rdi)
    cb8a:	9c                   	pushf  
    cb8b:	80 46 38 00          	addb   $0x0,0x38(%rsi)
    cb8f:	00 00                	add    %al,(%rax)
    cb91:	18 18                	sbb    %bl,(%rax)
    cb93:	18 18                	sbb    %bl,(%rax)
    cb95:	24 24                	and    $0x24,%al
    cb97:	24 24                	and    $0x24,%al
    cb99:	7e 42                	jle    0xcbdd
    cb9b:	42                   	rex.X
    cb9c:	42 e7 00             	rex.X out %eax,$0x0
    cb9f:	00 00                	add    %al,(%rax)
    cba1:	f0 48                	lock rex.W
    cba3:	44                   	rex.R
    cba4:	44                   	rex.R
    cba5:	44                   	rex.R
    cba6:	48 78 44             	rex.W js 0xcbed
    cba9:	42                   	rex.X
    cbaa:	42                   	rex.X
    cbab:	42                   	rex.X
    cbac:	44 f8                	rex.R clc 
    cbae:	00 00                	add    %al,(%rax)
    cbb0:	00 3a                	add    %bh,(%rdx)
    cbb2:	46                   	rex.RX
    cbb3:	42 82                	rex.X (bad) 
    cbb5:	80 80 80 80 80 82 42 	addb   $0x42,-0x7d7f7f80(%rax)
    cbbc:	44 38 00             	cmp    %r8b,(%rax)
    cbbf:	00 00                	add    %al,(%rax)
    cbc1:	f8                   	clc    
    cbc2:	44                   	rex.R
    cbc3:	44                   	rex.R
    cbc4:	42                   	rex.X
    cbc5:	42                   	rex.X
    cbc6:	42                   	rex.X
    cbc7:	42                   	rex.X
    cbc8:	42                   	rex.X
    cbc9:	42                   	rex.X
    cbca:	42                   	rex.X
    cbcb:	44                   	rex.R
    cbcc:	44 f8                	rex.R clc 
    cbce:	00 00                	add    %al,(%rax)
    cbd0:	00 fe                	add    %bh,%dh
    cbd2:	42                   	rex.X
    cbd3:	42                   	rex.X
    cbd4:	40                   	rex
    cbd5:	40                   	rex
    cbd6:	44 7c 44             	rex.R jl 0xcc1d
    cbd9:	40                   	rex
    cbda:	40                   	rex
    cbdb:	42                   	rex.X
    cbdc:	42 fe 00             	rex.X incb (%rax)
    cbdf:	00 00                	add    %al,(%rax)
    cbe1:	fe 42 42             	incb   0x42(%rdx)
    cbe4:	40                   	rex
    cbe5:	40                   	rex
    cbe6:	44 7c 44             	rex.R jl 0xcc2d
    cbe9:	44                   	rex.R
    cbea:	40                   	rex
    cbeb:	40                   	rex
    cbec:	40                   	rex
    cbed:	f0 00 00             	lock add %al,(%rax)
    cbf0:	00 3a                	add    %bh,(%rdx)
    cbf2:	46                   	rex.RX
    cbf3:	42 82                	rex.X (bad) 
    cbf5:	80 80 9e 82 82 82 42 	addb   $0x42,-0x7d7d7d62(%rax)
    cbfc:	46 38 00             	rex.RX cmp %r8b,(%rax)
    cbff:	00 00                	add    %al,(%rax)
    cc01:	e7 42                	out    %eax,$0x42
    cc03:	42                   	rex.X
    cc04:	42                   	rex.X
    cc05:	42                   	rex.X
    cc06:	42 7e 42             	rex.X jle 0xcc4b
    cc09:	42                   	rex.X
    cc0a:	42                   	rex.X
    cc0b:	42                   	rex.X
    cc0c:	42 e7 00             	rex.X out %eax,$0x0
    cc0f:	00 00                	add    %al,(%rax)
    cc11:	7c 10                	jl     0xcc23
    cc13:	10 10                	adc    %dl,(%rax)
    cc15:	10 10                	adc    %dl,(%rax)
    cc17:	10 10                	adc    %dl,(%rax)
    cc19:	10 10                	adc    %dl,(%rax)
    cc1b:	10 10                	adc    %dl,(%rax)
    cc1d:	7c 00                	jl     0xcc1f
    cc1f:	00 00                	add    %al,(%rax)
    cc21:	1f                   	(bad)  
    cc22:	04 04                	add    $0x4,%al
    cc24:	04 04                	add    $0x4,%al
    cc26:	04 04                	add    $0x4,%al
    cc28:	04 04                	add    $0x4,%al
    cc2a:	04 04                	add    $0x4,%al
    cc2c:	84 48 30             	test   %cl,0x30(%rax)
    cc2f:	00 00                	add    %al,(%rax)
    cc31:	e7 42                	out    %eax,$0x42
    cc33:	44                   	rex.R
    cc34:	48 50                	rex.W push %rax
    cc36:	50                   	push   %rax
    cc37:	60                   	(bad)  
    cc38:	50                   	push   %rax
    cc39:	50                   	push   %rax
    cc3a:	48                   	rex.W
    cc3b:	44                   	rex.R
    cc3c:	42 e7 00             	rex.X out %eax,$0x0
    cc3f:	00 00                	add    %al,(%rax)
    cc41:	f0 40                	lock rex
    cc43:	40                   	rex
    cc44:	40                   	rex
    cc45:	40                   	rex
    cc46:	40                   	rex
    cc47:	40                   	rex
    cc48:	40                   	rex
    cc49:	40                   	rex
    cc4a:	40                   	rex
    cc4b:	42                   	rex.X
    cc4c:	42 fe 00             	rex.X incb (%rax)
    cc4f:	00 00                	add    %al,(%rax)
    cc51:	c3                   	ret    
    cc52:	42                   	rex.X
    cc53:	66 66 66 5a          	data16 data16 pop %dx
    cc57:	5a                   	pop    %rdx
    cc58:	5a                   	pop    %rdx
    cc59:	42                   	rex.X
    cc5a:	42                   	rex.X
    cc5b:	42                   	rex.X
    cc5c:	42 e7 00             	rex.X out %eax,$0x0
    cc5f:	00 00                	add    %al,(%rax)
    cc61:	c7 42 62 62 52 52 52 	movl   $0x52525262,0x62(%rdx)
    cc68:	4a                   	rex.WX
    cc69:	4a                   	rex.WX
    cc6a:	4a                   	rex.WX
    cc6b:	46                   	rex.RX
    cc6c:	46 e2 00             	rex.RX loop 0xcc6f
    cc6f:	00 00                	add    %al,(%rax)
    cc71:	38 44 82 82          	cmp    %al,-0x7e(%rdx,%rax,4)
    cc75:	82                   	(bad)  
    cc76:	82                   	(bad)  
    cc77:	82                   	(bad)  
    cc78:	82                   	(bad)  
    cc79:	82                   	(bad)  
    cc7a:	82                   	(bad)  
    cc7b:	82                   	(bad)  
    cc7c:	44 38 00             	cmp    %r8b,(%rax)
    cc7f:	00 00                	add    %al,(%rax)
    cc81:	f8                   	clc    
    cc82:	44                   	rex.R
    cc83:	42                   	rex.X
    cc84:	42                   	rex.X
    cc85:	42                   	rex.X
    cc86:	44 78 40             	rex.R js 0xccc9
    cc89:	40                   	rex
    cc8a:	40                   	rex
    cc8b:	40                   	rex
    cc8c:	40                   	rex
    cc8d:	f0 00 00             	lock add %al,(%rax)
    cc90:	00 38                	add    %bh,(%rax)
    cc92:	44 82                	rex.R (bad) 
    cc94:	82                   	(bad)  
    cc95:	82                   	(bad)  
    cc96:	82                   	(bad)  
    cc97:	82                   	(bad)  
    cc98:	82                   	(bad)  
    cc99:	82                   	(bad)  
    cc9a:	92                   	xchg   %eax,%edx
    cc9b:	8a 44 3a 00          	mov    0x0(%rdx,%rdi,1),%al
    cc9f:	00 00                	add    %al,(%rax)
    cca1:	fc                   	cld    
    cca2:	42                   	rex.X
    cca3:	42                   	rex.X
    cca4:	42                   	rex.X
    cca5:	42 7c 44             	rex.X jl 0xccec
    cca8:	42                   	rex.X
    cca9:	42                   	rex.X
    ccaa:	42                   	rex.X
    ccab:	42                   	rex.X
    ccac:	42 e7 00             	rex.X out %eax,$0x0
    ccaf:	00 00                	add    %al,(%rax)
    ccb1:	3a 46 82             	cmp    -0x7e(%rsi),%al
    ccb4:	82                   	(bad)  
    ccb5:	80 40 38 04          	addb   $0x4,0x38(%rax)
    ccb9:	02 82 82 c4 b8 00    	add    0xb8c482(%rdx),%al
    ccbf:	00 00                	add    %al,(%rax)
    ccc1:	fe                   	(bad)  
    ccc2:	92                   	xchg   %eax,%edx
    ccc3:	92                   	xchg   %eax,%edx
    ccc4:	10 10                	adc    %dl,(%rax)
    ccc6:	10 10                	adc    %dl,(%rax)
    ccc8:	10 10                	adc    %dl,(%rax)
    ccca:	10 10                	adc    %dl,(%rax)
    cccc:	10 7c 00 00          	adc    %bh,0x0(%rax,%rax,1)
    ccd0:	00 e7                	add    %ah,%bh
    ccd2:	42                   	rex.X
    ccd3:	42                   	rex.X
    ccd4:	42                   	rex.X
    ccd5:	42                   	rex.X
    ccd6:	42                   	rex.X
    ccd7:	42                   	rex.X
    ccd8:	42                   	rex.X
    ccd9:	42                   	rex.X
    ccda:	42                   	rex.X
    ccdb:	42 24 3c             	rex.X and $0x3c,%al
    ccde:	00 00                	add    %al,(%rax)
    cce0:	00 e7                	add    %ah,%bh
    cce2:	42                   	rex.X
    cce3:	42                   	rex.X
    cce4:	42                   	rex.X
    cce5:	42 24 24             	rex.X and $0x24,%al
    cce8:	24 24                	and    $0x24,%al
    ccea:	18 18                	sbb    %bl,(%rax)
    ccec:	18 18                	sbb    %bl,(%rax)
    ccee:	00 00                	add    %al,(%rax)
    ccf0:	00 e7                	add    %ah,%bh
    ccf2:	42                   	rex.X
    ccf3:	42                   	rex.X
    ccf4:	42 5a                	rex.X pop %rdx
    ccf6:	5a                   	pop    %rdx
    ccf7:	5a                   	pop    %rdx
    ccf8:	5a                   	pop    %rdx
    ccf9:	24 24                	and    $0x24,%al
    ccfb:	24 24                	and    $0x24,%al
    ccfd:	24 00                	and    $0x0,%al
    ccff:	00 00                	add    %al,(%rax)
    cd01:	e7 42                	out    %eax,$0x42
    cd03:	42 24 24             	rex.X and $0x24,%al
    cd06:	24 18                	and    $0x18,%al
    cd08:	24 24                	and    $0x24,%al
    cd0a:	24 42                	and    $0x42,%al
    cd0c:	42 e7 00             	rex.X out %eax,$0x0
    cd0f:	00 00                	add    %al,(%rax)
    cd11:	ee                   	out    %al,(%dx)
    cd12:	44                   	rex.R
    cd13:	44                   	rex.R
    cd14:	44 28 28             	sub    %r13b,(%rax)
    cd17:	28 10                	sub    %dl,(%rax)
    cd19:	10 10                	adc    %dl,(%rax)
    cd1b:	10 10                	adc    %dl,(%rax)
    cd1d:	7c 00                	jl     0xcd1f
    cd1f:	00 00                	add    %al,(%rax)
    cd21:	fe 84 84 08 08 10 10 	incb   0x10100808(%rsp,%rax,4)
    cd28:	20 20                	and    %ah,(%rax)
    cd2a:	40                   	rex
    cd2b:	42 82                	rex.X (bad) 
    cd2d:	fe 00                	incb   (%rax)
    cd2f:	00 00                	add    %al,(%rax)
    cd31:	3e 20 20             	ds and %ah,(%rax)
    cd34:	20 20                	and    %ah,(%rax)
    cd36:	20 20                	and    %ah,(%rax)
    cd38:	20 20                	and    %ah,(%rax)
    cd3a:	20 20                	and    %ah,(%rax)
    cd3c:	20 20                	and    %ah,(%rax)
    cd3e:	3e 00 80 80 40 40 20 	ds add %al,0x20404080(%rax)
    cd45:	20 20                	and    %ah,(%rax)
    cd47:	10 10                	adc    %dl,(%rax)
    cd49:	08 08                	or     %cl,(%rax)
    cd4b:	04 04                	add    $0x4,%al
    cd4d:	04 02                	add    $0x2,%al
    cd4f:	02 00                	add    (%rax),%al
    cd51:	7c 04                	jl     0xcd57
    cd53:	04 04                	add    $0x4,%al
    cd55:	04 04                	add    $0x4,%al
    cd57:	04 04                	add    $0x4,%al
    cd59:	04 04                	add    $0x4,%al
    cd5b:	04 04                	add    $0x4,%al
    cd5d:	04 7c                	add    $0x7c,%al
    cd5f:	00 00                	add    %al,(%rax)
    cd61:	10 28                	adc    %ch,(%rax)
    cd63:	44 82                	rex.R (bad) 
	...
    cd7d:	00 fe                	add    %bh,%dh
    cd7f:	00 10                	add    %dl,(%rax)
    cd81:	08 04 00             	or     %al,(%rax,%rax,1)
	...
    cd94:	00 70 08             	add    %dh,0x8(%rax)
    cd97:	04 3c                	add    $0x3c,%al
    cd99:	44 84 84 8c 76 00 00 	test   %r8b,-0x3fffff8a(%rsp,%rcx,4)
    cda0:	c0 
    cda1:	40                   	rex
    cda2:	40                   	rex
    cda3:	40                   	rex
    cda4:	40 58                	rex pop %rax
    cda6:	64 42                	fs rex.X
    cda8:	42                   	rex.X
    cda9:	42                   	rex.X
    cdaa:	42                   	rex.X
    cdab:	42                   	rex.X
    cdac:	64 58                	fs pop %rax
    cdae:	00 00                	add    %al,(%rax)
    cdb0:	00 00                	add    %al,(%rax)
    cdb2:	00 00                	add    %al,(%rax)
    cdb4:	00 30                	add    %dh,(%rax)
    cdb6:	4c 84 84 80 80 82 44 	rex.WR test %r8b,0x38448280(%rax,%rax,4)
    cdbd:	38 
    cdbe:	00 00                	add    %al,(%rax)
    cdc0:	0c 04                	or     $0x4,%al
    cdc2:	04 04                	add    $0x4,%al
    cdc4:	04 34                	add    $0x34,%al
    cdc6:	4c 84 84 84 84 84 4c 	rex.WR test %r8b,0x364c8484(%rsp,%rax,4)
    cdcd:	36 
    cdce:	00 00                	add    %al,(%rax)
    cdd0:	00 00                	add    %al,(%rax)
    cdd2:	00 00                	add    %al,(%rax)
    cdd4:	00 38                	add    %bh,(%rax)
    cdd6:	44 82                	rex.R (bad) 
    cdd8:	82                   	(bad)  
    cdd9:	fc                   	cld    
    cdda:	80 82 42 3c 00 00 0e 	addb   $0xe,0x3c42(%rdx)
    cde1:	10 10                	adc    %dl,(%rax)
    cde3:	10 10                	adc    %dl,(%rax)
    cde5:	7c 10                	jl     0xcdf7
    cde7:	10 10                	adc    %dl,(%rax)
    cde9:	10 10                	adc    %dl,(%rax)
    cdeb:	10 10                	adc    %dl,(%rax)
    cded:	7c 00                	jl     0xcdef
    cdef:	00 00                	add    %al,(%rax)
    cdf1:	00 00                	add    %al,(%rax)
    cdf3:	00 00                	add    %al,(%rax)
    cdf5:	36 4c 84 84 84 84 4c 	ss rex.WR test %r8b,0x4344c84(%rsp,%rax,4)
    cdfc:	34 04 
    cdfe:	04 38                	add    $0x38,%al
    ce00:	c0 40 40 40          	rolb   $0x40,0x40(%rax)
    ce04:	40 58                	rex pop %rax
    ce06:	64 42                	fs rex.X
    ce08:	42                   	rex.X
    ce09:	42                   	rex.X
    ce0a:	42                   	rex.X
    ce0b:	42                   	rex.X
    ce0c:	42 e3 00             	rex.X jrcxz 0xce0f
    ce0f:	00 00                	add    %al,(%rax)
    ce11:	10 10                	adc    %dl,(%rax)
    ce13:	00 00                	add    %al,(%rax)
    ce15:	30 10                	xor    %dl,(%rax)
    ce17:	10 10                	adc    %dl,(%rax)
    ce19:	10 10                	adc    %dl,(%rax)
    ce1b:	10 10                	adc    %dl,(%rax)
    ce1d:	38 00                	cmp    %al,(%rax)
    ce1f:	00 00                	add    %al,(%rax)
    ce21:	04 04                	add    $0x4,%al
    ce23:	00 00                	add    %al,(%rax)
    ce25:	0c 04                	or     $0x4,%al
    ce27:	04 04                	add    $0x4,%al
    ce29:	04 04                	add    $0x4,%al
    ce2b:	04 04                	add    $0x4,%al
    ce2d:	08 08                	or     %cl,(%rax)
    ce2f:	30 c0                	xor    %al,%al
    ce31:	40                   	rex
    ce32:	40                   	rex
    ce33:	40                   	rex
    ce34:	40                   	rex
    ce35:	4e                   	rex.WRX
    ce36:	44                   	rex.R
    ce37:	48 50                	rex.W push %rax
    ce39:	60                   	(bad)  
    ce3a:	50                   	push   %rax
    ce3b:	48                   	rex.W
    ce3c:	44 e6 00             	rex.R out %al,$0x0
    ce3f:	00 30                	add    %dh,(%rax)
    ce41:	10 10                	adc    %dl,(%rax)
    ce43:	10 10                	adc    %dl,(%rax)
    ce45:	10 10                	adc    %dl,(%rax)
    ce47:	10 10                	adc    %dl,(%rax)
    ce49:	10 10                	adc    %dl,(%rax)
    ce4b:	10 10                	adc    %dl,(%rax)
    ce4d:	38 00                	cmp    %al,(%rax)
    ce4f:	00 00                	add    %al,(%rax)
    ce51:	00 00                	add    %al,(%rax)
    ce53:	00 00                	add    %al,(%rax)
    ce55:	f6 49 49 49          	testb  $0x49,0x49(%rcx)
    ce59:	49                   	rex.WB
    ce5a:	49                   	rex.WB
    ce5b:	49                   	rex.WB
    ce5c:	49 db 00             	rex.WB fildl (%r8)
    ce5f:	00 00                	add    %al,(%rax)
    ce61:	00 00                	add    %al,(%rax)
    ce63:	00 00                	add    %al,(%rax)
    ce65:	d8 64 42 42          	fsubs  0x42(%rdx,%rax,2)
    ce69:	42                   	rex.X
    ce6a:	42                   	rex.X
    ce6b:	42                   	rex.X
    ce6c:	42 e3 00             	rex.X jrcxz 0xce6f
    ce6f:	00 00                	add    %al,(%rax)
    ce71:	00 00                	add    %al,(%rax)
    ce73:	00 00                	add    %al,(%rax)
    ce75:	38 44 82 82          	cmp    %al,-0x7e(%rdx,%rax,4)
    ce79:	82                   	(bad)  
    ce7a:	82                   	(bad)  
    ce7b:	82                   	(bad)  
    ce7c:	44 38 00             	cmp    %r8b,(%rax)
    ce7f:	00 00                	add    %al,(%rax)
    ce81:	00 00                	add    %al,(%rax)
    ce83:	00 d8                	add    %bl,%al
    ce85:	64 42                	fs rex.X
    ce87:	42                   	rex.X
    ce88:	42                   	rex.X
    ce89:	42                   	rex.X
    ce8a:	42                   	rex.X
    ce8b:	64 58                	fs pop %rax
    ce8d:	40                   	rex
    ce8e:	40 e0 00             	rex loopne 0xce91
    ce91:	00 00                	add    %al,(%rax)
    ce93:	00 34 4c             	add    %dh,(%rsp,%rcx,2)
    ce96:	84 84 84 84 84 4c 34 	test   %al,0x344c8484(%rsp,%rax,4)
    ce9d:	04 04                	add    $0x4,%al
    ce9f:	0e                   	(bad)  
    cea0:	00 00                	add    %al,(%rax)
    cea2:	00 00                	add    %al,(%rax)
    cea4:	00 dc                	add    %bl,%ah
    cea6:	62 42                	(bad)  
    cea8:	40                   	rex
    cea9:	40                   	rex
    ceaa:	40                   	rex
    ceab:	40                   	rex
    ceac:	40 e0 00             	rex loopne 0xceaf
    ceaf:	00 00                	add    %al,(%rax)
    ceb1:	00 00                	add    %al,(%rax)
    ceb3:	00 00                	add    %al,(%rax)
    ceb5:	7a 86                	jp     0xce3d
    ceb7:	82                   	(bad)  
    ceb8:	c0 38 06             	sarb   $0x6,(%rax)
    cebb:	82                   	(bad)  
    cebc:	c2 bc 00             	ret    $0xbc
    cebf:	00 00                	add    %al,(%rax)
    cec1:	00 10                	add    %dl,(%rax)
    cec3:	10 10                	adc    %dl,(%rax)
    cec5:	7c 10                	jl     0xced7
    cec7:	10 10                	adc    %dl,(%rax)
    cec9:	10 10                	adc    %dl,(%rax)
    cecb:	10 10                	adc    %dl,(%rax)
    cecd:	0e                   	(bad)  
    cece:	00 00                	add    %al,(%rax)
    ced0:	00 00                	add    %al,(%rax)
    ced2:	00 00                	add    %al,(%rax)
    ced4:	00 c6                	add    %al,%dh
    ced6:	42                   	rex.X
    ced7:	42                   	rex.X
    ced8:	42                   	rex.X
    ced9:	42                   	rex.X
    ceda:	42                   	rex.X
    cedb:	42                   	rex.X
    cedc:	46 3b 00             	rex.RX cmp (%rax),%r8d
    cedf:	00 00                	add    %al,(%rax)
    cee1:	00 00                	add    %al,(%rax)
    cee3:	00 00                	add    %al,(%rax)
    cee5:	e7 42                	out    %eax,$0x42
    cee7:	42                   	rex.X
    cee8:	42 24 24             	rex.X and $0x24,%al
    ceeb:	24 18                	and    $0x18,%al
    ceed:	18 00                	sbb    %al,(%rax)
    ceef:	00 00                	add    %al,(%rax)
    cef1:	00 00                	add    %al,(%rax)
    cef3:	00 00                	add    %al,(%rax)
    cef5:	e7 42                	out    %eax,$0x42
    cef7:	42 5a                	rex.X pop %rdx
    cef9:	5a                   	pop    %rdx
    cefa:	5a                   	pop    %rdx
    cefb:	24 24                	and    $0x24,%al
    cefd:	24 00                	and    $0x0,%al
    ceff:	00 00                	add    %al,(%rax)
    cf01:	00 00                	add    %al,(%rax)
    cf03:	00 00                	add    %al,(%rax)
    cf05:	c6 44 28 28 10       	movb   $0x10,0x28(%rax,%rbp,1)
    cf0a:	28 28                	sub    %ch,(%rax)
    cf0c:	44 c6 00 00          	rex.R movb $0x0,(%rax)
    cf10:	00 00                	add    %al,(%rax)
    cf12:	00 00                	add    %al,(%rax)
    cf14:	00 e7                	add    %ah,%bh
    cf16:	42                   	rex.X
    cf17:	42 24 24             	rex.X and $0x24,%al
    cf1a:	24 18                	and    $0x18,%al
    cf1c:	18 10                	sbb    %dl,(%rax)
    cf1e:	10 60 00             	adc    %ah,0x0(%rax)
    cf21:	00 00                	add    %al,(%rax)
    cf23:	00 00                	add    %al,(%rax)
    cf25:	fe 82 84 08 10 20    	incb   0x20100884(%rdx)
    cf2b:	42 82                	rex.X (bad) 
    cf2d:	fe 00                	incb   (%rax)
    cf2f:	00 00                	add    %al,(%rax)
    cf31:	06                   	(bad)  
    cf32:	08 10                	or     %dl,(%rax)
    cf34:	10 10                	adc    %dl,(%rax)
    cf36:	10 60 10             	adc    %ah,0x10(%rax)
    cf39:	10 10                	adc    %dl,(%rax)
    cf3b:	10 08                	adc    %cl,(%rax)
    cf3d:	06                   	(bad)  
    cf3e:	00 00                	add    %al,(%rax)
    cf40:	10 10                	adc    %dl,(%rax)
    cf42:	10 10                	adc    %dl,(%rax)
    cf44:	10 10                	adc    %dl,(%rax)
    cf46:	10 10                	adc    %dl,(%rax)
    cf48:	10 10                	adc    %dl,(%rax)
    cf4a:	10 10                	adc    %dl,(%rax)
    cf4c:	10 10                	adc    %dl,(%rax)
    cf4e:	10 10                	adc    %dl,(%rax)
    cf50:	00 60 10             	add    %ah,0x10(%rax)
    cf53:	08 08                	or     %cl,(%rax)
    cf55:	08 08                	or     %cl,(%rax)
    cf57:	06                   	(bad)  
    cf58:	08 08                	or     %cl,(%rax)
    cf5a:	08 08                	or     %cl,(%rax)
    cf5c:	10 60 00             	adc    %ah,0x0(%rax)
    cf5f:	00 00                	add    %al,(%rax)
    cf61:	72 8c                	jb     0xceef
	...
    d77f:	00 2a                	add    %ch,(%rdx)
    d781:	2a 2a                	sub    (%rdx),%ch
    d783:	2a 2a                	sub    (%rdx),%ch
    d785:	2a 2a                	sub    (%rdx),%ch
    d787:	2a 2a                	sub    (%rdx),%ch
    d789:	2a 2a                	sub    (%rdx),%ch
    d78b:	2a 2a                	sub    (%rdx),%ch
    d78d:	2a 2e                	sub    (%rsi),%ch
    d78f:	2e 2a 4f 4f          	cs sub 0x4f(%rdi),%cl
    d793:	4f                   	rex.WRXB
    d794:	4f                   	rex.WRXB
    d795:	4f                   	rex.WRXB
    d796:	4f                   	rex.WRXB
    d797:	4f                   	rex.WRXB
    d798:	4f                   	rex.WRXB
    d799:	4f                   	rex.WRXB
    d79a:	4f                   	rex.WRXB
    d79b:	4f 2a 2e             	rex.WRXB sub (%r14),%r13b
    d79e:	2e 2e 2a 4f 4f       	cs cs sub 0x4f(%rdi),%cl
    d7a3:	4f                   	rex.WRXB
    d7a4:	4f                   	rex.WRXB
    d7a5:	4f                   	rex.WRXB
    d7a6:	4f                   	rex.WRXB
    d7a7:	4f                   	rex.WRXB
    d7a8:	4f                   	rex.WRXB
    d7a9:	4f                   	rex.WRXB
    d7aa:	4f 2a 2e             	rex.WRXB sub (%r14),%r13b
    d7ad:	2e 2e 2e 2a 4f 4f    	cs cs cs sub 0x4f(%rdi),%cl
    d7b3:	4f                   	rex.WRXB
    d7b4:	4f                   	rex.WRXB
    d7b5:	4f                   	rex.WRXB
    d7b6:	4f                   	rex.WRXB
    d7b7:	4f                   	rex.WRXB
    d7b8:	4f                   	rex.WRXB
    d7b9:	4f 2a 2e             	rex.WRXB sub (%r14),%r13b
    d7bc:	2e 2e 2e 2e 2a 4f 4f 	cs cs cs cs sub 0x4f(%rdi),%cl
    d7c3:	4f                   	rex.WRXB
    d7c4:	4f                   	rex.WRXB
    d7c5:	4f                   	rex.WRXB
    d7c6:	4f                   	rex.WRXB
    d7c7:	4f                   	rex.WRXB
    d7c8:	4f 2a 2e             	rex.WRXB sub (%r14),%r13b
    d7cb:	2e 2e 2e 2e 2e 2a 4f 	cs cs cs cs cs sub 0x4f(%rdi),%cl
    d7d2:	4f 
    d7d3:	4f                   	rex.WRXB
    d7d4:	4f                   	rex.WRXB
    d7d5:	4f                   	rex.WRXB
    d7d6:	4f                   	rex.WRXB
    d7d7:	4f 2a 2e             	rex.WRXB sub (%r14),%r13b
    d7da:	2e 2e 2e 2e 2e 2e 2a 	cs cs cs cs cs cs sub 0x4f(%rdi),%cl
    d7e1:	4f 4f 
    d7e3:	4f                   	rex.WRXB
    d7e4:	4f                   	rex.WRXB
    d7e5:	4f                   	rex.WRXB
    d7e6:	4f                   	rex.WRXB
    d7e7:	4f 2a 2e             	rex.WRXB sub (%r14),%r13b
    d7ea:	2e 2e 2e 2e 2e 2e 2a 	cs cs cs cs cs cs sub 0x4f(%rdi),%cl
    d7f1:	4f 4f 
    d7f3:	4f                   	rex.WRXB
    d7f4:	4f                   	rex.WRXB
    d7f5:	4f                   	rex.WRXB
    d7f6:	4f                   	rex.WRXB
    d7f7:	4f                   	rex.WRXB
    d7f8:	4f 2a 2e             	rex.WRXB sub (%r14),%r13b
    d7fb:	2e 2e 2e 2e 2e 2a 4f 	cs cs cs cs cs sub 0x4f(%rdi),%cl
    d802:	4f 
    d803:	4f                   	rex.WRXB
    d804:	4f 2a 2a             	rex.WRXB sub (%r10),%r13b
    d807:	4f                   	rex.WRXB
    d808:	4f                   	rex.WRXB
    d809:	4f 2a 2e             	rex.WRXB sub (%r14),%r13b
    d80c:	2e 2e 2e 2e 2a 4f 4f 	cs cs cs cs sub 0x4f(%rdi),%cl
    d813:	4f 2a 2e             	rex.WRXB sub (%r14),%r13b
    d816:	2e 2a 4f 4f          	cs sub 0x4f(%rdi),%cl
    d81a:	4f 2a 2e             	rex.WRXB sub (%r14),%r13b
    d81d:	2e 2e 2e 2a 4f 4f    	cs cs cs sub 0x4f(%rdi),%cl
    d823:	2a 2e                	sub    (%rsi),%ch
    d825:	2e 2e 2e 2a 4f 4f    	cs cs cs sub 0x4f(%rdi),%cl
    d82b:	4f 2a 2e             	rex.WRXB sub (%r14),%r13b
    d82e:	2e 2e 2a 4f 2a       	cs cs sub 0x2a(%rdi),%cl
    d833:	2e 2e 2e 2e 2e 2e 2a 	cs cs cs cs cs cs sub 0x4f(%rdi),%cl
    d83a:	4f 4f 
    d83c:	4f 2a 2e             	rex.WRXB sub (%r14),%r13b
    d83f:	2e 2a 2a             	cs sub (%rdx),%ch
    d842:	2e 2e 2e 2e 2e 2e 2e 	cs cs cs cs cs cs cs cs sub 0x4f(%rdi),%cl
    d849:	2e 2a 4f 4f 
    d84d:	4f 2a 2e             	rex.WRXB sub (%r14),%r13b
    d850:	2a 2e                	sub    (%rsi),%ch
    d852:	2e 2e 2e 2e 2e 2e 2e 	cs cs cs cs cs cs cs cs cs sub 0x4f(%rdi),%cl
    d859:	2e 2e 2a 4f 4f 
    d85e:	4f 2a 2e             	rex.WRXB sub (%r14),%r13b
    d861:	2e 2e 2e 2e 2e 2e 2e 	cs cs cs cs cs cs cs cs cs cs cs sub 0x4f(%rdi),%cl
    d868:	2e 2e 2e 2e 2a 4f 4f 
    d86f:	2a 2e                	sub    (%rsi),%ch
    d871:	2e 2e 2e 2e 2e 2e 2e 	cs cs cs cs cs cs cs cs cs cs cs cs sub (%rdx),%ch
    d878:	2e 2e 2e 2e 2e 2a 2a 
    d87f:	2a 00                	sub    (%rax),%al
	...
    d88d:	98                   	cwtl   
    d88e:	20 00                	and    %al,(%rax)
    d890:	00 00                	add    %al,(%rax)
    d892:	00 00                	add    %al,(%rax)
    d894:	00 92 00 00 00 00    	add    %dl,0x0(%rdx)
    d89a:	00 00                	add    %al,(%rax)
    d89c:	00 f8                	add    %bh,%al
    d89e:	20 00                	and    %al,(%rax)
    d8a0:	00 00                	add    %al,(%rax)
    d8a2:	00 00                	add    %al,(%rax)
    d8a4:	00 f2                	add    %dh,%dl
    d8a6:	00 00                	add    %al,(%rax)
    d8a8:	ff                   	(bad)  
    d8a9:	ff 00                	incl   (%rax)
    d8ab:	00 00                	add    %al,(%rax)
    d8ad:	9a                   	(bad)  
    d8ae:	cf                   	iret   
    d8af:	00 ff                	add    %bh,%bh
    d8b1:	ff 00                	incl   (%rax)
    d8b3:	00 00                	add    %al,(%rax)
    d8b5:	92                   	xchg   %eax,%edx
    d8b6:	cf                   	iret   
	...
    d907:	00 87 00 80 d8 10    	add    %al,0x10d88000(%rdi)
    d90d:	00 00                	add    %al,(%rax)
    d90f:	80 ff ff             	cmp    $0xff,%bh
	...
    e912:	ff 0f                	decl   (%rdi)
    e914:	12 d9                	adc    %cl,%bl
    e916:	10 00                	adc    %al,(%rax)
    e918:	00 80 ff ff 00 00    	add    %al,0xffff(%rax)
	...
    e982:	00 00                	add    %al,(%rax)
    e984:	67 00 1c e9          	add    %bl,(%ecx,%ebp,8)
    e988:	10 00                	adc    %al,(%rax)
    e98a:	00 80 ff ff 9d a1    	add    %al,-0x5e620001(%rax)
    e990:	10 00                	adc    %al,(%rax)
    e992:	00 80 ff ff e8 a1    	add    %al,-0x5e170001(%rax)
    e998:	10 00                	adc    %al,(%rax)
    e99a:	00 80 ff ff 36 a2    	add    %al,-0x5dc90001(%rax)
    e9a0:	10 00                	adc    %al,(%rax)
    e9a2:	00 80 ff ff 84 a2    	add    %al,-0x5d7b0001(%rax)
    e9a8:	10 00                	adc    %al,(%rax)
    e9aa:	00 80 ff ff d2 a2    	add    %al,-0x5d2d0001(%rax)
    e9b0:	10 00                	adc    %al,(%rax)
    e9b2:	00 80 ff ff 20 a3    	add    %al,-0x5cdf0001(%rax)
    e9b8:	10 00                	adc    %al,(%rax)
    e9ba:	00 80 ff ff 6e a3    	add    %al,-0x5c910001(%rax)
    e9c0:	10 00                	adc    %al,(%rax)
    e9c2:	00 80 ff ff bc a3    	add    %al,-0x5c430001(%rax)
    e9c8:	10 00                	adc    %al,(%rax)
    e9ca:	00 80 ff ff 0a a4    	add    %al,-0x5bf50001(%rax)
    e9d0:	10 00                	adc    %al,(%rax)
    e9d2:	00 80 ff ff 56 a4    	add    %al,-0x5ba90001(%rax)
    e9d8:	10 00                	adc    %al,(%rax)
    e9da:	00 80 ff ff a4 a4    	add    %al,-0x5b5b0001(%rax)
    e9e0:	10 00                	adc    %al,(%rax)
    e9e2:	00 80 ff ff f0 a4    	add    %al,-0x5b0f0001(%rax)
    e9e8:	10 00                	adc    %al,(%rax)
    e9ea:	00 80 ff ff 3c a5    	add    %al,-0x5ac30001(%rax)
    e9f0:	10 00                	adc    %al,(%rax)
    e9f2:	00 80 ff ff 88 a5    	add    %al,-0x5a770001(%rax)
    e9f8:	10 00                	adc    %al,(%rax)
    e9fa:	00 80 ff ff d4 a5    	add    %al,-0x5a2b0001(%rax)
    ea00:	10 00                	adc    %al,(%rax)
    ea02:	00 80 ff ff 20 a6    	add    %al,-0x59df0001(%rax)
    ea08:	10 00                	adc    %al,(%rax)
    ea0a:	00 80 ff ff 6e a6    	add    %al,-0x59910001(%rax)
    ea10:	10 00                	adc    %al,(%rax)
    ea12:	00 80 ff ff bc a6    	add    %al,-0x59430001(%rax)
    ea18:	10 00                	adc    %al,(%rax)
    ea1a:	00 80 ff ff 08 a7    	add    %al,-0x58f70001(%rax)
    ea20:	10 00                	adc    %al,(%rax)
    ea22:	00 80 ff ff 56 a7    	add    %al,-0x58a90001(%rax)
    ea28:	10 00                	adc    %al,(%rax)
    ea2a:	00 80 ff ff a4 a7    	add    %al,-0x585b0001(%rax)
    ea30:	10 00                	adc    %al,(%rax)
    ea32:	00 80 ff ff f2 a7    	add    %al,-0x580d0001(%rax)
    ea38:	10 00                	adc    %al,(%rax)
    ea3a:	00 80 ff ff 3e a8    	add    %al,-0x57c10001(%rax)
    ea40:	10 00                	adc    %al,(%rax)
    ea42:	00 80 ff ff 8c a8    	add    %al,-0x57730001(%rax)
    ea48:	10 00                	adc    %al,(%rax)
    ea4a:	00 80 ff ff da a8    	add    %al,-0x57250001(%rax)
    ea50:	10 00                	adc    %al,(%rax)
    ea52:	00 80 ff ff 28 a9    	add    %al,-0x56d70001(%rax)
    ea58:	10 00                	adc    %al,(%rax)
    ea5a:	00 80 ff ff 76 a9    	add    %al,-0x56890001(%rax)
    ea60:	10 00                	adc    %al,(%rax)
    ea62:	00 80 ff ff c4 a9    	add    %al,-0x563b0001(%rax)
    ea68:	10 00                	adc    %al,(%rax)
    ea6a:	00 80 ff ff 12 aa    	add    %al,-0x55ed0001(%rax)
    ea70:	10 00                	adc    %al,(%rax)
    ea72:	00 80 ff ff 60 aa    	add    %al,-0x559f0001(%rax)
    ea78:	10 00                	adc    %al,(%rax)
    ea7a:	00 80 ff ff ae aa    	add    %al,-0x55510001(%rax)
    ea80:	10 00                	adc    %al,(%rax)
    ea82:	00 80 ff ff fc aa    	add    %al,-0x55030001(%rax)
    ea88:	10 00                	adc    %al,(%rax)
    ea8a:	00 80 ff ff 4a ab    	add    %al,-0x54b50001(%rax)
    ea90:	10 00                	adc    %al,(%rax)
    ea92:	00 80 ff ff 98 ab    	add    %al,-0x54670001(%rax)
    ea98:	10 00                	adc    %al,(%rax)
    ea9a:	00 80 ff ff e6 ab    	add    %al,-0x54190001(%rax)
    eaa0:	10 00                	adc    %al,(%rax)
    eaa2:	00 80 ff ff 34 ac    	add    %al,-0x53cb0001(%rax)
    eaa8:	10 00                	adc    %al,(%rax)
    eaaa:	00 80 ff ff 82 ac    	add    %al,-0x537d0001(%rax)
    eab0:	10 00                	adc    %al,(%rax)
    eab2:	00 80 ff ff d0 ac    	add    %al,-0x532f0001(%rax)
    eab8:	10 00                	adc    %al,(%rax)
    eaba:	00 80 ff ff 1e ad    	add    %al,-0x52e10001(%rax)
    eac0:	10 00                	adc    %al,(%rax)
    eac2:	00 80 ff ff 6c ad    	add    %al,-0x52930001(%rax)
    eac8:	10 00                	adc    %al,(%rax)
    eaca:	00 80 ff ff ba ad    	add    %al,-0x52450001(%rax)
    ead0:	10 00                	adc    %al,(%rax)
    ead2:	00 80 ff ff 08 ae    	add    %al,-0x51f70001(%rax)
    ead8:	10 00                	adc    %al,(%rax)
    eada:	00 80 ff ff 56 ae    	add    %al,-0x51a90001(%rax)
    eae0:	10 00                	adc    %al,(%rax)
    eae2:	00 80 ff ff a4 ae    	add    %al,-0x515b0001(%rax)
    eae8:	10 00                	adc    %al,(%rax)
    eaea:	00 80 ff ff f2 ae    	add    %al,-0x510d0001(%rax)
    eaf0:	10 00                	adc    %al,(%rax)
    eaf2:	00 80 ff ff 40 af    	add    %al,-0x50bf0001(%rax)
    eaf8:	10 00                	adc    %al,(%rax)
    eafa:	00 80 ff ff 8e af    	add    %al,-0x50710001(%rax)
    eb00:	10 00                	adc    %al,(%rax)
    eb02:	00 80 ff ff dc af    	add    %al,-0x50230001(%rax)
    eb08:	10 00                	adc    %al,(%rax)
    eb0a:	00 80 ff ff 00 00    	add    %al,0xffff(%rax)
	...
    eb18:	00 00                	add    %al,(%rax)
    eb1a:	00 98 20 00 00 00    	add    %bl,0x20(%rax)
    eb20:	00 00                	add    %al,(%rax)
    eb22:	00 92 00 00 00 00    	add    %dl,0x0(%rdx)
    eb28:	00 00                	add    %al,(%rax)
    eb2a:	00 f8                	add    %bh,%al
    eb2c:	20 00                	and    %al,(%rax)
    eb2e:	00 00                	add    %al,(%rax)
    eb30:	00 00                	add    %al,(%rax)
    eb32:	00 f2                	add    %dh,%dl
    eb34:	00 00                	add    %al,(%rax)
    eb36:	ff                   	(bad)  
    eb37:	ff 00                	incl   (%rax)
    eb39:	00 00                	add    %al,(%rax)
    eb3b:	9a                   	(bad)  
    eb3c:	cf                   	iret   
    eb3d:	00 ff                	add    %bh,%bh
    eb3f:	ff 00                	incl   (%rax)
    eb41:	00 00                	add    %al,(%rax)
    eb43:	92                   	xchg   %eax,%edx
    eb44:	cf                   	iret   
	...
    eb95:	00 87 00 80 d8 10    	add    %al,0x10d88000(%rdi)
    eb9b:	00 00                	add    %al,(%rax)
    eb9d:	80 ff ff             	cmp    $0xff,%bh
	...
    fba0:	ff 0f                	decl   (%rdi)
    fba2:	12 d9                	adc    %cl,%bl
    fba4:	10 00                	adc    %al,(%rax)
    fba6:	00 80 ff ff 00 00    	add    %al,0xffff(%rax)
	...
    fc10:	00 00                	add    %al,(%rax)
    fc12:	67 00 1c e9          	add    %bl,(%ecx,%ebp,8)
    fc16:	10 00                	adc    %al,(%rax)
    fc18:	00 80 ff ff 00 00    	add    %al,0xffff(%rax)
    fc1e:	00 00                	add    %al,(%rax)
    fc20:	08 0d 11 00 00 80    	or     %cl,-0x7fffffef(%rip)        # 0xffffffff8000fc37
    fc26:	ff                   	(bad)  
    fc27:	ff 12                	call   *(%rdx)
    fc29:	d9 10                	fsts   (%rax)
    fc2b:	00 00                	add    %al,(%rax)
    fc2d:	80 ff ff             	cmp    $0xff,%bh
    fc30:	8e e9                	mov    %ecx,%gs
    fc32:	10 00                	adc    %al,(%rax)
    fc34:	00 80 ff ff 1c e9    	add    %al,-0x16e30001(%rax)
    fc3a:	10 00                	adc    %al,(%rax)
    fc3c:	00 80 ff ff e0 0c    	add    %al,0xce0ffff(%rax)
    fc42:	11 00                	adc    %eax,(%rax)
    fc44:	00 80 ff ff 28 50    	add    %al,0x5028ffff(%rax)
    fc4a:	11 00                	adc    %eax,(%rax)
    fc4c:	00 80 ff ff c7 b2    	add    %al,-0x4d380001(%rax)
    fc52:	10 00                	adc    %al,(%rax)
    fc54:	00 80 ff ff 00 00    	add    %al,0xffff(%rax)
	...
    fc7e:	00 00                	add    %al,(%rax)
    fc80:	20 ff                	and    %bh,%bh
    fc82:	10 00                	adc    %al,(%rax)
    fc84:	00 80 ff ff 32 ff    	add    %al,-0xcd0001(%rax)
    fc8a:	10 00                	adc    %al,(%rax)
    fc8c:	00 80 ff ff 40 ff    	add    %al,-0xbf0001(%rax)
    fc92:	10 00                	adc    %al,(%rax)
    fc94:	00 80 ff ff 53 ff    	add    %al,-0xac0001(%rax)
    fc9a:	10 00                	adc    %al,(%rax)
    fc9c:	00 80 ff ff 63 ff    	add    %al,-0x9c0001(%rax)
    fca2:	10 00                	adc    %al,(%rax)
    fca4:	00 80 ff ff 71 ff    	add    %al,-0x8e0001(%rax)
    fcaa:	10 00                	adc    %al,(%rax)
    fcac:	00 80 ff ff 90 ff    	add    %al,-0x6f0001(%rax)
    fcb2:	10 00                	adc    %al,(%rax)
    fcb4:	00 80 ff ff b8 ff    	add    %al,-0x470001(%rax)
    fcba:	10 00                	adc    %al,(%rax)
    fcbc:	00 80 ff ff e8 ff    	add    %al,-0x170001(%rax)
    fcc2:	10 00                	adc    %al,(%rax)
    fcc4:	00 80 ff ff 00 00    	add    %al,0xffff(%rax)
    fcca:	11 00                	adc    %eax,(%rax)
    fccc:	00 80 ff ff 2c 00    	add    %al,0x2cffff(%rax)
    fcd2:	11 00                	adc    %eax,(%rax)
    fcd4:	00 80 ff ff 3d 00    	add    %al,0x3dffff(%rax)
    fcda:	11 00                	adc    %eax,(%rax)
    fcdc:	00 80 ff ff 56 00    	add    %al,0x56ffff(%rax)
    fce2:	11 00                	adc    %eax,(%rax)
    fce4:	00 80 ff ff 6f 00    	add    %al,0x6fffff(%rax)
    fcea:	11 00                	adc    %eax,(%rax)
    fcec:	00 80 ff ff 87 00    	add    %al,0x87ffff(%rax)
    fcf2:	11 00                	adc    %eax,(%rax)
    fcf4:	00 80 ff ff 98 00    	add    %al,0x98ffff(%rax)
    fcfa:	11 00                	adc    %eax,(%rax)
    fcfc:	00 80 ff ff c0 00    	add    %al,0xc0ffff(%rax)
    fd02:	11 00                	adc    %eax,(%rax)
    fd04:	00 80 ff ff ef 00    	add    %al,0xefffff(%rax)
    fd0a:	11 00                	adc    %eax,(%rax)
    fd0c:	00 80 ff ff 04 01    	add    %al,0x104ffff(%rax)
    fd12:	11 00                	adc    %eax,(%rax)
    fd14:	00 80 ff ff 18 01    	add    %al,0x118ffff(%rax)
    fd1a:	11 00                	adc    %eax,(%rax)
    fd1c:	00 80 ff ff 3b 01    	add    %al,0x13bffff(%rax)
    fd22:	11 00                	adc    %eax,(%rax)
    fd24:	00 80 ff ff 60 01    	add    %al,0x160ffff(%rax)
    fd2a:	11 00                	adc    %eax,(%rax)
    fd2c:	00 80 ff ff 4b 65    	add    %al,0x654bffff(%rax)
    fd32:	79 43                	jns    0xfd77
    fd34:	6f                   	outsl  %ds:(%rsi),(%dx)
    fd35:	64 65 2d 3e 25 78 00 	fs gs sub $0x78253e,%eax
    fd3c:	4d 6f                	rex.WRB outsl %ds:(%rsi),(%dx)
    fd3e:	75 73                	jne    0xfdb3
    fd40:	65 43 6f             	rex.XB outsl %gs:(%rsi),(%dx)
    fd43:	64 65 2d 3e 25 78 00 	fs gs sub $0x78253e,%eax
    fd4a:	00 00                	add    %al,(%rax)
    fd4c:	00 00                	add    %al,(%rax)
    fd4e:	00 00                	add    %al,(%rax)
    fd50:	76 53                	jbe    0xfda5
    fd52:	ff                   	(bad)  
    fd53:	ff                   	(bad)  
    fd54:	ff                   	(bad)  
    fd55:	ff                   	(bad)  
    fd56:	ff                   	(bad)  
    fd57:	ff f3                	push   %rbx
    fd59:	53                   	push   %rbx
    fd5a:	ff                   	(bad)  
    fd5b:	ff                   	(bad)  
    fd5c:	ff                   	(bad)  
    fd5d:	ff                   	(bad)  
    fd5e:	ff                   	(bad)  
    fd5f:	ff f3                	push   %rbx
    fd61:	53                   	push   %rbx
    fd62:	ff                   	(bad)  
    fd63:	ff                   	(bad)  
    fd64:	ff                   	(bad)  
    fd65:	ff                   	(bad)  
    fd66:	ff                   	(bad)  
    fd67:	ff f3                	push   %rbx
    fd69:	53                   	push   %rbx
    fd6a:	ff                   	(bad)  
    fd6b:	ff                   	(bad)  
    fd6c:	ff                   	(bad)  
    fd6d:	ff                   	(bad)  
    fd6e:	ff                   	(bad)  
    fd6f:	ff f3                	push   %rbx
    fd71:	53                   	push   %rbx
    fd72:	ff                   	(bad)  
    fd73:	ff                   	(bad)  
    fd74:	ff                   	(bad)  
    fd75:	ff                   	(bad)  
    fd76:	ff                   	(bad)  
    fd77:	ff f3                	push   %rbx
    fd79:	53                   	push   %rbx
    fd7a:	ff                   	(bad)  
    fd7b:	ff                   	(bad)  
    fd7c:	ff                   	(bad)  
    fd7d:	ff                   	(bad)  
    fd7e:	ff                   	(bad)  
    fd7f:	ff f3                	push   %rbx
    fd81:	53                   	push   %rbx
    fd82:	ff                   	(bad)  
    fd83:	ff                   	(bad)  
    fd84:	ff                   	(bad)  
    fd85:	ff                   	(bad)  
    fd86:	ff                   	(bad)  
    fd87:	ff f3                	push   %rbx
    fd89:	53                   	push   %rbx
    fd8a:	ff                   	(bad)  
    fd8b:	ff                   	(bad)  
    fd8c:	ff                   	(bad)  
    fd8d:	ff                   	(bad)  
    fd8e:	ff                   	(bad)  
    fd8f:	ff f3                	push   %rbx
    fd91:	53                   	push   %rbx
    fd92:	ff                   	(bad)  
    fd93:	ff                   	(bad)  
    fd94:	ff                   	(bad)  
    fd95:	ff                   	(bad)  
    fd96:	ff                   	(bad)  
    fd97:	ff f3                	push   %rbx
    fd99:	53                   	push   %rbx
    fd9a:	ff                   	(bad)  
    fd9b:	ff                   	(bad)  
    fd9c:	ff                   	(bad)  
    fd9d:	ff                   	(bad)  
    fd9e:	ff                   	(bad)  
    fd9f:	ff f3                	push   %rbx
    fda1:	53                   	push   %rbx
    fda2:	ff                   	(bad)  
    fda3:	ff                   	(bad)  
    fda4:	ff                   	(bad)  
    fda5:	ff                   	(bad)  
    fda6:	ff                   	(bad)  
    fda7:	ff 57 51             	call   *0x51(%rdi)
    fdaa:	ff                   	(bad)  
    fdab:	ff                   	(bad)  
    fdac:	ff                   	(bad)  
    fdad:	ff                   	(bad)  
    fdae:	ff                   	(bad)  
    fdaf:	ff c0                	inc    %eax
    fdb1:	51                   	push   %rcx
    fdb2:	ff                   	(bad)  
    fdb3:	ff                   	(bad)  
    fdb4:	ff                   	(bad)  
    fdb5:	ff                   	(bad)  
    fdb6:	ff                   	(bad)  
    fdb7:	ff f3                	push   %rbx
    fdb9:	53                   	push   %rbx
    fdba:	ff                   	(bad)  
    fdbb:	ff                   	(bad)  
    fdbc:	ff                   	(bad)  
    fdbd:	ff                   	(bad)  
    fdbe:	ff                   	(bad)  
    fdbf:	ff f3                	push   %rbx
    fdc1:	53                   	push   %rbx
    fdc2:	ff                   	(bad)  
    fdc3:	ff                   	(bad)  
    fdc4:	ff                   	(bad)  
    fdc5:	ff                   	(bad)  
    fdc6:	ff                   	(bad)  
    fdc7:	ff f3                	push   %rbx
    fdc9:	53                   	push   %rbx
    fdca:	ff                   	(bad)  
    fdcb:	ff                   	(bad)  
    fdcc:	ff                   	(bad)  
    fdcd:	ff                   	(bad)  
    fdce:	ff                   	(bad)  
    fdcf:	ff f3                	push   %rbx
    fdd1:	53                   	push   %rbx
    fdd2:	ff                   	(bad)  
    fdd3:	ff                   	(bad)  
    fdd4:	ff                   	(bad)  
    fdd5:	ff                   	(bad)  
    fdd6:	ff                   	(bad)  
    fdd7:	ff f3                	push   %rbx
    fdd9:	53                   	push   %rbx
    fdda:	ff                   	(bad)  
    fddb:	ff                   	(bad)  
    fddc:	ff                   	(bad)  
    fddd:	ff                   	(bad)  
    fdde:	ff                   	(bad)  
    fddf:	ff f3                	push   %rbx
    fde1:	53                   	push   %rbx
    fde2:	ff                   	(bad)  
    fde3:	ff                   	(bad)  
    fde4:	ff                   	(bad)  
    fde5:	ff                   	(bad)  
    fde6:	ff                   	(bad)  
    fde7:	ff f3                	push   %rbx
    fde9:	53                   	push   %rbx
    fdea:	ff                   	(bad)  
    fdeb:	ff                   	(bad)  
    fdec:	ff                   	(bad)  
    fded:	ff                   	(bad)  
    fdee:	ff                   	(bad)  
    fdef:	ff f3                	push   %rbx
    fdf1:	53                   	push   %rbx
    fdf2:	ff                   	(bad)  
    fdf3:	ff                   	(bad)  
    fdf4:	ff                   	(bad)  
    fdf5:	ff                   	(bad)  
    fdf6:	ff                   	(bad)  
    fdf7:	ff f3                	push   %rbx
    fdf9:	53                   	push   %rbx
    fdfa:	ff                   	(bad)  
    fdfb:	ff                   	(bad)  
    fdfc:	ff                   	(bad)  
    fdfd:	ff                   	(bad)  
    fdfe:	ff                   	(bad)  
    fdff:	ff f3                	push   %rbx
    fe01:	53                   	push   %rbx
    fe02:	ff                   	(bad)  
    fe03:	ff                   	(bad)  
    fe04:	ff                   	(bad)  
    fe05:	ff                   	(bad)  
    fe06:	ff                   	(bad)  
    fe07:	ff f3                	push   %rbx
    fe09:	53                   	push   %rbx
    fe0a:	ff                   	(bad)  
    fe0b:	ff                   	(bad)  
    fe0c:	ff                   	(bad)  
    fe0d:	ff                   	(bad)  
    fe0e:	ff                   	(bad)  
    fe0f:	ff f3                	push   %rbx
    fe11:	53                   	push   %rbx
    fe12:	ff                   	(bad)  
    fe13:	ff                   	(bad)  
    fe14:	ff                   	(bad)  
    fe15:	ff                   	(bad)  
    fe16:	ff                   	(bad)  
    fe17:	ff f3                	push   %rbx
    fe19:	53                   	push   %rbx
    fe1a:	ff                   	(bad)  
    fe1b:	ff                   	(bad)  
    fe1c:	ff                   	(bad)  
    fe1d:	ff                   	(bad)  
    fe1e:	ff                   	(bad)  
    fe1f:	ff f3                	push   %rbx
    fe21:	53                   	push   %rbx
    fe22:	ff                   	(bad)  
    fe23:	ff                   	(bad)  
    fe24:	ff                   	(bad)  
    fe25:	ff                   	(bad)  
    fe26:	ff                   	(bad)  
    fe27:	ff b3 50 ff ff ff    	push   -0xb0(%rbx)
    fe2d:	ff                   	(bad)  
    fe2e:	ff                   	(bad)  
    fe2f:	ff f3                	push   %rbx
    fe31:	53                   	push   %rbx
    fe32:	ff                   	(bad)  
    fe33:	ff                   	(bad)  
    fe34:	ff                   	(bad)  
    fe35:	ff                   	(bad)  
    fe36:	ff                   	(bad)  
    fe37:	ff f3                	push   %rbx
    fe39:	53                   	push   %rbx
    fe3a:	ff                   	(bad)  
    fe3b:	ff                   	(bad)  
    fe3c:	ff                   	(bad)  
    fe3d:	ff                   	(bad)  
    fe3e:	ff                   	(bad)  
    fe3f:	ff f3                	push   %rbx
    fe41:	53                   	push   %rbx
    fe42:	ff                   	(bad)  
    fe43:	ff                   	(bad)  
    fe44:	ff                   	(bad)  
    fe45:	ff                   	(bad)  
    fe46:	ff                   	(bad)  
    fe47:	ff f3                	push   %rbx
    fe49:	53                   	push   %rbx
    fe4a:	ff                   	(bad)  
    fe4b:	ff                   	(bad)  
    fe4c:	ff                   	(bad)  
    fe4d:	ff                   	(bad)  
    fe4e:	ff                   	(bad)  
    fe4f:	ff f7                	push   %rdi
    fe51:	52                   	push   %rdx
    fe52:	ff                   	(bad)  
    fe53:	ff                   	(bad)  
    fe54:	ff                   	(bad)  
    fe55:	ff                   	(bad)  
    fe56:	ff                   	(bad)  
    fe57:	ff 64 73 74          	jmp    *0x74(%rbx,%rsi,2)
    fe5b:	5f                   	pop    %rdi
    fe5c:	20 21                	and    %ah,(%rcx)
    fe5e:	3d 20 4e 55 4c       	cmp    $0x4c554e20,%eax
    fe63:	4c 00 73 72          	rex.WR add %r14b,0x72(%rbx)
    fe67:	63 2f                	movsxd (%rdi),%ebp
    fe69:	6b 65 72 6e          	imul   $0x6e,0x72(%rbp),%esp
    fe6d:	65 6c                	gs insb (%dx),%es:(%rdi)
    fe6f:	2f                   	(bad)  
    fe70:	73 74                	jae    0xfee6
    fe72:	72 69                	jb     0xfedd
    fe74:	6e                   	outsb  %ds:(%rsi),(%dx)
    fe75:	67 2e 63 00          	cs movsxd (%eax),%eax
    fe79:	64 73 74             	fs jae 0xfef0
    fe7c:	5f                   	pop    %rdi
    fe7d:	20 21                	and    %ah,(%rcx)
    fe7f:	3d 20 4e 55 4c       	cmp    $0x4c554e20,%eax
    fe84:	4c 20 26             	rex.WR and %r12b,(%rsi)
    fe87:	26 20 73 72          	es and %dh,0x72(%rbx)
    fe8b:	63 5f 20             	movsxd 0x20(%rdi),%ebx
    fe8e:	21 3d 20 4e 55 4c    	and    %edi,0x4c554e20(%rip)        # 0x4c564cb4
    fe94:	4c 00 61 20          	rex.WR add %r12b,0x20(%rcx)
    fe98:	21 3d 20 4e 55 4c    	and    %edi,0x4c554e20(%rip)        # 0x4c564cbe
    fe9e:	4c 20 7c 7c 20       	rex.WR and %r15b,0x20(%rsp,%rdi,2)
    fea3:	62                   	(bad)  
    fea4:	20 21                	and    %ah,(%rcx)
    fea6:	3d 20 4e 55 4c       	cmp    $0x4c554e20,%eax
    feab:	4c 00 73 74          	rex.WR add %r14b,0x74(%rbx)
    feaf:	72 20                	jb     0xfed1
    feb1:	21 3d 20 4e 55 4c    	and    %edi,0x4c554e20(%rip)        # 0x4c564cd7
    feb7:	4c 00 61 20          	rex.WR add %r12b,0x20(%rcx)
    febb:	21 3d 20 4e 55 4c    	and    %edi,0x4c554e20(%rip)        # 0x4c564ce1
    fec1:	4c 20 26             	rex.WR and %r12b,(%rsi)
    fec4:	26 20 62 20          	es and %ah,0x20(%rdx)
    fec8:	21 3d 20 4e 55 4c    	and    %edi,0x4c554e20(%rip)        # 0x4c564cee
    fece:	4c 00 6d 65          	rex.WR add %r13b,0x65(%rbp)
    fed2:	6d                   	insl   (%dx),%es:(%rdi)
    fed3:	73 65                	jae    0xff3a
    fed5:	74 00                	je     0xfed7
    fed7:	6d                   	insl   (%dx),%es:(%rdi)
    fed8:	65 6d                	gs insl (%dx),%es:(%rdi)
    feda:	63 70 79             	movsxd 0x79(%rax),%esi
    fedd:	00 6d 65             	add    %ch,0x65(%rbp)
    fee0:	6d                   	insl   (%dx),%es:(%rdi)
    fee1:	63 6d 70             	movsxd 0x70(%rbp),%ebp
    fee4:	00 73 74             	add    %dh,0x74(%rbx)
    fee7:	72 63                	jb     0xff4c
    fee9:	70 79                	jo     0xff64
    feeb:	00 73 74             	add    %dh,0x74(%rbx)
    feee:	72 6c                	jb     0xff5c
    fef0:	65 6e                	outsb  %gs:(%rsi),(%dx)
    fef2:	00 73 74             	add    %dh,0x74(%rbx)
    fef5:	72 63                	jb     0xff5a
    fef7:	6d                   	insl   (%dx),%es:(%rdi)
    fef8:	70 00                	jo     0xfefa
    fefa:	73 74                	jae    0xff70
    fefc:	72 63                	jb     0xff61
    fefe:	68 72 00 00 00       	push   $0x72
    ff03:	00 00                	add    %al,(%rax)
    ff05:	00 00                	add    %al,(%rax)
    ff07:	00 73 74             	add    %dh,0x74(%rbx)
    ff0a:	72 72                	jb     0xff7e
    ff0c:	63 68 72             	movsxd 0x72(%rax),%ebp
    ff0f:	00 73 74             	add    %dh,0x74(%rbx)
    ff12:	72 63                	jb     0xff77
    ff14:	61                   	(bad)  
    ff15:	74 00                	je     0xff17
    ff17:	00 73 74             	add    %dh,0x74(%rbx)
    ff1a:	72 63                	jb     0xff7f
    ff1c:	68 72 73 00 23       	push   $0x23007372
    ff21:	44                   	rex.R
    ff22:	45 20 44 69 76       	and    %r8b,0x76(%r9,%rbp,2)
    ff27:	69 64 65 20 45 72 72 	imul   $0x6f727245,0x20(%rbp,%riz,2),%esp
    ff2e:	6f 
    ff2f:	72 00                	jb     0xff31
    ff31:	00 23                	add    %ah,(%rbx)
    ff33:	44                   	rex.R
    ff34:	42 20 52 45          	rex.X and %dl,0x45(%rdx)
    ff38:	53                   	push   %rbx
    ff39:	45 52                	rex.RB push %r10
    ff3b:	56                   	push   %rsi
    ff3c:	45                   	rex.RB
    ff3d:	44 00 00             	add    %r8b,(%rax)
    ff40:	2d 2d 20 20 4e       	sub    $0x4e20202d,%eax
    ff45:	4d                   	rex.WRB
    ff46:	49 20 49 6e          	rex.WB and %cl,0x6e(%r9)
    ff4a:	74 65                	je     0xffb1
    ff4c:	72 72                	jb     0xffc0
    ff4e:	75 70                	jne    0xffc0
    ff50:	74 00                	je     0xff52
    ff52:	00 23                	add    %ah,(%rbx)
    ff54:	42 50                	rex.X push %rax
    ff56:	20 42 72             	and    %al,0x72(%rdx)
    ff59:	65 61                	gs (bad) 
    ff5b:	6b 70 6f 69          	imul   $0x69,0x6f(%rax),%esi
    ff5f:	6e                   	outsb  %ds:(%rsi),(%dx)
    ff60:	74 00                	je     0xff62
    ff62:	00 23                	add    %ah,(%rbx)
    ff64:	4f                   	rex.WRXB
    ff65:	46 20 4f 76          	rex.RX and %r9b,0x76(%rdi)
    ff69:	65 72 66             	gs jb  0xffd2
    ff6c:	6c                   	insb   (%dx),%es:(%rdi)
    ff6d:	6f                   	outsl  %ds:(%rsi),(%dx)
    ff6e:	77 00                	ja     0xff70
    ff70:	00 23                	add    %ah,(%rbx)
    ff72:	42 52                	rex.X push %rdx
    ff74:	20 42 4f             	and    %al,0x4f(%rdx)
    ff77:	55                   	push   %rbp
    ff78:	4e                   	rex.WRX
    ff79:	44 20 52 61          	and    %r10b,0x61(%rdx)
    ff7d:	6e                   	outsb  %ds:(%rsi),(%dx)
    ff7e:	67 65 20 45 78       	and    %al,%gs:0x78(%ebp)
    ff83:	63 65 65             	movsxd 0x65(%rbp),%esp
    ff86:	64 65 64 00 00       	fs gs add %al,%fs:(%rax)
    ff8b:	00 00                	add    %al,(%rax)
    ff8d:	00 00                	add    %al,(%rax)
    ff8f:	00 23                	add    %ah,(%rbx)
    ff91:	55                   	push   %rbp
    ff92:	44 20 49 6e          	and    %r9b,0x6e(%rcx)
    ff96:	76 61                	jbe    0xfff9
    ff98:	6c                   	insb   (%dx),%es:(%rdi)
    ff99:	69 64 20 4f 70 63 6f 	imul   $0x646f6370,0x4f(%rax,%riz,1),%esp
    ffa0:	64 
    ffa1:	65 20 28             	and    %ch,%gs:(%rax)
    ffa4:	55                   	push   %rbp
    ffa5:	6e                   	outsb  %ds:(%rsi),(%dx)
    ffa6:	64 65 66 69 6e 65 64 	fs imul $0x2064,%gs:0x65(%rsi),%bp
    ffad:	20 
    ffae:	4f 70 63             	rex.WRXB jo 0x10014
    ffb1:	6f                   	outsl  %ds:(%rsi),(%dx)
    ffb2:	64 65 29 00          	fs sub %eax,%gs:(%rax)
    ffb6:	00 00                	add    %al,(%rax)
    ffb8:	23 4e 4d             	and    0x4d(%rsi),%ecx
    ffbb:	20 44 65 76          	and    %al,0x76(%rbp,%riz,2)
    ffbf:	69 63 65 20 4e 6f 74 	imul   $0x746f4e20,0x65(%rbx),%esp
    ffc6:	20 41 76             	and    %al,0x76(%rcx)
    ffc9:	61                   	(bad)  
    ffca:	69 6c 61 62 6c 65 20 	imul   $0x2820656c,0x62(%rcx,%riz,2),%ebp
    ffd1:	28 
    ffd2:	4e 6f                	rex.WRX outsl %ds:(%rsi),(%dx)
    ffd4:	20 4d 61             	and    %cl,0x61(%rbp)
    ffd7:	74 68                	je     0x10041
    ffd9:	20 43 6f             	and    %al,0x6f(%rbx)
    ffdc:	70 72                	jo     0x10050
    ffde:	6f                   	outsl  %ds:(%rsi),(%dx)
    ffdf:	63 65 73             	movsxd 0x73(%rbp),%esp
    ffe2:	73 6f                	jae    0x10053
    ffe4:	72 29                	jb     0x1000f
    ffe6:	00 00                	add    %al,(%rax)
    ffe8:	23 44 46 20          	and    0x20(%rsi,%rax,2),%eax
    ffec:	44 6f                	rex.R outsl %ds:(%rsi),(%dx)
    ffee:	75 62                	jne    0x10052
    fff0:	6c                   	insb   (%dx),%es:(%rdi)
    fff1:	65 20 46 61          	and    %al,%gs:0x61(%rsi)
    fff5:	75 6c                	jne    0x10063
    fff7:	74 00                	je     0xfff9
    fff9:	00 00                	add    %al,(%rax)
    fffb:	00 00                	add    %al,(%rax)
    fffd:	00 00                	add    %al,(%rax)
    ffff:	00 20                	add    %ah,(%rax)
   10001:	20 20                	and    %ah,(%rax)
   10003:	20 43 6f             	and    %al,0x6f(%rbx)
   10006:	70 72                	jo     0x1007a
   10008:	6f                   	outsl  %ds:(%rsi),(%dx)
   10009:	63 65 73             	movsxd 0x73(%rbp),%esp
   1000c:	73 6f                	jae    0x1007d
   1000e:	72 20                	jb     0x10030
   10010:	53                   	push   %rbx
   10011:	65 67 6d             	gs insl (%dx),%es:(%edi)
   10014:	65 6e                	outsb  %gs:(%rsi),(%dx)
   10016:	74 20                	je     0x10038
   10018:	4f 76 65             	rex.WRXB jbe 0x10080
   1001b:	72 72                	jb     0x1008f
   1001d:	75 6e                	jne    0x1008d
   1001f:	20 28                	and    %ch,(%rax)
   10021:	72 65                	jb     0x10088
   10023:	73 65                	jae    0x1008a
   10025:	72 76                	jb     0x1009d
   10027:	65 64 29 00          	gs sub %eax,%fs:(%rax)
   1002b:	00 23                	add    %ah,(%rbx)
   1002d:	54                   	push   %rsp
   1002e:	53                   	push   %rbx
   1002f:	20 49 6e             	and    %cl,0x6e(%rcx)
   10032:	76 61                	jbe    0x10095
   10034:	6c                   	insb   (%dx),%es:(%rdi)
   10035:	69 64 20 54 53 53 00 	imul   $0x5353,0x54(%rax,%riz,1),%esp
   1003c:	00 
   1003d:	23 4e 50             	and    0x50(%rsi),%ecx
   10040:	20 53 65             	and    %dl,0x65(%rbx)
   10043:	67 6d                	insl   (%dx),%es:(%edi)
   10045:	65 6e                	outsb  %gs:(%rsi),(%dx)
   10047:	74 20                	je     0x10069
   10049:	4e 6f                	rex.WRX outsl %ds:(%rsi),(%dx)
   1004b:	74 20                	je     0x1006d
   1004d:	50                   	push   %rax
   1004e:	72 65                	jb     0x100b5
   10050:	73 65                	jae    0x100b7
   10052:	6e                   	outsb  %ds:(%rsi),(%dx)
   10053:	74 00                	je     0x10055
   10055:	00 23                	add    %ah,(%rbx)
   10057:	53                   	push   %rbx
   10058:	53                   	push   %rbx
   10059:	20 53 74             	and    %dl,0x74(%rbx)
   1005c:	61                   	(bad)  
   1005d:	63 6b 2d             	movsxd 0x2d(%rbx),%ebp
   10060:	53                   	push   %rbx
   10061:	65 67 6d             	gs insl (%dx),%es:(%edi)
   10064:	65 6e                	outsb  %gs:(%rsi),(%dx)
   10066:	74 20                	je     0x10088
   10068:	46 61                	rex.RX (bad) 
   1006a:	75 6c                	jne    0x100d8
   1006c:	74 00                	je     0x1006e
   1006e:	00 23                	add    %ah,(%rbx)
   10070:	47 50                	rex.RXB push %r8
   10072:	20 47 65             	and    %al,0x65(%rdi)
   10075:	6e                   	outsb  %ds:(%rsi),(%dx)
   10076:	65 72 61             	gs jb  0x100da
   10079:	6c                   	insb   (%dx),%es:(%rdi)
   1007a:	20 50 72             	and    %dl,0x72(%rax)
   1007d:	6f                   	outsl  %ds:(%rsi),(%dx)
   1007e:	74 65                	je     0x100e5
   10080:	63 74 69 6f          	movsxd 0x6f(%rcx,%rbp,2),%esi
   10084:	6e                   	outsb  %ds:(%rsi),(%dx)
   10085:	00 00                	add    %al,(%rax)
   10087:	23 50 46             	and    0x46(%rax),%edx
   1008a:	20 50 61             	and    %dl,0x61(%rax)
   1008d:	67 65 20 46 61       	and    %al,%gs:0x61(%esi)
   10092:	75 6c                	jne    0x10100
   10094:	74 00                	je     0x10096
   10096:	00 00                	add    %al,(%rax)
   10098:	2d 2d 20 20 28       	sub    $0x2820202d,%eax
   1009d:	49 6e                	rex.WB outsb %ds:(%rsi),(%dx)
   1009f:	74 65                	je     0x10106
   100a1:	6c                   	insb   (%dx),%es:(%rdi)
   100a2:	20 72 65             	and    %dh,0x65(%rdx)
   100a5:	73 65                	jae    0x1010c
   100a7:	72 76                	jb     0x1011f
   100a9:	65 64 2e 20 44 6f 20 	gs fs and %al,%fs:0x20(%rdi,%rbp,2)
   100b0:	6e                   	outsb  %ds:(%rsi),(%dx)
   100b1:	6f                   	outsl  %ds:(%rsi),(%dx)
   100b2:	74 20                	je     0x100d4
   100b4:	75 73                	jne    0x10129
   100b6:	65 2e 29 00          	gs sub %eax,%gs:(%rax)
   100ba:	00 00                	add    %al,(%rax)
   100bc:	00 00                	add    %al,(%rax)
   100be:	00 00                	add    %al,(%rax)
   100c0:	23 4d 46             	and    0x46(%rbp),%ecx
   100c3:	20 78 38             	and    %bh,0x38(%rax)
   100c6:	37                   	(bad)  
   100c7:	20 46 50             	and    %al,0x50(%rsi)
   100ca:	55                   	push   %rbp
   100cb:	20 46 6c             	and    %al,0x6c(%rsi)
   100ce:	6f                   	outsl  %ds:(%rsi),(%dx)
   100cf:	61                   	(bad)  
   100d0:	74 69                	je     0x1013b
   100d2:	6e                   	outsb  %ds:(%rsi),(%dx)
   100d3:	67 2d 50 6f 69 6e    	addr32 sub $0x6e696f50,%eax
   100d9:	74 20                	je     0x100fb
   100db:	45 72 72             	rex.RB jb 0x10150
   100de:	6f                   	outsl  %ds:(%rsi),(%dx)
   100df:	72 20                	jb     0x10101
   100e1:	28 4d 61             	sub    %cl,0x61(%rbp)
   100e4:	74 68                	je     0x1014e
   100e6:	20 46 61             	and    %al,0x61(%rsi)
   100e9:	75 6c                	jne    0x10157
   100eb:	74 29                	je     0x10116
   100ed:	00 00                	add    %al,(%rax)
   100ef:	23 41 43             	and    0x43(%rcx),%eax
   100f2:	20 41 6c             	and    %al,0x6c(%rcx)
   100f5:	69 67 6e 6d 65 6e 74 	imul   $0x746e656d,0x6e(%rdi),%esp
   100fc:	20 43 68             	and    %al,0x68(%rbx)
   100ff:	65 63 6b 00          	movsxd %gs:0x0(%rbx),%ebp
   10103:	00 23                	add    %ah,(%rbx)
   10105:	4d                   	rex.WRB
   10106:	43 20 4d 61          	rex.XB and %cl,0x61(%r13)
   1010a:	63 68 69             	movsxd 0x69(%rax),%ebp
   1010d:	6e                   	outsb  %ds:(%rsi),(%dx)
   1010e:	65 20 43 68          	and    %al,%gs:0x68(%rbx)
   10112:	65 63 6b 00          	movsxd %gs:0x0(%rbx),%ebp
   10116:	00 00                	add    %al,(%rax)
   10118:	23 58 46             	and    0x46(%rax),%ebx
   1011b:	20 53 49             	and    %dl,0x49(%rbx)
   1011e:	4d                   	rex.WRB
   1011f:	44 20 46 6c          	and    %r8b,0x6c(%rsi)
   10123:	6f                   	outsl  %ds:(%rsi),(%dx)
   10124:	61                   	(bad)  
   10125:	74 69                	je     0x10190
   10127:	6e                   	outsb  %ds:(%rsi),(%dx)
   10128:	67 2d 50 6f 69 6e    	addr32 sub $0x6e696f50,%eax
   1012e:	74 20                	je     0x10150
   10130:	45 78 63             	rex.RB js 0x10196
   10133:	65 70 74             	gs jo  0x101aa
   10136:	69 6f 6e 00 00 23 56 	imul   $0x56230000,0x6e(%rdi),%ebp
   1013d:	45 20 56 69          	and    %r10b,0x69(%r14)
   10141:	72 74                	jb     0x101b7
   10143:	75 61                	jne    0x101a6
   10145:	6c                   	insb   (%dx),%es:(%rdi)
   10146:	69 7a 61 74 69 6f 6e 	imul   $0x6e6f6974,0x61(%rdx),%edi
   1014d:	20 45 78             	and    %al,0x78(%rbp)
   10150:	63 65 70             	movsxd 0x70(%rbp),%esp
   10153:	74 69                	je     0x101be
   10155:	6f                   	outsl  %ds:(%rsi),(%dx)
   10156:	6e                   	outsb  %ds:(%rsi),(%dx)
	...
   1015f:	00 23                	add    %ah,(%rbx)
   10161:	43 50                	rex.XB push %r8
   10163:	20 43 6f             	and    %al,0x6f(%rbx)
   10166:	6e                   	outsb  %ds:(%rsi),(%dx)
   10167:	74 72                	je     0x101db
   10169:	6f                   	outsl  %ds:(%rsi),(%dx)
   1016a:	6c                   	insb   (%dx),%es:(%rdi)
   1016b:	20 50 72             	and    %dl,0x72(%rax)
   1016e:	6f                   	outsl  %ds:(%rsi),(%dx)
   1016f:	74 65                	je     0x101d6
   10171:	63 74 69 6f          	movsxd 0x6f(%rcx,%rbp,2),%esi
   10175:	6e                   	outsb  %ds:(%rsi),(%dx)
   10176:	20 45 78             	and    %al,0x78(%rbp)
   10179:	63 65 70             	movsxd 0x70(%rbp),%esp
   1017c:	74 69                	je     0x101e7
   1017e:	6f                   	outsl  %ds:(%rsi),(%dx)
   1017f:	6e                   	outsb  %ds:(%rsi),(%dx)
	...
   10188:	65 72 72             	gs jb  0x101fd
   1018b:	6f                   	outsl  %ds:(%rsi),(%dx)
   1018c:	72 5f                	jb     0x101ed
   1018e:	63 6f 64             	movsxd 0x64(%rdi),%ebp
   10191:	65 3a 25 58 2c 65 78 	cmp    %gs:0x78652c58(%rip),%ah        # 0x78662df0
   10198:	63 65 70             	movsxd 0x70(%rbp),%esp
   1019b:	74 69                	je     0x10206
   1019d:	6f                   	outsl  %ds:(%rsi),(%dx)
   1019e:	6e                   	outsb  %ds:(%rsi),(%dx)
   1019f:	5f                   	pop    %rdi
   101a0:	6e                   	outsb  %ds:(%rsi),(%dx)
   101a1:	61                   	(bad)  
   101a2:	6d                   	insl   (%dx),%es:(%rdi)
   101a3:	65 3a 25 73 2c 72 69 	cmp    %gs:0x69722c73(%rip),%ah        # 0x69732e1d
   101aa:	70 3a                	jo     0x101e6
   101ac:	25 58 00 00 41       	and    $0x41000058,%eax
   101b1:	64 64 72 65          	fs fs jb 0x1021a
   101b5:	73 73                	jae    0x1022a
   101b7:	3a 25 58 2c 4c 65    	cmp    0x654c2c58(%rip),%ah        # 0x654d2e15
   101bd:	6e                   	outsb  %ds:(%rsi),(%dx)
   101be:	67 74 68             	addr32 je 0x10229
   101c1:	3a 25 58 20 62 79    	cmp    0x79622058(%rip),%ah        # 0x7963221f
   101c7:	74 65                	je     0x1022e
   101c9:	20 3c 3d 3e 25 64 20 	and    %bh,0x2064253e(,%rdi,1)
   101d0:	6d                   	insl   (%dx),%es:(%rdi)
   101d1:	62                   	(bad)  
   101d2:	2c 54                	sub    $0x54,%al
   101d4:	79 70                	jns    0x10246
   101d6:	65 3a 25 78 00 00 00 	cmp    %gs:0x78(%rip),%ah        # 0x10255
   101dd:	00 00                	add    %al,(%rax)
   101df:	00 54 6f 74          	add    %dl,0x74(%rdi,%rbp,2)
   101e3:	61                   	(bad)  
   101e4:	6c                   	insb   (%dx),%es:(%rdi)
   101e5:	20 50 68             	and    %dl,0x68(%rax)
   101e8:	79 73                	jns    0x1025d
   101ea:	69 63 61 6c 20 4d 65 	imul   $0x654d206c,0x61(%rbx),%esp
   101f1:	6d                   	insl   (%dx),%es:(%rdi)
   101f2:	6f                   	outsl  %ds:(%rsi),(%dx)
   101f3:	72 79                	jb     0x1026e
   101f5:	2d 3e 25 58 20       	sub    $0x2058253e,%eax
   101fa:	62                   	(bad)  
   101fb:	79 74                	jns    0x10271
   101fd:	65 20 3c 3d 3e 20 25 	and    %bh,%gs:0x6425203e(,%rdi,1)
   10204:	64 
   10205:	20 6d 62             	and    %ch,0x62(%rbp)
	...
   10210:	48 69 67 68 65 73 74 	imul   $0x20747365,0x68(%rdi),%rsp
   10217:	20 
   10218:	50                   	push   %rax
   10219:	68 79 73 69 63       	push   $0x63697379
   1021e:	61                   	(bad)  
   1021f:	6c                   	insb   (%dx),%es:(%rdi)
   10220:	20 4d 65             	and    %cl,0x65(%rbp)
   10223:	6d                   	insl   (%dx),%es:(%rdi)
   10224:	6f                   	outsl  %ds:(%rsi),(%dx)
   10225:	72 79                	jb     0x102a0
   10227:	2d 3e 25 58 20       	sub    $0x2058253e,%eax
   1022c:	62                   	(bad)  
   1022d:	79 74                	jns    0x102a3
   1022f:	65 20 3c 3d 3e 20 25 	and    %bh,%gs:0x6425203e(,%rdi,1)
   10236:	64 
   10237:	20 6d 62             	and    %ch,0x62(%rbp)
   1023a:	00 00                	add    %al,(%rax)
   1023c:	00 00                	add    %al,(%rax)
   1023e:	00 00                	add    %al,(%rax)
   10240:	4d                   	rex.WRB
   10241:	65 6d                	gs insl (%dx),%es:(%rdi)
   10243:	6f                   	outsl  %ds:(%rsi),(%dx)
   10244:	72 79                	jb     0x102bf
   10246:	42 6c                	rex.X insb (%dx),%es:(%rdi)
   10248:	6f                   	outsl  %ds:(%rsi),(%dx)
   10249:	63 6b 2d             	movsxd 0x2d(%rbx),%ebp
   1024c:	3e 41                	ds rex.B
   1024e:	64 64 72 65          	fs fs jb 0x102b7
   10252:	73 73                	jae    0x102c7
   10254:	3a 25 58 2c 4c 65    	cmp    0x654c2c58(%rip),%ah        # 0x654d2eb2
   1025a:	6e                   	outsb  %ds:(%rsi),(%dx)
   1025b:	67 74 68             	addr32 je 0x102c6
   1025e:	3a 25 58 20 62 79    	cmp    0x79622058(%rip),%ah        # 0x796322bc
   10264:	74 65                	je     0x102cb
   10266:	20 3c 3d 3e 25 64 20 	and    %bh,0x2064253e(,%rdi,1)
   1026d:	6d                   	insl   (%dx),%es:(%rdi)
   1026e:	62                   	(bad)  
   1026f:	00 62 69             	add    %ah,0x69(%rdx)
   10272:	74 6d                	je     0x102e1
   10274:	61                   	(bad)  
   10275:	70 2d                	jo     0x102a4
   10277:	3e 62                	ds (bad) 
   10279:	79 74                	jns    0x102ef
   1027b:	65 73 5f             	gs jae 0x102dd
   1027e:	6c                   	insb   (%dx),%es:(%rdi)
   1027f:	65 6e                	outsb  %gs:(%rsi),(%dx)
   10281:	3e 30 00             	ds xor %al,(%rax)
   10284:	73 72                	jae    0x102f8
   10286:	63 2f                	movsxd (%rdi),%ebp
   10288:	6c                   	insb   (%dx),%es:(%rdi)
   10289:	69 62 2f 62 69 74 6d 	imul   $0x6d746962,0x2f(%rdx),%esp
   10290:	61                   	(bad)  
   10291:	70 2e                	jo     0x102c1
   10293:	63 00                	movsxd (%rax),%eax
   10295:	28 76 61             	sub    %dh,0x61(%rsi)
   10298:	6c                   	insb   (%dx),%es:(%rdi)
   10299:	75 65                	jne    0x10300
   1029b:	20 3d 3d 20 30 29    	and    %bh,0x2930203d(%rip)        # 0x293122de
   102a1:	20 7c 7c 20          	and    %bh,0x20(%rsp,%rdi,2)
   102a5:	28 76 61             	sub    %dh,0x61(%rsi)
   102a8:	6c                   	insb   (%dx),%es:(%rdi)
   102a9:	75 65                	jne    0x10310
   102ab:	20 3d 3d 20 31 29    	and    %bh,0x2931203d(%rip)        # 0x293222ee
   102b1:	00 00                	add    %al,(%rax)
   102b3:	00 00                	add    %al,(%rax)
   102b5:	00 00                	add    %al,(%rax)
   102b7:	00 62 69             	add    %ah,0x69(%rdx)
   102ba:	74 6d                	je     0x10329
   102bc:	61                   	(bad)  
   102bd:	70 5f                	jo     0x1031e
   102bf:	69 6e 69 74 00 00 00 	imul   $0x74,0x69(%rsi),%ebp
   102c6:	00 00                	add    %al,(%rax)
   102c8:	62                   	(bad)  
   102c9:	69 74 6d 61 70 5f 73 	imul   $0x65735f70,0x61(%rbp,%rbp,2),%esi
   102d0:	65 
   102d1:	74 00                	je     0x102d3
   102d3:	21 21                	and    %esp,(%rcx)
   102d5:	21 21                	and    %esp,(%rcx)
   102d7:	21 20                	and    %esp,(%rax)
   102d9:	65 72 72             	gs jb  0x1034e
   102dc:	6f                   	outsl  %ds:(%rsi),(%dx)
   102dd:	72 20                	jb     0x102ff
   102df:	21 21                	and    %esp,(%rcx)
   102e1:	21 21                	and    %esp,(%rcx)
   102e3:	21 00                	and    %eax,(%rax)
   102e5:	66 69 6c 65 6e 61 6d 	imul   $0x6d61,0x6e(%rbp,%riz,2),%bp
   102ec:	65 3a 25 73 00 6c 69 	cmp    %gs:0x696c0073(%rip),%ah        # 0x696d0366
   102f3:	6e                   	outsb  %ds:(%rsi),(%dx)
   102f4:	65 3a 25 44 00 66 75 	cmp    %gs:0x75660044(%rip),%ah        # 0x7567033f
   102fb:	6e                   	outsb  %ds:(%rsi),(%dx)
   102fc:	63 74 69 6f          	movsxd 0x6f(%rcx,%rbp,2),%esi
   10300:	6e                   	outsb  %ds:(%rsi),(%dx)
   10301:	3a 25 73 00 63 6f    	cmp    0x6f630073(%rip),%ah        # 0x6f64037a
   10307:	6e                   	outsb  %ds:(%rsi),(%dx)
   10308:	64 69 74 69 6f 6e 3a 	imul   $0x73253a6e,%fs:0x6f(%rcx,%rbp,2),%esi
   1030f:	25 73 
	...
