
build/kernel/system.bin：     文件格式 binary


Disassembly of section .data:

0000000000000000 <.data>:
       0:	66 8c d0             	mov    %ss,%ax
       3:	8e d8                	mov    %eax,%ds
       5:	8e c0                	mov    %eax,%es
       7:	8e e0                	mov    %eax,%fs
       9:	8e d0                	mov    %eax,%ss
       b:	bc 00 7e 00 00       	mov    $0x7e00,%esp
      10:	48 c7 c0 00 10 10 00 	mov    $0x101000,%rax
      17:	0f 22 d8             	mov    %rax,%cr3
      1a:	0f 01 15 f5 e3 00 00 	lgdt   0xe3f5(%rip)        # 0xe416
      21:	0f 01 1d f8 f3 00 00 	lidt   0xf3f8(%rip)        # 0xf420
      28:	66 b8 10 00          	mov    $0x10,%ax
      2c:	8e d8                	mov    %eax,%ds
      2e:	8e c0                	mov    %eax,%es
      30:	8e e0                	mov    %eax,%fs
      32:	8e e8                	mov    %eax,%gs
      34:	8e d0                	mov    %eax,%ss
      36:	48 c7 c4 00 7e 00 00 	mov    $0x7e00,%rsp
      3d:	48 c7 c0 00 10 10 00 	mov    $0x101000,%rax
      44:	0f 22 d8             	mov    %rax,%cr3
      47:	48 8b 05 05 00 00 00 	mov    0x5(%rip),%rax        # 0x53
      4e:	6a 08                	push   $0x8
      50:	50                   	push   %rax
      51:	48 cb                	lretq  
      53:	5b                   	pop    %rbx
      54:	00 10                	add    %dl,(%rax)
      56:	00 00                	add    %al,(%rax)
      58:	80 ff ff             	cmp    $0xff,%bh
      5b:	48 c7 c0 10 00 00 00 	mov    $0x10,%rax
      62:	48 8e d8             	mov    %rax,%ds
      65:	48 8e c0             	mov    %rax,%es
      68:	48 8e e8             	mov    %rax,%gs
      6b:	48 8e d0             	mov    %rax,%ss
      6e:	48 bc 00 7e 00 00 00 	movabs $0xffff800000007e00,%rsp
      75:	80 ff ff 
      78:	48 8d 15 ad 00 00 00 	lea    0xad(%rip),%rdx        # 0x12c
      7f:	48 c7 c0 00 00 08 00 	mov    $0x80000,%rax
      86:	66 89 d0             	mov    %dx,%ax
      89:	48 b9 00 00 00 00 00 	movabs $0x8e0000000000,%rcx
      90:	8e 00 00 
      93:	48 01 c8             	add    %rcx,%rax
      96:	89 d1                	mov    %edx,%ecx
      98:	c1 e9 10             	shr    $0x10,%ecx
      9b:	48 c1 e1 30          	shl    $0x30,%rcx
      9f:	48 01 c8             	add    %rcx,%rax
      a2:	48 c1 ea 20          	shr    $0x20,%rdx
      a6:	48 8d 3d 65 d2 00 00 	lea    0xd265(%rip),%rdi        # 0xd312
      ad:	48 c7 c1 00 01 00 00 	mov    $0x100,%rcx
      b4:	48 89 07             	mov    %rax,(%rdi)
      b7:	48 89 57 08          	mov    %rdx,0x8(%rdi)
      bb:	48 83 c7 10          	add    $0x10,%rdi
      bf:	48 ff c9             	dec    %rcx
      c2:	75 f0                	jne    0xb4
      c4:	48 8d 15 51 e2 00 00 	lea    0xe251(%rip),%rdx        # 0xe31c
      cb:	48 31 c0             	xor    %rax,%rax
      ce:	48 31 c9             	xor    %rcx,%rcx
      d1:	48 c7 c0 89 00 00 00 	mov    $0x89,%rax
      d8:	48 c1 e0 28          	shl    $0x28,%rax
      dc:	89 d1                	mov    %edx,%ecx
      de:	c1 e9 18             	shr    $0x18,%ecx
      e1:	48 c1 e1 38          	shl    $0x38,%rcx
      e5:	48 01 c8             	add    %rcx,%rax
      e8:	48 31 c9             	xor    %rcx,%rcx
      eb:	89 d1                	mov    %edx,%ecx
      ed:	81 e1 ff ff ff 00    	and    $0xffffff,%ecx
      f3:	48 c1 e1 10          	shl    $0x10,%rcx
      f7:	48 01 c8             	add    %rcx,%rax
      fa:	48 83 c0 67          	add    $0x67,%rax
      fe:	48 8d 3d 7b d1 00 00 	lea    0xd17b(%rip),%rdi        # 0xd280
     105:	48 89 47 40          	mov    %rax,0x40(%rdi)
     109:	48 c1 ea 20          	shr    $0x20,%rdx
     10d:	48 89 57 48          	mov    %rdx,0x48(%rdi)
     111:	66 b8 40 00          	mov    $0x40,%ax
     115:	0f 00 d8             	ltr    %ax
     118:	48 8b 05 05 00 00 00 	mov    0x5(%rip),%rax        # 0x124
     11f:	6a 08                	push   $0x8
     121:	50                   	push   %rax
     122:	48 cb                	lretq  
     124:	00 40 10             	add    %al,0x10(%rax)
     127:	00 00                	add    %al,(%rax)
     129:	80 ff ff             	cmp    $0xff,%bh
     12c:	fc                   	cld    
     12d:	50                   	push   %rax
     12e:	53                   	push   %rbx
     12f:	51                   	push   %rcx
     130:	52                   	push   %rdx
     131:	55                   	push   %rbp
     132:	57                   	push   %rdi
     133:	56                   	push   %rsi
     134:	41 50                	push   %r8
     136:	41 51                	push   %r9
     138:	41 52                	push   %r10
     13a:	41 53                	push   %r11
     13c:	41 54                	push   %r12
     13e:	41 55                	push   %r13
     140:	41 56                	push   %r14
     142:	41 57                	push   %r15
     144:	48 8c c0             	mov    %es,%rax
     147:	50                   	push   %rax
     148:	48 8c d8             	mov    %ds,%rax
     14b:	50                   	push   %rax
     14c:	48 c7 c0 10 00 00 00 	mov    $0x10,%rax
     153:	48 8e d8             	mov    %rax,%ds
     156:	48 8e c0             	mov    %rax,%es
     159:	e8 c2 94 00 00       	call   0x9620
     15e:	eb fe                	jmp    0x15e
     160:	58                   	pop    %rax
     161:	48 8e d8             	mov    %rax,%ds
     164:	58                   	pop    %rax
     165:	48 8e c0             	mov    %rax,%es
     168:	41 5f                	pop    %r15
     16a:	41 5e                	pop    %r14
     16c:	41 5d                	pop    %r13
     16e:	41 5c                	pop    %r12
     170:	41 5b                	pop    %r11
     172:	41 5a                	pop    %r10
     174:	41 59                	pop    %r9
     176:	41 58                	pop    %r8
     178:	5e                   	pop    %rsi
     179:	5f                   	pop    %rdi
     17a:	5d                   	pop    %rbp
     17b:	5a                   	pop    %rdx
     17c:	59                   	pop    %rcx
     17d:	5b                   	pop    %rbx
     17e:	58                   	pop    %rax
     17f:	48 cf                	iretq  
     181:	55                   	push   %rbp
     182:	6e                   	outsb  %ds:(%rsi),(%dx)
     183:	6b 6e 6f 77          	imul   $0x77,0x6f(%rsi),%ebp
     187:	6e                   	outsb  %ds:(%rsi),(%dx)
     188:	20 69 6e             	and    %ch,0x6e(%rcx)
     18b:	74 65                	je     0x1f2
     18d:	72 72                	jb     0x201
     18f:	75 70                	jne    0x201
     191:	74 20                	je     0x1b3
     193:	6f                   	outsl  %ds:(%rsi),(%dx)
     194:	72 20                	jb     0x1b6
     196:	66 61                	data16 (bad) 
     198:	75 6c                	jne    0x206
     19a:	74 20                	je     0x1bc
     19c:	61                   	(bad)  
     19d:	74 20                	je     0x1bf
     19f:	52                   	push   %rdx
     1a0:	49 50                	rex.WB push %r8
     1a2:	0a 00                	or     (%rax),%al
     1a4:	0f 1f 40 00          	nopl   0x0(%rax)
	...
    1000:	07                   	(bad)  
    1001:	20 10                	and    %dl,(%rax)
	...
    17ff:	00 07                	add    %al,(%rdi)
    1801:	20 10                	and    %dl,(%rax)
	...
    1fff:	00 07                	add    %al,(%rdi)
    2001:	30 10                	xor    %dl,(%rax)
	...
    2fff:	00 87 00 00 00 00    	add    %al,0x0(%rdi)
    3005:	00 00                	add    %al,(%rax)
    3007:	00 87 00 20 00 00    	add    %al,0x2000(%rdi)
    300d:	00 00                	add    %al,(%rax)
    300f:	00 87 00 40 00 00    	add    %al,0x4000(%rdi)
    3015:	00 00                	add    %al,(%rax)
    3017:	00 87 00 60 00 00    	add    %al,0x6000(%rdi)
    301d:	00 00                	add    %al,(%rax)
    301f:	00 87 00 80 00 00    	add    %al,0x8000(%rdi)
    3025:	00 00                	add    %al,(%rax)
    3027:	00 87 00 a0 00 00    	add    %al,0xa000(%rdi)
    302d:	00 00                	add    %al,(%rax)
    302f:	00 87 00 c0 00 00    	add    %al,0xc000(%rdi)
    3035:	00 00                	add    %al,(%rax)
    3037:	00 87 00 e0 00 00    	add    %al,0xe000(%rdi)
    303d:	00 00                	add    %al,(%rax)
    303f:	00 87 00 00 01 00    	add    %al,0x10000(%rdi)
    3045:	00 00                	add    %al,(%rax)
    3047:	00 87 00 20 01 00    	add    %al,0x12000(%rdi)
    304d:	00 00                	add    %al,(%rax)
    304f:	00 87 00 40 01 00    	add    %al,0x14000(%rdi)
    3055:	00 00                	add    %al,(%rax)
    3057:	00 87 00 60 01 00    	add    %al,0x16000(%rdi)
    305d:	00 00                	add    %al,(%rax)
    305f:	00 87 00 80 01 00    	add    %al,0x18000(%rdi)
	...
    3ffd:	00 00                	add    %al,(%rax)
    3fff:	00 f3                	add    %dh,%bl
    4001:	0f 1e fa             	nop    %edx
    4004:	55                   	push   %rbp
    4005:	48 89 e5             	mov    %rsp,%rbp
    4008:	48 83 ec 10          	sub    $0x10,%rsp
    400c:	48 8d 15 f9 ff ff ff 	lea    -0x7(%rip),%rdx        # 0x400c
    4013:	49 bb 4c b5 00 00 00 	movabs $0xb54c,%r11
    401a:	00 00 00 
    401d:	4c 01 da             	add    %r11,%rdx
    4020:	b8 00 00 00 00       	mov    $0x0,%eax
    4025:	48 b9 ef 4a ff ff ff 	movabs $0xffffffffffff4aef,%rcx
    402c:	ff ff ff 
    402f:	48 8d 14 0a          	lea    (%rdx,%rcx,1),%rdx
    4033:	ff d2                	call   *%rdx
    4035:	b8 01 00 00 00       	mov    $0x1,%eax
    403a:	be 00 00 00 00       	mov    $0x0,%esi
    403f:	99                   	cltd   
    4040:	f7 fe                	idiv   %esi
    4042:	89 45 fc             	mov    %eax,-0x4(%rbp)
    4045:	eb fe                	jmp    0x4045
    4047:	f3 0f 1e fa          	endbr64 
    404b:	55                   	push   %rbp
    404c:	48 89 e5             	mov    %rsp,%rbp
    404f:	41 57                	push   %r15
    4051:	53                   	push   %rbx
    4052:	48 8d 1d f9 ff ff ff 	lea    -0x7(%rip),%rbx        # 0x4052
    4059:	49 bb 06 b5 00 00 00 	movabs $0xb506,%r11
    4060:	00 00 00 
    4063:	4c 01 db             	add    %r11,%rbx
    4066:	49 89 df             	mov    %rbx,%r15
    4069:	b8 00 00 00 00       	mov    $0x0,%eax
    406e:	48 ba 46 4c ff ff ff 	movabs $0xffffffffffff4c46,%rdx
    4075:	ff ff ff 
    4078:	48 01 da             	add    %rbx,%rdx
    407b:	ff d2                	call   *%rdx
    407d:	68 00 7c 00 00       	push   $0x7c00
    4082:	c7 44 24 04 00 80 ff 	movl   $0xffff8000,0x4(%rsp)
    4089:	ff 
    408a:	68 00 7c 00 00       	push   $0x7c00
    408f:	c7 44 24 04 00 80 ff 	movl   $0xffff8000,0x4(%rsp)
    4096:	ff 
    4097:	68 00 7c 00 00       	push   $0x7c00
    409c:	c7 44 24 04 00 80 ff 	movl   $0xffff8000,0x4(%rsp)
    40a3:	ff 
    40a4:	68 00 7c 00 00       	push   $0x7c00
    40a9:	c7 44 24 04 00 80 ff 	movl   $0xffff8000,0x4(%rsp)
    40b0:	ff 
    40b1:	49 b9 00 7c 00 00 00 	movabs $0xffff800000007c00,%r9
    40b8:	80 ff ff 
    40bb:	49 b8 00 7c 00 00 00 	movabs $0xffff800000007c00,%r8
    40c2:	80 ff ff 
    40c5:	48 b8 00 7c 00 00 00 	movabs $0xffff800000007c00,%rax
    40cc:	80 ff ff 
    40cf:	48 89 c1             	mov    %rax,%rcx
    40d2:	48 b8 00 7c 00 00 00 	movabs $0xffff800000007c00,%rax
    40d9:	80 ff ff 
    40dc:	48 89 c2             	mov    %rax,%rdx
    40df:	48 b8 00 7c 00 00 00 	movabs $0xffff800000007c00,%rax
    40e6:	80 ff ff 
    40e9:	48 89 c6             	mov    %rax,%rsi
    40ec:	48 b8 00 7c 00 00 00 	movabs $0xffff800000007c00,%rax
    40f3:	80 ff ff 
    40f6:	48 89 c7             	mov    %rax,%rdi
    40f9:	49 89 df             	mov    %rbx,%r15
    40fc:	48 b8 06 a1 ff ff ff 	movabs $0xffffffffffffa106,%rax
    4103:	ff ff ff 
    4106:	48 01 d8             	add    %rbx,%rax
    4109:	ff d0                	call   *%rax
    410b:	48 83 c4 20          	add    $0x20,%rsp
    410f:	49 89 df             	mov    %rbx,%r15
    4112:	b8 00 00 00 00       	mov    $0x0,%eax
    4117:	48 ba 92 bb ff ff ff 	movabs $0xffffffffffffbb92,%rdx
    411e:	ff ff ff 
    4121:	48 01 da             	add    %rbx,%rdx
    4124:	ff d2                	call   *%rdx
    4126:	49 89 df             	mov    %rbx,%r15
    4129:	b8 00 00 00 00       	mov    $0x0,%eax
    412e:	48 ba 3a 54 ff ff ff 	movabs $0xffffffffffff543a,%rdx
    4135:	ff ff ff 
    4138:	48 01 da             	add    %rbx,%rdx
    413b:	ff d2                	call   *%rdx
    413d:	49 89 df             	mov    %rbx,%r15
    4140:	b8 00 00 00 00       	mov    $0x0,%eax
    4145:	48 ba 8c 5d ff ff ff 	movabs $0xffffffffffff5d8c,%rdx
    414c:	ff ff ff 
    414f:	48 01 da             	add    %rbx,%rdx
    4152:	ff d2                	call   *%rdx
    4154:	90                   	nop
    4155:	48 8d 65 f0          	lea    -0x10(%rbp),%rsp
    4159:	5b                   	pop    %rbx
    415a:	41 5f                	pop    %r15
    415c:	5d                   	pop    %rbp
    415d:	c3                   	ret    
    415e:	f3 0f 1e fa          	endbr64 
    4162:	55                   	push   %rbp
    4163:	48 89 e5             	mov    %rsp,%rbp
    4166:	41 57                	push   %r15
    4168:	48 83 ec 08          	sub    $0x8,%rsp
    416c:	48 8d 15 f9 ff ff ff 	lea    -0x7(%rip),%rdx        # 0x416c
    4173:	49 bb ec b3 00 00 00 	movabs $0xb3ec,%r11
    417a:	00 00 00 
    417d:	4c 01 da             	add    %r11,%rdx
    4180:	49 89 d7             	mov    %rdx,%r15
    4183:	b8 00 00 00 00       	mov    $0x0,%eax
    4188:	48 b9 9f 54 ff ff ff 	movabs $0xffffffffffff549f,%rcx
    418f:	ff ff ff 
    4192:	48 01 d1             	add    %rdx,%rcx
    4195:	ff d1                	call   *%rcx
    4197:	90                   	nop
    4198:	4c 8b 7d f8          	mov    -0x8(%rbp),%r15
    419c:	c9                   	leave  
    419d:	c3                   	ret    
    419e:	f3 0f 1e fa          	endbr64 
    41a2:	55                   	push   %rbp
    41a3:	48 89 e5             	mov    %rsp,%rbp
    41a6:	53                   	push   %rbx
    41a7:	48 8d 05 f9 ff ff ff 	lea    -0x7(%rip),%rax        # 0x41a7
    41ae:	49 bb b1 b3 00 00 00 	movabs $0xb3b1,%r11
    41b5:	00 00 00 
    41b8:	4c 01 d8             	add    %r11,%rax
    41bb:	48 bf 00 00 06 00 00 	movabs $0xffff800000060000,%rdi
    41c2:	80 ff ff 
    41c5:	48 89 7d f0          	mov    %rdi,-0x10(%rbp)
    41c9:	48 be a8 0d 00 00 00 	movabs $0xda8,%rsi
    41d0:	00 00 00 
    41d3:	48 8b 55 f0          	mov    -0x10(%rbp),%rdx
    41d7:	48 8b 0a             	mov    (%rdx),%rcx
    41da:	48 8b 5a 08          	mov    0x8(%rdx),%rbx
    41de:	48 89 0c 30          	mov    %rcx,(%rax,%rsi,1)
    41e2:	48 89 5c 30 08       	mov    %rbx,0x8(%rax,%rsi,1)
    41e7:	48 8b 4a 10          	mov    0x10(%rdx),%rcx
    41eb:	48 8b 5a 18          	mov    0x18(%rdx),%rbx
    41ef:	48 89 4c 30 10       	mov    %rcx,0x10(%rax,%rsi,1)
    41f4:	48 89 5c 30 18       	mov    %rbx,0x18(%rax,%rsi,1)
    41f9:	48 ba a8 0d 00 00 00 	movabs $0xda8,%rdx
    4200:	00 00 00 
    4203:	48 bb 00 00 00 03 00 	movabs $0xffff800003000000,%rbx
    420a:	80 ff ff 
    420d:	48 89 5c 10 10       	mov    %rbx,0x10(%rax,%rdx,1)
    4212:	90                   	nop
    4213:	48 8b 5d f8          	mov    -0x8(%rbp),%rbx
    4217:	c9                   	leave  
    4218:	c3                   	ret    
    4219:	f3 0f 1e fa          	endbr64 
    421d:	55                   	push   %rbp
    421e:	48 89 e5             	mov    %rsp,%rbp
    4221:	48 8d 05 f9 ff ff ff 	lea    -0x7(%rip),%rax        # 0x4221
    4228:	49 bb 37 b3 00 00 00 	movabs $0xb337,%r11
    422f:	00 00 00 
    4232:	4c 01 d8             	add    %r11,%rax
    4235:	89 7d dc             	mov    %edi,-0x24(%rbp)
    4238:	89 75 d8             	mov    %esi,-0x28(%rbp)
    423b:	89 55 d4             	mov    %edx,-0x2c(%rbp)
    423e:	48 ba 88 0d 00 00 00 	movabs $0xd88,%rdx
    4245:	00 00 00 
    4248:	48 8b 14 10          	mov    (%rax,%rdx,1),%rdx
    424c:	8b 52 08             	mov    0x8(%rdx),%edx
    424f:	89 55 fc             	mov    %edx,-0x4(%rbp)
    4252:	48 ba 88 0d 00 00 00 	movabs $0xd88,%rdx
    4259:	00 00 00 
    425c:	48 8b 04 10          	mov    (%rax,%rdx,1),%rax
    4260:	48 8b 40 10          	mov    0x10(%rax),%rax
    4264:	48 89 45 f0          	mov    %rax,-0x10(%rbp)
    4268:	8b 45 fc             	mov    -0x4(%rbp),%eax
    426b:	0f af 45 d8          	imul   -0x28(%rbp),%eax
    426f:	89 c2                	mov    %eax,%edx
    4271:	8b 45 dc             	mov    -0x24(%rbp),%eax
    4274:	48 01 d0             	add    %rdx,%rax
    4277:	48 8d 14 85 00 00 00 	lea    0x0(,%rax,4),%rdx
    427e:	00 
    427f:	48 8b 45 f0          	mov    -0x10(%rbp),%rax
    4283:	48 01 d0             	add    %rdx,%rax
    4286:	48 89 45 e8          	mov    %rax,-0x18(%rbp)
    428a:	48 8b 45 e8          	mov    -0x18(%rbp),%rax
    428e:	8b 55 d4             	mov    -0x2c(%rbp),%edx
    4291:	89 10                	mov    %edx,(%rax)
    4293:	90                   	nop
    4294:	5d                   	pop    %rbp
    4295:	c3                   	ret    
    4296:	f3 0f 1e fa          	endbr64 
    429a:	55                   	push   %rbp
    429b:	48 89 e5             	mov    %rsp,%rbp
    429e:	41 57                	push   %r15
    42a0:	53                   	push   %rbx
    42a1:	48 83 ec 20          	sub    $0x20,%rsp
    42a5:	48 8d 1d f9 ff ff ff 	lea    -0x7(%rip),%rbx        # 0x42a5
    42ac:	49 bb b3 b2 00 00 00 	movabs $0xb2b3,%r11
    42b3:	00 00 00 
    42b6:	4c 01 db             	add    %r11,%rbx
    42b9:	89 7d dc             	mov    %edi,-0x24(%rbp)
    42bc:	89 75 d8             	mov    %esi,-0x28(%rbp)
    42bf:	89 55 d4             	mov    %edx,-0x2c(%rbp)
    42c2:	89 4d d0             	mov    %ecx,-0x30(%rbp)
    42c5:	48 b8 88 0d 00 00 00 	movabs $0xd88,%rax
    42cc:	00 00 00 
    42cf:	48 8b 04 03          	mov    (%rbx,%rax,1),%rax
    42d3:	8b 40 08             	mov    0x8(%rax),%eax
    42d6:	0f af 45 d8          	imul   -0x28(%rbp),%eax
    42da:	89 c2                	mov    %eax,%edx
    42dc:	8b 45 dc             	mov    -0x24(%rbp),%eax
    42df:	01 d0                	add    %edx,%eax
    42e1:	c1 e0 02             	shl    $0x2,%eax
    42e4:	89 c2                	mov    %eax,%edx
    42e6:	48 b8 b8 ff ff ff ff 	movabs $0xffffffffffffffb8,%rax
    42ed:	ff ff ff 
    42f0:	48 8b 04 03          	mov    (%rbx,%rax,1),%rax
    42f4:	48 8b 40 10          	mov    0x10(%rax),%rax
    42f8:	48 01 d0             	add    %rdx,%rax
    42fb:	48 89 45 e8          	mov    %rax,-0x18(%rbp)
    42ff:	48 c7 45 e0 00 00 00 	movq   $0x0,-0x20(%rbp)
    4306:	00 
    4307:	0f b6 45 d0          	movzbl -0x30(%rbp),%eax
    430b:	0f b6 c0             	movzbl %al,%eax
    430e:	48 09 45 e0          	or     %rax,-0x20(%rbp)
    4312:	0f b6 45 d1          	movzbl -0x2f(%rbp),%eax
    4316:	0f b6 c0             	movzbl %al,%eax
    4319:	48 c1 e0 08          	shl    $0x8,%rax
    431d:	48 09 45 e0          	or     %rax,-0x20(%rbp)
    4321:	0f b6 45 d2          	movzbl -0x2e(%rbp),%eax
    4325:	0f b6 c0             	movzbl %al,%eax
    4328:	48 c1 e0 10          	shl    $0x10,%rax
    432c:	48 09 45 e0          	or     %rax,-0x20(%rbp)
    4330:	0f b6 45 d3          	movzbl -0x2d(%rbp),%eax
    4334:	0f b6 c0             	movzbl %al,%eax
    4337:	48 c1 e0 0e          	shl    $0xe,%rax
    433b:	48 09 45 e0          	or     %rax,-0x20(%rbp)
    433f:	48 8b 45 e0          	mov    -0x20(%rbp),%rax
    4343:	48 c1 e0 20          	shl    $0x20,%rax
    4347:	48 09 45 e0          	or     %rax,-0x20(%rbp)
    434b:	8b 45 d4             	mov    -0x2c(%rbp),%eax
    434e:	d1 e8                	shr    %eax
    4350:	89 c2                	mov    %eax,%edx
    4352:	48 8b 4d e0          	mov    -0x20(%rbp),%rcx
    4356:	48 8b 45 e8          	mov    -0x18(%rbp),%rax
    435a:	48 89 ce             	mov    %rcx,%rsi
    435d:	48 89 c7             	mov    %rax,%rdi
    4360:	49 89 df             	mov    %rbx,%r15
    4363:	48 b8 be 54 ff ff ff 	movabs $0xffffffffffff54be,%rax
    436a:	ff ff ff 
    436d:	48 01 d8             	add    %rbx,%rax
    4370:	ff d0                	call   *%rax
    4372:	8b 45 d4             	mov    -0x2c(%rbp),%eax
    4375:	83 e0 01             	and    $0x1,%eax
    4378:	85 c0                	test   %eax,%eax
    437a:	74 25                	je     0x43a1
    437c:	8b 55 dc             	mov    -0x24(%rbp),%edx
    437f:	8b 45 d4             	mov    -0x2c(%rbp),%eax
    4382:	01 d0                	add    %edx,%eax
    4384:	8d 48 ff             	lea    -0x1(%rax),%ecx
    4387:	8b 55 d0             	mov    -0x30(%rbp),%edx
    438a:	8b 45 d8             	mov    -0x28(%rbp),%eax
    438d:	89 c6                	mov    %eax,%esi
    438f:	89 cf                	mov    %ecx,%edi
    4391:	48 b8 c1 4c ff ff ff 	movabs $0xffffffffffff4cc1,%rax
    4398:	ff ff ff 
    439b:	48 8d 04 03          	lea    (%rbx,%rax,1),%rax
    439f:	ff d0                	call   *%rax
    43a1:	90                   	nop
    43a2:	48 83 c4 20          	add    $0x20,%rsp
    43a6:	5b                   	pop    %rbx
    43a7:	41 5f                	pop    %r15
    43a9:	5d                   	pop    %rbp
    43aa:	c3                   	ret    
    43ab:	f3 0f 1e fa          	endbr64 
    43af:	55                   	push   %rbp
    43b0:	48 89 e5             	mov    %rsp,%rbp
    43b3:	53                   	push   %rbx
    43b4:	48 83 ec 38          	sub    $0x38,%rsp
    43b8:	48 8d 1d f9 ff ff ff 	lea    -0x7(%rip),%rbx        # 0x43b8
    43bf:	49 bb a0 b1 00 00 00 	movabs $0xb1a0,%r11
    43c6:	00 00 00 
    43c9:	4c 01 db             	add    %r11,%rbx
    43cc:	48 89 f9             	mov    %rdi,%rcx
    43cf:	48 89 f0             	mov    %rsi,%rax
    43d2:	48 89 ce             	mov    %rcx,%rsi
    43d5:	48 89 df             	mov    %rbx,%rdi
    43d8:	48 89 c7             	mov    %rax,%rdi
    43db:	48 89 75 d0          	mov    %rsi,-0x30(%rbp)
    43df:	48 89 7d d8          	mov    %rdi,-0x28(%rbp)
    43e3:	89 55 cc             	mov    %edx,-0x34(%rbp)
    43e6:	8b 45 d0             	mov    -0x30(%rbp),%eax
    43e9:	89 45 ec             	mov    %eax,-0x14(%rbp)
    43ec:	eb 46                	jmp    0x4434
    43ee:	8b 4d d4             	mov    -0x2c(%rbp),%ecx
    43f1:	8b 55 cc             	mov    -0x34(%rbp),%edx
    43f4:	8b 45 ec             	mov    -0x14(%rbp),%eax
    43f7:	89 ce                	mov    %ecx,%esi
    43f9:	89 c7                	mov    %eax,%edi
    43fb:	48 b8 c1 4c ff ff ff 	movabs $0xffffffffffff4cc1,%rax
    4402:	ff ff ff 
    4405:	48 8d 04 03          	lea    (%rbx,%rax,1),%rax
    4409:	ff d0                	call   *%rax
    440b:	8b 55 d4             	mov    -0x2c(%rbp),%edx
    440e:	8b 45 dc             	mov    -0x24(%rbp),%eax
    4411:	01 d0                	add    %edx,%eax
    4413:	8d 48 ff             	lea    -0x1(%rax),%ecx
    4416:	8b 55 cc             	mov    -0x34(%rbp),%edx
    4419:	8b 45 ec             	mov    -0x14(%rbp),%eax
    441c:	89 ce                	mov    %ecx,%esi
    441e:	89 c7                	mov    %eax,%edi
    4420:	48 b8 c1 4c ff ff ff 	movabs $0xffffffffffff4cc1,%rax
    4427:	ff ff ff 
    442a:	48 8d 04 03          	lea    (%rbx,%rax,1),%rax
    442e:	ff d0                	call   *%rax
    4430:	83 45 ec 01          	addl   $0x1,-0x14(%rbp)
    4434:	8b 55 d0             	mov    -0x30(%rbp),%edx
    4437:	8b 45 d8             	mov    -0x28(%rbp),%eax
    443a:	01 d0                	add    %edx,%eax
    443c:	39 45 ec             	cmp    %eax,-0x14(%rbp)
    443f:	72 ad                	jb     0x43ee
    4441:	8b 45 d4             	mov    -0x2c(%rbp),%eax
    4444:	89 45 ec             	mov    %eax,-0x14(%rbp)
    4447:	eb 46                	jmp    0x448f
    4449:	8b 45 d0             	mov    -0x30(%rbp),%eax
    444c:	8b 55 cc             	mov    -0x34(%rbp),%edx
    444f:	8b 4d ec             	mov    -0x14(%rbp),%ecx
    4452:	89 ce                	mov    %ecx,%esi
    4454:	89 c7                	mov    %eax,%edi
    4456:	48 b8 c1 4c ff ff ff 	movabs $0xffffffffffff4cc1,%rax
    445d:	ff ff ff 
    4460:	48 8d 04 03          	lea    (%rbx,%rax,1),%rax
    4464:	ff d0                	call   *%rax
    4466:	8b 55 d0             	mov    -0x30(%rbp),%edx
    4469:	8b 45 d8             	mov    -0x28(%rbp),%eax
    446c:	01 d0                	add    %edx,%eax
    446e:	8d 48 ff             	lea    -0x1(%rax),%ecx
    4471:	8b 55 cc             	mov    -0x34(%rbp),%edx
    4474:	8b 45 ec             	mov    -0x14(%rbp),%eax
    4477:	89 c6                	mov    %eax,%esi
    4479:	89 cf                	mov    %ecx,%edi
    447b:	48 b8 c1 4c ff ff ff 	movabs $0xffffffffffff4cc1,%rax
    4482:	ff ff ff 
    4485:	48 8d 04 03          	lea    (%rbx,%rax,1),%rax
    4489:	ff d0                	call   *%rax
    448b:	83 45 ec 01          	addl   $0x1,-0x14(%rbp)
    448f:	8b 55 d4             	mov    -0x2c(%rbp),%edx
    4492:	8b 45 dc             	mov    -0x24(%rbp),%eax
    4495:	01 d0                	add    %edx,%eax
    4497:	39 45 ec             	cmp    %eax,-0x14(%rbp)
    449a:	72 ad                	jb     0x4449
    449c:	90                   	nop
    449d:	90                   	nop
    449e:	48 8b 5d f8          	mov    -0x8(%rbp),%rbx
    44a2:	c9                   	leave  
    44a3:	c3                   	ret    
    44a4:	f3 0f 1e fa          	endbr64 
    44a8:	55                   	push   %rbp
    44a9:	48 89 e5             	mov    %rsp,%rbp
    44ac:	53                   	push   %rbx
    44ad:	48 83 ec 38          	sub    $0x38,%rsp
    44b1:	48 8d 1d f9 ff ff ff 	lea    -0x7(%rip),%rbx        # 0x44b1
    44b8:	49 bb a7 b0 00 00 00 	movabs $0xb0a7,%r11
    44bf:	00 00 00 
    44c2:	4c 01 db             	add    %r11,%rbx
    44c5:	48 89 f9             	mov    %rdi,%rcx
    44c8:	48 89 f0             	mov    %rsi,%rax
    44cb:	48 89 ce             	mov    %rcx,%rsi
    44ce:	48 89 df             	mov    %rbx,%rdi
    44d1:	48 89 c7             	mov    %rax,%rdi
    44d4:	48 89 75 d0          	mov    %rsi,-0x30(%rbp)
    44d8:	48 89 7d d8          	mov    %rdi,-0x28(%rbp)
    44dc:	89 55 cc             	mov    %edx,-0x34(%rbp)
    44df:	8b 45 d4             	mov    -0x2c(%rbp),%eax
    44e2:	89 45 ec             	mov    %eax,-0x14(%rbp)
    44e5:	eb 22                	jmp    0x4509
    44e7:	8b 55 d8             	mov    -0x28(%rbp),%edx
    44ea:	8b 45 d0             	mov    -0x30(%rbp),%eax
    44ed:	8b 4d cc             	mov    -0x34(%rbp),%ecx
    44f0:	8b 75 ec             	mov    -0x14(%rbp),%esi
    44f3:	89 c7                	mov    %eax,%edi
    44f5:	48 b8 3e 4d ff ff ff 	movabs $0xffffffffffff4d3e,%rax
    44fc:	ff ff ff 
    44ff:	48 8d 04 03          	lea    (%rbx,%rax,1),%rax
    4503:	ff d0                	call   *%rax
    4505:	83 45 ec 01          	addl   $0x1,-0x14(%rbp)
    4509:	8b 55 d4             	mov    -0x2c(%rbp),%edx
    450c:	8b 45 dc             	mov    -0x24(%rbp),%eax
    450f:	01 d0                	add    %edx,%eax
    4511:	39 45 ec             	cmp    %eax,-0x14(%rbp)
    4514:	72 d1                	jb     0x44e7
    4516:	90                   	nop
    4517:	90                   	nop
    4518:	48 8b 5d f8          	mov    -0x8(%rbp),%rbx
    451c:	c9                   	leave  
    451d:	c3                   	ret    
    451e:	f3 0f 1e fa          	endbr64 
    4522:	55                   	push   %rbp
    4523:	48 89 e5             	mov    %rsp,%rbp
    4526:	41 57                	push   %r15
    4528:	48 83 ec 28          	sub    $0x28,%rsp
    452c:	48 8d 05 f9 ff ff ff 	lea    -0x7(%rip),%rax        # 0x452c
    4533:	49 bb 2c b0 00 00 00 	movabs $0xb02c,%r11
    453a:	00 00 00 
    453d:	4c 01 d8             	add    %r11,%rax
    4540:	89 7d dc             	mov    %edi,-0x24(%rbp)
    4543:	48 ba 88 0d 00 00 00 	movabs $0xd88,%rdx
    454a:	00 00 00 
    454d:	48 8b 14 10          	mov    (%rax,%rdx,1),%rdx
    4551:	48 8b 52 10          	mov    0x10(%rdx),%rdx
    4555:	48 89 55 e8          	mov    %rdx,-0x18(%rbp)
    4559:	48 c7 45 e0 00 00 00 	movq   $0x0,-0x20(%rbp)
    4560:	00 
    4561:	0f b6 55 dc          	movzbl -0x24(%rbp),%edx
    4565:	0f b6 d2             	movzbl %dl,%edx
    4568:	48 09 55 e0          	or     %rdx,-0x20(%rbp)
    456c:	0f b6 55 dd          	movzbl -0x23(%rbp),%edx
    4570:	0f b6 d2             	movzbl %dl,%edx
    4573:	48 c1 e2 08          	shl    $0x8,%rdx
    4577:	48 09 55 e0          	or     %rdx,-0x20(%rbp)
    457b:	0f b6 55 de          	movzbl -0x22(%rbp),%edx
    457f:	0f b6 d2             	movzbl %dl,%edx
    4582:	48 c1 e2 10          	shl    $0x10,%rdx
    4586:	48 09 55 e0          	or     %rdx,-0x20(%rbp)
    458a:	0f b6 55 df          	movzbl -0x21(%rbp),%edx
    458e:	0f b6 d2             	movzbl %dl,%edx
    4591:	48 c1 e2 0e          	shl    $0xe,%rdx
    4595:	48 09 55 e0          	or     %rdx,-0x20(%rbp)
    4599:	48 8b 55 e0          	mov    -0x20(%rbp),%rdx
    459d:	48 c1 e2 20          	shl    $0x20,%rdx
    45a1:	48 09 55 e0          	or     %rdx,-0x20(%rbp)
    45a5:	48 ba b8 ff ff ff ff 	movabs $0xffffffffffffffb8,%rdx
    45ac:	ff ff ff 
    45af:	48 8b 14 10          	mov    (%rax,%rdx,1),%rdx
    45b3:	8b 0a                	mov    (%rdx),%ecx
    45b5:	48 ba b8 ff ff ff ff 	movabs $0xffffffffffffffb8,%rdx
    45bc:	ff ff ff 
    45bf:	48 8b 14 10          	mov    (%rax,%rdx,1),%rdx
    45c3:	8b 52 04             	mov    0x4(%rdx),%edx
    45c6:	0f af d1             	imul   %ecx,%edx
    45c9:	d1 ea                	shr    %edx
    45cb:	48 8b 75 e0          	mov    -0x20(%rbp),%rsi
    45cf:	48 8b 4d e8          	mov    -0x18(%rbp),%rcx
    45d3:	48 89 cf             	mov    %rcx,%rdi
    45d6:	49 89 c7             	mov    %rax,%r15
    45d9:	48 b9 be 54 ff ff ff 	movabs $0xffffffffffff54be,%rcx
    45e0:	ff ff ff 
    45e3:	48 01 c1             	add    %rax,%rcx
    45e6:	ff d1                	call   *%rcx
    45e8:	90                   	nop
    45e9:	4c 8b 7d f8          	mov    -0x8(%rbp),%r15
    45ed:	c9                   	leave  
    45ee:	c3                   	ret    
    45ef:	f3 0f 1e fa          	endbr64 
    45f3:	55                   	push   %rbp
    45f4:	48 89 e5             	mov    %rsp,%rbp
    45f7:	53                   	push   %rbx
    45f8:	48 83 ec 20          	sub    $0x20,%rsp
    45fc:	48 8d 1d f9 ff ff ff 	lea    -0x7(%rip),%rbx        # 0x45fc
    4603:	49 bb 5c af 00 00 00 	movabs $0xaf5c,%r11
    460a:	00 00 00 
    460d:	4c 01 db             	add    %r11,%rbx
    4610:	89 7d e4             	mov    %edi,-0x1c(%rbp)
    4613:	89 75 e0             	mov    %esi,-0x20(%rbp)
    4616:	89 55 dc             	mov    %edx,-0x24(%rbp)
    4619:	89 c8                	mov    %ecx,%eax
    461b:	88 45 d8             	mov    %al,-0x28(%rbp)
    461e:	c7 45 f4 00 00 00 00 	movl   $0x0,-0xc(%rbp)
    4625:	e9 ac 01 00 00       	jmp    0x47d6
    462a:	0f b6 45 d8          	movzbl -0x28(%rbp),%eax
    462e:	48 ba 28 cc ff ff ff 	movabs $0xffffffffffffcc28,%rdx
    4635:	ff ff ff 
    4638:	8b 4d f4             	mov    -0xc(%rbp),%ecx
    463b:	48 98                	cltq   
    463d:	48 01 da             	add    %rbx,%rdx
    4640:	48 c1 e0 04          	shl    $0x4,%rax
    4644:	48 01 c8             	add    %rcx,%rax
    4647:	48 01 d0             	add    %rdx,%rax
    464a:	0f b6 00             	movzbl (%rax),%eax
    464d:	88 45 f3             	mov    %al,-0xd(%rbp)
    4650:	0f b6 45 f3          	movzbl -0xd(%rbp),%eax
    4654:	84 c0                	test   %al,%al
    4656:	79 23                	jns    0x467b
    4658:	8b 55 e0             	mov    -0x20(%rbp),%edx
    465b:	8b 45 f4             	mov    -0xc(%rbp),%eax
    465e:	8d 0c 02             	lea    (%rdx,%rax,1),%ecx
    4661:	8b 55 dc             	mov    -0x24(%rbp),%edx
    4664:	8b 45 e4             	mov    -0x1c(%rbp),%eax
    4667:	89 ce                	mov    %ecx,%esi
    4669:	89 c7                	mov    %eax,%edi
    466b:	48 b8 c1 4c ff ff ff 	movabs $0xffffffffffff4cc1,%rax
    4672:	ff ff ff 
    4675:	48 8d 04 03          	lea    (%rbx,%rax,1),%rax
    4679:	ff d0                	call   *%rax
    467b:	0f b6 45 f3          	movzbl -0xd(%rbp),%eax
    467f:	83 e0 40             	and    $0x40,%eax
    4682:	85 c0                	test   %eax,%eax
    4684:	74 26                	je     0x46ac
    4686:	8b 55 e0             	mov    -0x20(%rbp),%edx
    4689:	8b 45 f4             	mov    -0xc(%rbp),%eax
    468c:	8d 34 02             	lea    (%rdx,%rax,1),%esi
    468f:	8b 45 e4             	mov    -0x1c(%rbp),%eax
    4692:	8d 48 01             	lea    0x1(%rax),%ecx
    4695:	8b 45 dc             	mov    -0x24(%rbp),%eax
    4698:	89 c2                	mov    %eax,%edx
    469a:	89 cf                	mov    %ecx,%edi
    469c:	48 b8 c1 4c ff ff ff 	movabs $0xffffffffffff4cc1,%rax
    46a3:	ff ff ff 
    46a6:	48 8d 04 03          	lea    (%rbx,%rax,1),%rax
    46aa:	ff d0                	call   *%rax
    46ac:	0f b6 45 f3          	movzbl -0xd(%rbp),%eax
    46b0:	83 e0 20             	and    $0x20,%eax
    46b3:	85 c0                	test   %eax,%eax
    46b5:	74 26                	je     0x46dd
    46b7:	8b 55 e0             	mov    -0x20(%rbp),%edx
    46ba:	8b 45 f4             	mov    -0xc(%rbp),%eax
    46bd:	8d 34 02             	lea    (%rdx,%rax,1),%esi
    46c0:	8b 45 e4             	mov    -0x1c(%rbp),%eax
    46c3:	8d 48 02             	lea    0x2(%rax),%ecx
    46c6:	8b 45 dc             	mov    -0x24(%rbp),%eax
    46c9:	89 c2                	mov    %eax,%edx
    46cb:	89 cf                	mov    %ecx,%edi
    46cd:	48 b8 c1 4c ff ff ff 	movabs $0xffffffffffff4cc1,%rax
    46d4:	ff ff ff 
    46d7:	48 8d 04 03          	lea    (%rbx,%rax,1),%rax
    46db:	ff d0                	call   *%rax
    46dd:	0f b6 45 f3          	movzbl -0xd(%rbp),%eax
    46e1:	83 e0 10             	and    $0x10,%eax
    46e4:	85 c0                	test   %eax,%eax
    46e6:	74 26                	je     0x470e
    46e8:	8b 55 e0             	mov    -0x20(%rbp),%edx
    46eb:	8b 45 f4             	mov    -0xc(%rbp),%eax
    46ee:	8d 34 02             	lea    (%rdx,%rax,1),%esi
    46f1:	8b 45 e4             	mov    -0x1c(%rbp),%eax
    46f4:	8d 48 03             	lea    0x3(%rax),%ecx
    46f7:	8b 45 dc             	mov    -0x24(%rbp),%eax
    46fa:	89 c2                	mov    %eax,%edx
    46fc:	89 cf                	mov    %ecx,%edi
    46fe:	48 b8 c1 4c ff ff ff 	movabs $0xffffffffffff4cc1,%rax
    4705:	ff ff ff 
    4708:	48 8d 04 03          	lea    (%rbx,%rax,1),%rax
    470c:	ff d0                	call   *%rax
    470e:	0f b6 45 f3          	movzbl -0xd(%rbp),%eax
    4712:	83 e0 08             	and    $0x8,%eax
    4715:	85 c0                	test   %eax,%eax
    4717:	74 26                	je     0x473f
    4719:	8b 55 e0             	mov    -0x20(%rbp),%edx
    471c:	8b 45 f4             	mov    -0xc(%rbp),%eax
    471f:	8d 34 02             	lea    (%rdx,%rax,1),%esi
    4722:	8b 45 e4             	mov    -0x1c(%rbp),%eax
    4725:	8d 48 04             	lea    0x4(%rax),%ecx
    4728:	8b 45 dc             	mov    -0x24(%rbp),%eax
    472b:	89 c2                	mov    %eax,%edx
    472d:	89 cf                	mov    %ecx,%edi
    472f:	48 b8 c1 4c ff ff ff 	movabs $0xffffffffffff4cc1,%rax
    4736:	ff ff ff 
    4739:	48 8d 04 03          	lea    (%rbx,%rax,1),%rax
    473d:	ff d0                	call   *%rax
    473f:	0f b6 45 f3          	movzbl -0xd(%rbp),%eax
    4743:	83 e0 04             	and    $0x4,%eax
    4746:	85 c0                	test   %eax,%eax
    4748:	74 26                	je     0x4770
    474a:	8b 55 e0             	mov    -0x20(%rbp),%edx
    474d:	8b 45 f4             	mov    -0xc(%rbp),%eax
    4750:	8d 34 02             	lea    (%rdx,%rax,1),%esi
    4753:	8b 45 e4             	mov    -0x1c(%rbp),%eax
    4756:	8d 48 05             	lea    0x5(%rax),%ecx
    4759:	8b 45 dc             	mov    -0x24(%rbp),%eax
    475c:	89 c2                	mov    %eax,%edx
    475e:	89 cf                	mov    %ecx,%edi
    4760:	48 b8 c1 4c ff ff ff 	movabs $0xffffffffffff4cc1,%rax
    4767:	ff ff ff 
    476a:	48 8d 04 03          	lea    (%rbx,%rax,1),%rax
    476e:	ff d0                	call   *%rax
    4770:	0f b6 45 f3          	movzbl -0xd(%rbp),%eax
    4774:	83 e0 02             	and    $0x2,%eax
    4777:	85 c0                	test   %eax,%eax
    4779:	74 26                	je     0x47a1
    477b:	8b 55 e0             	mov    -0x20(%rbp),%edx
    477e:	8b 45 f4             	mov    -0xc(%rbp),%eax
    4781:	8d 34 02             	lea    (%rdx,%rax,1),%esi
    4784:	8b 45 e4             	mov    -0x1c(%rbp),%eax
    4787:	8d 48 06             	lea    0x6(%rax),%ecx
    478a:	8b 45 dc             	mov    -0x24(%rbp),%eax
    478d:	89 c2                	mov    %eax,%edx
    478f:	89 cf                	mov    %ecx,%edi
    4791:	48 b8 c1 4c ff ff ff 	movabs $0xffffffffffff4cc1,%rax
    4798:	ff ff ff 
    479b:	48 8d 04 03          	lea    (%rbx,%rax,1),%rax
    479f:	ff d0                	call   *%rax
    47a1:	0f b6 45 f3          	movzbl -0xd(%rbp),%eax
    47a5:	83 e0 01             	and    $0x1,%eax
    47a8:	85 c0                	test   %eax,%eax
    47aa:	74 26                	je     0x47d2
    47ac:	8b 55 e0             	mov    -0x20(%rbp),%edx
    47af:	8b 45 f4             	mov    -0xc(%rbp),%eax
    47b2:	8d 34 02             	lea    (%rdx,%rax,1),%esi
    47b5:	8b 45 e4             	mov    -0x1c(%rbp),%eax
    47b8:	8d 48 07             	lea    0x7(%rax),%ecx
    47bb:	8b 45 dc             	mov    -0x24(%rbp),%eax
    47be:	89 c2                	mov    %eax,%edx
    47c0:	89 cf                	mov    %ecx,%edi
    47c2:	48 b8 c1 4c ff ff ff 	movabs $0xffffffffffff4cc1,%rax
    47c9:	ff ff ff 
    47cc:	48 8d 04 03          	lea    (%rbx,%rax,1),%rax
    47d0:	ff d0                	call   *%rax
    47d2:	83 45 f4 01          	addl   $0x1,-0xc(%rbp)
    47d6:	83 7d f4 0f          	cmpl   $0xf,-0xc(%rbp)
    47da:	0f 86 4a fe ff ff    	jbe    0x462a
    47e0:	90                   	nop
    47e1:	48 8b 5d f8          	mov    -0x8(%rbp),%rbx
    47e5:	c9                   	leave  
    47e6:	c3                   	ret    
    47e7:	f3 0f 1e fa          	endbr64 
    47eb:	55                   	push   %rbp
    47ec:	48 89 e5             	mov    %rsp,%rbp
    47ef:	53                   	push   %rbx
    47f0:	48 83 ec 28          	sub    $0x28,%rsp
    47f4:	48 8d 1d f9 ff ff ff 	lea    -0x7(%rip),%rbx        # 0x47f4
    47fb:	49 bb 64 ad 00 00 00 	movabs $0xad64,%r11
    4802:	00 00 00 
    4805:	4c 01 db             	add    %r11,%rbx
    4808:	89 7d e4             	mov    %edi,-0x1c(%rbp)
    480b:	89 75 e0             	mov    %esi,-0x20(%rbp)
    480e:	89 55 dc             	mov    %edx,-0x24(%rbp)
    4811:	48 89 4d d0          	mov    %rcx,-0x30(%rbp)
    4815:	c7 45 f4 00 00 00 00 	movl   $0x0,-0xc(%rbp)
    481c:	eb 3c                	jmp    0x485a
    481e:	8b 55 f4             	mov    -0xc(%rbp),%edx
    4821:	48 8b 45 d0          	mov    -0x30(%rbp),%rax
    4825:	48 01 d0             	add    %rdx,%rax
    4828:	0f b6 00             	movzbl (%rax),%eax
    482b:	0f b6 c8             	movzbl %al,%ecx
    482e:	8b 45 f4             	mov    -0xc(%rbp),%eax
    4831:	8d 14 c5 00 00 00 00 	lea    0x0(,%rax,8),%edx
    4838:	8b 45 e4             	mov    -0x1c(%rbp),%eax
    483b:	8d 3c 02             	lea    (%rdx,%rax,1),%edi
    483e:	8b 55 dc             	mov    -0x24(%rbp),%edx
    4841:	8b 45 e0             	mov    -0x20(%rbp),%eax
    4844:	89 c6                	mov    %eax,%esi
    4846:	48 b8 97 50 ff ff ff 	movabs $0xffffffffffff5097,%rax
    484d:	ff ff ff 
    4850:	48 8d 04 03          	lea    (%rbx,%rax,1),%rax
    4854:	ff d0                	call   *%rax
    4856:	83 45 f4 01          	addl   $0x1,-0xc(%rbp)
    485a:	8b 55 f4             	mov    -0xc(%rbp),%edx
    485d:	48 8b 45 d0          	mov    -0x30(%rbp),%rax
    4861:	48 01 d0             	add    %rdx,%rax
    4864:	0f b6 00             	movzbl (%rax),%eax
    4867:	84 c0                	test   %al,%al
    4869:	75 b3                	jne    0x481e
    486b:	90                   	nop
    486c:	90                   	nop
    486d:	48 8b 5d f8          	mov    -0x8(%rbp),%rbx
    4871:	c9                   	leave  
    4872:	c3                   	ret    
    4873:	f3 0f 1e fa          	endbr64 
    4877:	55                   	push   %rbp
    4878:	48 89 e5             	mov    %rsp,%rbp
    487b:	41 57                	push   %r15
    487d:	53                   	push   %rbx
    487e:	48 81 ec f0 00 00 00 	sub    $0xf0,%rsp
    4885:	48 8d 1d f9 ff ff ff 	lea    -0x7(%rip),%rbx        # 0x4885
    488c:	49 bb d3 ac 00 00 00 	movabs $0xacd3,%r11
    4893:	00 00 00 
    4896:	4c 01 db             	add    %r11,%rbx
    4899:	89 bd 1c ff ff ff    	mov    %edi,-0xe4(%rbp)
    489f:	89 b5 18 ff ff ff    	mov    %esi,-0xe8(%rbp)
    48a5:	89 95 14 ff ff ff    	mov    %edx,-0xec(%rbp)
    48ab:	48 89 8d 08 ff ff ff 	mov    %rcx,-0xf8(%rbp)
    48b2:	4c 89 85 60 ff ff ff 	mov    %r8,-0xa0(%rbp)
    48b9:	4c 89 8d 68 ff ff ff 	mov    %r9,-0x98(%rbp)
    48c0:	84 c0                	test   %al,%al
    48c2:	74 23                	je     0x48e7
    48c4:	0f 29 85 70 ff ff ff 	movaps %xmm0,-0x90(%rbp)
    48cb:	0f 29 4d 80          	movaps %xmm1,-0x80(%rbp)
    48cf:	0f 29 55 90          	movaps %xmm2,-0x70(%rbp)
    48d3:	0f 29 5d a0          	movaps %xmm3,-0x60(%rbp)
    48d7:	0f 29 65 b0          	movaps %xmm4,-0x50(%rbp)
    48db:	0f 29 6d c0          	movaps %xmm5,-0x40(%rbp)
    48df:	0f 29 75 d0          	movaps %xmm6,-0x30(%rbp)
    48e3:	0f 29 7d e0          	movaps %xmm7,-0x20(%rbp)
    48e7:	c7 85 20 ff ff ff 20 	movl   $0x20,-0xe0(%rbp)
    48ee:	00 00 00 
    48f1:	c7 85 24 ff ff ff 30 	movl   $0x30,-0xdc(%rbp)
    48f8:	00 00 00 
    48fb:	48 8d 45 10          	lea    0x10(%rbp),%rax
    48ff:	48 89 85 28 ff ff ff 	mov    %rax,-0xd8(%rbp)
    4906:	48 8d 85 40 ff ff ff 	lea    -0xc0(%rbp),%rax
    490d:	48 89 85 30 ff ff ff 	mov    %rax,-0xd0(%rbp)
    4914:	48 8d 95 20 ff ff ff 	lea    -0xe0(%rbp),%rdx
    491b:	48 8b 85 08 ff ff ff 	mov    -0xf8(%rbp),%rax
    4922:	48 89 c6             	mov    %rax,%rsi
    4925:	48 b8 e8 0d 00 00 00 	movabs $0xde8,%rax
    492c:	00 00 00 
    492f:	48 8d 04 03          	lea    (%rbx,%rax,1),%rax
    4933:	48 89 c7             	mov    %rax,%rdi
    4936:	49 89 df             	mov    %rbx,%r15
    4939:	48 b8 c7 55 ff ff ff 	movabs $0xffffffffffff55c7,%rax
    4940:	ff ff ff 
    4943:	48 01 d8             	add    %rbx,%rax
    4946:	ff d0                	call   *%rax
    4948:	89 85 3c ff ff ff    	mov    %eax,-0xc4(%rbp)
    494e:	8b 95 14 ff ff ff    	mov    -0xec(%rbp),%edx
    4954:	8b b5 18 ff ff ff    	mov    -0xe8(%rbp),%esi
    495a:	8b 85 1c ff ff ff    	mov    -0xe4(%rbp),%eax
    4960:	48 b9 e8 0d 00 00 00 	movabs $0xde8,%rcx
    4967:	00 00 00 
    496a:	48 8d 0c 0b          	lea    (%rbx,%rcx,1),%rcx
    496e:	89 c7                	mov    %eax,%edi
    4970:	48 b8 8f 52 ff ff ff 	movabs $0xffffffffffff528f,%rax
    4977:	ff ff ff 
    497a:	48 8d 04 03          	lea    (%rbx,%rax,1),%rax
    497e:	ff d0                	call   *%rax
    4980:	8b 85 3c ff ff ff    	mov    -0xc4(%rbp),%eax
    4986:	48 81 c4 f0 00 00 00 	add    $0xf0,%rsp
    498d:	5b                   	pop    %rbx
    498e:	41 5f                	pop    %r15
    4990:	5d                   	pop    %rbp
    4991:	c3                   	ret    
    4992:	f3 0f 1e fa          	endbr64 
    4996:	55                   	push   %rbp
    4997:	48 89 e5             	mov    %rsp,%rbp
    499a:	48 8d 15 f9 ff ff ff 	lea    -0x7(%rip),%rdx        # 0x499a
    49a1:	49 bb be ab 00 00 00 	movabs $0xabbe,%r11
    49a8:	00 00 00 
    49ab:	4c 01 da             	add    %r11,%rdx
    49ae:	48 b9 88 0d 00 00 00 	movabs $0xd88,%rcx
    49b5:	00 00 00 
    49b8:	48 be b8 ff ff ff ff 	movabs $0xffffffffffffffb8,%rsi
    49bf:	ff ff ff 
    49c2:	48 8b 34 32          	mov    (%rdx,%rsi,1),%rsi
    49c6:	48 89 34 0a          	mov    %rsi,(%rdx,%rcx,1)
    49ca:	b0 64                	mov    $0x64,%al
    49cc:	b9 64 00 00 00       	mov    $0x64,%ecx
    49d1:	88 cc                	mov    %cl,%ah
    49d3:	25 ff ff 00 ff       	and    $0xff00ffff,%eax
    49d8:	0d 00 00 64 00       	or     $0x640000,%eax
    49dd:	25 ff ff ff 00       	and    $0xffffff,%eax
    49e2:	89 c7                	mov    %eax,%edi
    49e4:	48 b8 c6 4f ff ff ff 	movabs $0xffffffffffff4fc6,%rax
    49eb:	ff ff ff 
    49ee:	48 8d 04 02          	lea    (%rdx,%rax,1),%rax
    49f2:	ff d0                	call   *%rax
    49f4:	90                   	nop
    49f5:	5d                   	pop    %rbp
    49f6:	c3                   	ret    
    49f7:	f3 0f 1e fa          	endbr64 
    49fb:	55                   	push   %rbp
    49fc:	48 89 e5             	mov    %rsp,%rbp
    49ff:	48 8d 05 f9 ff ff ff 	lea    -0x7(%rip),%rax        # 0x49ff
    4a06:	49 bb 59 ab 00 00 00 	movabs $0xab59,%r11
    4a0d:	00 00 00 
    4a10:	4c 01 d8             	add    %r11,%rax
    4a13:	90                   	nop
    4a14:	5d                   	pop    %rbp
    4a15:	c3                   	ret    
    4a16:	f3 0f 1e fa          	endbr64 
    4a1a:	55                   	push   %rbp
    4a1b:	48 89 e5             	mov    %rsp,%rbp
    4a1e:	48 8d 05 f9 ff ff ff 	lea    -0x7(%rip),%rax        # 0x4a1e
    4a25:	49 bb 3a ab 00 00 00 	movabs $0xab3a,%r11
    4a2c:	00 00 00 
    4a2f:	4c 01 d8             	add    %r11,%rax
    4a32:	48 89 7d e8          	mov    %rdi,-0x18(%rbp)
    4a36:	48 89 75 e0          	mov    %rsi,-0x20(%rbp)
    4a3a:	89 55 dc             	mov    %edx,-0x24(%rbp)
    4a3d:	48 8b 45 e8          	mov    -0x18(%rbp),%rax
    4a41:	48 89 45 f8          	mov    %rax,-0x8(%rbp)
    4a45:	eb 13                	jmp    0x4a5a
    4a47:	48 8b 45 f8          	mov    -0x8(%rbp),%rax
    4a4b:	48 8d 50 08          	lea    0x8(%rax),%rdx
    4a4f:	48 89 55 f8          	mov    %rdx,-0x8(%rbp)
    4a53:	48 8b 55 e0          	mov    -0x20(%rbp),%rdx
    4a57:	48 89 10             	mov    %rdx,(%rax)
    4a5a:	8b 45 dc             	mov    -0x24(%rbp),%eax
    4a5d:	8d 50 ff             	lea    -0x1(%rax),%edx
    4a60:	89 55 dc             	mov    %edx,-0x24(%rbp)
    4a63:	85 c0                	test   %eax,%eax
    4a65:	75 e0                	jne    0x4a47
    4a67:	90                   	nop
    4a68:	90                   	nop
    4a69:	5d                   	pop    %rbp
    4a6a:	c3                   	ret    
    4a6b:	f3 0f 1e fa          	endbr64 
    4a6f:	55                   	push   %rbp
    4a70:	48 89 e5             	mov    %rsp,%rbp
    4a73:	48 83 ec 20          	sub    $0x20,%rsp
    4a77:	48 8d 0d f9 ff ff ff 	lea    -0x7(%rip),%rcx        # 0x4a77
    4a7e:	49 bb e1 aa 00 00 00 	movabs $0xaae1,%r11
    4a85:	00 00 00 
    4a88:	4c 01 d9             	add    %r11,%rcx
    4a8b:	89 7d ec             	mov    %edi,-0x14(%rbp)
    4a8e:	48 89 75 e0          	mov    %rsi,-0x20(%rbp)
    4a92:	89 d0                	mov    %edx,%eax
    4a94:	88 45 e8             	mov    %al,-0x18(%rbp)
    4a97:	0f b6 75 e8          	movzbl -0x18(%rbp),%esi
    4a9b:	8b 45 ec             	mov    -0x14(%rbp),%eax
    4a9e:	ba 00 00 00 00       	mov    $0x0,%edx
    4aa3:	f7 f6                	div    %esi
    4aa5:	89 55 fc             	mov    %edx,-0x4(%rbp)
    4aa8:	0f b6 7d e8          	movzbl -0x18(%rbp),%edi
    4aac:	8b 45 ec             	mov    -0x14(%rbp),%eax
    4aaf:	ba 00 00 00 00       	mov    $0x0,%edx
    4ab4:	f7 f7                	div    %edi
    4ab6:	89 45 f8             	mov    %eax,-0x8(%rbp)
    4ab9:	83 7d f8 00          	cmpl   $0x0,-0x8(%rbp)
    4abd:	74 1d                	je     0x4adc
    4abf:	0f b6 55 e8          	movzbl -0x18(%rbp),%edx
    4ac3:	48 8b 75 e0          	mov    -0x20(%rbp),%rsi
    4ac7:	8b 45 f8             	mov    -0x8(%rbp),%eax
    4aca:	89 c7                	mov    %eax,%edi
    4acc:	48 b8 13 55 ff ff ff 	movabs $0xffffffffffff5513,%rax
    4ad3:	ff ff ff 
    4ad6:	48 8d 04 01          	lea    (%rcx,%rax,1),%rax
    4ada:	ff d0                	call   *%rax
    4adc:	83 7d fc 09          	cmpl   $0x9,-0x4(%rbp)
    4ae0:	77 1e                	ja     0x4b00
    4ae2:	8b 45 fc             	mov    -0x4(%rbp),%eax
    4ae5:	8d 70 30             	lea    0x30(%rax),%esi
    4ae8:	48 8b 45 e0          	mov    -0x20(%rbp),%rax
    4aec:	48 8b 00             	mov    (%rax),%rax
    4aef:	48 8d 48 01          	lea    0x1(%rax),%rcx
    4af3:	48 8b 55 e0          	mov    -0x20(%rbp),%rdx
    4af7:	48 89 0a             	mov    %rcx,(%rdx)
    4afa:	89 f2                	mov    %esi,%edx
    4afc:	88 10                	mov    %dl,(%rax)
    4afe:	eb 1c                	jmp    0x4b1c
    4b00:	8b 45 fc             	mov    -0x4(%rbp),%eax
    4b03:	8d 70 37             	lea    0x37(%rax),%esi
    4b06:	48 8b 45 e0          	mov    -0x20(%rbp),%rax
    4b0a:	48 8b 00             	mov    (%rax),%rax
    4b0d:	48 8d 48 01          	lea    0x1(%rax),%rcx
    4b11:	48 8b 55 e0          	mov    -0x20(%rbp),%rdx
    4b15:	48 89 0a             	mov    %rcx,(%rdx)
    4b18:	89 f2                	mov    %esi,%edx
    4b1a:	88 10                	mov    %dl,(%rax)
    4b1c:	90                   	nop
    4b1d:	c9                   	leave  
    4b1e:	c3                   	ret    
    4b1f:	f3 0f 1e fa          	endbr64 
    4b23:	55                   	push   %rbp
    4b24:	48 89 e5             	mov    %rsp,%rbp
    4b27:	41 57                	push   %r15
    4b29:	53                   	push   %rbx
    4b2a:	48 83 ec 40          	sub    $0x40,%rsp
    4b2e:	48 8d 1d f9 ff ff ff 	lea    -0x7(%rip),%rbx        # 0x4b2e
    4b35:	49 bb 2a aa 00 00 00 	movabs $0xaa2a,%r11
    4b3c:	00 00 00 
    4b3f:	4c 01 db             	add    %r11,%rbx
    4b42:	48 89 7d c8          	mov    %rdi,-0x38(%rbp)
    4b46:	48 89 75 c0          	mov    %rsi,-0x40(%rbp)
    4b4a:	48 89 55 b8          	mov    %rdx,-0x48(%rbp)
    4b4e:	48 8b 45 c8          	mov    -0x38(%rbp),%rax
    4b52:	48 89 45 d0          	mov    %rax,-0x30(%rbp)
    4b56:	48 8b 45 c0          	mov    -0x40(%rbp),%rax
    4b5a:	48 89 45 e8          	mov    %rax,-0x18(%rbp)
    4b5e:	48 8b 45 e8          	mov    -0x18(%rbp),%rax
    4b62:	0f b6 00             	movzbl (%rax),%eax
    4b65:	88 45 e7             	mov    %al,-0x19(%rbp)
    4b68:	e9 8e 02 00 00       	jmp    0x4dfb
    4b6d:	80 7d e7 25          	cmpb   $0x25,-0x19(%rbp)
    4b71:	74 26                	je     0x4b99
    4b73:	48 8b 45 d0          	mov    -0x30(%rbp),%rax
    4b77:	48 8d 50 01          	lea    0x1(%rax),%rdx
    4b7b:	48 89 55 d0          	mov    %rdx,-0x30(%rbp)
    4b7f:	0f b6 55 e7          	movzbl -0x19(%rbp),%edx
    4b83:	88 10                	mov    %dl,(%rax)
    4b85:	48 83 45 e8 01       	addq   $0x1,-0x18(%rbp)
    4b8a:	48 8b 45 e8          	mov    -0x18(%rbp),%rax
    4b8e:	0f b6 00             	movzbl (%rax),%eax
    4b91:	88 45 e7             	mov    %al,-0x19(%rbp)
    4b94:	e9 62 02 00 00       	jmp    0x4dfb
    4b99:	48 83 45 e8 01       	addq   $0x1,-0x18(%rbp)
    4b9e:	48 8b 45 e8          	mov    -0x18(%rbp),%rax
    4ba2:	0f b6 00             	movzbl (%rax),%eax
    4ba5:	88 45 e7             	mov    %al,-0x19(%rbp)
    4ba8:	0f be 45 e7          	movsbl -0x19(%rbp),%eax
    4bac:	83 f8 78             	cmp    $0x78,%eax
    4baf:	0f 84 cd 01 00 00    	je     0x4d82
    4bb5:	83 f8 78             	cmp    $0x78,%eax
    4bb8:	0f 8f 3d 02 00 00    	jg     0x4dfb
    4bbe:	83 f8 73             	cmp    $0x73,%eax
    4bc1:	74 20                	je     0x4be3
    4bc3:	83 f8 73             	cmp    $0x73,%eax
    4bc6:	0f 8f 2f 02 00 00    	jg     0x4dfb
    4bcc:	83 f8 63             	cmp    $0x63,%eax
    4bcf:	0f 84 b2 00 00 00    	je     0x4c87
    4bd5:	83 f8 64             	cmp    $0x64,%eax
    4bd8:	0f 84 12 01 00 00    	je     0x4cf0
    4bde:	e9 18 02 00 00       	jmp    0x4dfb
    4be3:	48 8b 45 b8          	mov    -0x48(%rbp),%rax
    4be7:	8b 00                	mov    (%rax),%eax
    4be9:	83 f8 2f             	cmp    $0x2f,%eax
    4bec:	77 24                	ja     0x4c12
    4bee:	48 8b 45 b8          	mov    -0x48(%rbp),%rax
    4bf2:	48 8b 50 10          	mov    0x10(%rax),%rdx
    4bf6:	48 8b 45 b8          	mov    -0x48(%rbp),%rax
    4bfa:	8b 00                	mov    (%rax),%eax
    4bfc:	89 c0                	mov    %eax,%eax
    4bfe:	48 01 d0             	add    %rdx,%rax
    4c01:	48 8b 55 b8          	mov    -0x48(%rbp),%rdx
    4c05:	8b 12                	mov    (%rdx),%edx
    4c07:	8d 4a 08             	lea    0x8(%rdx),%ecx
    4c0a:	48 8b 55 b8          	mov    -0x48(%rbp),%rdx
    4c0e:	89 0a                	mov    %ecx,(%rdx)
    4c10:	eb 14                	jmp    0x4c26
    4c12:	48 8b 45 b8          	mov    -0x48(%rbp),%rax
    4c16:	48 8b 40 08          	mov    0x8(%rax),%rax
    4c1a:	48 8d 48 08          	lea    0x8(%rax),%rcx
    4c1e:	48 8b 55 b8          	mov    -0x48(%rbp),%rdx
    4c22:	48 89 4a 08          	mov    %rcx,0x8(%rdx)
    4c26:	48 8b 00             	mov    (%rax),%rax
    4c29:	48 89 45 d8          	mov    %rax,-0x28(%rbp)
    4c2d:	48 8b 45 d0          	mov    -0x30(%rbp),%rax
    4c31:	48 8b 55 d8          	mov    -0x28(%rbp),%rdx
    4c35:	48 89 d6             	mov    %rdx,%rsi
    4c38:	48 89 c7             	mov    %rax,%rdi
    4c3b:	49 89 df             	mov    %rbx,%r15
    4c3e:	48 b8 eb 5a ff ff ff 	movabs $0xffffffffffff5aeb,%rax
    4c45:	ff ff ff 
    4c48:	48 01 d8             	add    %rbx,%rax
    4c4b:	ff d0                	call   *%rax
    4c4d:	48 8b 45 d8          	mov    -0x28(%rbp),%rax
    4c51:	48 89 c7             	mov    %rax,%rdi
    4c54:	49 89 df             	mov    %rbx,%r15
    4c57:	48 b8 42 5b ff ff ff 	movabs $0xffffffffffff5b42,%rax
    4c5e:	ff ff ff 
    4c61:	48 01 d8             	add    %rbx,%rax
    4c64:	ff d0                	call   *%rax
    4c66:	48 8b 55 d0          	mov    -0x30(%rbp),%rdx
    4c6a:	89 c0                	mov    %eax,%eax
    4c6c:	48 01 d0             	add    %rdx,%rax
    4c6f:	48 89 45 d0          	mov    %rax,-0x30(%rbp)
    4c73:	48 83 45 e8 01       	addq   $0x1,-0x18(%rbp)
    4c78:	48 8b 45 e8          	mov    -0x18(%rbp),%rax
    4c7c:	0f b6 00             	movzbl (%rax),%eax
    4c7f:	88 45 e7             	mov    %al,-0x19(%rbp)
    4c82:	e9 74 01 00 00       	jmp    0x4dfb
    4c87:	48 8b 45 b8          	mov    -0x48(%rbp),%rax
    4c8b:	8b 00                	mov    (%rax),%eax
    4c8d:	83 f8 2f             	cmp    $0x2f,%eax
    4c90:	77 24                	ja     0x4cb6
    4c92:	48 8b 45 b8          	mov    -0x48(%rbp),%rax
    4c96:	48 8b 50 10          	mov    0x10(%rax),%rdx
    4c9a:	48 8b 45 b8          	mov    -0x48(%rbp),%rax
    4c9e:	8b 00                	mov    (%rax),%eax
    4ca0:	89 c0                	mov    %eax,%eax
    4ca2:	48 01 d0             	add    %rdx,%rax
    4ca5:	48 8b 55 b8          	mov    -0x48(%rbp),%rdx
    4ca9:	8b 12                	mov    (%rdx),%edx
    4cab:	8d 4a 08             	lea    0x8(%rdx),%ecx
    4cae:	48 8b 55 b8          	mov    -0x48(%rbp),%rdx
    4cb2:	89 0a                	mov    %ecx,(%rdx)
    4cb4:	eb 14                	jmp    0x4cca
    4cb6:	48 8b 45 b8          	mov    -0x48(%rbp),%rax
    4cba:	48 8b 40 08          	mov    0x8(%rax),%rax
    4cbe:	48 8d 48 08          	lea    0x8(%rax),%rcx
    4cc2:	48 8b 55 b8          	mov    -0x48(%rbp),%rdx
    4cc6:	48 89 4a 08          	mov    %rcx,0x8(%rdx)
    4cca:	8b 08                	mov    (%rax),%ecx
    4ccc:	48 8b 45 d0          	mov    -0x30(%rbp),%rax
    4cd0:	48 8d 50 01          	lea    0x1(%rax),%rdx
    4cd4:	48 89 55 d0          	mov    %rdx,-0x30(%rbp)
    4cd8:	89 ca                	mov    %ecx,%edx
    4cda:	88 10                	mov    %dl,(%rax)
    4cdc:	48 83 45 e8 01       	addq   $0x1,-0x18(%rbp)
    4ce1:	48 8b 45 e8          	mov    -0x18(%rbp),%rax
    4ce5:	0f b6 00             	movzbl (%rax),%eax
    4ce8:	88 45 e7             	mov    %al,-0x19(%rbp)
    4ceb:	e9 0b 01 00 00       	jmp    0x4dfb
    4cf0:	48 8b 45 b8          	mov    -0x48(%rbp),%rax
    4cf4:	8b 00                	mov    (%rax),%eax
    4cf6:	83 f8 2f             	cmp    $0x2f,%eax
    4cf9:	77 24                	ja     0x4d1f
    4cfb:	48 8b 45 b8          	mov    -0x48(%rbp),%rax
    4cff:	48 8b 50 10          	mov    0x10(%rax),%rdx
    4d03:	48 8b 45 b8          	mov    -0x48(%rbp),%rax
    4d07:	8b 00                	mov    (%rax),%eax
    4d09:	89 c0                	mov    %eax,%eax
    4d0b:	48 01 d0             	add    %rdx,%rax
    4d0e:	48 8b 55 b8          	mov    -0x48(%rbp),%rdx
    4d12:	8b 12                	mov    (%rdx),%edx
    4d14:	8d 4a 08             	lea    0x8(%rdx),%ecx
    4d17:	48 8b 55 b8          	mov    -0x48(%rbp),%rdx
    4d1b:	89 0a                	mov    %ecx,(%rdx)
    4d1d:	eb 14                	jmp    0x4d33
    4d1f:	48 8b 45 b8          	mov    -0x48(%rbp),%rax
    4d23:	48 8b 40 08          	mov    0x8(%rax),%rax
    4d27:	48 8d 48 08          	lea    0x8(%rax),%rcx
    4d2b:	48 8b 55 b8          	mov    -0x48(%rbp),%rdx
    4d2f:	48 89 4a 08          	mov    %rcx,0x8(%rdx)
    4d33:	8b 00                	mov    (%rax),%eax
    4d35:	89 45 e0             	mov    %eax,-0x20(%rbp)
    4d38:	83 7d e0 00          	cmpl   $0x0,-0x20(%rbp)
    4d3c:	79 12                	jns    0x4d50
    4d3e:	f7 5d e0             	negl   -0x20(%rbp)
    4d41:	48 8b 45 d0          	mov    -0x30(%rbp),%rax
    4d45:	48 8d 50 01          	lea    0x1(%rax),%rdx
    4d49:	48 89 55 d0          	mov    %rdx,-0x30(%rbp)
    4d4d:	c6 00 2d             	movb   $0x2d,(%rax)
    4d50:	8b 45 e0             	mov    -0x20(%rbp),%eax
    4d53:	48 8d 4d d0          	lea    -0x30(%rbp),%rcx
    4d57:	ba 0a 00 00 00       	mov    $0xa,%edx
    4d5c:	48 89 ce             	mov    %rcx,%rsi
    4d5f:	89 c7                	mov    %eax,%edi
    4d61:	48 b8 13 55 ff ff ff 	movabs $0xffffffffffff5513,%rax
    4d68:	ff ff ff 
    4d6b:	48 8d 04 03          	lea    (%rbx,%rax,1),%rax
    4d6f:	ff d0                	call   *%rax
    4d71:	48 83 45 e8 01       	addq   $0x1,-0x18(%rbp)
    4d76:	48 8b 45 e8          	mov    -0x18(%rbp),%rax
    4d7a:	0f b6 00             	movzbl (%rax),%eax
    4d7d:	88 45 e7             	mov    %al,-0x19(%rbp)
    4d80:	eb 79                	jmp    0x4dfb
    4d82:	48 8b 45 b8          	mov    -0x48(%rbp),%rax
    4d86:	8b 00                	mov    (%rax),%eax
    4d88:	83 f8 2f             	cmp    $0x2f,%eax
    4d8b:	77 24                	ja     0x4db1
    4d8d:	48 8b 45 b8          	mov    -0x48(%rbp),%rax
    4d91:	48 8b 50 10          	mov    0x10(%rax),%rdx
    4d95:	48 8b 45 b8          	mov    -0x48(%rbp),%rax
    4d99:	8b 00                	mov    (%rax),%eax
    4d9b:	89 c0                	mov    %eax,%eax
    4d9d:	48 01 d0             	add    %rdx,%rax
    4da0:	48 8b 55 b8          	mov    -0x48(%rbp),%rdx
    4da4:	8b 12                	mov    (%rdx),%edx
    4da6:	8d 4a 08             	lea    0x8(%rdx),%ecx
    4da9:	48 8b 55 b8          	mov    -0x48(%rbp),%rdx
    4dad:	89 0a                	mov    %ecx,(%rdx)
    4daf:	eb 14                	jmp    0x4dc5
    4db1:	48 8b 45 b8          	mov    -0x48(%rbp),%rax
    4db5:	48 8b 40 08          	mov    0x8(%rax),%rax
    4db9:	48 8d 48 08          	lea    0x8(%rax),%rcx
    4dbd:	48 8b 55 b8          	mov    -0x48(%rbp),%rdx
    4dc1:	48 89 4a 08          	mov    %rcx,0x8(%rdx)
    4dc5:	8b 00                	mov    (%rax),%eax
    4dc7:	89 45 e0             	mov    %eax,-0x20(%rbp)
    4dca:	8b 45 e0             	mov    -0x20(%rbp),%eax
    4dcd:	48 8d 4d d0          	lea    -0x30(%rbp),%rcx
    4dd1:	ba 10 00 00 00       	mov    $0x10,%edx
    4dd6:	48 89 ce             	mov    %rcx,%rsi
    4dd9:	89 c7                	mov    %eax,%edi
    4ddb:	48 b8 13 55 ff ff ff 	movabs $0xffffffffffff5513,%rax
    4de2:	ff ff ff 
    4de5:	48 8d 04 03          	lea    (%rbx,%rax,1),%rax
    4de9:	ff d0                	call   *%rax
    4deb:	48 83 45 e8 01       	addq   $0x1,-0x18(%rbp)
    4df0:	48 8b 45 e8          	mov    -0x18(%rbp),%rax
    4df4:	0f b6 00             	movzbl (%rax),%eax
    4df7:	88 45 e7             	mov    %al,-0x19(%rbp)
    4dfa:	90                   	nop
    4dfb:	80 7d e7 00          	cmpb   $0x0,-0x19(%rbp)
    4dff:	0f 85 68 fd ff ff    	jne    0x4b6d
    4e05:	48 8b 45 c8          	mov    -0x38(%rbp),%rax
    4e09:	48 89 c7             	mov    %rax,%rdi
    4e0c:	49 89 df             	mov    %rbx,%r15
    4e0f:	48 b8 42 5b ff ff ff 	movabs $0xffffffffffff5b42,%rax
    4e16:	ff ff ff 
    4e19:	48 01 d8             	add    %rbx,%rax
    4e1c:	ff d0                	call   *%rax
    4e1e:	48 83 c4 40          	add    $0x40,%rsp
    4e22:	5b                   	pop    %rbx
    4e23:	41 5f                	pop    %r15
    4e25:	5d                   	pop    %rbp
    4e26:	c3                   	ret    
    4e27:	f3 0f 1e fa          	endbr64 
    4e2b:	55                   	push   %rbp
    4e2c:	48 89 e5             	mov    %rsp,%rbp
    4e2f:	48 81 ec e0 00 00 00 	sub    $0xe0,%rsp
    4e36:	4c 8d 15 f9 ff ff ff 	lea    -0x7(%rip),%r10        # 0x4e36
    4e3d:	49 bb 22 a7 00 00 00 	movabs $0xa722,%r11
    4e44:	00 00 00 
    4e47:	4d 01 da             	add    %r11,%r10
    4e4a:	48 89 bd 28 ff ff ff 	mov    %rdi,-0xd8(%rbp)
    4e51:	48 89 b5 20 ff ff ff 	mov    %rsi,-0xe0(%rbp)
    4e58:	48 89 95 60 ff ff ff 	mov    %rdx,-0xa0(%rbp)
    4e5f:	48 89 8d 68 ff ff ff 	mov    %rcx,-0x98(%rbp)
    4e66:	4c 89 85 70 ff ff ff 	mov    %r8,-0x90(%rbp)
    4e6d:	4c 89 8d 78 ff ff ff 	mov    %r9,-0x88(%rbp)
    4e74:	84 c0                	test   %al,%al
    4e76:	74 20                	je     0x4e98
    4e78:	0f 29 45 80          	movaps %xmm0,-0x80(%rbp)
    4e7c:	0f 29 4d 90          	movaps %xmm1,-0x70(%rbp)
    4e80:	0f 29 55 a0          	movaps %xmm2,-0x60(%rbp)
    4e84:	0f 29 5d b0          	movaps %xmm3,-0x50(%rbp)
    4e88:	0f 29 65 c0          	movaps %xmm4,-0x40(%rbp)
    4e8c:	0f 29 6d d0          	movaps %xmm5,-0x30(%rbp)
    4e90:	0f 29 75 e0          	movaps %xmm6,-0x20(%rbp)
    4e94:	0f 29 7d f0          	movaps %xmm7,-0x10(%rbp)
    4e98:	c7 85 30 ff ff ff 10 	movl   $0x10,-0xd0(%rbp)
    4e9f:	00 00 00 
    4ea2:	c7 85 34 ff ff ff 30 	movl   $0x30,-0xcc(%rbp)
    4ea9:	00 00 00 
    4eac:	48 8d 45 10          	lea    0x10(%rbp),%rax
    4eb0:	48 89 85 38 ff ff ff 	mov    %rax,-0xc8(%rbp)
    4eb7:	48 8d 85 50 ff ff ff 	lea    -0xb0(%rbp),%rax
    4ebe:	48 89 85 40 ff ff ff 	mov    %rax,-0xc0(%rbp)
    4ec5:	48 8d 95 30 ff ff ff 	lea    -0xd0(%rbp),%rdx
    4ecc:	48 8b 8d 20 ff ff ff 	mov    -0xe0(%rbp),%rcx
    4ed3:	48 8b 85 28 ff ff ff 	mov    -0xd8(%rbp),%rax
    4eda:	48 89 ce             	mov    %rcx,%rsi
    4edd:	48 89 c7             	mov    %rax,%rdi
    4ee0:	48 b8 c7 55 ff ff ff 	movabs $0xffffffffffff55c7,%rax
    4ee7:	ff ff ff 
    4eea:	49 8d 04 02          	lea    (%r10,%rax,1),%rax
    4eee:	ff d0                	call   *%rax
    4ef0:	89 85 4c ff ff ff    	mov    %eax,-0xb4(%rbp)
    4ef6:	8b 85 4c ff ff ff    	mov    -0xb4(%rbp),%eax
    4efc:	c9                   	leave  
    4efd:	c3                   	ret    
    4efe:	f3 0f 1e fa          	endbr64 
    4f02:	55                   	push   %rbp
    4f03:	48 89 e5             	mov    %rsp,%rbp
    4f06:	48 8d 05 f9 ff ff ff 	lea    -0x7(%rip),%rax        # 0x4f06
    4f0d:	49 bb 52 a6 00 00 00 	movabs $0xa652,%r11
    4f14:	00 00 00 
    4f17:	4c 01 d8             	add    %r11,%rax
    4f1a:	48 89 7d e8          	mov    %rdi,-0x18(%rbp)
    4f1e:	89 f0                	mov    %esi,%eax
    4f20:	89 55 e0             	mov    %edx,-0x20(%rbp)
    4f23:	88 45 e4             	mov    %al,-0x1c(%rbp)
    4f26:	48 8b 45 e8          	mov    -0x18(%rbp),%rax
    4f2a:	48 89 45 f8          	mov    %rax,-0x8(%rbp)
    4f2e:	eb 12                	jmp    0x4f42
    4f30:	48 8b 45 f8          	mov    -0x8(%rbp),%rax
    4f34:	48 8d 50 01          	lea    0x1(%rax),%rdx
    4f38:	48 89 55 f8          	mov    %rdx,-0x8(%rbp)
    4f3c:	0f b6 55 e4          	movzbl -0x1c(%rbp),%edx
    4f40:	88 10                	mov    %dl,(%rax)
    4f42:	8b 45 e0             	mov    -0x20(%rbp),%eax
    4f45:	8d 50 ff             	lea    -0x1(%rax),%edx
    4f48:	89 55 e0             	mov    %edx,-0x20(%rbp)
    4f4b:	85 c0                	test   %eax,%eax
    4f4d:	75 e1                	jne    0x4f30
    4f4f:	90                   	nop
    4f50:	90                   	nop
    4f51:	5d                   	pop    %rbp
    4f52:	c3                   	ret    
    4f53:	f3 0f 1e fa          	endbr64 
    4f57:	55                   	push   %rbp
    4f58:	48 89 e5             	mov    %rsp,%rbp
    4f5b:	48 8d 05 f9 ff ff ff 	lea    -0x7(%rip),%rax        # 0x4f5b
    4f62:	49 bb fd a5 00 00 00 	movabs $0xa5fd,%r11
    4f69:	00 00 00 
    4f6c:	4c 01 d8             	add    %r11,%rax
    4f6f:	48 89 7d e8          	mov    %rdi,-0x18(%rbp)
    4f73:	48 89 75 e0          	mov    %rsi,-0x20(%rbp)
    4f77:	89 55 dc             	mov    %edx,-0x24(%rbp)
    4f7a:	48 8b 45 e8          	mov    -0x18(%rbp),%rax
    4f7e:	48 89 45 f8          	mov    %rax,-0x8(%rbp)
    4f82:	48 8b 45 e0          	mov    -0x20(%rbp),%rax
    4f86:	48 89 45 f0          	mov    %rax,-0x10(%rbp)
    4f8a:	eb 1d                	jmp    0x4fa9
    4f8c:	48 8b 55 f0          	mov    -0x10(%rbp),%rdx
    4f90:	48 8d 42 01          	lea    0x1(%rdx),%rax
    4f94:	48 89 45 f0          	mov    %rax,-0x10(%rbp)
    4f98:	48 8b 45 f8          	mov    -0x8(%rbp),%rax
    4f9c:	48 8d 48 01          	lea    0x1(%rax),%rcx
    4fa0:	48 89 4d f8          	mov    %rcx,-0x8(%rbp)
    4fa4:	0f b6 12             	movzbl (%rdx),%edx
    4fa7:	88 10                	mov    %dl,(%rax)
    4fa9:	8b 45 dc             	mov    -0x24(%rbp),%eax
    4fac:	8d 50 ff             	lea    -0x1(%rax),%edx
    4faf:	89 55 dc             	mov    %edx,-0x24(%rbp)
    4fb2:	85 c0                	test   %eax,%eax
    4fb4:	75 d6                	jne    0x4f8c
    4fb6:	90                   	nop
    4fb7:	90                   	nop
    4fb8:	5d                   	pop    %rbp
    4fb9:	c3                   	ret    
    4fba:	f3 0f 1e fa          	endbr64 
    4fbe:	55                   	push   %rbp
    4fbf:	48 89 e5             	mov    %rsp,%rbp
    4fc2:	48 8d 05 f9 ff ff ff 	lea    -0x7(%rip),%rax        # 0x4fc2
    4fc9:	49 bb 96 a5 00 00 00 	movabs $0xa596,%r11
    4fd0:	00 00 00 
    4fd3:	4c 01 d8             	add    %r11,%rax
    4fd6:	48 89 7d e8          	mov    %rdi,-0x18(%rbp)
    4fda:	48 89 75 e0          	mov    %rsi,-0x20(%rbp)
    4fde:	89 55 dc             	mov    %edx,-0x24(%rbp)
    4fe1:	48 8b 45 e8          	mov    -0x18(%rbp),%rax
    4fe5:	48 89 45 f8          	mov    %rax,-0x8(%rbp)
    4fe9:	48 8b 45 e0          	mov    -0x20(%rbp),%rax
    4fed:	48 89 45 f0          	mov    %rax,-0x10(%rbp)
    4ff1:	eb 3c                	jmp    0x502f
    4ff3:	48 8b 45 f8          	mov    -0x8(%rbp),%rax
    4ff7:	0f b6 10             	movzbl (%rax),%edx
    4ffa:	48 8b 45 f0          	mov    -0x10(%rbp),%rax
    4ffe:	0f b6 00             	movzbl (%rax),%eax
    5001:	38 c2                	cmp    %al,%dl
    5003:	74 20                	je     0x5025
    5005:	48 8b 45 f8          	mov    -0x8(%rbp),%rax
    5009:	0f b6 10             	movzbl (%rax),%edx
    500c:	48 8b 45 f0          	mov    -0x10(%rbp),%rax
    5010:	0f b6 00             	movzbl (%rax),%eax
    5013:	38 c2                	cmp    %al,%dl
    5015:	7e 07                	jle    0x501e
    5017:	b8 01 00 00 00       	mov    $0x1,%eax
    501c:	eb 23                	jmp    0x5041
    501e:	b8 ff ff ff ff       	mov    $0xffffffff,%eax
    5023:	eb 1c                	jmp    0x5041
    5025:	48 83 45 f8 01       	addq   $0x1,-0x8(%rbp)
    502a:	48 83 45 f0 01       	addq   $0x1,-0x10(%rbp)
    502f:	8b 45 dc             	mov    -0x24(%rbp),%eax
    5032:	8d 50 ff             	lea    -0x1(%rax),%edx
    5035:	89 55 dc             	mov    %edx,-0x24(%rbp)
    5038:	85 c0                	test   %eax,%eax
    503a:	75 b7                	jne    0x4ff3
    503c:	b8 00 00 00 00       	mov    $0x0,%eax
    5041:	5d                   	pop    %rbp
    5042:	c3                   	ret    
    5043:	f3 0f 1e fa          	endbr64 
    5047:	55                   	push   %rbp
    5048:	48 89 e5             	mov    %rsp,%rbp
    504b:	48 8d 05 f9 ff ff ff 	lea    -0x7(%rip),%rax        # 0x504b
    5052:	49 bb 0d a5 00 00 00 	movabs $0xa50d,%r11
    5059:	00 00 00 
    505c:	4c 01 d8             	add    %r11,%rax
    505f:	48 89 7d e8          	mov    %rdi,-0x18(%rbp)
    5063:	48 89 75 e0          	mov    %rsi,-0x20(%rbp)
    5067:	48 8b 45 e8          	mov    -0x18(%rbp),%rax
    506b:	48 89 45 f8          	mov    %rax,-0x8(%rbp)
    506f:	90                   	nop
    5070:	48 8b 55 e0          	mov    -0x20(%rbp),%rdx
    5074:	48 8d 42 01          	lea    0x1(%rdx),%rax
    5078:	48 89 45 e0          	mov    %rax,-0x20(%rbp)
    507c:	48 8b 45 e8          	mov    -0x18(%rbp),%rax
    5080:	48 8d 48 01          	lea    0x1(%rax),%rcx
    5084:	48 89 4d e8          	mov    %rcx,-0x18(%rbp)
    5088:	0f b6 12             	movzbl (%rdx),%edx
    508b:	88 10                	mov    %dl,(%rax)
    508d:	0f b6 00             	movzbl (%rax),%eax
    5090:	84 c0                	test   %al,%al
    5092:	75 dc                	jne    0x5070
    5094:	48 8b 45 f8          	mov    -0x8(%rbp),%rax
    5098:	5d                   	pop    %rbp
    5099:	c3                   	ret    
    509a:	f3 0f 1e fa          	endbr64 
    509e:	55                   	push   %rbp
    509f:	48 89 e5             	mov    %rsp,%rbp
    50a2:	48 8d 05 f9 ff ff ff 	lea    -0x7(%rip),%rax        # 0x50a2
    50a9:	49 bb b6 a4 00 00 00 	movabs $0xa4b6,%r11
    50b0:	00 00 00 
    50b3:	4c 01 d8             	add    %r11,%rax
    50b6:	48 89 7d e8          	mov    %rdi,-0x18(%rbp)
    50ba:	48 8b 45 e8          	mov    -0x18(%rbp),%rax
    50be:	48 89 45 f8          	mov    %rax,-0x8(%rbp)
    50c2:	90                   	nop
    50c3:	48 8b 45 f8          	mov    -0x8(%rbp),%rax
    50c7:	48 8d 50 01          	lea    0x1(%rax),%rdx
    50cb:	48 89 55 f8          	mov    %rdx,-0x8(%rbp)
    50cf:	0f b6 00             	movzbl (%rax),%eax
    50d2:	84 c0                	test   %al,%al
    50d4:	75 ed                	jne    0x50c3
    50d6:	48 8b 45 f8          	mov    -0x8(%rbp),%rax
    50da:	48 2b 45 e8          	sub    -0x18(%rbp),%rax
    50de:	83 e8 01             	sub    $0x1,%eax
    50e1:	5d                   	pop    %rbp
    50e2:	c3                   	ret    
    50e3:	f3 0f 1e fa          	endbr64 
    50e7:	55                   	push   %rbp
    50e8:	48 89 e5             	mov    %rsp,%rbp
    50eb:	48 8d 05 f9 ff ff ff 	lea    -0x7(%rip),%rax        # 0x50eb
    50f2:	49 bb 6d a4 00 00 00 	movabs $0xa46d,%r11
    50f9:	00 00 00 
    50fc:	4c 01 d8             	add    %r11,%rax
    50ff:	48 89 7d f8          	mov    %rdi,-0x8(%rbp)
    5103:	48 89 75 f0          	mov    %rsi,-0x10(%rbp)
    5107:	eb 0a                	jmp    0x5113
    5109:	48 83 45 f8 01       	addq   $0x1,-0x8(%rbp)
    510e:	48 83 45 f0 01       	addq   $0x1,-0x10(%rbp)
    5113:	48 8b 45 f8          	mov    -0x8(%rbp),%rax
    5117:	0f b6 00             	movzbl (%rax),%eax
    511a:	84 c0                	test   %al,%al
    511c:	74 12                	je     0x5130
    511e:	48 8b 45 f8          	mov    -0x8(%rbp),%rax
    5122:	0f b6 10             	movzbl (%rax),%edx
    5125:	48 8b 45 f0          	mov    -0x10(%rbp),%rax
    5129:	0f b6 00             	movzbl (%rax),%eax
    512c:	38 c2                	cmp    %al,%dl
    512e:	74 d9                	je     0x5109
    5130:	48 8b 45 f8          	mov    -0x8(%rbp),%rax
    5134:	0f b6 10             	movzbl (%rax),%edx
    5137:	48 8b 45 f0          	mov    -0x10(%rbp),%rax
    513b:	0f b6 00             	movzbl (%rax),%eax
    513e:	38 c2                	cmp    %al,%dl
    5140:	7c 15                	jl     0x5157
    5142:	48 8b 45 f8          	mov    -0x8(%rbp),%rax
    5146:	0f b6 10             	movzbl (%rax),%edx
    5149:	48 8b 45 f0          	mov    -0x10(%rbp),%rax
    514d:	0f b6 00             	movzbl (%rax),%eax
    5150:	38 c2                	cmp    %al,%dl
    5152:	0f 9f c0             	setg   %al
    5155:	eb 05                	jmp    0x515c
    5157:	b8 ff ff ff ff       	mov    $0xffffffff,%eax
    515c:	5d                   	pop    %rbp
    515d:	c3                   	ret    
    515e:	f3 0f 1e fa          	endbr64 
    5162:	55                   	push   %rbp
    5163:	48 89 e5             	mov    %rsp,%rbp
    5166:	48 8d 05 f9 ff ff ff 	lea    -0x7(%rip),%rax        # 0x5166
    516d:	49 bb f2 a3 00 00 00 	movabs $0xa3f2,%r11
    5174:	00 00 00 
    5177:	4c 01 d8             	add    %r11,%rax
    517a:	48 89 7d f8          	mov    %rdi,-0x8(%rbp)
    517e:	89 f0                	mov    %esi,%eax
    5180:	88 45 f4             	mov    %al,-0xc(%rbp)
    5183:	eb 1d                	jmp    0x51a2
    5185:	48 8b 45 f8          	mov    -0x8(%rbp),%rax
    5189:	0f b6 00             	movzbl (%rax),%eax
    518c:	0f be d0             	movsbl %al,%edx
    518f:	0f b6 45 f4          	movzbl -0xc(%rbp),%eax
    5193:	39 c2                	cmp    %eax,%edx
    5195:	75 06                	jne    0x519d
    5197:	48 8b 45 f8          	mov    -0x8(%rbp),%rax
    519b:	eb 15                	jmp    0x51b2
    519d:	48 83 45 f8 01       	addq   $0x1,-0x8(%rbp)
    51a2:	48 8b 45 f8          	mov    -0x8(%rbp),%rax
    51a6:	0f b6 00             	movzbl (%rax),%eax
    51a9:	84 c0                	test   %al,%al
    51ab:	75 d8                	jne    0x5185
    51ad:	b8 00 00 00 00       	mov    $0x0,%eax
    51b2:	5d                   	pop    %rbp
    51b3:	c3                   	ret    
    51b4:	f3 0f 1e fa          	endbr64 
    51b8:	55                   	push   %rbp
    51b9:	48 89 e5             	mov    %rsp,%rbp
    51bc:	48 8d 05 f9 ff ff ff 	lea    -0x7(%rip),%rax        # 0x51bc
    51c3:	49 bb 9c a3 00 00 00 	movabs $0xa39c,%r11
    51ca:	00 00 00 
    51cd:	4c 01 d8             	add    %r11,%rax
    51d0:	48 89 7d e8          	mov    %rdi,-0x18(%rbp)
    51d4:	89 f0                	mov    %esi,%eax
    51d6:	88 45 e4             	mov    %al,-0x1c(%rbp)
    51d9:	48 c7 45 f8 00 00 00 	movq   $0x0,-0x8(%rbp)
    51e0:	00 
    51e1:	eb 1f                	jmp    0x5202
    51e3:	48 8b 45 e8          	mov    -0x18(%rbp),%rax
    51e7:	0f b6 00             	movzbl (%rax),%eax
    51ea:	0f be d0             	movsbl %al,%edx
    51ed:	0f b6 45 e4          	movzbl -0x1c(%rbp),%eax
    51f1:	39 c2                	cmp    %eax,%edx
    51f3:	75 08                	jne    0x51fd
    51f5:	48 8b 45 e8          	mov    -0x18(%rbp),%rax
    51f9:	48 89 45 f8          	mov    %rax,-0x8(%rbp)
    51fd:	48 83 45 e8 01       	addq   $0x1,-0x18(%rbp)
    5202:	48 8b 45 e8          	mov    -0x18(%rbp),%rax
    5206:	0f b6 00             	movzbl (%rax),%eax
    5209:	84 c0                	test   %al,%al
    520b:	75 d6                	jne    0x51e3
    520d:	48 8b 45 f8          	mov    -0x8(%rbp),%rax
    5211:	5d                   	pop    %rbp
    5212:	c3                   	ret    
    5213:	f3 0f 1e fa          	endbr64 
    5217:	55                   	push   %rbp
    5218:	48 89 e5             	mov    %rsp,%rbp
    521b:	48 8d 05 f9 ff ff ff 	lea    -0x7(%rip),%rax        # 0x521b
    5222:	49 bb 3d a3 00 00 00 	movabs $0xa33d,%r11
    5229:	00 00 00 
    522c:	4c 01 d8             	add    %r11,%rax
    522f:	48 89 7d e8          	mov    %rdi,-0x18(%rbp)
    5233:	48 89 75 e0          	mov    %rsi,-0x20(%rbp)
    5237:	48 8b 45 e8          	mov    -0x18(%rbp),%rax
    523b:	48 89 45 f8          	mov    %rax,-0x8(%rbp)
    523f:	90                   	nop
    5240:	48 8b 45 f8          	mov    -0x8(%rbp),%rax
    5244:	48 8d 50 01          	lea    0x1(%rax),%rdx
    5248:	48 89 55 f8          	mov    %rdx,-0x8(%rbp)
    524c:	0f b6 00             	movzbl (%rax),%eax
    524f:	84 c0                	test   %al,%al
    5251:	75 ed                	jne    0x5240
    5253:	48 83 6d f8 01       	subq   $0x1,-0x8(%rbp)
    5258:	90                   	nop
    5259:	48 8b 55 e0          	mov    -0x20(%rbp),%rdx
    525d:	48 8d 42 01          	lea    0x1(%rdx),%rax
    5261:	48 89 45 e0          	mov    %rax,-0x20(%rbp)
    5265:	48 8b 45 f8          	mov    -0x8(%rbp),%rax
    5269:	48 8d 48 01          	lea    0x1(%rax),%rcx
    526d:	48 89 4d f8          	mov    %rcx,-0x8(%rbp)
    5271:	0f b6 12             	movzbl (%rdx),%edx
    5274:	88 10                	mov    %dl,(%rax)
    5276:	0f b6 00             	movzbl (%rax),%eax
    5279:	84 c0                	test   %al,%al
    527b:	75 dc                	jne    0x5259
    527d:	48 8b 45 e8          	mov    -0x18(%rbp),%rax
    5281:	5d                   	pop    %rbp
    5282:	c3                   	ret    
    5283:	f3 0f 1e fa          	endbr64 
    5287:	55                   	push   %rbp
    5288:	48 89 e5             	mov    %rsp,%rbp
    528b:	48 8d 05 f9 ff ff ff 	lea    -0x7(%rip),%rax        # 0x528b
    5292:	49 bb cd a2 00 00 00 	movabs $0xa2cd,%r11
    5299:	00 00 00 
    529c:	4c 01 d8             	add    %r11,%rax
    529f:	48 89 7d e8          	mov    %rdi,-0x18(%rbp)
    52a3:	89 f0                	mov    %esi,%eax
    52a5:	88 45 e4             	mov    %al,-0x1c(%rbp)
    52a8:	c7 45 fc 00 00 00 00 	movl   $0x0,-0x4(%rbp)
    52af:	48 8b 45 e8          	mov    -0x18(%rbp),%rax
    52b3:	48 89 45 f0          	mov    %rax,-0x10(%rbp)
    52b7:	eb 1b                	jmp    0x52d4
    52b9:	48 8b 45 f0          	mov    -0x10(%rbp),%rax
    52bd:	0f b6 00             	movzbl (%rax),%eax
    52c0:	0f be d0             	movsbl %al,%edx
    52c3:	0f b6 45 e4          	movzbl -0x1c(%rbp),%eax
    52c7:	39 c2                	cmp    %eax,%edx
    52c9:	75 04                	jne    0x52cf
    52cb:	83 45 fc 01          	addl   $0x1,-0x4(%rbp)
    52cf:	48 83 45 f0 01       	addq   $0x1,-0x10(%rbp)
    52d4:	48 8b 45 f0          	mov    -0x10(%rbp),%rax
    52d8:	0f b6 00             	movzbl (%rax),%eax
    52db:	84 c0                	test   %al,%al
    52dd:	75 da                	jne    0x52b9
    52df:	8b 45 fc             	mov    -0x4(%rbp),%eax
    52e2:	5d                   	pop    %rbp
    52e3:	c3                   	ret    
    52e4:	f3 0f 1e fa          	endbr64 
    52e8:	55                   	push   %rbp
    52e9:	48 89 e5             	mov    %rsp,%rbp
    52ec:	48 8d 15 f9 ff ff ff 	lea    -0x7(%rip),%rdx        # 0x52ec
    52f3:	49 bb 6c a2 00 00 00 	movabs $0xa26c,%r11
    52fa:	00 00 00 
    52fd:	4c 01 da             	add    %r11,%rdx
    5300:	48 b8 88 0d 00 00 00 	movabs $0xd88,%rax
    5307:	00 00 00 
    530a:	48 8b 04 02          	mov    (%rdx,%rax,1),%rax
    530e:	8b 00                	mov    (%rax),%eax
    5310:	d1 e8                	shr    %eax
    5312:	89 c1                	mov    %eax,%ecx
    5314:	48 b8 90 0d 00 00 00 	movabs $0xd90,%rax
    531b:	00 00 00 
    531e:	89 0c 02             	mov    %ecx,(%rdx,%rax,1)
    5321:	48 b8 88 0d 00 00 00 	movabs $0xd88,%rax
    5328:	00 00 00 
    532b:	48 8b 04 02          	mov    (%rdx,%rax,1),%rax
    532f:	8b 40 04             	mov    0x4(%rax),%eax
    5332:	d1 e8                	shr    %eax
    5334:	89 c1                	mov    %eax,%ecx
    5336:	48 b8 94 0d 00 00 00 	movabs $0xd94,%rax
    533d:	00 00 00 
    5340:	89 0c 02             	mov    %ecx,(%rdx,%rax,1)
    5343:	b8 00 00 00 00       	mov    $0x0,%eax
    5348:	48 b9 03 5e ff ff ff 	movabs $0xffffffffffff5e03,%rcx
    534f:	ff ff ff 
    5352:	48 8d 14 0a          	lea    (%rdx,%rcx,1),%rdx
    5356:	ff d2                	call   *%rdx
    5358:	90                   	nop
    5359:	5d                   	pop    %rbp
    535a:	c3                   	ret    
    535b:	f3 0f 1e fa          	endbr64 
    535f:	55                   	push   %rbp
    5360:	48 89 e5             	mov    %rsp,%rbp
    5363:	41 57                	push   %r15
    5365:	53                   	push   %rbx
    5366:	48 83 ec 20          	sub    $0x20,%rsp
    536a:	48 8d 1d f9 ff ff ff 	lea    -0x7(%rip),%rbx        # 0x536a
    5371:	49 bb ee a1 00 00 00 	movabs $0xa1ee,%r11
    5378:	00 00 00 
    537b:	4c 01 db             	add    %r11,%rbx
    537e:	c7 45 e8 00 00 00 00 	movl   $0x0,-0x18(%rbp)
    5385:	e9 ac 01 00 00       	jmp    0x5536
    538a:	c7 45 ec 00 00 00 00 	movl   $0x0,-0x14(%rbp)
    5391:	e9 92 01 00 00       	jmp    0x5528
    5396:	48 ba 28 dc ff ff ff 	movabs $0xffffffffffffdc28,%rdx
    539d:	ff ff ff 
    53a0:	8b 45 ec             	mov    -0x14(%rbp),%eax
    53a3:	48 63 c8             	movslq %eax,%rcx
    53a6:	8b 45 e8             	mov    -0x18(%rbp),%eax
    53a9:	48 98                	cltq   
    53ab:	48 01 da             	add    %rbx,%rdx
    53ae:	48 c1 e0 04          	shl    $0x4,%rax
    53b2:	48 01 c8             	add    %rcx,%rax
    53b5:	48 01 d0             	add    %rdx,%rax
    53b8:	0f b6 00             	movzbl (%rax),%eax
    53bb:	3c 2a                	cmp    $0x2a,%al
    53bd:	75 5a                	jne    0x5419
    53bf:	8b 4d dc             	mov    -0x24(%rbp),%ecx
    53c2:	b1 00                	mov    $0x0,%cl
    53c4:	b8 00 00 00 00       	mov    $0x0,%eax
    53c9:	88 c5                	mov    %al,%ch
    53cb:	81 e1 ff ff 00 ff    	and    $0xff00ffff,%ecx
    53d1:	89 c8                	mov    %ecx,%eax
    53d3:	25 ff ff ff 00       	and    $0xffffff,%eax
    53d8:	89 45 dc             	mov    %eax,-0x24(%rbp)
    53db:	48 b8 94 0d 00 00 00 	movabs $0xd94,%rax
    53e2:	00 00 00 
    53e5:	8b 14 03             	mov    (%rbx,%rax,1),%edx
    53e8:	8b 45 e8             	mov    -0x18(%rbp),%eax
    53eb:	8d 0c 02             	lea    (%rdx,%rax,1),%ecx
    53ee:	48 b8 90 0d 00 00 00 	movabs $0xd90,%rax
    53f5:	00 00 00 
    53f8:	8b 14 03             	mov    (%rbx,%rax,1),%edx
    53fb:	8b 45 ec             	mov    -0x14(%rbp),%eax
    53fe:	01 d0                	add    %edx,%eax
    5400:	8b 55 dc             	mov    -0x24(%rbp),%edx
    5403:	89 ce                	mov    %ecx,%esi
    5405:	89 c7                	mov    %eax,%edi
    5407:	49 89 df             	mov    %rbx,%r15
    540a:	48 b8 c1 4c ff ff ff 	movabs $0xffffffffffff4cc1,%rax
    5411:	ff ff ff 
    5414:	48 01 d8             	add    %rbx,%rax
    5417:	ff d0                	call   *%rax
    5419:	48 ba 28 dc ff ff ff 	movabs $0xffffffffffffdc28,%rdx
    5420:	ff ff ff 
    5423:	8b 45 ec             	mov    -0x14(%rbp),%eax
    5426:	48 63 c8             	movslq %eax,%rcx
    5429:	8b 45 e8             	mov    -0x18(%rbp),%eax
    542c:	48 98                	cltq   
    542e:	48 01 da             	add    %rbx,%rdx
    5431:	48 c1 e0 04          	shl    $0x4,%rax
    5435:	48 01 c8             	add    %rcx,%rax
    5438:	48 01 d0             	add    %rdx,%rax
    543b:	0f b6 00             	movzbl (%rax),%eax
    543e:	3c 4f                	cmp    $0x4f,%al
    5440:	75 5a                	jne    0x549c
    5442:	8b 4d d8             	mov    -0x28(%rbp),%ecx
    5445:	b1 ff                	mov    $0xff,%cl
    5447:	b8 ff ff ff ff       	mov    $0xffffffff,%eax
    544c:	88 c5                	mov    %al,%ch
    544e:	81 c9 00 00 ff 00    	or     $0xff0000,%ecx
    5454:	89 c8                	mov    %ecx,%eax
    5456:	25 ff ff ff 00       	and    $0xffffff,%eax
    545b:	89 45 d8             	mov    %eax,-0x28(%rbp)
    545e:	48 b8 94 0d 00 00 00 	movabs $0xd94,%rax
    5465:	00 00 00 
    5468:	8b 14 03             	mov    (%rbx,%rax,1),%edx
    546b:	8b 45 e8             	mov    -0x18(%rbp),%eax
    546e:	8d 0c 02             	lea    (%rdx,%rax,1),%ecx
    5471:	48 b8 90 0d 00 00 00 	movabs $0xd90,%rax
    5478:	00 00 00 
    547b:	8b 14 03             	mov    (%rbx,%rax,1),%edx
    547e:	8b 45 ec             	mov    -0x14(%rbp),%eax
    5481:	01 d0                	add    %edx,%eax
    5483:	8b 55 d8             	mov    -0x28(%rbp),%edx
    5486:	89 ce                	mov    %ecx,%esi
    5488:	89 c7                	mov    %eax,%edi
    548a:	49 89 df             	mov    %rbx,%r15
    548d:	48 b8 c1 4c ff ff ff 	movabs $0xffffffffffff4cc1,%rax
    5494:	ff ff ff 
    5497:	48 01 d8             	add    %rbx,%rax
    549a:	ff d0                	call   *%rax
    549c:	48 ba 28 dc ff ff ff 	movabs $0xffffffffffffdc28,%rdx
    54a3:	ff ff ff 
    54a6:	8b 45 ec             	mov    -0x14(%rbp),%eax
    54a9:	48 63 c8             	movslq %eax,%rcx
    54ac:	8b 45 e8             	mov    -0x18(%rbp),%eax
    54af:	48 98                	cltq   
    54b1:	48 01 da             	add    %rbx,%rdx
    54b4:	48 c1 e0 04          	shl    $0x4,%rax
    54b8:	48 01 c8             	add    %rcx,%rax
    54bb:	48 01 d0             	add    %rdx,%rax
    54be:	0f b6 00             	movzbl (%rax),%eax
    54c1:	3c 2e                	cmp    $0x2e,%al
    54c3:	75 5f                	jne    0x5524
    54c5:	8b 4d d4             	mov    -0x2c(%rbp),%ecx
    54c8:	b1 64                	mov    $0x64,%cl
    54ca:	b8 64 00 00 00       	mov    $0x64,%eax
    54cf:	88 c5                	mov    %al,%ch
    54d1:	81 e1 ff ff 00 ff    	and    $0xff00ffff,%ecx
    54d7:	89 c8                	mov    %ecx,%eax
    54d9:	0d 00 00 64 00       	or     $0x640000,%eax
    54de:	25 ff ff ff 00       	and    $0xffffff,%eax
    54e3:	89 45 d4             	mov    %eax,-0x2c(%rbp)
    54e6:	48 b8 94 0d 00 00 00 	movabs $0xd94,%rax
    54ed:	00 00 00 
    54f0:	8b 14 03             	mov    (%rbx,%rax,1),%edx
    54f3:	8b 45 e8             	mov    -0x18(%rbp),%eax
    54f6:	8d 0c 02             	lea    (%rdx,%rax,1),%ecx
    54f9:	48 b8 90 0d 00 00 00 	movabs $0xd90,%rax
    5500:	00 00 00 
    5503:	8b 14 03             	mov    (%rbx,%rax,1),%edx
    5506:	8b 45 ec             	mov    -0x14(%rbp),%eax
    5509:	01 d0                	add    %edx,%eax
    550b:	8b 55 d4             	mov    -0x2c(%rbp),%edx
    550e:	89 ce                	mov    %ecx,%esi
    5510:	89 c7                	mov    %eax,%edi
    5512:	49 89 df             	mov    %rbx,%r15
    5515:	48 b8 c1 4c ff ff ff 	movabs $0xffffffffffff4cc1,%rax
    551c:	ff ff ff 
    551f:	48 01 d8             	add    %rbx,%rax
    5522:	ff d0                	call   *%rax
    5524:	83 45 ec 01          	addl   $0x1,-0x14(%rbp)
    5528:	83 7d ec 0f          	cmpl   $0xf,-0x14(%rbp)
    552c:	0f 8e 64 fe ff ff    	jle    0x5396
    5532:	83 45 e8 01          	addl   $0x1,-0x18(%rbp)
    5536:	83 7d e8 0f          	cmpl   $0xf,-0x18(%rbp)
    553a:	0f 8e 4a fe ff ff    	jle    0x538a
    5540:	90                   	nop
    5541:	48 83 c4 20          	add    $0x20,%rsp
    5545:	5b                   	pop    %rbx
    5546:	41 5f                	pop    %r15
    5548:	5d                   	pop    %rbp
    5549:	c3                   	ret    
    554a:	66 0f 1f 44 00 00    	nopw   0x0(%rax,%rax,1)
    5550:	66 8c d0             	mov    %ss,%ax
    5553:	8e d8                	mov    %eax,%ds
    5555:	8e c0                	mov    %eax,%es
    5557:	8e e0                	mov    %eax,%fs
    5559:	8e d0                	mov    %eax,%ss
    555b:	bc 00 7e 00 00       	mov    $0x7e00,%esp
    5560:	48 c7 c0 00 10 10 00 	mov    $0x101000,%rax
    5567:	0f 22 d8             	mov    %rax,%cr3
    556a:	0f 01 15 97 7d 00 00 	lgdt   0x7d97(%rip)        # 0xd308
    5571:	0f 01 1d 9a 8d 00 00 	lidt   0x8d9a(%rip)        # 0xe312
    5578:	66 b8 10 00          	mov    $0x10,%ax
    557c:	8e d8                	mov    %eax,%ds
    557e:	8e c0                	mov    %eax,%es
    5580:	8e e0                	mov    %eax,%fs
    5582:	8e e8                	mov    %eax,%gs
    5584:	8e d0                	mov    %eax,%ss
    5586:	48 c7 c4 00 7e 00 00 	mov    $0x7e00,%rsp
    558d:	48 c7 c0 00 10 10 00 	mov    $0x101000,%rax
    5594:	0f 22 d8             	mov    %rax,%cr3
    5597:	48 8b 05 05 00 00 00 	mov    0x5(%rip),%rax        # 0x55a3
    559e:	6a 08                	push   $0x8
    55a0:	50                   	push   %rax
    55a1:	48 cb                	lretq  
    55a3:	ab                   	stos   %eax,%es:(%rdi)
    55a4:	55                   	push   %rbp
    55a5:	10 00                	adc    %al,(%rax)
    55a7:	00 80 ff ff 48 c7    	add    %al,-0x38b70001(%rax)
    55ad:	c0 10 00             	rclb   $0x0,(%rax)
    55b0:	00 00                	add    %al,(%rax)
    55b2:	48 8e d8             	mov    %rax,%ds
    55b5:	48 8e c0             	mov    %rax,%es
    55b8:	48 8e e8             	mov    %rax,%gs
    55bb:	48 8e d0             	mov    %rax,%ss
    55be:	48 bc 00 7e 00 00 00 	movabs $0xffff800000007e00,%rsp
    55c5:	80 ff ff 
    55c8:	48 8d 15 ad 00 00 00 	lea    0xad(%rip),%rdx        # 0x567c
    55cf:	48 c7 c0 00 00 08 00 	mov    $0x80000,%rax
    55d6:	66 89 d0             	mov    %dx,%ax
    55d9:	48 b9 00 00 00 00 00 	movabs $0x8e0000000000,%rcx
    55e0:	8e 00 00 
    55e3:	48 01 c8             	add    %rcx,%rax
    55e6:	89 d1                	mov    %edx,%ecx
    55e8:	c1 e9 10             	shr    $0x10,%ecx
    55eb:	48 c1 e1 30          	shl    $0x30,%rcx
    55ef:	48 01 c8             	add    %rcx,%rax
    55f2:	48 c1 ea 20          	shr    $0x20,%rdx
    55f6:	48 8d 3d 15 7d 00 00 	lea    0x7d15(%rip),%rdi        # 0xd312
    55fd:	48 c7 c1 00 01 00 00 	mov    $0x100,%rcx
    5604:	48 89 07             	mov    %rax,(%rdi)
    5607:	48 89 57 08          	mov    %rdx,0x8(%rdi)
    560b:	48 83 c7 10          	add    $0x10,%rdi
    560f:	48 ff c9             	dec    %rcx
    5612:	75 f0                	jne    0x5604
    5614:	48 8d 15 01 8d 00 00 	lea    0x8d01(%rip),%rdx        # 0xe31c
    561b:	48 31 c0             	xor    %rax,%rax
    561e:	48 31 c9             	xor    %rcx,%rcx
    5621:	48 c7 c0 89 00 00 00 	mov    $0x89,%rax
    5628:	48 c1 e0 28          	shl    $0x28,%rax
    562c:	89 d1                	mov    %edx,%ecx
    562e:	c1 e9 18             	shr    $0x18,%ecx
    5631:	48 c1 e1 38          	shl    $0x38,%rcx
    5635:	48 01 c8             	add    %rcx,%rax
    5638:	48 31 c9             	xor    %rcx,%rcx
    563b:	89 d1                	mov    %edx,%ecx
    563d:	81 e1 ff ff ff 00    	and    $0xffffff,%ecx
    5643:	48 c1 e1 10          	shl    $0x10,%rcx
    5647:	48 01 c8             	add    %rcx,%rax
    564a:	48 83 c0 67          	add    $0x67,%rax
    564e:	48 8d 3d 2b 7c 00 00 	lea    0x7c2b(%rip),%rdi        # 0xd280
    5655:	48 89 47 40          	mov    %rax,0x40(%rdi)
    5659:	48 c1 ea 20          	shr    $0x20,%rdx
    565d:	48 89 57 48          	mov    %rdx,0x48(%rdi)
    5661:	66 b8 40 00          	mov    $0x40,%ax
    5665:	0f 00 d8             	ltr    %ax
    5668:	48 8b 05 05 00 00 00 	mov    0x5(%rip),%rax        # 0x5674
    566f:	6a 08                	push   $0x8
    5671:	50                   	push   %rax
    5672:	48 cb                	lretq  
    5674:	00 40 10             	add    %al,0x10(%rax)
    5677:	00 00                	add    %al,(%rax)
    5679:	80 ff ff             	cmp    $0xff,%bh
    567c:	fc                   	cld    
    567d:	50                   	push   %rax
    567e:	53                   	push   %rbx
    567f:	51                   	push   %rcx
    5680:	52                   	push   %rdx
    5681:	55                   	push   %rbp
    5682:	57                   	push   %rdi
    5683:	56                   	push   %rsi
    5684:	41 50                	push   %r8
    5686:	41 51                	push   %r9
    5688:	41 52                	push   %r10
    568a:	41 53                	push   %r11
    568c:	41 54                	push   %r12
    568e:	41 55                	push   %r13
    5690:	41 56                	push   %r14
    5692:	41 57                	push   %r15
    5694:	48 8c c0             	mov    %es,%rax
    5697:	50                   	push   %rax
    5698:	48 8c d8             	mov    %ds,%rax
    569b:	50                   	push   %rax
    569c:	48 c7 c0 10 00 00 00 	mov    $0x10,%rax
    56a3:	48 8e d8             	mov    %rax,%ds
    56a6:	48 8e c0             	mov    %rax,%es
    56a9:	e8 72 3f 00 00       	call   0x9620
    56ae:	eb fe                	jmp    0x56ae
    56b0:	58                   	pop    %rax
    56b1:	48 8e d8             	mov    %rax,%ds
    56b4:	58                   	pop    %rax
    56b5:	48 8e c0             	mov    %rax,%es
    56b8:	41 5f                	pop    %r15
    56ba:	41 5e                	pop    %r14
    56bc:	41 5d                	pop    %r13
    56be:	41 5c                	pop    %r12
    56c0:	41 5b                	pop    %r11
    56c2:	41 5a                	pop    %r10
    56c4:	41 59                	pop    %r9
    56c6:	41 58                	pop    %r8
    56c8:	5e                   	pop    %rsi
    56c9:	5f                   	pop    %rdi
    56ca:	5d                   	pop    %rbp
    56cb:	5a                   	pop    %rdx
    56cc:	59                   	pop    %rcx
    56cd:	5b                   	pop    %rbx
    56ce:	58                   	pop    %rax
    56cf:	48 cf                	iretq  
    56d1:	55                   	push   %rbp
    56d2:	6e                   	outsb  %ds:(%rsi),(%dx)
    56d3:	6b 6e 6f 77          	imul   $0x77,0x6f(%rsi),%ebp
    56d7:	6e                   	outsb  %ds:(%rsi),(%dx)
    56d8:	20 69 6e             	and    %ch,0x6e(%rcx)
    56db:	74 65                	je     0x5742
    56dd:	72 72                	jb     0x5751
    56df:	75 70                	jne    0x5751
    56e1:	74 20                	je     0x5703
    56e3:	6f                   	outsl  %ds:(%rsi),(%dx)
    56e4:	72 20                	jb     0x5706
    56e6:	66 61                	data16 (bad) 
    56e8:	75 6c                	jne    0x5756
    56ea:	74 20                	je     0x570c
    56ec:	61                   	(bad)  
    56ed:	74 20                	je     0x570f
    56ef:	52                   	push   %rdx
    56f0:	49 50                	rex.WB push %r8
    56f2:	0a 00                	or     (%rax),%al
    56f4:	0f 1f 40 00          	nopl   0x0(%rax)
	...
    6550:	07                   	(bad)  
    6551:	20 10                	and    %dl,(%rax)
	...
    6d4f:	00 07                	add    %al,(%rdi)
    6d51:	20 10                	and    %dl,(%rax)
	...
    754f:	00 07                	add    %al,(%rdi)
    7551:	30 10                	xor    %dl,(%rax)
	...
    854f:	00 87 00 00 00 00    	add    %al,0x0(%rdi)
    8555:	00 00                	add    %al,(%rax)
    8557:	00 87 00 20 00 00    	add    %al,0x2000(%rdi)
    855d:	00 00                	add    %al,(%rax)
    855f:	00 87 00 40 00 00    	add    %al,0x4000(%rdi)
    8565:	00 00                	add    %al,(%rax)
    8567:	00 87 00 60 00 00    	add    %al,0x6000(%rdi)
    856d:	00 00                	add    %al,(%rax)
    856f:	00 87 00 80 00 00    	add    %al,0x8000(%rdi)
    8575:	00 00                	add    %al,(%rax)
    8577:	00 87 00 a0 00 00    	add    %al,0xa000(%rdi)
    857d:	00 00                	add    %al,(%rax)
    857f:	00 87 00 c0 00 00    	add    %al,0xc000(%rdi)
    8585:	00 00                	add    %al,(%rax)
    8587:	00 87 00 e0 00 00    	add    %al,0xe000(%rdi)
    858d:	00 00                	add    %al,(%rax)
    858f:	00 87 00 00 01 00    	add    %al,0x10000(%rdi)
    8595:	00 00                	add    %al,(%rax)
    8597:	00 87 00 20 01 00    	add    %al,0x12000(%rdi)
    859d:	00 00                	add    %al,(%rax)
    859f:	00 87 00 40 01 00    	add    %al,0x14000(%rdi)
    85a5:	00 00                	add    %al,(%rax)
    85a7:	00 87 00 60 01 00    	add    %al,0x16000(%rdi)
    85ad:	00 00                	add    %al,(%rax)
    85af:	00 87 00 80 01 00    	add    %al,0x18000(%rdi)
	...
    954d:	00 00                	add    %al,(%rax)
    954f:	00 f3                	add    %dh,%bl
    9551:	0f 1e fa             	nop    %edx
    9554:	55                   	push   %rbp
    9555:	48 89 e5             	mov    %rsp,%rbp
    9558:	48 8d 05 f9 ff ff ff 	lea    -0x7(%rip),%rax        # 0x9558
    955f:	49 bb 00 60 00 00 00 	movabs $0x6000,%r11
    9566:	00 00 00 
    9569:	4c 01 d8             	add    %r11,%rax
    956c:	90                   	nop
    956d:	5d                   	pop    %rbp
    956e:	c3                   	ret    
    956f:	f3 0f 1e fa          	endbr64 
    9573:	55                   	push   %rbp
    9574:	48 89 e5             	mov    %rsp,%rbp
    9577:	48 8d 05 f9 ff ff ff 	lea    -0x7(%rip),%rax        # 0x9577
    957e:	49 bb e1 5f 00 00 00 	movabs $0x5fe1,%r11
    9585:	00 00 00 
    9588:	4c 01 d8             	add    %r11,%rax
    958b:	48 89 75 e0          	mov    %rsi,-0x20(%rbp)
    958f:	89 fe                	mov    %edi,%esi
    9591:	40 88 75 ec          	mov    %sil,-0x14(%rbp)
    9595:	66 89 55 e8          	mov    %dx,-0x18(%rbp)
    9599:	89 ca                	mov    %ecx,%edx
    959b:	88 55 dc             	mov    %dl,-0x24(%rbp)
    959e:	44 89 c2             	mov    %r8d,%edx
    95a1:	88 55 d8             	mov    %dl,-0x28(%rbp)
    95a4:	0f b6 55 ec          	movzbl -0x14(%rbp),%edx
    95a8:	c1 e2 04             	shl    $0x4,%edx
    95ab:	48 63 ca             	movslq %edx,%rcx
    95ae:	48 ba 88 ff ff ff ff 	movabs $0xffffffffffffff88,%rdx
    95b5:	ff ff ff 
    95b8:	48 8b 04 10          	mov    (%rax,%rdx,1),%rax
    95bc:	48 01 c8             	add    %rcx,%rax
    95bf:	48 89 45 f8          	mov    %rax,-0x8(%rbp)
    95c3:	48 8b 45 f8          	mov    -0x8(%rbp),%rax
    95c7:	48 89 45 f0          	mov    %rax,-0x10(%rbp)
    95cb:	48 8b 45 e0          	mov    -0x20(%rbp),%rax
    95cf:	89 c2                	mov    %eax,%edx
    95d1:	48 8b 45 f0          	mov    -0x10(%rbp),%rax
    95d5:	66 89 10             	mov    %dx,(%rax)
    95d8:	48 8b 45 f0          	mov    -0x10(%rbp),%rax
    95dc:	0f b7 55 e8          	movzwl -0x18(%rbp),%edx
    95e0:	66 89 50 02          	mov    %dx,0x2(%rax)
    95e4:	48 8b 45 f0          	mov    -0x10(%rbp),%rax
    95e8:	0f b6 55 dc          	movzbl -0x24(%rbp),%edx
    95ec:	88 50 04             	mov    %dl,0x4(%rax)
    95ef:	48 8b 45 f0          	mov    -0x10(%rbp),%rax
    95f3:	0f b6 55 d8          	movzbl -0x28(%rbp),%edx
    95f7:	88 50 05             	mov    %dl,0x5(%rax)
    95fa:	48 8b 45 e0          	mov    -0x20(%rbp),%rax
    95fe:	48 c1 e8 10          	shr    $0x10,%rax
    9602:	89 c2                	mov    %eax,%edx
    9604:	48 8b 45 f0          	mov    -0x10(%rbp),%rax
    9608:	66 89 50 06          	mov    %dx,0x6(%rax)
    960c:	48 8b 45 e0          	mov    -0x20(%rbp),%rax
    9610:	48 c1 e8 20          	shr    $0x20,%rax
    9614:	89 c2                	mov    %eax,%edx
    9616:	48 8b 45 f0          	mov    -0x10(%rbp),%rax
    961a:	89 50 08             	mov    %edx,0x8(%rax)
    961d:	90                   	nop
    961e:	5d                   	pop    %rbp
    961f:	c3                   	ret    
    9620:	f3 0f 1e fa          	endbr64 
    9624:	55                   	push   %rbp
    9625:	48 89 e5             	mov    %rsp,%rbp
    9628:	48 8d 05 f9 ff ff ff 	lea    -0x7(%rip),%rax        # 0x9628
    962f:	49 bb 30 5f 00 00 00 	movabs $0x5f30,%r11
    9636:	00 00 00 
    9639:	4c 01 d8             	add    %r11,%rax
    963c:	90                   	nop
    963d:	5d                   	pop    %rbp
    963e:	c3                   	ret    
    963f:	f3 0f 1e fa          	endbr64 
    9643:	55                   	push   %rbp
    9644:	48 89 e5             	mov    %rsp,%rbp
    9647:	48 8d 05 f9 ff ff ff 	lea    -0x7(%rip),%rax        # 0x9647
    964e:	49 bb 11 5f 00 00 00 	movabs $0x5f11,%r11
    9655:	00 00 00 
    9658:	4c 01 d8             	add    %r11,%rax
    965b:	90                   	nop
    965c:	5d                   	pop    %rbp
    965d:	c3                   	ret    
    965e:	f3 0f 1e fa          	endbr64 
    9662:	55                   	push   %rbp
    9663:	48 89 e5             	mov    %rsp,%rbp
    9666:	48 8d 05 f9 ff ff ff 	lea    -0x7(%rip),%rax        # 0x9666
    966d:	49 bb f2 5e 00 00 00 	movabs $0x5ef2,%r11
    9674:	00 00 00 
    9677:	4c 01 d8             	add    %r11,%rax
    967a:	48 89 7d f8          	mov    %rdi,-0x8(%rbp)
    967e:	48 89 75 f0          	mov    %rsi,-0x10(%rbp)
    9682:	48 89 55 e8          	mov    %rdx,-0x18(%rbp)
    9686:	48 89 4d e0          	mov    %rcx,-0x20(%rbp)
    968a:	4c 89 45 d8          	mov    %r8,-0x28(%rbp)
    968e:	4c 89 4d d0          	mov    %r9,-0x30(%rbp)
    9692:	48 ba 98 ff ff ff ff 	movabs $0xffffffffffffff98,%rdx
    9699:	ff ff ff 
    969c:	48 8b 14 10          	mov    (%rax,%rdx,1),%rdx
    96a0:	48 8d 52 04          	lea    0x4(%rdx),%rdx
    96a4:	48 8b 4d f8          	mov    -0x8(%rbp),%rcx
    96a8:	48 89 0a             	mov    %rcx,(%rdx)
    96ab:	48 ba 98 ff ff ff ff 	movabs $0xffffffffffffff98,%rdx
    96b2:	ff ff ff 
    96b5:	48 8b 14 10          	mov    (%rax,%rdx,1),%rdx
    96b9:	48 8d 52 0c          	lea    0xc(%rdx),%rdx
    96bd:	48 8b 4d f0          	mov    -0x10(%rbp),%rcx
    96c1:	48 89 0a             	mov    %rcx,(%rdx)
    96c4:	48 ba 98 ff ff ff ff 	movabs $0xffffffffffffff98,%rdx
    96cb:	ff ff ff 
    96ce:	48 8b 14 10          	mov    (%rax,%rdx,1),%rdx
    96d2:	48 8d 52 14          	lea    0x14(%rdx),%rdx
    96d6:	48 8b 4d e8          	mov    -0x18(%rbp),%rcx
    96da:	48 89 0a             	mov    %rcx,(%rdx)
    96dd:	48 ba 98 ff ff ff ff 	movabs $0xffffffffffffff98,%rdx
    96e4:	ff ff ff 
    96e7:	48 8b 14 10          	mov    (%rax,%rdx,1),%rdx
    96eb:	48 8d 52 24          	lea    0x24(%rdx),%rdx
    96ef:	48 8b 4d e0          	mov    -0x20(%rbp),%rcx
    96f3:	48 89 0a             	mov    %rcx,(%rdx)
    96f6:	48 ba 98 ff ff ff ff 	movabs $0xffffffffffffff98,%rdx
    96fd:	ff ff ff 
    9700:	48 8b 14 10          	mov    (%rax,%rdx,1),%rdx
    9704:	48 8d 52 2c          	lea    0x2c(%rdx),%rdx
    9708:	48 8b 4d d8          	mov    -0x28(%rbp),%rcx
    970c:	48 89 0a             	mov    %rcx,(%rdx)
    970f:	48 ba 98 ff ff ff ff 	movabs $0xffffffffffffff98,%rdx
    9716:	ff ff ff 
    9719:	48 8b 14 10          	mov    (%rax,%rdx,1),%rdx
    971d:	48 8d 52 34          	lea    0x34(%rdx),%rdx
    9721:	48 8b 4d d0          	mov    -0x30(%rbp),%rcx
    9725:	48 89 0a             	mov    %rcx,(%rdx)
    9728:	48 ba 98 ff ff ff ff 	movabs $0xffffffffffffff98,%rdx
    972f:	ff ff ff 
    9732:	48 8b 14 10          	mov    (%rax,%rdx,1),%rdx
    9736:	48 8d 52 3c          	lea    0x3c(%rdx),%rdx
    973a:	48 8b 4d 10          	mov    0x10(%rbp),%rcx
    973e:	48 89 0a             	mov    %rcx,(%rdx)
    9741:	48 ba 98 ff ff ff ff 	movabs $0xffffffffffffff98,%rdx
    9748:	ff ff ff 
    974b:	48 8b 14 10          	mov    (%rax,%rdx,1),%rdx
    974f:	48 8d 52 44          	lea    0x44(%rdx),%rdx
    9753:	48 8b 4d 18          	mov    0x18(%rbp),%rcx
    9757:	48 89 0a             	mov    %rcx,(%rdx)
    975a:	48 ba 98 ff ff ff ff 	movabs $0xffffffffffffff98,%rdx
    9761:	ff ff ff 
    9764:	48 8b 14 10          	mov    (%rax,%rdx,1),%rdx
    9768:	48 8d 52 4c          	lea    0x4c(%rdx),%rdx
    976c:	48 8b 4d 20          	mov    0x20(%rbp),%rcx
    9770:	48 89 0a             	mov    %rcx,(%rdx)
    9773:	48 ba 98 ff ff ff ff 	movabs $0xffffffffffffff98,%rdx
    977a:	ff ff ff 
    977d:	48 8b 04 10          	mov    (%rax,%rdx,1),%rax
    9781:	48 8d 40 54          	lea    0x54(%rax),%rax
    9785:	48 8b 55 28          	mov    0x28(%rbp),%rdx
    9789:	48 89 10             	mov    %rdx,(%rax)
    978c:	90                   	nop
    978d:	5d                   	pop    %rbp
    978e:	c3                   	ret    
    978f:	f3 0f 1e fa          	endbr64 
    9793:	55                   	push   %rbp
    9794:	48 89 e5             	mov    %rsp,%rbp
    9797:	41 57                	push   %r15
    9799:	48 83 ec 28          	sub    $0x28,%rsp
    979d:	4c 8d 15 f9 ff ff ff 	lea    -0x7(%rip),%r10        # 0x979d
    97a4:	49 bb bb 5d 00 00 00 	movabs $0x5dbb,%r11
    97ab:	00 00 00 
    97ae:	4d 01 da             	add    %r11,%r10
    97b1:	48 89 7d d8          	mov    %rdi,-0x28(%rbp)
    97b5:	48 89 75 d0          	mov    %rsi,-0x30(%rbp)
    97b9:	48 c7 45 e8 00 00 00 	movq   $0x0,-0x18(%rbp)
    97c0:	00 
    97c1:	48 8b 55 d8          	mov    -0x28(%rbp),%rdx
    97c5:	48 81 c2 98 00 00 00 	add    $0x98,%rdx
    97cc:	48 89 55 e8          	mov    %rdx,-0x18(%rbp)
    97d0:	48 8b 55 e8          	mov    -0x18(%rbp),%rdx
    97d4:	48 8b 12             	mov    (%rdx),%rdx
    97d7:	b0 00                	mov    $0x0,%al
    97d9:	b9 00 00 00 00       	mov    $0x0,%ecx
    97de:	88 cc                	mov    %cl,%ah
    97e0:	0d 00 00 ff 00       	or     $0xff0000,%eax
    97e5:	25 ff ff ff 00       	and    $0xffffff,%eax
    97ea:	48 8b 75 d8          	mov    -0x28(%rbp),%rsi
    97ee:	48 8b 4d d0          	mov    -0x30(%rbp),%rcx
    97f2:	48 83 ec 08          	sub    $0x8,%rsp
    97f6:	52                   	push   %rdx
    97f7:	49 89 f1             	mov    %rsi,%r9
    97fa:	49 89 c8             	mov    %rcx,%r8
    97fd:	48 ba 18 00 00 00 00 	movabs $0x18,%rdx
    9804:	00 00 00 
    9807:	49 8d 14 12          	lea    (%r10,%rdx,1),%rdx
    980b:	48 89 d1             	mov    %rdx,%rcx
    980e:	89 c2                	mov    %eax,%edx
    9810:	be 00 00 00 00       	mov    $0x0,%esi
    9815:	bf 00 00 00 00       	mov    $0x0,%edi
    981a:	4d 89 d7             	mov    %r10,%r15
    981d:	b8 00 00 00 00       	mov    $0x0,%eax
    9822:	49 bb 1b 53 ff ff ff 	movabs $0xffffffffffff531b,%r11
    9829:	ff ff ff 
    982c:	4d 01 d3             	add    %r10,%r11
    982f:	41 ff d3             	call   *%r11
    9832:	48 83 c4 10          	add    $0x10,%rsp
    9836:	eb fe                	jmp    0x9836
    9838:	f3 0f 1e fa          	endbr64 
    983c:	55                   	push   %rbp
    983d:	48 89 e5             	mov    %rsp,%rbp
    9840:	41 57                	push   %r15
    9842:	48 83 ec 28          	sub    $0x28,%rsp
    9846:	4c 8d 15 f9 ff ff ff 	lea    -0x7(%rip),%r10        # 0x9846
    984d:	49 bb 12 5d 00 00 00 	movabs $0x5d12,%r11
    9854:	00 00 00 
    9857:	4d 01 da             	add    %r11,%r10
    985a:	48 89 7d d8          	mov    %rdi,-0x28(%rbp)
    985e:	48 89 75 d0          	mov    %rsi,-0x30(%rbp)
    9862:	48 c7 45 e8 00 00 00 	movq   $0x0,-0x18(%rbp)
    9869:	00 
    986a:	48 8b 55 d8          	mov    -0x28(%rbp),%rdx
    986e:	48 81 c2 98 00 00 00 	add    $0x98,%rdx
    9875:	48 89 55 e8          	mov    %rdx,-0x18(%rbp)
    9879:	48 8b 55 e8          	mov    -0x18(%rbp),%rdx
    987d:	48 8b 12             	mov    (%rdx),%rdx
    9880:	b0 00                	mov    $0x0,%al
    9882:	b9 00 00 00 00       	mov    $0x0,%ecx
    9887:	88 cc                	mov    %cl,%ah
    9889:	0d 00 00 ff 00       	or     $0xff0000,%eax
    988e:	25 ff ff ff 00       	and    $0xffffff,%eax
    9893:	48 8b 75 d8          	mov    -0x28(%rbp),%rsi
    9897:	48 8b 4d d0          	mov    -0x30(%rbp),%rcx
    989b:	48 83 ec 08          	sub    $0x8,%rsp
    989f:	52                   	push   %rdx
    98a0:	49 89 f1             	mov    %rsi,%r9
    98a3:	49 89 c8             	mov    %rcx,%r8
    98a6:	48 ba 48 00 00 00 00 	movabs $0x48,%rdx
    98ad:	00 00 00 
    98b0:	49 8d 14 12          	lea    (%r10,%rdx,1),%rdx
    98b4:	48 89 d1             	mov    %rdx,%rcx
    98b7:	89 c2                	mov    %eax,%edx
    98b9:	be 00 00 00 00       	mov    $0x0,%esi
    98be:	bf 00 00 00 00       	mov    $0x0,%edi
    98c3:	4d 89 d7             	mov    %r10,%r15
    98c6:	b8 00 00 00 00       	mov    $0x0,%eax
    98cb:	49 bb 1b 53 ff ff ff 	movabs $0xffffffffffff531b,%r11
    98d2:	ff ff ff 
    98d5:	4d 01 d3             	add    %r10,%r11
    98d8:	41 ff d3             	call   *%r11
    98db:	48 83 c4 10          	add    $0x10,%rsp
    98df:	eb fe                	jmp    0x98df
    98e1:	f3 0f 1e fa          	endbr64 
    98e5:	55                   	push   %rbp
    98e6:	48 89 e5             	mov    %rsp,%rbp
    98e9:	41 57                	push   %r15
    98eb:	48 83 ec 28          	sub    $0x28,%rsp
    98ef:	4c 8d 15 f9 ff ff ff 	lea    -0x7(%rip),%r10        # 0x98ef
    98f6:	49 bb 69 5c 00 00 00 	movabs $0x5c69,%r11
    98fd:	00 00 00 
    9900:	4d 01 da             	add    %r11,%r10
    9903:	48 89 7d d8          	mov    %rdi,-0x28(%rbp)
    9907:	48 89 75 d0          	mov    %rsi,-0x30(%rbp)
    990b:	48 c7 45 e8 00 00 00 	movq   $0x0,-0x18(%rbp)
    9912:	00 
    9913:	48 8b 55 d8          	mov    -0x28(%rbp),%rdx
    9917:	48 81 c2 98 00 00 00 	add    $0x98,%rdx
    991e:	48 89 55 e8          	mov    %rdx,-0x18(%rbp)
    9922:	48 8b 55 e8          	mov    -0x18(%rbp),%rdx
    9926:	48 8b 12             	mov    (%rdx),%rdx
    9929:	b0 00                	mov    $0x0,%al
    992b:	b9 00 00 00 00       	mov    $0x0,%ecx
    9930:	88 cc                	mov    %cl,%ah
    9932:	0d 00 00 ff 00       	or     $0xff0000,%eax
    9937:	25 ff ff ff 00       	and    $0xffffff,%eax
    993c:	48 8b 75 d8          	mov    -0x28(%rbp),%rsi
    9940:	48 8b 4d d0          	mov    -0x30(%rbp),%rcx
    9944:	48 83 ec 08          	sub    $0x8,%rsp
    9948:	52                   	push   %rdx
    9949:	49 89 f1             	mov    %rsi,%r9
    994c:	49 89 c8             	mov    %rcx,%r8
    994f:	48 ba 78 00 00 00 00 	movabs $0x78,%rdx
    9956:	00 00 00 
    9959:	49 8d 14 12          	lea    (%r10,%rdx,1),%rdx
    995d:	48 89 d1             	mov    %rdx,%rcx
    9960:	89 c2                	mov    %eax,%edx
    9962:	be 00 00 00 00       	mov    $0x0,%esi
    9967:	bf 00 00 00 00       	mov    $0x0,%edi
    996c:	4d 89 d7             	mov    %r10,%r15
    996f:	b8 00 00 00 00       	mov    $0x0,%eax
    9974:	49 bb 1b 53 ff ff ff 	movabs $0xffffffffffff531b,%r11
    997b:	ff ff ff 
    997e:	4d 01 d3             	add    %r10,%r11
    9981:	41 ff d3             	call   *%r11
    9984:	48 83 c4 10          	add    $0x10,%rsp
    9988:	eb fe                	jmp    0x9988
    998a:	f3 0f 1e fa          	endbr64 
    998e:	55                   	push   %rbp
    998f:	48 89 e5             	mov    %rsp,%rbp
    9992:	41 57                	push   %r15
    9994:	48 83 ec 28          	sub    $0x28,%rsp
    9998:	4c 8d 15 f9 ff ff ff 	lea    -0x7(%rip),%r10        # 0x9998
    999f:	49 bb c0 5b 00 00 00 	movabs $0x5bc0,%r11
    99a6:	00 00 00 
    99a9:	4d 01 da             	add    %r11,%r10
    99ac:	48 89 7d d8          	mov    %rdi,-0x28(%rbp)
    99b0:	48 89 75 d0          	mov    %rsi,-0x30(%rbp)
    99b4:	48 c7 45 e8 00 00 00 	movq   $0x0,-0x18(%rbp)
    99bb:	00 
    99bc:	48 8b 55 d8          	mov    -0x28(%rbp),%rdx
    99c0:	48 81 c2 98 00 00 00 	add    $0x98,%rdx
    99c7:	48 89 55 e8          	mov    %rdx,-0x18(%rbp)
    99cb:	48 8b 55 e8          	mov    -0x18(%rbp),%rdx
    99cf:	48 8b 12             	mov    (%rdx),%rdx
    99d2:	b0 00                	mov    $0x0,%al
    99d4:	b9 00 00 00 00       	mov    $0x0,%ecx
    99d9:	88 cc                	mov    %cl,%ah
    99db:	0d 00 00 ff 00       	or     $0xff0000,%eax
    99e0:	25 ff ff ff 00       	and    $0xffffff,%eax
    99e5:	48 8b 75 d8          	mov    -0x28(%rbp),%rsi
    99e9:	48 8b 4d d0          	mov    -0x30(%rbp),%rcx
    99ed:	48 83 ec 08          	sub    $0x8,%rsp
    99f1:	52                   	push   %rdx
    99f2:	49 89 f1             	mov    %rsi,%r9
    99f5:	49 89 c8             	mov    %rcx,%r8
    99f8:	48 ba a0 00 00 00 00 	movabs $0xa0,%rdx
    99ff:	00 00 00 
    9a02:	49 8d 14 12          	lea    (%r10,%rdx,1),%rdx
    9a06:	48 89 d1             	mov    %rdx,%rcx
    9a09:	89 c2                	mov    %eax,%edx
    9a0b:	be 00 00 00 00       	mov    $0x0,%esi
    9a10:	bf 00 00 00 00       	mov    $0x0,%edi
    9a15:	4d 89 d7             	mov    %r10,%r15
    9a18:	b8 00 00 00 00       	mov    $0x0,%eax
    9a1d:	49 bb 1b 53 ff ff ff 	movabs $0xffffffffffff531b,%r11
    9a24:	ff ff ff 
    9a27:	4d 01 d3             	add    %r10,%r11
    9a2a:	41 ff d3             	call   *%r11
    9a2d:	48 83 c4 10          	add    $0x10,%rsp
    9a31:	eb fe                	jmp    0x9a31
    9a33:	f3 0f 1e fa          	endbr64 
    9a37:	55                   	push   %rbp
    9a38:	48 89 e5             	mov    %rsp,%rbp
    9a3b:	41 57                	push   %r15
    9a3d:	48 83 ec 28          	sub    $0x28,%rsp
    9a41:	4c 8d 15 f9 ff ff ff 	lea    -0x7(%rip),%r10        # 0x9a41
    9a48:	49 bb 17 5b 00 00 00 	movabs $0x5b17,%r11
    9a4f:	00 00 00 
    9a52:	4d 01 da             	add    %r11,%r10
    9a55:	48 89 7d d8          	mov    %rdi,-0x28(%rbp)
    9a59:	48 89 75 d0          	mov    %rsi,-0x30(%rbp)
    9a5d:	48 c7 45 e8 00 00 00 	movq   $0x0,-0x18(%rbp)
    9a64:	00 
    9a65:	48 8b 55 d8          	mov    -0x28(%rbp),%rdx
    9a69:	48 81 c2 98 00 00 00 	add    $0x98,%rdx
    9a70:	48 89 55 e8          	mov    %rdx,-0x18(%rbp)
    9a74:	48 8b 55 e8          	mov    -0x18(%rbp),%rdx
    9a78:	48 8b 12             	mov    (%rdx),%rdx
    9a7b:	b0 00                	mov    $0x0,%al
    9a7d:	b9 00 00 00 00       	mov    $0x0,%ecx
    9a82:	88 cc                	mov    %cl,%ah
    9a84:	0d 00 00 ff 00       	or     $0xff0000,%eax
    9a89:	25 ff ff ff 00       	and    $0xffffff,%eax
    9a8e:	48 8b 75 d8          	mov    -0x28(%rbp),%rsi
    9a92:	48 8b 4d d0          	mov    -0x30(%rbp),%rcx
    9a96:	48 83 ec 08          	sub    $0x8,%rsp
    9a9a:	52                   	push   %rdx
    9a9b:	49 89 f1             	mov    %rsi,%r9
    9a9e:	49 89 c8             	mov    %rcx,%r8
    9aa1:	48 ba c8 00 00 00 00 	movabs $0xc8,%rdx
    9aa8:	00 00 00 
    9aab:	49 8d 14 12          	lea    (%r10,%rdx,1),%rdx
    9aaf:	48 89 d1             	mov    %rdx,%rcx
    9ab2:	89 c2                	mov    %eax,%edx
    9ab4:	be 00 00 00 00       	mov    $0x0,%esi
    9ab9:	bf 00 00 00 00       	mov    $0x0,%edi
    9abe:	4d 89 d7             	mov    %r10,%r15
    9ac1:	b8 00 00 00 00       	mov    $0x0,%eax
    9ac6:	49 bb 1b 53 ff ff ff 	movabs $0xffffffffffff531b,%r11
    9acd:	ff ff ff 
    9ad0:	4d 01 d3             	add    %r10,%r11
    9ad3:	41 ff d3             	call   *%r11
    9ad6:	48 83 c4 10          	add    $0x10,%rsp
    9ada:	eb fe                	jmp    0x9ada
    9adc:	f3 0f 1e fa          	endbr64 
    9ae0:	55                   	push   %rbp
    9ae1:	48 89 e5             	mov    %rsp,%rbp
    9ae4:	41 57                	push   %r15
    9ae6:	48 83 ec 28          	sub    $0x28,%rsp
    9aea:	4c 8d 15 f9 ff ff ff 	lea    -0x7(%rip),%r10        # 0x9aea
    9af1:	49 bb 6e 5a 00 00 00 	movabs $0x5a6e,%r11
    9af8:	00 00 00 
    9afb:	4d 01 da             	add    %r11,%r10
    9afe:	48 89 7d d8          	mov    %rdi,-0x28(%rbp)
    9b02:	48 89 75 d0          	mov    %rsi,-0x30(%rbp)
    9b06:	48 c7 45 e8 00 00 00 	movq   $0x0,-0x18(%rbp)
    9b0d:	00 
    9b0e:	48 8b 55 d8          	mov    -0x28(%rbp),%rdx
    9b12:	48 81 c2 98 00 00 00 	add    $0x98,%rdx
    9b19:	48 89 55 e8          	mov    %rdx,-0x18(%rbp)
    9b1d:	48 8b 55 e8          	mov    -0x18(%rbp),%rdx
    9b21:	48 8b 12             	mov    (%rdx),%rdx
    9b24:	b0 00                	mov    $0x0,%al
    9b26:	b9 00 00 00 00       	mov    $0x0,%ecx
    9b2b:	88 cc                	mov    %cl,%ah
    9b2d:	0d 00 00 ff 00       	or     $0xff0000,%eax
    9b32:	25 ff ff ff 00       	and    $0xffffff,%eax
    9b37:	48 8b 75 d8          	mov    -0x28(%rbp),%rsi
    9b3b:	48 8b 4d d0          	mov    -0x30(%rbp),%rcx
    9b3f:	48 83 ec 08          	sub    $0x8,%rsp
    9b43:	52                   	push   %rdx
    9b44:	49 89 f1             	mov    %rsi,%r9
    9b47:	49 89 c8             	mov    %rcx,%r8
    9b4a:	48 ba f8 00 00 00 00 	movabs $0xf8,%rdx
    9b51:	00 00 00 
    9b54:	49 8d 14 12          	lea    (%r10,%rdx,1),%rdx
    9b58:	48 89 d1             	mov    %rdx,%rcx
    9b5b:	89 c2                	mov    %eax,%edx
    9b5d:	be 00 00 00 00       	mov    $0x0,%esi
    9b62:	bf 00 00 00 00       	mov    $0x0,%edi
    9b67:	4d 89 d7             	mov    %r10,%r15
    9b6a:	b8 00 00 00 00       	mov    $0x0,%eax
    9b6f:	49 bb 1b 53 ff ff ff 	movabs $0xffffffffffff531b,%r11
    9b76:	ff ff ff 
    9b79:	4d 01 d3             	add    %r10,%r11
    9b7c:	41 ff d3             	call   *%r11
    9b7f:	48 83 c4 10          	add    $0x10,%rsp
    9b83:	eb fe                	jmp    0x9b83
    9b85:	f3 0f 1e fa          	endbr64 
    9b89:	55                   	push   %rbp
    9b8a:	48 89 e5             	mov    %rsp,%rbp
    9b8d:	41 57                	push   %r15
    9b8f:	48 83 ec 28          	sub    $0x28,%rsp
    9b93:	4c 8d 15 f9 ff ff ff 	lea    -0x7(%rip),%r10        # 0x9b93
    9b9a:	49 bb c5 59 00 00 00 	movabs $0x59c5,%r11
    9ba1:	00 00 00 
    9ba4:	4d 01 da             	add    %r11,%r10
    9ba7:	48 89 7d d8          	mov    %rdi,-0x28(%rbp)
    9bab:	48 89 75 d0          	mov    %rsi,-0x30(%rbp)
    9baf:	48 c7 45 e8 00 00 00 	movq   $0x0,-0x18(%rbp)
    9bb6:	00 
    9bb7:	48 8b 55 d8          	mov    -0x28(%rbp),%rdx
    9bbb:	48 81 c2 98 00 00 00 	add    $0x98,%rdx
    9bc2:	48 89 55 e8          	mov    %rdx,-0x18(%rbp)
    9bc6:	48 8b 55 e8          	mov    -0x18(%rbp),%rdx
    9bca:	48 8b 12             	mov    (%rdx),%rdx
    9bcd:	b0 00                	mov    $0x0,%al
    9bcf:	b9 00 00 00 00       	mov    $0x0,%ecx
    9bd4:	88 cc                	mov    %cl,%ah
    9bd6:	0d 00 00 ff 00       	or     $0xff0000,%eax
    9bdb:	25 ff ff ff 00       	and    $0xffffff,%eax
    9be0:	48 8b 75 d8          	mov    -0x28(%rbp),%rsi
    9be4:	48 8b 4d d0          	mov    -0x30(%rbp),%rcx
    9be8:	48 83 ec 08          	sub    $0x8,%rsp
    9bec:	52                   	push   %rdx
    9bed:	49 89 f1             	mov    %rsi,%r9
    9bf0:	49 89 c8             	mov    %rcx,%r8
    9bf3:	48 ba 28 01 00 00 00 	movabs $0x128,%rdx
    9bfa:	00 00 00 
    9bfd:	49 8d 14 12          	lea    (%r10,%rdx,1),%rdx
    9c01:	48 89 d1             	mov    %rdx,%rcx
    9c04:	89 c2                	mov    %eax,%edx
    9c06:	be 00 00 00 00       	mov    $0x0,%esi
    9c0b:	bf 00 00 00 00       	mov    $0x0,%edi
    9c10:	4d 89 d7             	mov    %r10,%r15
    9c13:	b8 00 00 00 00       	mov    $0x0,%eax
    9c18:	49 bb 1b 53 ff ff ff 	movabs $0xffffffffffff531b,%r11
    9c1f:	ff ff ff 
    9c22:	4d 01 d3             	add    %r10,%r11
    9c25:	41 ff d3             	call   *%r11
    9c28:	48 83 c4 10          	add    $0x10,%rsp
    9c2c:	eb fe                	jmp    0x9c2c
    9c2e:	f3 0f 1e fa          	endbr64 
    9c32:	55                   	push   %rbp
    9c33:	48 89 e5             	mov    %rsp,%rbp
    9c36:	41 57                	push   %r15
    9c38:	48 83 ec 28          	sub    $0x28,%rsp
    9c3c:	4c 8d 15 f9 ff ff ff 	lea    -0x7(%rip),%r10        # 0x9c3c
    9c43:	49 bb 1c 59 00 00 00 	movabs $0x591c,%r11
    9c4a:	00 00 00 
    9c4d:	4d 01 da             	add    %r11,%r10
    9c50:	48 89 7d d8          	mov    %rdi,-0x28(%rbp)
    9c54:	48 89 75 d0          	mov    %rsi,-0x30(%rbp)
    9c58:	48 c7 45 e8 00 00 00 	movq   $0x0,-0x18(%rbp)
    9c5f:	00 
    9c60:	48 8b 55 d8          	mov    -0x28(%rbp),%rdx
    9c64:	48 81 c2 98 00 00 00 	add    $0x98,%rdx
    9c6b:	48 89 55 e8          	mov    %rdx,-0x18(%rbp)
    9c6f:	48 8b 55 e8          	mov    -0x18(%rbp),%rdx
    9c73:	48 8b 12             	mov    (%rdx),%rdx
    9c76:	b0 00                	mov    $0x0,%al
    9c78:	b9 00 00 00 00       	mov    $0x0,%ecx
    9c7d:	88 cc                	mov    %cl,%ah
    9c7f:	0d 00 00 ff 00       	or     $0xff0000,%eax
    9c84:	25 ff ff ff 00       	and    $0xffffff,%eax
    9c89:	48 8b 75 d8          	mov    -0x28(%rbp),%rsi
    9c8d:	48 8b 4d d0          	mov    -0x30(%rbp),%rcx
    9c91:	48 83 ec 08          	sub    $0x8,%rsp
    9c95:	52                   	push   %rdx
    9c96:	49 89 f1             	mov    %rsi,%r9
    9c99:	49 89 c8             	mov    %rcx,%r8
    9c9c:	48 ba 60 01 00 00 00 	movabs $0x160,%rdx
    9ca3:	00 00 00 
    9ca6:	49 8d 14 12          	lea    (%r10,%rdx,1),%rdx
    9caa:	48 89 d1             	mov    %rdx,%rcx
    9cad:	89 c2                	mov    %eax,%edx
    9caf:	be 00 00 00 00       	mov    $0x0,%esi
    9cb4:	bf 00 00 00 00       	mov    $0x0,%edi
    9cb9:	4d 89 d7             	mov    %r10,%r15
    9cbc:	b8 00 00 00 00       	mov    $0x0,%eax
    9cc1:	49 bb 1b 53 ff ff ff 	movabs $0xffffffffffff531b,%r11
    9cc8:	ff ff ff 
    9ccb:	4d 01 d3             	add    %r10,%r11
    9cce:	41 ff d3             	call   *%r11
    9cd1:	48 83 c4 10          	add    $0x10,%rsp
    9cd5:	eb fe                	jmp    0x9cd5
    9cd7:	f3 0f 1e fa          	endbr64 
    9cdb:	55                   	push   %rbp
    9cdc:	48 89 e5             	mov    %rsp,%rbp
    9cdf:	41 57                	push   %r15
    9ce1:	48 83 ec 28          	sub    $0x28,%rsp
    9ce5:	4c 8d 15 f9 ff ff ff 	lea    -0x7(%rip),%r10        # 0x9ce5
    9cec:	49 bb 73 58 00 00 00 	movabs $0x5873,%r11
    9cf3:	00 00 00 
    9cf6:	4d 01 da             	add    %r11,%r10
    9cf9:	48 89 7d d8          	mov    %rdi,-0x28(%rbp)
    9cfd:	48 89 75 d0          	mov    %rsi,-0x30(%rbp)
    9d01:	48 c7 45 e8 00 00 00 	movq   $0x0,-0x18(%rbp)
    9d08:	00 
    9d09:	48 8b 55 d8          	mov    -0x28(%rbp),%rdx
    9d0d:	48 81 c2 98 00 00 00 	add    $0x98,%rdx
    9d14:	48 89 55 e8          	mov    %rdx,-0x18(%rbp)
    9d18:	48 8b 55 e8          	mov    -0x18(%rbp),%rdx
    9d1c:	48 8b 12             	mov    (%rdx),%rdx
    9d1f:	b0 00                	mov    $0x0,%al
    9d21:	b9 00 00 00 00       	mov    $0x0,%ecx
    9d26:	88 cc                	mov    %cl,%ah
    9d28:	0d 00 00 ff 00       	or     $0xff0000,%eax
    9d2d:	25 ff ff ff 00       	and    $0xffffff,%eax
    9d32:	48 8b 75 d8          	mov    -0x28(%rbp),%rsi
    9d36:	48 8b 4d d0          	mov    -0x30(%rbp),%rcx
    9d3a:	48 83 ec 08          	sub    $0x8,%rsp
    9d3e:	52                   	push   %rdx
    9d3f:	49 89 f1             	mov    %rsi,%r9
    9d42:	49 89 c8             	mov    %rcx,%r8
    9d45:	48 ba 98 01 00 00 00 	movabs $0x198,%rdx
    9d4c:	00 00 00 
    9d4f:	49 8d 14 12          	lea    (%r10,%rdx,1),%rdx
    9d53:	48 89 d1             	mov    %rdx,%rcx
    9d56:	89 c2                	mov    %eax,%edx
    9d58:	be 00 00 00 00       	mov    $0x0,%esi
    9d5d:	bf 00 00 00 00       	mov    $0x0,%edi
    9d62:	4d 89 d7             	mov    %r10,%r15
    9d65:	b8 00 00 00 00       	mov    $0x0,%eax
    9d6a:	49 bb 1b 53 ff ff ff 	movabs $0xffffffffffff531b,%r11
    9d71:	ff ff ff 
    9d74:	4d 01 d3             	add    %r10,%r11
    9d77:	41 ff d3             	call   *%r11
    9d7a:	48 83 c4 10          	add    $0x10,%rsp
    9d7e:	eb fe                	jmp    0x9d7e
    9d80:	f3 0f 1e fa          	endbr64 
    9d84:	55                   	push   %rbp
    9d85:	48 89 e5             	mov    %rsp,%rbp
    9d88:	41 57                	push   %r15
    9d8a:	48 83 ec 28          	sub    $0x28,%rsp
    9d8e:	4c 8d 15 f9 ff ff ff 	lea    -0x7(%rip),%r10        # 0x9d8e
    9d95:	49 bb ca 57 00 00 00 	movabs $0x57ca,%r11
    9d9c:	00 00 00 
    9d9f:	4d 01 da             	add    %r11,%r10
    9da2:	48 89 7d d8          	mov    %rdi,-0x28(%rbp)
    9da6:	48 89 75 d0          	mov    %rsi,-0x30(%rbp)
    9daa:	48 c7 45 e8 00 00 00 	movq   $0x0,-0x18(%rbp)
    9db1:	00 
    9db2:	48 8b 55 d8          	mov    -0x28(%rbp),%rdx
    9db6:	48 81 c2 98 00 00 00 	add    $0x98,%rdx
    9dbd:	48 89 55 e8          	mov    %rdx,-0x18(%rbp)
    9dc1:	48 8b 55 e8          	mov    -0x18(%rbp),%rdx
    9dc5:	48 8b 12             	mov    (%rdx),%rdx
    9dc8:	b0 00                	mov    $0x0,%al
    9dca:	b9 00 00 00 00       	mov    $0x0,%ecx
    9dcf:	88 cc                	mov    %cl,%ah
    9dd1:	0d 00 00 ff 00       	or     $0xff0000,%eax
    9dd6:	25 ff ff ff 00       	and    $0xffffff,%eax
    9ddb:	48 8b 75 d8          	mov    -0x28(%rbp),%rsi
    9ddf:	48 8b 4d d0          	mov    -0x30(%rbp),%rcx
    9de3:	48 83 ec 08          	sub    $0x8,%rsp
    9de7:	52                   	push   %rdx
    9de8:	49 89 f1             	mov    %rsi,%r9
    9deb:	49 89 c8             	mov    %rcx,%r8
    9dee:	48 ba c8 01 00 00 00 	movabs $0x1c8,%rdx
    9df5:	00 00 00 
    9df8:	49 8d 14 12          	lea    (%r10,%rdx,1),%rdx
    9dfc:	48 89 d1             	mov    %rdx,%rcx
    9dff:	89 c2                	mov    %eax,%edx
    9e01:	be 00 00 00 00       	mov    $0x0,%esi
    9e06:	bf 00 00 00 00       	mov    $0x0,%edi
    9e0b:	4d 89 d7             	mov    %r10,%r15
    9e0e:	b8 00 00 00 00       	mov    $0x0,%eax
    9e13:	49 bb 1b 53 ff ff ff 	movabs $0xffffffffffff531b,%r11
    9e1a:	ff ff ff 
    9e1d:	4d 01 d3             	add    %r10,%r11
    9e20:	41 ff d3             	call   *%r11
    9e23:	48 83 c4 10          	add    $0x10,%rsp
    9e27:	eb fe                	jmp    0x9e27
    9e29:	f3 0f 1e fa          	endbr64 
    9e2d:	55                   	push   %rbp
    9e2e:	48 89 e5             	mov    %rsp,%rbp
    9e31:	41 57                	push   %r15
    9e33:	41 56                	push   %r14
    9e35:	41 55                	push   %r13
    9e37:	41 54                	push   %r12
    9e39:	53                   	push   %rbx
    9e3a:	48 83 ec 38          	sub    $0x38,%rsp
    9e3e:	48 8d 1d f9 ff ff ff 	lea    -0x7(%rip),%rbx        # 0x9e3e
    9e45:	49 bb 1a 57 00 00 00 	movabs $0x571a,%r11
    9e4c:	00 00 00 
    9e4f:	4c 01 db             	add    %r11,%rbx
    9e52:	48 89 7d b8          	mov    %rdi,-0x48(%rbp)
    9e56:	48 89 75 b0          	mov    %rsi,-0x50(%rbp)
    9e5a:	48 c7 45 c8 00 00 00 	movq   $0x0,-0x38(%rbp)
    9e61:	00 
    9e62:	48 8b 55 b8          	mov    -0x48(%rbp),%rdx
    9e66:	48 81 c2 98 00 00 00 	add    $0x98,%rdx
    9e6d:	48 89 55 c8          	mov    %rdx,-0x38(%rbp)
    9e71:	48 8b 55 c8          	mov    -0x38(%rbp),%rdx
    9e75:	48 8b 12             	mov    (%rdx),%rdx
    9e78:	b0 00                	mov    $0x0,%al
    9e7a:	b9 00 00 00 00       	mov    $0x0,%ecx
    9e7f:	88 cc                	mov    %cl,%ah
    9e81:	0d 00 00 ff 00       	or     $0xff0000,%eax
    9e86:	25 ff ff ff 00       	and    $0xffffff,%eax
    9e8b:	48 8b 75 b8          	mov    -0x48(%rbp),%rsi
    9e8f:	48 8b 4d b0          	mov    -0x50(%rbp),%rcx
    9e93:	48 83 ec 08          	sub    $0x8,%rsp
    9e97:	52                   	push   %rdx
    9e98:	49 89 f1             	mov    %rsi,%r9
    9e9b:	49 89 c8             	mov    %rcx,%r8
    9e9e:	48 ba 08 02 00 00 00 	movabs $0x208,%rdx
    9ea5:	00 00 00 
    9ea8:	48 8d 14 13          	lea    (%rbx,%rdx,1),%rdx
    9eac:	48 89 d1             	mov    %rdx,%rcx
    9eaf:	89 c2                	mov    %eax,%edx
    9eb1:	be 00 00 00 00       	mov    $0x0,%esi
    9eb6:	bf 00 00 00 00       	mov    $0x0,%edi
    9ebb:	49 89 df             	mov    %rbx,%r15
    9ebe:	b8 00 00 00 00       	mov    $0x0,%eax
    9ec3:	49 ba 1b 53 ff ff ff 	movabs $0xffffffffffff531b,%r10
    9eca:	ff ff ff 
    9ecd:	49 01 da             	add    %rbx,%r10
    9ed0:	41 ff d2             	call   *%r10
    9ed3:	48 83 c4 10          	add    $0x10,%rsp
    9ed7:	48 8b 45 b0          	mov    -0x50(%rbp),%rax
    9edb:	83 e0 01             	and    $0x1,%eax
    9ede:	48 85 c0             	test   %rax,%rax
    9ee1:	74 4e                	je     0x9f31
    9ee3:	8b 4d ac             	mov    -0x54(%rbp),%ecx
    9ee6:	b1 00                	mov    $0x0,%cl
    9ee8:	b8 00 00 00 00       	mov    $0x0,%eax
    9eed:	88 c5                	mov    %al,%ch
    9eef:	81 c9 00 00 ff 00    	or     $0xff0000,%ecx
    9ef5:	89 c8                	mov    %ecx,%eax
    9ef7:	25 ff ff ff 00       	and    $0xffffff,%eax
    9efc:	89 c2                	mov    %eax,%edx
    9efe:	48 b8 38 02 00 00 00 	movabs $0x238,%rax
    9f05:	00 00 00 
    9f08:	48 8d 04 03          	lea    (%rbx,%rax,1),%rax
    9f0c:	48 89 c1             	mov    %rax,%rcx
    9f0f:	be 10 00 00 00       	mov    $0x10,%esi
    9f14:	bf 00 00 00 00       	mov    $0x0,%edi
    9f19:	49 89 df             	mov    %rbx,%r15
    9f1c:	b8 00 00 00 00       	mov    $0x0,%eax
    9f21:	49 b8 1b 53 ff ff ff 	movabs $0xffffffffffff531b,%r8
    9f28:	ff ff ff 
    9f2b:	49 01 d8             	add    %rbx,%r8
    9f2e:	41 ff d0             	call   *%r8
    9f31:	48 8b 45 b0          	mov    -0x50(%rbp),%rax
    9f35:	83 e0 02             	and    $0x2,%eax
    9f38:	48 85 c0             	test   %rax,%rax
    9f3b:	74 50                	je     0x9f8d
    9f3d:	8b 4d a8             	mov    -0x58(%rbp),%ecx
    9f40:	b1 00                	mov    $0x0,%cl
    9f42:	b8 00 00 00 00       	mov    $0x0,%eax
    9f47:	88 c5                	mov    %al,%ch
    9f49:	81 c9 00 00 ff 00    	or     $0xff0000,%ecx
    9f4f:	89 c8                	mov    %ecx,%eax
    9f51:	25 ff ff ff 00       	and    $0xffffff,%eax
    9f56:	89 c2                	mov    %eax,%edx
    9f58:	48 b8 b8 02 00 00 00 	movabs $0x2b8,%rax
    9f5f:	00 00 00 
    9f62:	48 8d 04 03          	lea    (%rbx,%rax,1),%rax
    9f66:	48 89 c1             	mov    %rax,%rcx
    9f69:	be 10 00 00 00       	mov    $0x10,%esi
    9f6e:	bf 00 00 00 00       	mov    $0x0,%edi
    9f73:	49 89 df             	mov    %rbx,%r15
    9f76:	b8 00 00 00 00       	mov    $0x0,%eax
    9f7b:	49 b8 1b 53 ff ff ff 	movabs $0xffffffffffff531b,%r8
    9f82:	ff ff ff 
    9f85:	49 01 d8             	add    %rbx,%r8
    9f88:	41 ff d0             	call   *%r8
    9f8b:	eb 4e                	jmp    0x9fdb
    9f8d:	8b 55 a4             	mov    -0x5c(%rbp),%edx
    9f90:	b2 00                	mov    $0x0,%dl
    9f92:	b8 00 00 00 00       	mov    $0x0,%eax
    9f97:	88 c6                	mov    %al,%dh
    9f99:	81 ca 00 00 ff 00    	or     $0xff0000,%edx
    9f9f:	89 d0                	mov    %edx,%eax
    9fa1:	25 ff ff ff 00       	and    $0xffffff,%eax
    9fa6:	89 c2                	mov    %eax,%edx
    9fa8:	48 b8 e8 02 00 00 00 	movabs $0x2e8,%rax
    9faf:	00 00 00 
    9fb2:	48 8d 04 03          	lea    (%rbx,%rax,1),%rax
    9fb6:	48 89 c1             	mov    %rax,%rcx
    9fb9:	be 10 00 00 00       	mov    $0x10,%esi
    9fbe:	bf 00 00 00 00       	mov    $0x0,%edi
    9fc3:	49 89 df             	mov    %rbx,%r15
    9fc6:	b8 00 00 00 00       	mov    $0x0,%eax
    9fcb:	49 b8 1b 53 ff ff ff 	movabs $0xffffffffffff531b,%r8
    9fd2:	ff ff ff 
    9fd5:	49 01 d8             	add    %rbx,%r8
    9fd8:	41 ff d0             	call   *%r8
    9fdb:	48 8b 45 b0          	mov    -0x50(%rbp),%rax
    9fdf:	83 e0 02             	and    $0x2,%eax
    9fe2:	48 85 c0             	test   %rax,%rax
    9fe5:	0f 85 c6 00 00 00    	jne    0xa0b1
    9feb:	48 8b 45 b0          	mov    -0x50(%rbp),%rax
    9fef:	83 e0 04             	and    $0x4,%eax
    9ff2:	48 85 c0             	test   %rax,%rax
    9ff5:	74 5e                	je     0xa055
    9ff7:	41 b6 00             	mov    $0x0,%r14b
    9ffa:	b8 00 00 00 00       	mov    $0x0,%eax
    9fff:	44 89 f1             	mov    %r14d,%ecx
    a002:	88 c5                	mov    %al,%ch
    a004:	41 89 ce             	mov    %ecx,%r14d
    a007:	44 89 f0             	mov    %r14d,%eax
    a00a:	0d 00 00 ff 00       	or     $0xff0000,%eax
    a00f:	41 89 c6             	mov    %eax,%r14d
    a012:	44 89 f0             	mov    %r14d,%eax
    a015:	25 ff ff ff 00       	and    $0xffffff,%eax
    a01a:	41 89 c6             	mov    %eax,%r14d
    a01d:	48 b8 20 03 00 00 00 	movabs $0x320,%rax
    a024:	00 00 00 
    a027:	48 8d 04 03          	lea    (%rbx,%rax,1),%rax
    a02b:	48 89 c1             	mov    %rax,%rcx
    a02e:	44 89 f2             	mov    %r14d,%edx
    a031:	be 10 00 00 00       	mov    $0x10,%esi
    a036:	bf 00 00 00 00       	mov    $0x0,%edi
    a03b:	49 89 df             	mov    %rbx,%r15
    a03e:	b8 00 00 00 00       	mov    $0x0,%eax
    a043:	49 b8 1b 53 ff ff ff 	movabs $0xffffffffffff531b,%r8
    a04a:	ff ff ff 
    a04d:	49 01 d8             	add    %rbx,%r8
    a050:	41 ff d0             	call   *%r8
    a053:	eb 5c                	jmp    0xa0b1
    a055:	41 b5 00             	mov    $0x0,%r13b
    a058:	b8 00 00 00 00       	mov    $0x0,%eax
    a05d:	44 89 e9             	mov    %r13d,%ecx
    a060:	88 c5                	mov    %al,%ch
    a062:	41 89 cd             	mov    %ecx,%r13d
    a065:	44 89 e8             	mov    %r13d,%eax
    a068:	0d 00 00 ff 00       	or     $0xff0000,%eax
    a06d:	41 89 c5             	mov    %eax,%r13d
    a070:	44 89 e8             	mov    %r13d,%eax
    a073:	25 ff ff ff 00       	and    $0xffffff,%eax
    a078:	41 89 c5             	mov    %eax,%r13d
    a07b:	48 b8 58 03 00 00 00 	movabs $0x358,%rax
    a082:	00 00 00 
    a085:	48 8d 04 03          	lea    (%rbx,%rax,1),%rax
    a089:	48 89 c1             	mov    %rax,%rcx
    a08c:	44 89 ea             	mov    %r13d,%edx
    a08f:	be 10 00 00 00       	mov    $0x10,%esi
    a094:	bf 00 00 00 00       	mov    $0x0,%edi
    a099:	49 89 df             	mov    %rbx,%r15
    a09c:	b8 00 00 00 00       	mov    $0x0,%eax
    a0a1:	49 b8 1b 53 ff ff ff 	movabs $0xffffffffffff531b,%r8
    a0a8:	ff ff ff 
    a0ab:	49 01 d8             	add    %rbx,%r8
    a0ae:	41 ff d0             	call   *%r8
    a0b1:	48 8b 45 b0          	mov    -0x50(%rbp),%rax
    a0b5:	25 f8 ff 00 00       	and    $0xfff8,%eax
    a0ba:	48 89 c2             	mov    %rax,%rdx
    a0bd:	41 b4 00             	mov    $0x0,%r12b
    a0c0:	b8 00 00 00 00       	mov    $0x0,%eax
    a0c5:	44 89 e1             	mov    %r12d,%ecx
    a0c8:	88 c5                	mov    %al,%ch
    a0ca:	41 89 cc             	mov    %ecx,%r12d
    a0cd:	44 89 e0             	mov    %r12d,%eax
    a0d0:	0d 00 00 ff 00       	or     $0xff0000,%eax
    a0d5:	41 89 c4             	mov    %eax,%r12d
    a0d8:	44 89 e0             	mov    %r12d,%eax
    a0db:	25 ff ff ff 00       	and    $0xffffff,%eax
    a0e0:	41 89 c4             	mov    %eax,%r12d
    a0e3:	49 89 d0             	mov    %rdx,%r8
    a0e6:	48 b8 84 03 00 00 00 	movabs $0x384,%rax
    a0ed:	00 00 00 
    a0f0:	48 8d 04 03          	lea    (%rbx,%rax,1),%rax
    a0f4:	48 89 c1             	mov    %rax,%rcx
    a0f7:	44 89 e2             	mov    %r12d,%edx
    a0fa:	be 20 00 00 00       	mov    $0x20,%esi
    a0ff:	bf 00 00 00 00       	mov    $0x0,%edi
    a104:	49 89 df             	mov    %rbx,%r15
    a107:	b8 00 00 00 00       	mov    $0x0,%eax
    a10c:	49 b9 1b 53 ff ff ff 	movabs $0xffffffffffff531b,%r9
    a113:	ff ff ff 
    a116:	49 01 d9             	add    %rbx,%r9
    a119:	41 ff d1             	call   *%r9
    a11c:	eb fe                	jmp    0xa11c
    a11e:	f3 0f 1e fa          	endbr64 
    a122:	55                   	push   %rbp
    a123:	48 89 e5             	mov    %rsp,%rbp
    a126:	41 57                	push   %r15
    a128:	41 56                	push   %r14
    a12a:	41 55                	push   %r13
    a12c:	41 54                	push   %r12
    a12e:	53                   	push   %rbx
    a12f:	48 83 ec 38          	sub    $0x38,%rsp
    a133:	48 8d 1d f9 ff ff ff 	lea    -0x7(%rip),%rbx        # 0xa133
    a13a:	49 bb 25 54 00 00 00 	movabs $0x5425,%r11
    a141:	00 00 00 
    a144:	4c 01 db             	add    %r11,%rbx
    a147:	48 89 7d b8          	mov    %rdi,-0x48(%rbp)
    a14b:	48 89 75 b0          	mov    %rsi,-0x50(%rbp)
    a14f:	48 c7 45 c8 00 00 00 	movq   $0x0,-0x38(%rbp)
    a156:	00 
    a157:	48 8b 55 b8          	mov    -0x48(%rbp),%rdx
    a15b:	48 81 c2 98 00 00 00 	add    $0x98,%rdx
    a162:	48 89 55 c8          	mov    %rdx,-0x38(%rbp)
    a166:	48 8b 55 c8          	mov    -0x38(%rbp),%rdx
    a16a:	48 8b 12             	mov    (%rdx),%rdx
    a16d:	b0 00                	mov    $0x0,%al
    a16f:	b9 00 00 00 00       	mov    $0x0,%ecx
    a174:	88 cc                	mov    %cl,%ah
    a176:	0d 00 00 ff 00       	or     $0xff0000,%eax
    a17b:	25 ff ff ff 00       	and    $0xffffff,%eax
    a180:	48 8b 75 b8          	mov    -0x48(%rbp),%rsi
    a184:	48 8b 4d b0          	mov    -0x50(%rbp),%rcx
    a188:	48 83 ec 08          	sub    $0x8,%rsp
    a18c:	52                   	push   %rdx
    a18d:	49 89 f1             	mov    %rsi,%r9
    a190:	49 89 c8             	mov    %rcx,%r8
    a193:	48 ba a0 03 00 00 00 	movabs $0x3a0,%rdx
    a19a:	00 00 00 
    a19d:	48 8d 14 13          	lea    (%rbx,%rdx,1),%rdx
    a1a1:	48 89 d1             	mov    %rdx,%rcx
    a1a4:	89 c2                	mov    %eax,%edx
    a1a6:	be 00 00 00 00       	mov    $0x0,%esi
    a1ab:	bf 00 00 00 00       	mov    $0x0,%edi
    a1b0:	49 89 df             	mov    %rbx,%r15
    a1b3:	b8 00 00 00 00       	mov    $0x0,%eax
    a1b8:	49 ba 1b 53 ff ff ff 	movabs $0xffffffffffff531b,%r10
    a1bf:	ff ff ff 
    a1c2:	49 01 da             	add    %rbx,%r10
    a1c5:	41 ff d2             	call   *%r10
    a1c8:	48 83 c4 10          	add    $0x10,%rsp
    a1cc:	48 8b 45 b0          	mov    -0x50(%rbp),%rax
    a1d0:	83 e0 01             	and    $0x1,%eax
    a1d3:	48 85 c0             	test   %rax,%rax
    a1d6:	74 4e                	je     0xa226
    a1d8:	8b 4d ac             	mov    -0x54(%rbp),%ecx
    a1db:	b1 00                	mov    $0x0,%cl
    a1dd:	b8 00 00 00 00       	mov    $0x0,%eax
    a1e2:	88 c5                	mov    %al,%ch
    a1e4:	81 c9 00 00 ff 00    	or     $0xff0000,%ecx
    a1ea:	89 c8                	mov    %ecx,%eax
    a1ec:	25 ff ff ff 00       	and    $0xffffff,%eax
    a1f1:	89 c2                	mov    %eax,%edx
    a1f3:	48 b8 38 02 00 00 00 	movabs $0x238,%rax
    a1fa:	00 00 00 
    a1fd:	48 8d 04 03          	lea    (%rbx,%rax,1),%rax
    a201:	48 89 c1             	mov    %rax,%rcx
    a204:	be 10 00 00 00       	mov    $0x10,%esi
    a209:	bf 00 00 00 00       	mov    $0x0,%edi
    a20e:	49 89 df             	mov    %rbx,%r15
    a211:	b8 00 00 00 00       	mov    $0x0,%eax
    a216:	49 b8 1b 53 ff ff ff 	movabs $0xffffffffffff531b,%r8
    a21d:	ff ff ff 
    a220:	49 01 d8             	add    %rbx,%r8
    a223:	41 ff d0             	call   *%r8
    a226:	48 8b 45 b0          	mov    -0x50(%rbp),%rax
    a22a:	83 e0 02             	and    $0x2,%eax
    a22d:	48 85 c0             	test   %rax,%rax
    a230:	74 50                	je     0xa282
    a232:	8b 4d a8             	mov    -0x58(%rbp),%ecx
    a235:	b1 00                	mov    $0x0,%cl
    a237:	b8 00 00 00 00       	mov    $0x0,%eax
    a23c:	88 c5                	mov    %al,%ch
    a23e:	81 c9 00 00 ff 00    	or     $0xff0000,%ecx
    a244:	89 c8                	mov    %ecx,%eax
    a246:	25 ff ff ff 00       	and    $0xffffff,%eax
    a24b:	89 c2                	mov    %eax,%edx
    a24d:	48 b8 b8 02 00 00 00 	movabs $0x2b8,%rax
    a254:	00 00 00 
    a257:	48 8d 04 03          	lea    (%rbx,%rax,1),%rax
    a25b:	48 89 c1             	mov    %rax,%rcx
    a25e:	be 10 00 00 00       	mov    $0x10,%esi
    a263:	bf 00 00 00 00       	mov    $0x0,%edi
    a268:	49 89 df             	mov    %rbx,%r15
    a26b:	b8 00 00 00 00       	mov    $0x0,%eax
    a270:	49 b8 1b 53 ff ff ff 	movabs $0xffffffffffff531b,%r8
    a277:	ff ff ff 
    a27a:	49 01 d8             	add    %rbx,%r8
    a27d:	41 ff d0             	call   *%r8
    a280:	eb 4e                	jmp    0xa2d0
    a282:	8b 55 a4             	mov    -0x5c(%rbp),%edx
    a285:	b2 00                	mov    $0x0,%dl
    a287:	b8 00 00 00 00       	mov    $0x0,%eax
    a28c:	88 c6                	mov    %al,%dh
    a28e:	81 ca 00 00 ff 00    	or     $0xff0000,%edx
    a294:	89 d0                	mov    %edx,%eax
    a296:	25 ff ff ff 00       	and    $0xffffff,%eax
    a29b:	89 c2                	mov    %eax,%edx
    a29d:	48 b8 e8 02 00 00 00 	movabs $0x2e8,%rax
    a2a4:	00 00 00 
    a2a7:	48 8d 04 03          	lea    (%rbx,%rax,1),%rax
    a2ab:	48 89 c1             	mov    %rax,%rcx
    a2ae:	be 10 00 00 00       	mov    $0x10,%esi
    a2b3:	bf 00 00 00 00       	mov    $0x0,%edi
    a2b8:	49 89 df             	mov    %rbx,%r15
    a2bb:	b8 00 00 00 00       	mov    $0x0,%eax
    a2c0:	49 b8 1b 53 ff ff ff 	movabs $0xffffffffffff531b,%r8
    a2c7:	ff ff ff 
    a2ca:	49 01 d8             	add    %rbx,%r8
    a2cd:	41 ff d0             	call   *%r8
    a2d0:	48 8b 45 b0          	mov    -0x50(%rbp),%rax
    a2d4:	83 e0 02             	and    $0x2,%eax
    a2d7:	48 85 c0             	test   %rax,%rax
    a2da:	0f 85 c6 00 00 00    	jne    0xa3a6
    a2e0:	48 8b 45 b0          	mov    -0x50(%rbp),%rax
    a2e4:	83 e0 04             	and    $0x4,%eax
    a2e7:	48 85 c0             	test   %rax,%rax
    a2ea:	74 5e                	je     0xa34a
    a2ec:	41 b6 00             	mov    $0x0,%r14b
    a2ef:	b8 00 00 00 00       	mov    $0x0,%eax
    a2f4:	44 89 f1             	mov    %r14d,%ecx
    a2f7:	88 c5                	mov    %al,%ch
    a2f9:	41 89 ce             	mov    %ecx,%r14d
    a2fc:	44 89 f0             	mov    %r14d,%eax
    a2ff:	0d 00 00 ff 00       	or     $0xff0000,%eax
    a304:	41 89 c6             	mov    %eax,%r14d
    a307:	44 89 f0             	mov    %r14d,%eax
    a30a:	25 ff ff ff 00       	and    $0xffffff,%eax
    a30f:	41 89 c6             	mov    %eax,%r14d
    a312:	48 b8 20 03 00 00 00 	movabs $0x320,%rax
    a319:	00 00 00 
    a31c:	48 8d 04 03          	lea    (%rbx,%rax,1),%rax
    a320:	48 89 c1             	mov    %rax,%rcx
    a323:	44 89 f2             	mov    %r14d,%edx
    a326:	be 10 00 00 00       	mov    $0x10,%esi
    a32b:	bf 00 00 00 00       	mov    $0x0,%edi
    a330:	49 89 df             	mov    %rbx,%r15
    a333:	b8 00 00 00 00       	mov    $0x0,%eax
    a338:	49 b8 1b 53 ff ff ff 	movabs $0xffffffffffff531b,%r8
    a33f:	ff ff ff 
    a342:	49 01 d8             	add    %rbx,%r8
    a345:	41 ff d0             	call   *%r8
    a348:	eb 5c                	jmp    0xa3a6
    a34a:	41 b5 00             	mov    $0x0,%r13b
    a34d:	b8 00 00 00 00       	mov    $0x0,%eax
    a352:	44 89 e9             	mov    %r13d,%ecx
    a355:	88 c5                	mov    %al,%ch
    a357:	41 89 cd             	mov    %ecx,%r13d
    a35a:	44 89 e8             	mov    %r13d,%eax
    a35d:	0d 00 00 ff 00       	or     $0xff0000,%eax
    a362:	41 89 c5             	mov    %eax,%r13d
    a365:	44 89 e8             	mov    %r13d,%eax
    a368:	25 ff ff ff 00       	and    $0xffffff,%eax
    a36d:	41 89 c5             	mov    %eax,%r13d
    a370:	48 b8 58 03 00 00 00 	movabs $0x358,%rax
    a377:	00 00 00 
    a37a:	48 8d 04 03          	lea    (%rbx,%rax,1),%rax
    a37e:	48 89 c1             	mov    %rax,%rcx
    a381:	44 89 ea             	mov    %r13d,%edx
    a384:	be 10 00 00 00       	mov    $0x10,%esi
    a389:	bf 00 00 00 00       	mov    $0x0,%edi
    a38e:	49 89 df             	mov    %rbx,%r15
    a391:	b8 00 00 00 00       	mov    $0x0,%eax
    a396:	49 b8 1b 53 ff ff ff 	movabs $0xffffffffffff531b,%r8
    a39d:	ff ff ff 
    a3a0:	49 01 d8             	add    %rbx,%r8
    a3a3:	41 ff d0             	call   *%r8
    a3a6:	48 8b 45 b0          	mov    -0x50(%rbp),%rax
    a3aa:	25 f8 ff 00 00       	and    $0xfff8,%eax
    a3af:	48 89 c2             	mov    %rax,%rdx
    a3b2:	41 b4 00             	mov    $0x0,%r12b
    a3b5:	b8 00 00 00 00       	mov    $0x0,%eax
    a3ba:	44 89 e1             	mov    %r12d,%ecx
    a3bd:	88 c5                	mov    %al,%ch
    a3bf:	41 89 cc             	mov    %ecx,%r12d
    a3c2:	44 89 e0             	mov    %r12d,%eax
    a3c5:	0d 00 00 ff 00       	or     $0xff0000,%eax
    a3ca:	41 89 c4             	mov    %eax,%r12d
    a3cd:	44 89 e0             	mov    %r12d,%eax
    a3d0:	25 ff ff ff 00       	and    $0xffffff,%eax
    a3d5:	41 89 c4             	mov    %eax,%r12d
    a3d8:	49 89 d0             	mov    %rdx,%r8
    a3db:	48 b8 84 03 00 00 00 	movabs $0x384,%rax
    a3e2:	00 00 00 
    a3e5:	48 8d 04 03          	lea    (%rbx,%rax,1),%rax
    a3e9:	48 89 c1             	mov    %rax,%rcx
    a3ec:	44 89 e2             	mov    %r12d,%edx
    a3ef:	be 20 00 00 00       	mov    $0x20,%esi
    a3f4:	bf 00 00 00 00       	mov    $0x0,%edi
    a3f9:	49 89 df             	mov    %rbx,%r15
    a3fc:	b8 00 00 00 00       	mov    $0x0,%eax
    a401:	49 b9 1b 53 ff ff ff 	movabs $0xffffffffffff531b,%r9
    a408:	ff ff ff 
    a40b:	49 01 d9             	add    %rbx,%r9
    a40e:	41 ff d1             	call   *%r9
    a411:	eb fe                	jmp    0xa411
    a413:	f3 0f 1e fa          	endbr64 
    a417:	55                   	push   %rbp
    a418:	48 89 e5             	mov    %rsp,%rbp
    a41b:	41 57                	push   %r15
    a41d:	41 56                	push   %r14
    a41f:	41 55                	push   %r13
    a421:	41 54                	push   %r12
    a423:	53                   	push   %rbx
    a424:	48 83 ec 38          	sub    $0x38,%rsp
    a428:	48 8d 1d f9 ff ff ff 	lea    -0x7(%rip),%rbx        # 0xa428
    a42f:	49 bb 30 51 00 00 00 	movabs $0x5130,%r11
    a436:	00 00 00 
    a439:	4c 01 db             	add    %r11,%rbx
    a43c:	48 89 7d b8          	mov    %rdi,-0x48(%rbp)
    a440:	48 89 75 b0          	mov    %rsi,-0x50(%rbp)
    a444:	48 c7 45 c8 00 00 00 	movq   $0x0,-0x38(%rbp)
    a44b:	00 
    a44c:	48 8b 55 b8          	mov    -0x48(%rbp),%rdx
    a450:	48 81 c2 98 00 00 00 	add    $0x98,%rdx
    a457:	48 89 55 c8          	mov    %rdx,-0x38(%rbp)
    a45b:	48 8b 55 c8          	mov    -0x38(%rbp),%rdx
    a45f:	48 8b 12             	mov    (%rdx),%rdx
    a462:	b0 00                	mov    $0x0,%al
    a464:	b9 00 00 00 00       	mov    $0x0,%ecx
    a469:	88 cc                	mov    %cl,%ah
    a46b:	0d 00 00 ff 00       	or     $0xff0000,%eax
    a470:	25 ff ff ff 00       	and    $0xffffff,%eax
    a475:	48 8b 75 b8          	mov    -0x48(%rbp),%rsi
    a479:	48 8b 4d b0          	mov    -0x50(%rbp),%rcx
    a47d:	48 83 ec 08          	sub    $0x8,%rsp
    a481:	52                   	push   %rdx
    a482:	49 89 f1             	mov    %rsi,%r9
    a485:	49 89 c8             	mov    %rcx,%r8
    a488:	48 ba d8 03 00 00 00 	movabs $0x3d8,%rdx
    a48f:	00 00 00 
    a492:	48 8d 14 13          	lea    (%rbx,%rdx,1),%rdx
    a496:	48 89 d1             	mov    %rdx,%rcx
    a499:	89 c2                	mov    %eax,%edx
    a49b:	be 00 00 00 00       	mov    $0x0,%esi
    a4a0:	bf 00 00 00 00       	mov    $0x0,%edi
    a4a5:	49 89 df             	mov    %rbx,%r15
    a4a8:	b8 00 00 00 00       	mov    $0x0,%eax
    a4ad:	49 ba 1b 53 ff ff ff 	movabs $0xffffffffffff531b,%r10
    a4b4:	ff ff ff 
    a4b7:	49 01 da             	add    %rbx,%r10
    a4ba:	41 ff d2             	call   *%r10
    a4bd:	48 83 c4 10          	add    $0x10,%rsp
    a4c1:	48 8b 45 b0          	mov    -0x50(%rbp),%rax
    a4c5:	83 e0 01             	and    $0x1,%eax
    a4c8:	48 85 c0             	test   %rax,%rax
    a4cb:	74 4e                	je     0xa51b
    a4cd:	8b 4d ac             	mov    -0x54(%rbp),%ecx
    a4d0:	b1 00                	mov    $0x0,%cl
    a4d2:	b8 00 00 00 00       	mov    $0x0,%eax
    a4d7:	88 c5                	mov    %al,%ch
    a4d9:	81 c9 00 00 ff 00    	or     $0xff0000,%ecx
    a4df:	89 c8                	mov    %ecx,%eax
    a4e1:	25 ff ff ff 00       	and    $0xffffff,%eax
    a4e6:	89 c2                	mov    %eax,%edx
    a4e8:	48 b8 38 02 00 00 00 	movabs $0x238,%rax
    a4ef:	00 00 00 
    a4f2:	48 8d 04 03          	lea    (%rbx,%rax,1),%rax
    a4f6:	48 89 c1             	mov    %rax,%rcx
    a4f9:	be 10 00 00 00       	mov    $0x10,%esi
    a4fe:	bf 00 00 00 00       	mov    $0x0,%edi
    a503:	49 89 df             	mov    %rbx,%r15
    a506:	b8 00 00 00 00       	mov    $0x0,%eax
    a50b:	49 b8 1b 53 ff ff ff 	movabs $0xffffffffffff531b,%r8
    a512:	ff ff ff 
    a515:	49 01 d8             	add    %rbx,%r8
    a518:	41 ff d0             	call   *%r8
    a51b:	48 8b 45 b0          	mov    -0x50(%rbp),%rax
    a51f:	83 e0 02             	and    $0x2,%eax
    a522:	48 85 c0             	test   %rax,%rax
    a525:	74 50                	je     0xa577
    a527:	8b 4d a8             	mov    -0x58(%rbp),%ecx
    a52a:	b1 00                	mov    $0x0,%cl
    a52c:	b8 00 00 00 00       	mov    $0x0,%eax
    a531:	88 c5                	mov    %al,%ch
    a533:	81 c9 00 00 ff 00    	or     $0xff0000,%ecx
    a539:	89 c8                	mov    %ecx,%eax
    a53b:	25 ff ff ff 00       	and    $0xffffff,%eax
    a540:	89 c2                	mov    %eax,%edx
    a542:	48 b8 b8 02 00 00 00 	movabs $0x2b8,%rax
    a549:	00 00 00 
    a54c:	48 8d 04 03          	lea    (%rbx,%rax,1),%rax
    a550:	48 89 c1             	mov    %rax,%rcx
    a553:	be 10 00 00 00       	mov    $0x10,%esi
    a558:	bf 00 00 00 00       	mov    $0x0,%edi
    a55d:	49 89 df             	mov    %rbx,%r15
    a560:	b8 00 00 00 00       	mov    $0x0,%eax
    a565:	49 b8 1b 53 ff ff ff 	movabs $0xffffffffffff531b,%r8
    a56c:	ff ff ff 
    a56f:	49 01 d8             	add    %rbx,%r8
    a572:	41 ff d0             	call   *%r8
    a575:	eb 4e                	jmp    0xa5c5
    a577:	8b 55 a4             	mov    -0x5c(%rbp),%edx
    a57a:	b2 00                	mov    $0x0,%dl
    a57c:	b8 00 00 00 00       	mov    $0x0,%eax
    a581:	88 c6                	mov    %al,%dh
    a583:	81 ca 00 00 ff 00    	or     $0xff0000,%edx
    a589:	89 d0                	mov    %edx,%eax
    a58b:	25 ff ff ff 00       	and    $0xffffff,%eax
    a590:	89 c2                	mov    %eax,%edx
    a592:	48 b8 e8 02 00 00 00 	movabs $0x2e8,%rax
    a599:	00 00 00 
    a59c:	48 8d 04 03          	lea    (%rbx,%rax,1),%rax
    a5a0:	48 89 c1             	mov    %rax,%rcx
    a5a3:	be 10 00 00 00       	mov    $0x10,%esi
    a5a8:	bf 00 00 00 00       	mov    $0x0,%edi
    a5ad:	49 89 df             	mov    %rbx,%r15
    a5b0:	b8 00 00 00 00       	mov    $0x0,%eax
    a5b5:	49 b8 1b 53 ff ff ff 	movabs $0xffffffffffff531b,%r8
    a5bc:	ff ff ff 
    a5bf:	49 01 d8             	add    %rbx,%r8
    a5c2:	41 ff d0             	call   *%r8
    a5c5:	48 8b 45 b0          	mov    -0x50(%rbp),%rax
    a5c9:	83 e0 02             	and    $0x2,%eax
    a5cc:	48 85 c0             	test   %rax,%rax
    a5cf:	0f 85 c6 00 00 00    	jne    0xa69b
    a5d5:	48 8b 45 b0          	mov    -0x50(%rbp),%rax
    a5d9:	83 e0 04             	and    $0x4,%eax
    a5dc:	48 85 c0             	test   %rax,%rax
    a5df:	74 5e                	je     0xa63f
    a5e1:	41 b6 00             	mov    $0x0,%r14b
    a5e4:	b8 00 00 00 00       	mov    $0x0,%eax
    a5e9:	44 89 f1             	mov    %r14d,%ecx
    a5ec:	88 c5                	mov    %al,%ch
    a5ee:	41 89 ce             	mov    %ecx,%r14d
    a5f1:	44 89 f0             	mov    %r14d,%eax
    a5f4:	0d 00 00 ff 00       	or     $0xff0000,%eax
    a5f9:	41 89 c6             	mov    %eax,%r14d
    a5fc:	44 89 f0             	mov    %r14d,%eax
    a5ff:	25 ff ff ff 00       	and    $0xffffff,%eax
    a604:	41 89 c6             	mov    %eax,%r14d
    a607:	48 b8 20 03 00 00 00 	movabs $0x320,%rax
    a60e:	00 00 00 
    a611:	48 8d 04 03          	lea    (%rbx,%rax,1),%rax
    a615:	48 89 c1             	mov    %rax,%rcx
    a618:	44 89 f2             	mov    %r14d,%edx
    a61b:	be 10 00 00 00       	mov    $0x10,%esi
    a620:	bf 00 00 00 00       	mov    $0x0,%edi
    a625:	49 89 df             	mov    %rbx,%r15
    a628:	b8 00 00 00 00       	mov    $0x0,%eax
    a62d:	49 b8 1b 53 ff ff ff 	movabs $0xffffffffffff531b,%r8
    a634:	ff ff ff 
    a637:	49 01 d8             	add    %rbx,%r8
    a63a:	41 ff d0             	call   *%r8
    a63d:	eb 5c                	jmp    0xa69b
    a63f:	41 b5 00             	mov    $0x0,%r13b
    a642:	b8 00 00 00 00       	mov    $0x0,%eax
    a647:	44 89 e9             	mov    %r13d,%ecx
    a64a:	88 c5                	mov    %al,%ch
    a64c:	41 89 cd             	mov    %ecx,%r13d
    a64f:	44 89 e8             	mov    %r13d,%eax
    a652:	0d 00 00 ff 00       	or     $0xff0000,%eax
    a657:	41 89 c5             	mov    %eax,%r13d
    a65a:	44 89 e8             	mov    %r13d,%eax
    a65d:	25 ff ff ff 00       	and    $0xffffff,%eax
    a662:	41 89 c5             	mov    %eax,%r13d
    a665:	48 b8 58 03 00 00 00 	movabs $0x358,%rax
    a66c:	00 00 00 
    a66f:	48 8d 04 03          	lea    (%rbx,%rax,1),%rax
    a673:	48 89 c1             	mov    %rax,%rcx
    a676:	44 89 ea             	mov    %r13d,%edx
    a679:	be 10 00 00 00       	mov    $0x10,%esi
    a67e:	bf 00 00 00 00       	mov    $0x0,%edi
    a683:	49 89 df             	mov    %rbx,%r15
    a686:	b8 00 00 00 00       	mov    $0x0,%eax
    a68b:	49 b8 1b 53 ff ff ff 	movabs $0xffffffffffff531b,%r8
    a692:	ff ff ff 
    a695:	49 01 d8             	add    %rbx,%r8
    a698:	41 ff d0             	call   *%r8
    a69b:	48 8b 45 b0          	mov    -0x50(%rbp),%rax
    a69f:	25 f8 ff 00 00       	and    $0xfff8,%eax
    a6a4:	48 89 c2             	mov    %rax,%rdx
    a6a7:	41 b4 00             	mov    $0x0,%r12b
    a6aa:	b8 00 00 00 00       	mov    $0x0,%eax
    a6af:	44 89 e1             	mov    %r12d,%ecx
    a6b2:	88 c5                	mov    %al,%ch
    a6b4:	41 89 cc             	mov    %ecx,%r12d
    a6b7:	44 89 e0             	mov    %r12d,%eax
    a6ba:	0d 00 00 ff 00       	or     $0xff0000,%eax
    a6bf:	41 89 c4             	mov    %eax,%r12d
    a6c2:	44 89 e0             	mov    %r12d,%eax
    a6c5:	25 ff ff ff 00       	and    $0xffffff,%eax
    a6ca:	41 89 c4             	mov    %eax,%r12d
    a6cd:	49 89 d0             	mov    %rdx,%r8
    a6d0:	48 b8 84 03 00 00 00 	movabs $0x384,%rax
    a6d7:	00 00 00 
    a6da:	48 8d 04 03          	lea    (%rbx,%rax,1),%rax
    a6de:	48 89 c1             	mov    %rax,%rcx
    a6e1:	44 89 e2             	mov    %r12d,%edx
    a6e4:	be 20 00 00 00       	mov    $0x20,%esi
    a6e9:	bf 00 00 00 00       	mov    $0x0,%edi
    a6ee:	49 89 df             	mov    %rbx,%r15
    a6f1:	b8 00 00 00 00       	mov    $0x0,%eax
    a6f6:	49 b9 1b 53 ff ff ff 	movabs $0xffffffffffff531b,%r9
    a6fd:	ff ff ff 
    a700:	49 01 d9             	add    %rbx,%r9
    a703:	41 ff d1             	call   *%r9
    a706:	eb fe                	jmp    0xa706
    a708:	f3 0f 1e fa          	endbr64 
    a70c:	55                   	push   %rbp
    a70d:	48 89 e5             	mov    %rsp,%rbp
    a710:	41 57                	push   %r15
    a712:	41 56                	push   %r14
    a714:	41 55                	push   %r13
    a716:	41 54                	push   %r12
    a718:	53                   	push   %rbx
    a719:	48 83 ec 38          	sub    $0x38,%rsp
    a71d:	48 8d 1d f9 ff ff ff 	lea    -0x7(%rip),%rbx        # 0xa71d
    a724:	49 bb 3b 4e 00 00 00 	movabs $0x4e3b,%r11
    a72b:	00 00 00 
    a72e:	4c 01 db             	add    %r11,%rbx
    a731:	48 89 7d b8          	mov    %rdi,-0x48(%rbp)
    a735:	48 89 75 b0          	mov    %rsi,-0x50(%rbp)
    a739:	48 c7 45 c8 00 00 00 	movq   $0x0,-0x38(%rbp)
    a740:	00 
    a741:	48 8b 55 b8          	mov    -0x48(%rbp),%rdx
    a745:	48 81 c2 98 00 00 00 	add    $0x98,%rdx
    a74c:	48 89 55 c8          	mov    %rdx,-0x38(%rbp)
    a750:	48 8b 55 c8          	mov    -0x38(%rbp),%rdx
    a754:	48 8b 12             	mov    (%rdx),%rdx
    a757:	b0 00                	mov    $0x0,%al
    a759:	b9 00 00 00 00       	mov    $0x0,%ecx
    a75e:	88 cc                	mov    %cl,%ah
    a760:	0d 00 00 ff 00       	or     $0xff0000,%eax
    a765:	25 ff ff ff 00       	and    $0xffffff,%eax
    a76a:	48 8b 75 b8          	mov    -0x48(%rbp),%rsi
    a76e:	48 8b 4d b0          	mov    -0x50(%rbp),%rcx
    a772:	48 83 ec 08          	sub    $0x8,%rsp
    a776:	52                   	push   %rdx
    a777:	49 89 f1             	mov    %rsi,%r9
    a77a:	49 89 c8             	mov    %rcx,%r8
    a77d:	48 ba 10 04 00 00 00 	movabs $0x410,%rdx
    a784:	00 00 00 
    a787:	48 8d 14 13          	lea    (%rbx,%rdx,1),%rdx
    a78b:	48 89 d1             	mov    %rdx,%rcx
    a78e:	89 c2                	mov    %eax,%edx
    a790:	be 00 00 00 00       	mov    $0x0,%esi
    a795:	bf 00 00 00 00       	mov    $0x0,%edi
    a79a:	49 89 df             	mov    %rbx,%r15
    a79d:	b8 00 00 00 00       	mov    $0x0,%eax
    a7a2:	49 ba 1b 53 ff ff ff 	movabs $0xffffffffffff531b,%r10
    a7a9:	ff ff ff 
    a7ac:	49 01 da             	add    %rbx,%r10
    a7af:	41 ff d2             	call   *%r10
    a7b2:	48 83 c4 10          	add    $0x10,%rsp
    a7b6:	48 8b 45 b0          	mov    -0x50(%rbp),%rax
    a7ba:	83 e0 01             	and    $0x1,%eax
    a7bd:	48 85 c0             	test   %rax,%rax
    a7c0:	74 4e                	je     0xa810
    a7c2:	8b 4d ac             	mov    -0x54(%rbp),%ecx
    a7c5:	b1 00                	mov    $0x0,%cl
    a7c7:	b8 00 00 00 00       	mov    $0x0,%eax
    a7cc:	88 c5                	mov    %al,%ch
    a7ce:	81 c9 00 00 ff 00    	or     $0xff0000,%ecx
    a7d4:	89 c8                	mov    %ecx,%eax
    a7d6:	25 ff ff ff 00       	and    $0xffffff,%eax
    a7db:	89 c2                	mov    %eax,%edx
    a7dd:	48 b8 38 02 00 00 00 	movabs $0x238,%rax
    a7e4:	00 00 00 
    a7e7:	48 8d 04 03          	lea    (%rbx,%rax,1),%rax
    a7eb:	48 89 c1             	mov    %rax,%rcx
    a7ee:	be 10 00 00 00       	mov    $0x10,%esi
    a7f3:	bf 00 00 00 00       	mov    $0x0,%edi
    a7f8:	49 89 df             	mov    %rbx,%r15
    a7fb:	b8 00 00 00 00       	mov    $0x0,%eax
    a800:	49 b8 1b 53 ff ff ff 	movabs $0xffffffffffff531b,%r8
    a807:	ff ff ff 
    a80a:	49 01 d8             	add    %rbx,%r8
    a80d:	41 ff d0             	call   *%r8
    a810:	48 8b 45 b0          	mov    -0x50(%rbp),%rax
    a814:	83 e0 02             	and    $0x2,%eax
    a817:	48 85 c0             	test   %rax,%rax
    a81a:	74 50                	je     0xa86c
    a81c:	8b 4d a8             	mov    -0x58(%rbp),%ecx
    a81f:	b1 00                	mov    $0x0,%cl
    a821:	b8 00 00 00 00       	mov    $0x0,%eax
    a826:	88 c5                	mov    %al,%ch
    a828:	81 c9 00 00 ff 00    	or     $0xff0000,%ecx
    a82e:	89 c8                	mov    %ecx,%eax
    a830:	25 ff ff ff 00       	and    $0xffffff,%eax
    a835:	89 c2                	mov    %eax,%edx
    a837:	48 b8 b8 02 00 00 00 	movabs $0x2b8,%rax
    a83e:	00 00 00 
    a841:	48 8d 04 03          	lea    (%rbx,%rax,1),%rax
    a845:	48 89 c1             	mov    %rax,%rcx
    a848:	be 10 00 00 00       	mov    $0x10,%esi
    a84d:	bf 00 00 00 00       	mov    $0x0,%edi
    a852:	49 89 df             	mov    %rbx,%r15
    a855:	b8 00 00 00 00       	mov    $0x0,%eax
    a85a:	49 b8 1b 53 ff ff ff 	movabs $0xffffffffffff531b,%r8
    a861:	ff ff ff 
    a864:	49 01 d8             	add    %rbx,%r8
    a867:	41 ff d0             	call   *%r8
    a86a:	eb 4e                	jmp    0xa8ba
    a86c:	8b 55 a4             	mov    -0x5c(%rbp),%edx
    a86f:	b2 00                	mov    $0x0,%dl
    a871:	b8 00 00 00 00       	mov    $0x0,%eax
    a876:	88 c6                	mov    %al,%dh
    a878:	81 ca 00 00 ff 00    	or     $0xff0000,%edx
    a87e:	89 d0                	mov    %edx,%eax
    a880:	25 ff ff ff 00       	and    $0xffffff,%eax
    a885:	89 c2                	mov    %eax,%edx
    a887:	48 b8 e8 02 00 00 00 	movabs $0x2e8,%rax
    a88e:	00 00 00 
    a891:	48 8d 04 03          	lea    (%rbx,%rax,1),%rax
    a895:	48 89 c1             	mov    %rax,%rcx
    a898:	be 10 00 00 00       	mov    $0x10,%esi
    a89d:	bf 00 00 00 00       	mov    $0x0,%edi
    a8a2:	49 89 df             	mov    %rbx,%r15
    a8a5:	b8 00 00 00 00       	mov    $0x0,%eax
    a8aa:	49 b8 1b 53 ff ff ff 	movabs $0xffffffffffff531b,%r8
    a8b1:	ff ff ff 
    a8b4:	49 01 d8             	add    %rbx,%r8
    a8b7:	41 ff d0             	call   *%r8
    a8ba:	48 8b 45 b0          	mov    -0x50(%rbp),%rax
    a8be:	83 e0 02             	and    $0x2,%eax
    a8c1:	48 85 c0             	test   %rax,%rax
    a8c4:	0f 85 c6 00 00 00    	jne    0xa990
    a8ca:	48 8b 45 b0          	mov    -0x50(%rbp),%rax
    a8ce:	83 e0 04             	and    $0x4,%eax
    a8d1:	48 85 c0             	test   %rax,%rax
    a8d4:	74 5e                	je     0xa934
    a8d6:	41 b6 00             	mov    $0x0,%r14b
    a8d9:	b8 00 00 00 00       	mov    $0x0,%eax
    a8de:	44 89 f1             	mov    %r14d,%ecx
    a8e1:	88 c5                	mov    %al,%ch
    a8e3:	41 89 ce             	mov    %ecx,%r14d
    a8e6:	44 89 f0             	mov    %r14d,%eax
    a8e9:	0d 00 00 ff 00       	or     $0xff0000,%eax
    a8ee:	41 89 c6             	mov    %eax,%r14d
    a8f1:	44 89 f0             	mov    %r14d,%eax
    a8f4:	25 ff ff ff 00       	and    $0xffffff,%eax
    a8f9:	41 89 c6             	mov    %eax,%r14d
    a8fc:	48 b8 20 03 00 00 00 	movabs $0x320,%rax
    a903:	00 00 00 
    a906:	48 8d 04 03          	lea    (%rbx,%rax,1),%rax
    a90a:	48 89 c1             	mov    %rax,%rcx
    a90d:	44 89 f2             	mov    %r14d,%edx
    a910:	be 10 00 00 00       	mov    $0x10,%esi
    a915:	bf 00 00 00 00       	mov    $0x0,%edi
    a91a:	49 89 df             	mov    %rbx,%r15
    a91d:	b8 00 00 00 00       	mov    $0x0,%eax
    a922:	49 b8 1b 53 ff ff ff 	movabs $0xffffffffffff531b,%r8
    a929:	ff ff ff 
    a92c:	49 01 d8             	add    %rbx,%r8
    a92f:	41 ff d0             	call   *%r8
    a932:	eb 5c                	jmp    0xa990
    a934:	41 b5 00             	mov    $0x0,%r13b
    a937:	b8 00 00 00 00       	mov    $0x0,%eax
    a93c:	44 89 e9             	mov    %r13d,%ecx
    a93f:	88 c5                	mov    %al,%ch
    a941:	41 89 cd             	mov    %ecx,%r13d
    a944:	44 89 e8             	mov    %r13d,%eax
    a947:	0d 00 00 ff 00       	or     $0xff0000,%eax
    a94c:	41 89 c5             	mov    %eax,%r13d
    a94f:	44 89 e8             	mov    %r13d,%eax
    a952:	25 ff ff ff 00       	and    $0xffffff,%eax
    a957:	41 89 c5             	mov    %eax,%r13d
    a95a:	48 b8 58 03 00 00 00 	movabs $0x358,%rax
    a961:	00 00 00 
    a964:	48 8d 04 03          	lea    (%rbx,%rax,1),%rax
    a968:	48 89 c1             	mov    %rax,%rcx
    a96b:	44 89 ea             	mov    %r13d,%edx
    a96e:	be 10 00 00 00       	mov    $0x10,%esi
    a973:	bf 00 00 00 00       	mov    $0x0,%edi
    a978:	49 89 df             	mov    %rbx,%r15
    a97b:	b8 00 00 00 00       	mov    $0x0,%eax
    a980:	49 b8 1b 53 ff ff ff 	movabs $0xffffffffffff531b,%r8
    a987:	ff ff ff 
    a98a:	49 01 d8             	add    %rbx,%r8
    a98d:	41 ff d0             	call   *%r8
    a990:	48 8b 45 b0          	mov    -0x50(%rbp),%rax
    a994:	25 f8 ff 00 00       	and    $0xfff8,%eax
    a999:	48 89 c2             	mov    %rax,%rdx
    a99c:	41 b4 00             	mov    $0x0,%r12b
    a99f:	b8 00 00 00 00       	mov    $0x0,%eax
    a9a4:	44 89 e1             	mov    %r12d,%ecx
    a9a7:	88 c5                	mov    %al,%ch
    a9a9:	41 89 cc             	mov    %ecx,%r12d
    a9ac:	44 89 e0             	mov    %r12d,%eax
    a9af:	0d 00 00 ff 00       	or     $0xff0000,%eax
    a9b4:	41 89 c4             	mov    %eax,%r12d
    a9b7:	44 89 e0             	mov    %r12d,%eax
    a9ba:	25 ff ff ff 00       	and    $0xffffff,%eax
    a9bf:	41 89 c4             	mov    %eax,%r12d
    a9c2:	49 89 d0             	mov    %rdx,%r8
    a9c5:	48 b8 84 03 00 00 00 	movabs $0x384,%rax
    a9cc:	00 00 00 
    a9cf:	48 8d 04 03          	lea    (%rbx,%rax,1),%rax
    a9d3:	48 89 c1             	mov    %rax,%rcx
    a9d6:	44 89 e2             	mov    %r12d,%edx
    a9d9:	be 00 00 00 00       	mov    $0x0,%esi
    a9de:	bf 00 00 00 00       	mov    $0x0,%edi
    a9e3:	49 89 df             	mov    %rbx,%r15
    a9e6:	b8 00 00 00 00       	mov    $0x0,%eax
    a9eb:	49 b9 1b 53 ff ff ff 	movabs $0xffffffffffff531b,%r9
    a9f2:	ff ff ff 
    a9f5:	49 01 d9             	add    %rbx,%r9
    a9f8:	41 ff d1             	call   *%r9
    a9fb:	eb fe                	jmp    0xa9fb
    a9fd:	f3 0f 1e fa          	endbr64 
    aa01:	55                   	push   %rbp
    aa02:	48 89 e5             	mov    %rsp,%rbp
    aa05:	41 57                	push   %r15
    aa07:	41 56                	push   %r14
    aa09:	41 55                	push   %r13
    aa0b:	41 54                	push   %r12
    aa0d:	53                   	push   %rbx
    aa0e:	48 83 ec 48          	sub    $0x48,%rsp
    aa12:	48 8d 1d f9 ff ff ff 	lea    -0x7(%rip),%rbx        # 0xaa12
    aa19:	49 bb 46 4b 00 00 00 	movabs $0x4b46,%r11
    aa20:	00 00 00 
    aa23:	4c 01 db             	add    %r11,%rbx
    aa26:	48 89 7d b8          	mov    %rdi,-0x48(%rbp)
    aa2a:	48 89 75 b0          	mov    %rsi,-0x50(%rbp)
    aa2e:	48 c7 45 c8 00 00 00 	movq   $0x0,-0x38(%rbp)
    aa35:	00 
    aa36:	48 c7 45 c0 00 00 00 	movq   $0x0,-0x40(%rbp)
    aa3d:	00 
    aa3e:	0f 20 d2             	mov    %cr2,%rdx
    aa41:	48 89 55 c0          	mov    %rdx,-0x40(%rbp)
    aa45:	48 8b 55 b8          	mov    -0x48(%rbp),%rdx
    aa49:	48 81 c2 98 00 00 00 	add    $0x98,%rdx
    aa50:	48 89 55 c8          	mov    %rdx,-0x38(%rbp)
    aa54:	48 8b 55 c8          	mov    -0x38(%rbp),%rdx
    aa58:	48 8b 12             	mov    (%rdx),%rdx
    aa5b:	b0 00                	mov    $0x0,%al
    aa5d:	b9 00 00 00 00       	mov    $0x0,%ecx
    aa62:	88 cc                	mov    %cl,%ah
    aa64:	0d 00 00 ff 00       	or     $0xff0000,%eax
    aa69:	25 ff ff ff 00       	and    $0xffffff,%eax
    aa6e:	48 8b 75 b8          	mov    -0x48(%rbp),%rsi
    aa72:	48 8b 4d b0          	mov    -0x50(%rbp),%rcx
    aa76:	48 83 ec 08          	sub    $0x8,%rsp
    aa7a:	52                   	push   %rdx
    aa7b:	49 89 f1             	mov    %rsi,%r9
    aa7e:	49 89 c8             	mov    %rcx,%r8
    aa81:	48 ba 48 04 00 00 00 	movabs $0x448,%rdx
    aa88:	00 00 00 
    aa8b:	48 8d 14 13          	lea    (%rbx,%rdx,1),%rdx
    aa8f:	48 89 d1             	mov    %rdx,%rcx
    aa92:	89 c2                	mov    %eax,%edx
    aa94:	be 00 00 00 00       	mov    $0x0,%esi
    aa99:	bf 00 00 00 00       	mov    $0x0,%edi
    aa9e:	49 89 df             	mov    %rbx,%r15
    aaa1:	b8 00 00 00 00       	mov    $0x0,%eax
    aaa6:	49 ba 1b 53 ff ff ff 	movabs $0xffffffffffff531b,%r10
    aaad:	ff ff ff 
    aab0:	49 01 da             	add    %rbx,%r10
    aab3:	41 ff d2             	call   *%r10
    aab6:	48 83 c4 10          	add    $0x10,%rsp
    aaba:	48 8b 45 b0          	mov    -0x50(%rbp),%rax
    aabe:	83 e0 01             	and    $0x1,%eax
    aac1:	48 85 c0             	test   %rax,%rax
    aac4:	75 5c                	jne    0xab22
    aac6:	41 b4 00             	mov    $0x0,%r12b
    aac9:	b8 00 00 00 00       	mov    $0x0,%eax
    aace:	44 89 e1             	mov    %r12d,%ecx
    aad1:	88 c5                	mov    %al,%ch
    aad3:	41 89 cc             	mov    %ecx,%r12d
    aad6:	44 89 e0             	mov    %r12d,%eax
    aad9:	0d 00 00 ff 00       	or     $0xff0000,%eax
    aade:	41 89 c4             	mov    %eax,%r12d
    aae1:	44 89 e0             	mov    %r12d,%eax
    aae4:	25 ff ff ff 00       	and    $0xffffff,%eax
    aae9:	41 89 c4             	mov    %eax,%r12d
    aaec:	48 b8 77 04 00 00 00 	movabs $0x477,%rax
    aaf3:	00 00 00 
    aaf6:	48 8d 04 03          	lea    (%rbx,%rax,1),%rax
    aafa:	48 89 c1             	mov    %rax,%rcx
    aafd:	44 89 e2             	mov    %r12d,%edx
    ab00:	be 10 00 00 00       	mov    $0x10,%esi
    ab05:	bf 00 00 00 00       	mov    $0x0,%edi
    ab0a:	49 89 df             	mov    %rbx,%r15
    ab0d:	b8 00 00 00 00       	mov    $0x0,%eax
    ab12:	49 b8 1b 53 ff ff ff 	movabs $0xffffffffffff531b,%r8
    ab19:	ff ff ff 
    ab1c:	49 01 d8             	add    %rbx,%r8
    ab1f:	41 ff d0             	call   *%r8
    ab22:	48 8b 45 b0          	mov    -0x50(%rbp),%rax
    ab26:	83 e0 02             	and    $0x2,%eax
    ab29:	48 85 c0             	test   %rax,%rax
    ab2c:	74 50                	je     0xab7e
    ab2e:	8b 4d ac             	mov    -0x54(%rbp),%ecx
    ab31:	b1 00                	mov    $0x0,%cl
    ab33:	b8 00 00 00 00       	mov    $0x0,%eax
    ab38:	88 c5                	mov    %al,%ch
    ab3a:	81 c9 00 00 ff 00    	or     $0xff0000,%ecx
    ab40:	89 c8                	mov    %ecx,%eax
    ab42:	25 ff ff ff 00       	and    $0xffffff,%eax
    ab47:	89 c2                	mov    %eax,%edx
    ab49:	48 b8 8a 04 00 00 00 	movabs $0x48a,%rax
    ab50:	00 00 00 
    ab53:	48 8d 04 03          	lea    (%rbx,%rax,1),%rax
    ab57:	48 89 c1             	mov    %rax,%rcx
    ab5a:	be 10 00 00 00       	mov    $0x10,%esi
    ab5f:	bf 00 00 00 00       	mov    $0x0,%edi
    ab64:	49 89 df             	mov    %rbx,%r15
    ab67:	b8 00 00 00 00       	mov    $0x0,%eax
    ab6c:	49 b8 1b 53 ff ff ff 	movabs $0xffffffffffff531b,%r8
    ab73:	ff ff ff 
    ab76:	49 01 d8             	add    %rbx,%r8
    ab79:	41 ff d0             	call   *%r8
    ab7c:	eb 4e                	jmp    0xabcc
    ab7e:	8b 4d a8             	mov    -0x58(%rbp),%ecx
    ab81:	b1 00                	mov    $0x0,%cl
    ab83:	b8 00 00 00 00       	mov    $0x0,%eax
    ab88:	88 c5                	mov    %al,%ch
    ab8a:	81 c9 00 00 ff 00    	or     $0xff0000,%ecx
    ab90:	89 c8                	mov    %ecx,%eax
    ab92:	25 ff ff ff 00       	and    $0xffffff,%eax
    ab97:	89 c2                	mov    %eax,%edx
    ab99:	48 b8 9e 04 00 00 00 	movabs $0x49e,%rax
    aba0:	00 00 00 
    aba3:	48 8d 04 03          	lea    (%rbx,%rax,1),%rax
    aba7:	48 89 c1             	mov    %rax,%rcx
    abaa:	be 10 00 00 00       	mov    $0x10,%esi
    abaf:	bf 00 00 00 00       	mov    $0x0,%edi
    abb4:	49 89 df             	mov    %rbx,%r15
    abb7:	b8 00 00 00 00       	mov    $0x0,%eax
    abbc:	49 b8 1b 53 ff ff ff 	movabs $0xffffffffffff531b,%r8
    abc3:	ff ff ff 
    abc6:	49 01 d8             	add    %rbx,%r8
    abc9:	41 ff d0             	call   *%r8
    abcc:	48 8b 45 b0          	mov    -0x50(%rbp),%rax
    abd0:	83 e0 04             	and    $0x4,%eax
    abd3:	48 85 c0             	test   %rax,%rax
    abd6:	74 50                	je     0xac28
    abd8:	8b 55 a4             	mov    -0x5c(%rbp),%edx
    abdb:	b2 00                	mov    $0x0,%dl
    abdd:	b8 00 00 00 00       	mov    $0x0,%eax
    abe2:	88 c6                	mov    %al,%dh
    abe4:	81 ca 00 00 ff 00    	or     $0xff0000,%edx
    abea:	89 d0                	mov    %edx,%eax
    abec:	25 ff ff ff 00       	and    $0xffffff,%eax
    abf1:	89 c2                	mov    %eax,%edx
    abf3:	48 b8 b1 04 00 00 00 	movabs $0x4b1,%rax
    abfa:	00 00 00 
    abfd:	48 8d 04 03          	lea    (%rbx,%rax,1),%rax
    ac01:	48 89 c1             	mov    %rax,%rcx
    ac04:	be 10 00 00 00       	mov    $0x10,%esi
    ac09:	bf 00 00 00 00       	mov    $0x0,%edi
    ac0e:	49 89 df             	mov    %rbx,%r15
    ac11:	b8 00 00 00 00       	mov    $0x0,%eax
    ac16:	49 b8 1b 53 ff ff ff 	movabs $0xffffffffffff531b,%r8
    ac1d:	ff ff ff 
    ac20:	49 01 d8             	add    %rbx,%r8
    ac23:	41 ff d0             	call   *%r8
    ac26:	eb 4e                	jmp    0xac76
    ac28:	8b 4d a0             	mov    -0x60(%rbp),%ecx
    ac2b:	b1 00                	mov    $0x0,%cl
    ac2d:	b8 00 00 00 00       	mov    $0x0,%eax
    ac32:	88 c5                	mov    %al,%ch
    ac34:	81 c9 00 00 ff 00    	or     $0xff0000,%ecx
    ac3a:	89 c8                	mov    %ecx,%eax
    ac3c:	25 ff ff ff 00       	and    $0xffffff,%eax
    ac41:	89 c2                	mov    %eax,%edx
    ac43:	48 b8 c3 04 00 00 00 	movabs $0x4c3,%rax
    ac4a:	00 00 00 
    ac4d:	48 8d 04 03          	lea    (%rbx,%rax,1),%rax
    ac51:	48 89 c1             	mov    %rax,%rcx
    ac54:	be 10 00 00 00       	mov    $0x10,%esi
    ac59:	bf 00 00 00 00       	mov    $0x0,%edi
    ac5e:	49 89 df             	mov    %rbx,%r15
    ac61:	b8 00 00 00 00       	mov    $0x0,%eax
    ac66:	49 b8 1b 53 ff ff ff 	movabs $0xffffffffffff531b,%r8
    ac6d:	ff ff ff 
    ac70:	49 01 d8             	add    %rbx,%r8
    ac73:	41 ff d0             	call   *%r8
    ac76:	48 8b 45 b0          	mov    -0x50(%rbp),%rax
    ac7a:	83 e0 08             	and    $0x8,%eax
    ac7d:	48 85 c0             	test   %rax,%rax
    ac80:	74 4e                	je     0xacd0
    ac82:	8b 55 9c             	mov    -0x64(%rbp),%edx
    ac85:	b2 00                	mov    $0x0,%dl
    ac87:	b8 00 00 00 00       	mov    $0x0,%eax
    ac8c:	88 c6                	mov    %al,%dh
    ac8e:	81 ca 00 00 ff 00    	or     $0xff0000,%edx
    ac94:	89 d0                	mov    %edx,%eax
    ac96:	25 ff ff ff 00       	and    $0xffffff,%eax
    ac9b:	89 c2                	mov    %eax,%edx
    ac9d:	48 b8 df 04 00 00 00 	movabs $0x4df,%rax
    aca4:	00 00 00 
    aca7:	48 8d 04 03          	lea    (%rbx,%rax,1),%rax
    acab:	48 89 c1             	mov    %rax,%rcx
    acae:	be 10 00 00 00       	mov    $0x10,%esi
    acb3:	bf 00 00 00 00       	mov    $0x0,%edi
    acb8:	49 89 df             	mov    %rbx,%r15
    acbb:	b8 00 00 00 00       	mov    $0x0,%eax
    acc0:	49 b8 1b 53 ff ff ff 	movabs $0xffffffffffff531b,%r8
    acc7:	ff ff ff 
    acca:	49 01 d8             	add    %rbx,%r8
    accd:	41 ff d0             	call   *%r8
    acd0:	48 8b 45 b0          	mov    -0x50(%rbp),%rax
    acd4:	83 e0 10             	and    $0x10,%eax
    acd7:	48 85 c0             	test   %rax,%rax
    acda:	74 5c                	je     0xad38
    acdc:	41 b6 00             	mov    $0x0,%r14b
    acdf:	b8 00 00 00 00       	mov    $0x0,%eax
    ace4:	44 89 f1             	mov    %r14d,%ecx
    ace7:	88 c5                	mov    %al,%ch
    ace9:	41 89 ce             	mov    %ecx,%r14d
    acec:	44 89 f0             	mov    %r14d,%eax
    acef:	0d 00 00 ff 00       	or     $0xff0000,%eax
    acf4:	41 89 c6             	mov    %eax,%r14d
    acf7:	44 89 f0             	mov    %r14d,%eax
    acfa:	25 ff ff ff 00       	and    $0xffffff,%eax
    acff:	41 89 c6             	mov    %eax,%r14d
    ad02:	48 b8 00 05 00 00 00 	movabs $0x500,%rax
    ad09:	00 00 00 
    ad0c:	48 8d 04 03          	lea    (%rbx,%rax,1),%rax
    ad10:	48 89 c1             	mov    %rax,%rcx
    ad13:	44 89 f2             	mov    %r14d,%edx
    ad16:	be 10 00 00 00       	mov    $0x10,%esi
    ad1b:	bf 00 00 00 00       	mov    $0x0,%edi
    ad20:	49 89 df             	mov    %rbx,%r15
    ad23:	b8 00 00 00 00       	mov    $0x0,%eax
    ad28:	49 b8 1b 53 ff ff ff 	movabs $0xffffffffffff531b,%r8
    ad2f:	ff ff ff 
    ad32:	49 01 d8             	add    %rbx,%r8
    ad35:	41 ff d0             	call   *%r8
    ad38:	41 b5 00             	mov    $0x0,%r13b
    ad3b:	b8 00 00 00 00       	mov    $0x0,%eax
    ad40:	44 89 ea             	mov    %r13d,%edx
    ad43:	88 c6                	mov    %al,%dh
    ad45:	41 89 d5             	mov    %edx,%r13d
    ad48:	44 89 e8             	mov    %r13d,%eax
    ad4b:	0d 00 00 ff 00       	or     $0xff0000,%eax
    ad50:	41 89 c5             	mov    %eax,%r13d
    ad53:	44 89 e8             	mov    %r13d,%eax
    ad56:	25 ff ff ff 00       	and    $0xffffff,%eax
    ad5b:	41 89 c5             	mov    %eax,%r13d
    ad5e:	48 8b 45 c0          	mov    -0x40(%rbp),%rax
    ad62:	49 89 c0             	mov    %rax,%r8
    ad65:	48 b8 1f 05 00 00 00 	movabs $0x51f,%rax
    ad6c:	00 00 00 
    ad6f:	48 8d 04 03          	lea    (%rbx,%rax,1),%rax
    ad73:	48 89 c1             	mov    %rax,%rcx
    ad76:	44 89 ea             	mov    %r13d,%edx
    ad79:	be 20 00 00 00       	mov    $0x20,%esi
    ad7e:	bf 00 00 00 00       	mov    $0x0,%edi
    ad83:	49 89 df             	mov    %rbx,%r15
    ad86:	b8 00 00 00 00       	mov    $0x0,%eax
    ad8b:	49 b9 1b 53 ff ff ff 	movabs $0xffffffffffff531b,%r9
    ad92:	ff ff ff 
    ad95:	49 01 d9             	add    %rbx,%r9
    ad98:	41 ff d1             	call   *%r9
    ad9b:	eb fe                	jmp    0xad9b
    ad9d:	f3 0f 1e fa          	endbr64 
    ada1:	55                   	push   %rbp
    ada2:	48 89 e5             	mov    %rsp,%rbp
    ada5:	41 57                	push   %r15
    ada7:	48 83 ec 28          	sub    $0x28,%rsp
    adab:	4c 8d 15 f9 ff ff ff 	lea    -0x7(%rip),%r10        # 0xadab
    adb2:	49 bb ad 47 00 00 00 	movabs $0x47ad,%r11
    adb9:	00 00 00 
    adbc:	4d 01 da             	add    %r11,%r10
    adbf:	48 89 7d d8          	mov    %rdi,-0x28(%rbp)
    adc3:	48 89 75 d0          	mov    %rsi,-0x30(%rbp)
    adc7:	48 c7 45 e8 00 00 00 	movq   $0x0,-0x18(%rbp)
    adce:	00 
    adcf:	48 8b 55 d8          	mov    -0x28(%rbp),%rdx
    add3:	48 81 c2 98 00 00 00 	add    $0x98,%rdx
    adda:	48 89 55 e8          	mov    %rdx,-0x18(%rbp)
    adde:	48 8b 55 e8          	mov    -0x18(%rbp),%rdx
    ade2:	48 8b 12             	mov    (%rdx),%rdx
    ade5:	b0 00                	mov    $0x0,%al
    ade7:	b9 00 00 00 00       	mov    $0x0,%ecx
    adec:	88 cc                	mov    %cl,%ah
    adee:	0d 00 00 ff 00       	or     $0xff0000,%eax
    adf3:	25 ff ff ff 00       	and    $0xffffff,%eax
    adf8:	48 8b 75 d8          	mov    -0x28(%rbp),%rsi
    adfc:	48 8b 4d d0          	mov    -0x30(%rbp),%rcx
    ae00:	48 83 ec 08          	sub    $0x8,%rsp
    ae04:	52                   	push   %rdx
    ae05:	49 89 f1             	mov    %rsi,%r9
    ae08:	49 89 c8             	mov    %rcx,%r8
    ae0b:	48 ba 28 05 00 00 00 	movabs $0x528,%rdx
    ae12:	00 00 00 
    ae15:	49 8d 14 12          	lea    (%r10,%rdx,1),%rdx
    ae19:	48 89 d1             	mov    %rdx,%rcx
    ae1c:	89 c2                	mov    %eax,%edx
    ae1e:	be 00 00 00 00       	mov    $0x0,%esi
    ae23:	bf 00 00 00 00       	mov    $0x0,%edi
    ae28:	4d 89 d7             	mov    %r10,%r15
    ae2b:	b8 00 00 00 00       	mov    $0x0,%eax
    ae30:	49 bb 1b 53 ff ff ff 	movabs $0xffffffffffff531b,%r11
    ae37:	ff ff ff 
    ae3a:	4d 01 d3             	add    %r10,%r11
    ae3d:	41 ff d3             	call   *%r11
    ae40:	48 83 c4 10          	add    $0x10,%rsp
    ae44:	eb fe                	jmp    0xae44
    ae46:	f3 0f 1e fa          	endbr64 
    ae4a:	55                   	push   %rbp
    ae4b:	48 89 e5             	mov    %rsp,%rbp
    ae4e:	41 57                	push   %r15
    ae50:	48 83 ec 28          	sub    $0x28,%rsp
    ae54:	4c 8d 15 f9 ff ff ff 	lea    -0x7(%rip),%r10        # 0xae54
    ae5b:	49 bb 04 47 00 00 00 	movabs $0x4704,%r11
    ae62:	00 00 00 
    ae65:	4d 01 da             	add    %r11,%r10
    ae68:	48 89 7d d8          	mov    %rdi,-0x28(%rbp)
    ae6c:	48 89 75 d0          	mov    %rsi,-0x30(%rbp)
    ae70:	48 c7 45 e8 00 00 00 	movq   $0x0,-0x18(%rbp)
    ae77:	00 
    ae78:	48 8b 55 d8          	mov    -0x28(%rbp),%rdx
    ae7c:	48 81 c2 98 00 00 00 	add    $0x98,%rdx
    ae83:	48 89 55 e8          	mov    %rdx,-0x18(%rbp)
    ae87:	48 8b 55 e8          	mov    -0x18(%rbp),%rdx
    ae8b:	48 8b 12             	mov    (%rdx),%rdx
    ae8e:	b0 00                	mov    $0x0,%al
    ae90:	b9 00 00 00 00       	mov    $0x0,%ecx
    ae95:	88 cc                	mov    %cl,%ah
    ae97:	0d 00 00 ff 00       	or     $0xff0000,%eax
    ae9c:	25 ff ff ff 00       	and    $0xffffff,%eax
    aea1:	48 8b 75 d8          	mov    -0x28(%rbp),%rsi
    aea5:	48 8b 4d d0          	mov    -0x30(%rbp),%rcx
    aea9:	48 83 ec 08          	sub    $0x8,%rsp
    aead:	52                   	push   %rdx
    aeae:	49 89 f1             	mov    %rsi,%r9
    aeb1:	49 89 c8             	mov    %rcx,%r8
    aeb4:	48 ba 60 05 00 00 00 	movabs $0x560,%rdx
    aebb:	00 00 00 
    aebe:	49 8d 14 12          	lea    (%r10,%rdx,1),%rdx
    aec2:	48 89 d1             	mov    %rdx,%rcx
    aec5:	89 c2                	mov    %eax,%edx
    aec7:	be 00 00 00 00       	mov    $0x0,%esi
    aecc:	bf 00 00 00 00       	mov    $0x0,%edi
    aed1:	4d 89 d7             	mov    %r10,%r15
    aed4:	b8 00 00 00 00       	mov    $0x0,%eax
    aed9:	49 bb 1b 53 ff ff ff 	movabs $0xffffffffffff531b,%r11
    aee0:	ff ff ff 
    aee3:	4d 01 d3             	add    %r10,%r11
    aee6:	41 ff d3             	call   *%r11
    aee9:	48 83 c4 10          	add    $0x10,%rsp
    aeed:	eb fe                	jmp    0xaeed
    aeef:	f3 0f 1e fa          	endbr64 
    aef3:	55                   	push   %rbp
    aef4:	48 89 e5             	mov    %rsp,%rbp
    aef7:	41 57                	push   %r15
    aef9:	48 83 ec 28          	sub    $0x28,%rsp
    aefd:	4c 8d 15 f9 ff ff ff 	lea    -0x7(%rip),%r10        # 0xaefd
    af04:	49 bb 5b 46 00 00 00 	movabs $0x465b,%r11
    af0b:	00 00 00 
    af0e:	4d 01 da             	add    %r11,%r10
    af11:	48 89 7d d8          	mov    %rdi,-0x28(%rbp)
    af15:	48 89 75 d0          	mov    %rsi,-0x30(%rbp)
    af19:	48 c7 45 e8 00 00 00 	movq   $0x0,-0x18(%rbp)
    af20:	00 
    af21:	48 8b 55 d8          	mov    -0x28(%rbp),%rdx
    af25:	48 81 c2 98 00 00 00 	add    $0x98,%rdx
    af2c:	48 89 55 e8          	mov    %rdx,-0x18(%rbp)
    af30:	48 8b 55 e8          	mov    -0x18(%rbp),%rdx
    af34:	48 8b 12             	mov    (%rdx),%rdx
    af37:	b0 00                	mov    $0x0,%al
    af39:	b9 00 00 00 00       	mov    $0x0,%ecx
    af3e:	88 cc                	mov    %cl,%ah
    af40:	0d 00 00 ff 00       	or     $0xff0000,%eax
    af45:	25 ff ff ff 00       	and    $0xffffff,%eax
    af4a:	48 8b 75 d8          	mov    -0x28(%rbp),%rsi
    af4e:	48 8b 4d d0          	mov    -0x30(%rbp),%rcx
    af52:	48 83 ec 08          	sub    $0x8,%rsp
    af56:	52                   	push   %rdx
    af57:	49 89 f1             	mov    %rsi,%r9
    af5a:	49 89 c8             	mov    %rcx,%r8
    af5d:	48 ba 98 05 00 00 00 	movabs $0x598,%rdx
    af64:	00 00 00 
    af67:	49 8d 14 12          	lea    (%r10,%rdx,1),%rdx
    af6b:	48 89 d1             	mov    %rdx,%rcx
    af6e:	89 c2                	mov    %eax,%edx
    af70:	be 00 00 00 00       	mov    $0x0,%esi
    af75:	bf 00 00 00 00       	mov    $0x0,%edi
    af7a:	4d 89 d7             	mov    %r10,%r15
    af7d:	b8 00 00 00 00       	mov    $0x0,%eax
    af82:	49 bb 1b 53 ff ff ff 	movabs $0xffffffffffff531b,%r11
    af89:	ff ff ff 
    af8c:	4d 01 d3             	add    %r10,%r11
    af8f:	41 ff d3             	call   *%r11
    af92:	48 83 c4 10          	add    $0x10,%rsp
    af96:	eb fe                	jmp    0xaf96
    af98:	f3 0f 1e fa          	endbr64 
    af9c:	55                   	push   %rbp
    af9d:	48 89 e5             	mov    %rsp,%rbp
    afa0:	41 57                	push   %r15
    afa2:	48 83 ec 28          	sub    $0x28,%rsp
    afa6:	4c 8d 15 f9 ff ff ff 	lea    -0x7(%rip),%r10        # 0xafa6
    afad:	49 bb b2 45 00 00 00 	movabs $0x45b2,%r11
    afb4:	00 00 00 
    afb7:	4d 01 da             	add    %r11,%r10
    afba:	48 89 7d d8          	mov    %rdi,-0x28(%rbp)
    afbe:	48 89 75 d0          	mov    %rsi,-0x30(%rbp)
    afc2:	48 c7 45 e8 00 00 00 	movq   $0x0,-0x18(%rbp)
    afc9:	00 
    afca:	48 8b 55 d8          	mov    -0x28(%rbp),%rdx
    afce:	48 81 c2 98 00 00 00 	add    $0x98,%rdx
    afd5:	48 89 55 e8          	mov    %rdx,-0x18(%rbp)
    afd9:	48 8b 55 e8          	mov    -0x18(%rbp),%rdx
    afdd:	48 8b 12             	mov    (%rdx),%rdx
    afe0:	b0 00                	mov    $0x0,%al
    afe2:	b9 00 00 00 00       	mov    $0x0,%ecx
    afe7:	88 cc                	mov    %cl,%ah
    afe9:	0d 00 00 ff 00       	or     $0xff0000,%eax
    afee:	25 ff ff ff 00       	and    $0xffffff,%eax
    aff3:	48 8b 75 d8          	mov    -0x28(%rbp),%rsi
    aff7:	48 8b 4d d0          	mov    -0x30(%rbp),%rcx
    affb:	48 83 ec 08          	sub    $0x8,%rsp
    afff:	52                   	push   %rdx
    b000:	49 89 f1             	mov    %rsi,%r9
    b003:	49 89 c8             	mov    %rcx,%r8
    b006:	48 ba d0 05 00 00 00 	movabs $0x5d0,%rdx
    b00d:	00 00 00 
    b010:	49 8d 14 12          	lea    (%r10,%rdx,1),%rdx
    b014:	48 89 d1             	mov    %rdx,%rcx
    b017:	89 c2                	mov    %eax,%edx
    b019:	be 00 00 00 00       	mov    $0x0,%esi
    b01e:	bf 00 00 00 00       	mov    $0x0,%edi
    b023:	4d 89 d7             	mov    %r10,%r15
    b026:	b8 00 00 00 00       	mov    $0x0,%eax
    b02b:	49 bb 1b 53 ff ff ff 	movabs $0xffffffffffff531b,%r11
    b032:	ff ff ff 
    b035:	4d 01 d3             	add    %r10,%r11
    b038:	41 ff d3             	call   *%r11
    b03b:	48 83 c4 10          	add    $0x10,%rsp
    b03f:	eb fe                	jmp    0xb03f
    b041:	f3 0f 1e fa          	endbr64 
    b045:	55                   	push   %rbp
    b046:	48 89 e5             	mov    %rsp,%rbp
    b049:	41 57                	push   %r15
    b04b:	48 83 ec 28          	sub    $0x28,%rsp
    b04f:	4c 8d 15 f9 ff ff ff 	lea    -0x7(%rip),%r10        # 0xb04f
    b056:	49 bb 09 45 00 00 00 	movabs $0x4509,%r11
    b05d:	00 00 00 
    b060:	4d 01 da             	add    %r11,%r10
    b063:	48 89 7d d8          	mov    %rdi,-0x28(%rbp)
    b067:	48 89 75 d0          	mov    %rsi,-0x30(%rbp)
    b06b:	48 c7 45 e8 00 00 00 	movq   $0x0,-0x18(%rbp)
    b072:	00 
    b073:	48 8b 55 d8          	mov    -0x28(%rbp),%rdx
    b077:	48 81 c2 98 00 00 00 	add    $0x98,%rdx
    b07e:	48 89 55 e8          	mov    %rdx,-0x18(%rbp)
    b082:	48 8b 55 e8          	mov    -0x18(%rbp),%rdx
    b086:	48 8b 12             	mov    (%rdx),%rdx
    b089:	b0 00                	mov    $0x0,%al
    b08b:	b9 00 00 00 00       	mov    $0x0,%ecx
    b090:	88 cc                	mov    %cl,%ah
    b092:	0d 00 00 ff 00       	or     $0xff0000,%eax
    b097:	25 ff ff ff 00       	and    $0xffffff,%eax
    b09c:	48 8b 75 d8          	mov    -0x28(%rbp),%rsi
    b0a0:	48 8b 4d d0          	mov    -0x30(%rbp),%rcx
    b0a4:	48 83 ec 08          	sub    $0x8,%rsp
    b0a8:	52                   	push   %rdx
    b0a9:	49 89 f1             	mov    %rsi,%r9
    b0ac:	49 89 c8             	mov    %rcx,%r8
    b0af:	48 ba 08 06 00 00 00 	movabs $0x608,%rdx
    b0b6:	00 00 00 
    b0b9:	49 8d 14 12          	lea    (%r10,%rdx,1),%rdx
    b0bd:	48 89 d1             	mov    %rdx,%rcx
    b0c0:	89 c2                	mov    %eax,%edx
    b0c2:	be 00 00 00 00       	mov    $0x0,%esi
    b0c7:	bf 00 00 00 00       	mov    $0x0,%edi
    b0cc:	4d 89 d7             	mov    %r10,%r15
    b0cf:	b8 00 00 00 00       	mov    $0x0,%eax
    b0d4:	49 bb 1b 53 ff ff ff 	movabs $0xffffffffffff531b,%r11
    b0db:	ff ff ff 
    b0de:	4d 01 d3             	add    %r10,%r11
    b0e1:	41 ff d3             	call   *%r11
    b0e4:	48 83 c4 10          	add    $0x10,%rsp
    b0e8:	eb fe                	jmp    0xb0e8
    b0ea:	f3 0f 1e fa          	endbr64 
    b0ee:	55                   	push   %rbp
    b0ef:	48 89 e5             	mov    %rsp,%rbp
    b0f2:	48 81 ec 08 02 00 00 	sub    $0x208,%rsp
    b0f9:	48 8d 35 f9 ff ff ff 	lea    -0x7(%rip),%rsi        # 0xb0f9
    b100:	49 bb 5f 44 00 00 00 	movabs $0x445f,%r11
    b107:	00 00 00 
    b10a:	4c 01 de             	add    %r11,%rsi
    b10d:	c7 85 9c fd ff ff 00 	movl   $0x0,-0x264(%rbp)
    b114:	00 00 00 
    b117:	c6 85 9b fd ff ff 01 	movb   $0x1,-0x265(%rbp)
    b11e:	48 b8 48 ff ff ff ff 	movabs $0xffffffffffffff48,%rax
    b125:	ff ff ff 
    b128:	48 8b 04 06          	mov    (%rsi,%rax,1),%rax
    b12c:	48 89 85 90 fd ff ff 	mov    %rax,-0x270(%rbp)
    b133:	8b 85 9c fd ff ff    	mov    -0x264(%rbp),%eax
    b139:	48 c1 e0 04          	shl    $0x4,%rax
    b13d:	48 89 c2             	mov    %rax,%rdx
    b140:	48 b8 88 ff ff ff ff 	movabs $0xffffffffffffff88,%rax
    b147:	ff ff ff 
    b14a:	48 8b 04 06          	mov    (%rsi,%rax,1),%rax
    b14e:	48 8d 3c 02          	lea    (%rdx,%rax,1),%rdi
    b152:	8b 85 9c fd ff ff    	mov    -0x264(%rbp),%eax
    b158:	48 c1 e0 04          	shl    $0x4,%rax
    b15c:	48 8d 50 08          	lea    0x8(%rax),%rdx
    b160:	48 b8 88 ff ff ff ff 	movabs $0xffffffffffffff88,%rax
    b167:	ff ff ff 
    b16a:	48 8b 04 06          	mov    (%rsi,%rax,1),%rax
    b16e:	4c 8d 04 02          	lea    (%rdx,%rax,1),%r8
    b172:	48 8b 85 90 fd ff ff 	mov    -0x270(%rbp),%rax
    b179:	41 b9 00 00 08 00    	mov    $0x80000,%r9d
    b17f:	0f b6 8d 9b fd ff ff 	movzbl -0x265(%rbp),%ecx
    b186:	48 89 c2             	mov    %rax,%rdx
    b189:	44 89 c8             	mov    %r9d,%eax
    b18c:	66 89 d0             	mov    %dx,%ax
    b18f:	48 83 e1 07          	and    $0x7,%rcx
    b193:	48 81 c1 00 8f 00 00 	add    $0x8f00,%rcx
    b19a:	48 c1 e1 20          	shl    $0x20,%rcx
    b19e:	48 01 c8             	add    %rcx,%rax
    b1a1:	48 31 c9             	xor    %rcx,%rcx
    b1a4:	89 d1                	mov    %edx,%ecx
    b1a6:	48 c1 e9 10          	shr    $0x10,%rcx
    b1aa:	48 c1 e1 30          	shl    $0x30,%rcx
    b1ae:	48 01 c8             	add    %rcx,%rax
    b1b1:	48 89 07             	mov    %rax,(%rdi)
    b1b4:	48 c1 ea 20          	shr    $0x20,%rdx
    b1b8:	49 89 10             	mov    %rdx,(%r8)
    b1bb:	48 89 85 88 fd ff ff 	mov    %rax,-0x278(%rbp)
    b1c2:	48 89 95 80 fd ff ff 	mov    %rdx,-0x280(%rbp)
    b1c9:	90                   	nop
    b1ca:	c7 85 bc fd ff ff 01 	movl   $0x1,-0x244(%rbp)
    b1d1:	00 00 00 
    b1d4:	c6 85 bb fd ff ff 01 	movb   $0x1,-0x245(%rbp)
    b1db:	48 b8 60 ff ff ff ff 	movabs $0xffffffffffffff60,%rax
    b1e2:	ff ff ff 
    b1e5:	48 8b 04 06          	mov    (%rsi,%rax,1),%rax
    b1e9:	48 89 85 b0 fd ff ff 	mov    %rax,-0x250(%rbp)
    b1f0:	8b 85 bc fd ff ff    	mov    -0x244(%rbp),%eax
    b1f6:	48 c1 e0 04          	shl    $0x4,%rax
    b1fa:	48 89 c2             	mov    %rax,%rdx
    b1fd:	48 b8 88 ff ff ff ff 	movabs $0xffffffffffffff88,%rax
    b204:	ff ff ff 
    b207:	48 8b 04 06          	mov    (%rsi,%rax,1),%rax
    b20b:	48 8d 3c 02          	lea    (%rdx,%rax,1),%rdi
    b20f:	8b 85 bc fd ff ff    	mov    -0x244(%rbp),%eax
    b215:	48 c1 e0 04          	shl    $0x4,%rax
    b219:	48 8d 50 08          	lea    0x8(%rax),%rdx
    b21d:	48 b8 88 ff ff ff ff 	movabs $0xffffffffffffff88,%rax
    b224:	ff ff ff 
    b227:	48 8b 04 06          	mov    (%rsi,%rax,1),%rax
    b22b:	4c 8d 04 02          	lea    (%rdx,%rax,1),%r8
    b22f:	48 8b 85 b0 fd ff ff 	mov    -0x250(%rbp),%rax
    b236:	41 b9 00 00 08 00    	mov    $0x80000,%r9d
    b23c:	0f b6 8d bb fd ff ff 	movzbl -0x245(%rbp),%ecx
    b243:	48 89 c2             	mov    %rax,%rdx
    b246:	44 89 c8             	mov    %r9d,%eax
    b249:	66 89 d0             	mov    %dx,%ax
    b24c:	48 83 e1 07          	and    $0x7,%rcx
    b250:	48 81 c1 00 8f 00 00 	add    $0x8f00,%rcx
    b257:	48 c1 e1 20          	shl    $0x20,%rcx
    b25b:	48 01 c8             	add    %rcx,%rax
    b25e:	48 31 c9             	xor    %rcx,%rcx
    b261:	89 d1                	mov    %edx,%ecx
    b263:	48 c1 e9 10          	shr    $0x10,%rcx
    b267:	48 c1 e1 30          	shl    $0x30,%rcx
    b26b:	48 01 c8             	add    %rcx,%rax
    b26e:	48 89 07             	mov    %rax,(%rdi)
    b271:	48 c1 ea 20          	shr    $0x20,%rdx
    b275:	49 89 10             	mov    %rdx,(%r8)
    b278:	48 89 85 a8 fd ff ff 	mov    %rax,-0x258(%rbp)
    b27f:	48 89 95 a0 fd ff ff 	mov    %rdx,-0x260(%rbp)
    b286:	90                   	nop
    b287:	c7 85 dc fd ff ff 02 	movl   $0x2,-0x224(%rbp)
    b28e:	00 00 00 
    b291:	c6 85 db fd ff ff 01 	movb   $0x1,-0x225(%rbp)
    b298:	48 b8 e8 ff ff ff ff 	movabs $0xffffffffffffffe8,%rax
    b29f:	ff ff ff 
    b2a2:	48 8b 04 06          	mov    (%rsi,%rax,1),%rax
    b2a6:	48 89 85 d0 fd ff ff 	mov    %rax,-0x230(%rbp)
    b2ad:	8b 85 dc fd ff ff    	mov    -0x224(%rbp),%eax
    b2b3:	48 c1 e0 04          	shl    $0x4,%rax
    b2b7:	48 89 c2             	mov    %rax,%rdx
    b2ba:	48 b8 88 ff ff ff ff 	movabs $0xffffffffffffff88,%rax
    b2c1:	ff ff ff 
    b2c4:	48 8b 04 06          	mov    (%rsi,%rax,1),%rax
    b2c8:	48 8d 3c 02          	lea    (%rdx,%rax,1),%rdi
    b2cc:	8b 85 dc fd ff ff    	mov    -0x224(%rbp),%eax
    b2d2:	48 c1 e0 04          	shl    $0x4,%rax
    b2d6:	48 8d 50 08          	lea    0x8(%rax),%rdx
    b2da:	48 b8 88 ff ff ff ff 	movabs $0xffffffffffffff88,%rax
    b2e1:	ff ff ff 
    b2e4:	48 8b 04 06          	mov    (%rsi,%rax,1),%rax
    b2e8:	4c 8d 04 02          	lea    (%rdx,%rax,1),%r8
    b2ec:	48 8b 85 d0 fd ff ff 	mov    -0x230(%rbp),%rax
    b2f3:	41 b9 00 00 08 00    	mov    $0x80000,%r9d
    b2f9:	0f b6 8d db fd ff ff 	movzbl -0x225(%rbp),%ecx
    b300:	48 89 c2             	mov    %rax,%rdx
    b303:	44 89 c8             	mov    %r9d,%eax
    b306:	66 89 d0             	mov    %dx,%ax
    b309:	48 83 e1 07          	and    $0x7,%rcx
    b30d:	48 81 c1 00 8e 00 00 	add    $0x8e00,%rcx
    b314:	48 c1 e1 20          	shl    $0x20,%rcx
    b318:	48 01 c8             	add    %rcx,%rax
    b31b:	48 31 c9             	xor    %rcx,%rcx
    b31e:	89 d1                	mov    %edx,%ecx
    b320:	48 c1 e9 10          	shr    $0x10,%rcx
    b324:	48 c1 e1 30          	shl    $0x30,%rcx
    b328:	48 01 c8             	add    %rcx,%rax
    b32b:	48 89 07             	mov    %rax,(%rdi)
    b32e:	48 c1 ea 20          	shr    $0x20,%rdx
    b332:	49 89 10             	mov    %rdx,(%r8)
    b335:	48 89 85 c8 fd ff ff 	mov    %rax,-0x238(%rbp)
    b33c:	48 89 95 c0 fd ff ff 	mov    %rdx,-0x240(%rbp)
    b343:	90                   	nop
    b344:	c7 85 fc fd ff ff 03 	movl   $0x3,-0x204(%rbp)
    b34b:	00 00 00 
    b34e:	c6 85 fb fd ff ff 01 	movb   $0x1,-0x205(%rbp)
    b355:	48 b8 f8 ff ff ff ff 	movabs $0xfffffffffffffff8,%rax
    b35c:	ff ff ff 
    b35f:	48 8b 04 06          	mov    (%rsi,%rax,1),%rax
    b363:	48 89 85 f0 fd ff ff 	mov    %rax,-0x210(%rbp)
    b36a:	8b 85 fc fd ff ff    	mov    -0x204(%rbp),%eax
    b370:	48 c1 e0 04          	shl    $0x4,%rax
    b374:	48 89 c2             	mov    %rax,%rdx
    b377:	48 b8 88 ff ff ff ff 	movabs $0xffffffffffffff88,%rax
    b37e:	ff ff ff 
    b381:	48 8b 04 06          	mov    (%rsi,%rax,1),%rax
    b385:	48 8d 3c 02          	lea    (%rdx,%rax,1),%rdi
    b389:	8b 85 fc fd ff ff    	mov    -0x204(%rbp),%eax
    b38f:	48 c1 e0 04          	shl    $0x4,%rax
    b393:	48 8d 50 08          	lea    0x8(%rax),%rdx
    b397:	48 b8 88 ff ff ff ff 	movabs $0xffffffffffffff88,%rax
    b39e:	ff ff ff 
    b3a1:	48 8b 04 06          	mov    (%rsi,%rax,1),%rax
    b3a5:	4c 8d 04 02          	lea    (%rdx,%rax,1),%r8
    b3a9:	48 8b 85 f0 fd ff ff 	mov    -0x210(%rbp),%rax
    b3b0:	41 b9 00 00 08 00    	mov    $0x80000,%r9d
    b3b6:	0f b6 8d fb fd ff ff 	movzbl -0x205(%rbp),%ecx
    b3bd:	48 89 c2             	mov    %rax,%rdx
    b3c0:	44 89 c8             	mov    %r9d,%eax
    b3c3:	66 89 d0             	mov    %dx,%ax
    b3c6:	48 83 e1 07          	and    $0x7,%rcx
    b3ca:	48 81 c1 00 ef 00 00 	add    $0xef00,%rcx
    b3d1:	48 c1 e1 20          	shl    $0x20,%rcx
    b3d5:	48 01 c8             	add    %rcx,%rax
    b3d8:	48 31 c9             	xor    %rcx,%rcx
    b3db:	89 d1                	mov    %edx,%ecx
    b3dd:	48 c1 e9 10          	shr    $0x10,%rcx
    b3e1:	48 c1 e1 30          	shl    $0x30,%rcx
    b3e5:	48 01 c8             	add    %rcx,%rax
    b3e8:	48 89 07             	mov    %rax,(%rdi)
    b3eb:	48 c1 ea 20          	shr    $0x20,%rdx
    b3ef:	49 89 10             	mov    %rdx,(%r8)
    b3f2:	48 89 85 e8 fd ff ff 	mov    %rax,-0x218(%rbp)
    b3f9:	48 89 95 e0 fd ff ff 	mov    %rdx,-0x220(%rbp)
    b400:	90                   	nop
    b401:	c7 85 1c fe ff ff 04 	movl   $0x4,-0x1e4(%rbp)
    b408:	00 00 00 
    b40b:	c6 85 1b fe ff ff 01 	movb   $0x1,-0x1e5(%rbp)
    b412:	48 b8 58 ff ff ff ff 	movabs $0xffffffffffffff58,%rax
    b419:	ff ff ff 
    b41c:	48 8b 04 06          	mov    (%rsi,%rax,1),%rax
    b420:	48 89 85 10 fe ff ff 	mov    %rax,-0x1f0(%rbp)
    b427:	8b 85 1c fe ff ff    	mov    -0x1e4(%rbp),%eax
    b42d:	48 c1 e0 04          	shl    $0x4,%rax
    b431:	48 89 c2             	mov    %rax,%rdx
    b434:	48 b8 88 ff ff ff ff 	movabs $0xffffffffffffff88,%rax
    b43b:	ff ff ff 
    b43e:	48 8b 04 06          	mov    (%rsi,%rax,1),%rax
    b442:	48 8d 3c 02          	lea    (%rdx,%rax,1),%rdi
    b446:	8b 85 1c fe ff ff    	mov    -0x1e4(%rbp),%eax
    b44c:	48 c1 e0 04          	shl    $0x4,%rax
    b450:	48 8d 50 08          	lea    0x8(%rax),%rdx
    b454:	48 b8 88 ff ff ff ff 	movabs $0xffffffffffffff88,%rax
    b45b:	ff ff ff 
    b45e:	48 8b 04 06          	mov    (%rsi,%rax,1),%rax
    b462:	4c 8d 04 02          	lea    (%rdx,%rax,1),%r8
    b466:	48 8b 85 10 fe ff ff 	mov    -0x1f0(%rbp),%rax
    b46d:	41 b9 00 00 08 00    	mov    $0x80000,%r9d
    b473:	0f b6 8d 1b fe ff ff 	movzbl -0x1e5(%rbp),%ecx
    b47a:	48 89 c2             	mov    %rax,%rdx
    b47d:	44 89 c8             	mov    %r9d,%eax
    b480:	66 89 d0             	mov    %dx,%ax
    b483:	48 83 e1 07          	and    $0x7,%rcx
    b487:	48 81 c1 00 ef 00 00 	add    $0xef00,%rcx
    b48e:	48 c1 e1 20          	shl    $0x20,%rcx
    b492:	48 01 c8             	add    %rcx,%rax
    b495:	48 31 c9             	xor    %rcx,%rcx
    b498:	89 d1                	mov    %edx,%ecx
    b49a:	48 c1 e9 10          	shr    $0x10,%rcx
    b49e:	48 c1 e1 30          	shl    $0x30,%rcx
    b4a2:	48 01 c8             	add    %rcx,%rax
    b4a5:	48 89 07             	mov    %rax,(%rdi)
    b4a8:	48 c1 ea 20          	shr    $0x20,%rdx
    b4ac:	49 89 10             	mov    %rdx,(%r8)
    b4af:	48 89 85 08 fe ff ff 	mov    %rax,-0x1f8(%rbp)
    b4b6:	48 89 95 00 fe ff ff 	mov    %rdx,-0x200(%rbp)
    b4bd:	90                   	nop
    b4be:	c7 85 3c fe ff ff 05 	movl   $0x5,-0x1c4(%rbp)
    b4c5:	00 00 00 
    b4c8:	c6 85 3b fe ff ff 01 	movb   $0x1,-0x1c5(%rbp)
    b4cf:	48 b8 68 ff ff ff ff 	movabs $0xffffffffffffff68,%rax
    b4d6:	ff ff ff 
    b4d9:	48 8b 04 06          	mov    (%rsi,%rax,1),%rax
    b4dd:	48 89 85 30 fe ff ff 	mov    %rax,-0x1d0(%rbp)
    b4e4:	8b 85 3c fe ff ff    	mov    -0x1c4(%rbp),%eax
    b4ea:	48 c1 e0 04          	shl    $0x4,%rax
    b4ee:	48 89 c2             	mov    %rax,%rdx
    b4f1:	48 b8 88 ff ff ff ff 	movabs $0xffffffffffffff88,%rax
    b4f8:	ff ff ff 
    b4fb:	48 8b 04 06          	mov    (%rsi,%rax,1),%rax
    b4ff:	48 8d 3c 02          	lea    (%rdx,%rax,1),%rdi
    b503:	8b 85 3c fe ff ff    	mov    -0x1c4(%rbp),%eax
    b509:	48 c1 e0 04          	shl    $0x4,%rax
    b50d:	48 8d 50 08          	lea    0x8(%rax),%rdx
    b511:	48 b8 88 ff ff ff ff 	movabs $0xffffffffffffff88,%rax
    b518:	ff ff ff 
    b51b:	48 8b 04 06          	mov    (%rsi,%rax,1),%rax
    b51f:	4c 8d 04 02          	lea    (%rdx,%rax,1),%r8
    b523:	48 8b 85 30 fe ff ff 	mov    -0x1d0(%rbp),%rax
    b52a:	41 b9 00 00 08 00    	mov    $0x80000,%r9d
    b530:	0f b6 8d 3b fe ff ff 	movzbl -0x1c5(%rbp),%ecx
    b537:	48 89 c2             	mov    %rax,%rdx
    b53a:	44 89 c8             	mov    %r9d,%eax
    b53d:	66 89 d0             	mov    %dx,%ax
    b540:	48 83 e1 07          	and    $0x7,%rcx
    b544:	48 81 c1 00 ef 00 00 	add    $0xef00,%rcx
    b54b:	48 c1 e1 20          	shl    $0x20,%rcx
    b54f:	48 01 c8             	add    %rcx,%rax
    b552:	48 31 c9             	xor    %rcx,%rcx
    b555:	89 d1                	mov    %edx,%ecx
    b557:	48 c1 e9 10          	shr    $0x10,%rcx
    b55b:	48 c1 e1 30          	shl    $0x30,%rcx
    b55f:	48 01 c8             	add    %rcx,%rax
    b562:	48 89 07             	mov    %rax,(%rdi)
    b565:	48 c1 ea 20          	shr    $0x20,%rdx
    b569:	49 89 10             	mov    %rdx,(%r8)
    b56c:	48 89 85 28 fe ff ff 	mov    %rax,-0x1d8(%rbp)
    b573:	48 89 95 20 fe ff ff 	mov    %rdx,-0x1e0(%rbp)
    b57a:	90                   	nop
    b57b:	c7 85 5c fe ff ff 06 	movl   $0x6,-0x1a4(%rbp)
    b582:	00 00 00 
    b585:	c6 85 5b fe ff ff 01 	movb   $0x1,-0x1a5(%rbp)
    b58c:	48 b8 90 ff ff ff ff 	movabs $0xffffffffffffff90,%rax
    b593:	ff ff ff 
    b596:	48 8b 04 06          	mov    (%rsi,%rax,1),%rax
    b59a:	48 89 85 50 fe ff ff 	mov    %rax,-0x1b0(%rbp)
    b5a1:	8b 85 5c fe ff ff    	mov    -0x1a4(%rbp),%eax
    b5a7:	48 c1 e0 04          	shl    $0x4,%rax
    b5ab:	48 89 c2             	mov    %rax,%rdx
    b5ae:	48 b8 88 ff ff ff ff 	movabs $0xffffffffffffff88,%rax
    b5b5:	ff ff ff 
    b5b8:	48 8b 04 06          	mov    (%rsi,%rax,1),%rax
    b5bc:	48 8d 3c 02          	lea    (%rdx,%rax,1),%rdi
    b5c0:	8b 85 5c fe ff ff    	mov    -0x1a4(%rbp),%eax
    b5c6:	48 c1 e0 04          	shl    $0x4,%rax
    b5ca:	48 8d 50 08          	lea    0x8(%rax),%rdx
    b5ce:	48 b8 88 ff ff ff ff 	movabs $0xffffffffffffff88,%rax
    b5d5:	ff ff ff 
    b5d8:	48 8b 04 06          	mov    (%rsi,%rax,1),%rax
    b5dc:	4c 8d 04 02          	lea    (%rdx,%rax,1),%r8
    b5e0:	48 8b 85 50 fe ff ff 	mov    -0x1b0(%rbp),%rax
    b5e7:	41 b9 00 00 08 00    	mov    $0x80000,%r9d
    b5ed:	0f b6 8d 5b fe ff ff 	movzbl -0x1a5(%rbp),%ecx
    b5f4:	48 89 c2             	mov    %rax,%rdx
    b5f7:	44 89 c8             	mov    %r9d,%eax
    b5fa:	66 89 d0             	mov    %dx,%ax
    b5fd:	48 83 e1 07          	and    $0x7,%rcx
    b601:	48 81 c1 00 8f 00 00 	add    $0x8f00,%rcx
    b608:	48 c1 e1 20          	shl    $0x20,%rcx
    b60c:	48 01 c8             	add    %rcx,%rax
    b60f:	48 31 c9             	xor    %rcx,%rcx
    b612:	89 d1                	mov    %edx,%ecx
    b614:	48 c1 e9 10          	shr    $0x10,%rcx
    b618:	48 c1 e1 30          	shl    $0x30,%rcx
    b61c:	48 01 c8             	add    %rcx,%rax
    b61f:	48 89 07             	mov    %rax,(%rdi)
    b622:	48 c1 ea 20          	shr    $0x20,%rdx
    b626:	49 89 10             	mov    %rdx,(%r8)
    b629:	48 89 85 48 fe ff ff 	mov    %rax,-0x1b8(%rbp)
    b630:	48 89 95 40 fe ff ff 	mov    %rdx,-0x1c0(%rbp)
    b637:	90                   	nop
    b638:	c7 85 7c fe ff ff 07 	movl   $0x7,-0x184(%rbp)
    b63f:	00 00 00 
    b642:	c6 85 7b fe ff ff 01 	movb   $0x1,-0x185(%rbp)
    b649:	48 b8 f0 ff ff ff ff 	movabs $0xfffffffffffffff0,%rax
    b650:	ff ff ff 
    b653:	48 8b 04 06          	mov    (%rsi,%rax,1),%rax
    b657:	48 89 85 70 fe ff ff 	mov    %rax,-0x190(%rbp)
    b65e:	8b 85 7c fe ff ff    	mov    -0x184(%rbp),%eax
    b664:	48 c1 e0 04          	shl    $0x4,%rax
    b668:	48 89 c2             	mov    %rax,%rdx
    b66b:	48 b8 88 ff ff ff ff 	movabs $0xffffffffffffff88,%rax
    b672:	ff ff ff 
    b675:	48 8b 04 06          	mov    (%rsi,%rax,1),%rax
    b679:	48 8d 3c 02          	lea    (%rdx,%rax,1),%rdi
    b67d:	8b 85 7c fe ff ff    	mov    -0x184(%rbp),%eax
    b683:	48 c1 e0 04          	shl    $0x4,%rax
    b687:	48 8d 50 08          	lea    0x8(%rax),%rdx
    b68b:	48 b8 88 ff ff ff ff 	movabs $0xffffffffffffff88,%rax
    b692:	ff ff ff 
    b695:	48 8b 04 06          	mov    (%rsi,%rax,1),%rax
    b699:	4c 8d 04 02          	lea    (%rdx,%rax,1),%r8
    b69d:	48 8b 85 70 fe ff ff 	mov    -0x190(%rbp),%rax
    b6a4:	41 b9 00 00 08 00    	mov    $0x80000,%r9d
    b6aa:	0f b6 8d 7b fe ff ff 	movzbl -0x185(%rbp),%ecx
    b6b1:	48 89 c2             	mov    %rax,%rdx
    b6b4:	44 89 c8             	mov    %r9d,%eax
    b6b7:	66 89 d0             	mov    %dx,%ax
    b6ba:	48 83 e1 07          	and    $0x7,%rcx
    b6be:	48 81 c1 00 8f 00 00 	add    $0x8f00,%rcx
    b6c5:	48 c1 e1 20          	shl    $0x20,%rcx
    b6c9:	48 01 c8             	add    %rcx,%rax
    b6cc:	48 31 c9             	xor    %rcx,%rcx
    b6cf:	89 d1                	mov    %edx,%ecx
    b6d1:	48 c1 e9 10          	shr    $0x10,%rcx
    b6d5:	48 c1 e1 30          	shl    $0x30,%rcx
    b6d9:	48 01 c8             	add    %rcx,%rax
    b6dc:	48 89 07             	mov    %rax,(%rdi)
    b6df:	48 c1 ea 20          	shr    $0x20,%rdx
    b6e3:	49 89 10             	mov    %rdx,(%r8)
    b6e6:	48 89 85 68 fe ff ff 	mov    %rax,-0x198(%rbp)
    b6ed:	48 89 95 60 fe ff ff 	mov    %rdx,-0x1a0(%rbp)
    b6f4:	90                   	nop
    b6f5:	c7 85 9c fe ff ff 08 	movl   $0x8,-0x164(%rbp)
    b6fc:	00 00 00 
    b6ff:	c6 85 9b fe ff ff 01 	movb   $0x1,-0x165(%rbp)
    b706:	48 b8 b0 ff ff ff ff 	movabs $0xffffffffffffffb0,%rax
    b70d:	ff ff ff 
    b710:	48 8b 04 06          	mov    (%rsi,%rax,1),%rax
    b714:	48 89 85 90 fe ff ff 	mov    %rax,-0x170(%rbp)
    b71b:	8b 85 9c fe ff ff    	mov    -0x164(%rbp),%eax
    b721:	48 c1 e0 04          	shl    $0x4,%rax
    b725:	48 89 c2             	mov    %rax,%rdx
    b728:	48 b8 88 ff ff ff ff 	movabs $0xffffffffffffff88,%rax
    b72f:	ff ff ff 
    b732:	48 8b 04 06          	mov    (%rsi,%rax,1),%rax
    b736:	48 8d 3c 02          	lea    (%rdx,%rax,1),%rdi
    b73a:	8b 85 9c fe ff ff    	mov    -0x164(%rbp),%eax
    b740:	48 c1 e0 04          	shl    $0x4,%rax
    b744:	48 8d 50 08          	lea    0x8(%rax),%rdx
    b748:	48 b8 88 ff ff ff ff 	movabs $0xffffffffffffff88,%rax
    b74f:	ff ff ff 
    b752:	48 8b 04 06          	mov    (%rsi,%rax,1),%rax
    b756:	4c 8d 04 02          	lea    (%rdx,%rax,1),%r8
    b75a:	48 8b 85 90 fe ff ff 	mov    -0x170(%rbp),%rax
    b761:	41 b9 00 00 08 00    	mov    $0x80000,%r9d
    b767:	0f b6 8d 9b fe ff ff 	movzbl -0x165(%rbp),%ecx
    b76e:	48 89 c2             	mov    %rax,%rdx
    b771:	44 89 c8             	mov    %r9d,%eax
    b774:	66 89 d0             	mov    %dx,%ax
    b777:	48 83 e1 07          	and    $0x7,%rcx
    b77b:	48 81 c1 00 8f 00 00 	add    $0x8f00,%rcx
    b782:	48 c1 e1 20          	shl    $0x20,%rcx
    b786:	48 01 c8             	add    %rcx,%rax
    b789:	48 31 c9             	xor    %rcx,%rcx
    b78c:	89 d1                	mov    %edx,%ecx
    b78e:	48 c1 e9 10          	shr    $0x10,%rcx
    b792:	48 c1 e1 30          	shl    $0x30,%rcx
    b796:	48 01 c8             	add    %rcx,%rax
    b799:	48 89 07             	mov    %rax,(%rdi)
    b79c:	48 c1 ea 20          	shr    $0x20,%rdx
    b7a0:	49 89 10             	mov    %rdx,(%r8)
    b7a3:	48 89 85 88 fe ff ff 	mov    %rax,-0x178(%rbp)
    b7aa:	48 89 95 80 fe ff ff 	mov    %rdx,-0x180(%rbp)
    b7b1:	90                   	nop
    b7b2:	c7 85 bc fe ff ff 09 	movl   $0x9,-0x144(%rbp)
    b7b9:	00 00 00 
    b7bc:	c6 85 bb fe ff ff 01 	movb   $0x1,-0x145(%rbp)
    b7c3:	48 b8 c8 ff ff ff ff 	movabs $0xffffffffffffffc8,%rax
    b7ca:	ff ff ff 
    b7cd:	48 8b 04 06          	mov    (%rsi,%rax,1),%rax
    b7d1:	48 89 85 b0 fe ff ff 	mov    %rax,-0x150(%rbp)
    b7d8:	8b 85 bc fe ff ff    	mov    -0x144(%rbp),%eax
    b7de:	48 c1 e0 04          	shl    $0x4,%rax
    b7e2:	48 89 c2             	mov    %rax,%rdx
    b7e5:	48 b8 88 ff ff ff ff 	movabs $0xffffffffffffff88,%rax
    b7ec:	ff ff ff 
    b7ef:	48 8b 04 06          	mov    (%rsi,%rax,1),%rax
    b7f3:	48 8d 3c 02          	lea    (%rdx,%rax,1),%rdi
    b7f7:	8b 85 bc fe ff ff    	mov    -0x144(%rbp),%eax
    b7fd:	48 c1 e0 04          	shl    $0x4,%rax
    b801:	48 8d 50 08          	lea    0x8(%rax),%rdx
    b805:	48 b8 88 ff ff ff ff 	movabs $0xffffffffffffff88,%rax
    b80c:	ff ff ff 
    b80f:	48 8b 04 06          	mov    (%rsi,%rax,1),%rax
    b813:	4c 8d 04 02          	lea    (%rdx,%rax,1),%r8
    b817:	48 8b 85 b0 fe ff ff 	mov    -0x150(%rbp),%rax
    b81e:	41 b9 00 00 08 00    	mov    $0x80000,%r9d
    b824:	0f b6 8d bb fe ff ff 	movzbl -0x145(%rbp),%ecx
    b82b:	48 89 c2             	mov    %rax,%rdx
    b82e:	44 89 c8             	mov    %r9d,%eax
    b831:	66 89 d0             	mov    %dx,%ax
    b834:	48 83 e1 07          	and    $0x7,%rcx
    b838:	48 81 c1 00 8f 00 00 	add    $0x8f00,%rcx
    b83f:	48 c1 e1 20          	shl    $0x20,%rcx
    b843:	48 01 c8             	add    %rcx,%rax
    b846:	48 31 c9             	xor    %rcx,%rcx
    b849:	89 d1                	mov    %edx,%ecx
    b84b:	48 c1 e9 10          	shr    $0x10,%rcx
    b84f:	48 c1 e1 30          	shl    $0x30,%rcx
    b853:	48 01 c8             	add    %rcx,%rax
    b856:	48 89 07             	mov    %rax,(%rdi)
    b859:	48 c1 ea 20          	shr    $0x20,%rdx
    b85d:	49 89 10             	mov    %rdx,(%r8)
    b860:	48 89 85 a8 fe ff ff 	mov    %rax,-0x158(%rbp)
    b867:	48 89 95 a0 fe ff ff 	mov    %rdx,-0x160(%rbp)
    b86e:	90                   	nop
    b86f:	c7 85 dc fe ff ff 0a 	movl   $0xa,-0x124(%rbp)
    b876:	00 00 00 
    b879:	c6 85 db fe ff ff 01 	movb   $0x1,-0x125(%rbp)
    b880:	48 b8 70 ff ff ff ff 	movabs $0xffffffffffffff70,%rax
    b887:	ff ff ff 
    b88a:	48 8b 04 06          	mov    (%rsi,%rax,1),%rax
    b88e:	48 89 85 d0 fe ff ff 	mov    %rax,-0x130(%rbp)
    b895:	8b 85 dc fe ff ff    	mov    -0x124(%rbp),%eax
    b89b:	48 c1 e0 04          	shl    $0x4,%rax
    b89f:	48 89 c2             	mov    %rax,%rdx
    b8a2:	48 b8 88 ff ff ff ff 	movabs $0xffffffffffffff88,%rax
    b8a9:	ff ff ff 
    b8ac:	48 8b 04 06          	mov    (%rsi,%rax,1),%rax
    b8b0:	48 8d 3c 02          	lea    (%rdx,%rax,1),%rdi
    b8b4:	8b 85 dc fe ff ff    	mov    -0x124(%rbp),%eax
    b8ba:	48 c1 e0 04          	shl    $0x4,%rax
    b8be:	48 8d 50 08          	lea    0x8(%rax),%rdx
    b8c2:	48 b8 88 ff ff ff ff 	movabs $0xffffffffffffff88,%rax
    b8c9:	ff ff ff 
    b8cc:	48 8b 04 06          	mov    (%rsi,%rax,1),%rax
    b8d0:	4c 8d 04 02          	lea    (%rdx,%rax,1),%r8
    b8d4:	48 8b 85 d0 fe ff ff 	mov    -0x130(%rbp),%rax
    b8db:	41 b9 00 00 08 00    	mov    $0x80000,%r9d
    b8e1:	0f b6 8d db fe ff ff 	movzbl -0x125(%rbp),%ecx
    b8e8:	48 89 c2             	mov    %rax,%rdx
    b8eb:	44 89 c8             	mov    %r9d,%eax
    b8ee:	66 89 d0             	mov    %dx,%ax
    b8f1:	48 83 e1 07          	and    $0x7,%rcx
    b8f5:	48 81 c1 00 8f 00 00 	add    $0x8f00,%rcx
    b8fc:	48 c1 e1 20          	shl    $0x20,%rcx
    b900:	48 01 c8             	add    %rcx,%rax
    b903:	48 31 c9             	xor    %rcx,%rcx
    b906:	89 d1                	mov    %edx,%ecx
    b908:	48 c1 e9 10          	shr    $0x10,%rcx
    b90c:	48 c1 e1 30          	shl    $0x30,%rcx
    b910:	48 01 c8             	add    %rcx,%rax
    b913:	48 89 07             	mov    %rax,(%rdi)
    b916:	48 c1 ea 20          	shr    $0x20,%rdx
    b91a:	49 89 10             	mov    %rdx,(%r8)
    b91d:	48 89 85 c8 fe ff ff 	mov    %rax,-0x138(%rbp)
    b924:	48 89 95 c0 fe ff ff 	mov    %rdx,-0x140(%rbp)
    b92b:	90                   	nop
    b92c:	c7 85 fc fe ff ff 0b 	movl   $0xb,-0x104(%rbp)
    b933:	00 00 00 
    b936:	c6 85 fb fe ff ff 01 	movb   $0x1,-0x105(%rbp)
    b93d:	48 b8 78 ff ff ff ff 	movabs $0xffffffffffffff78,%rax
    b944:	ff ff ff 
    b947:	48 8b 04 06          	mov    (%rsi,%rax,1),%rax
    b94b:	48 89 85 f0 fe ff ff 	mov    %rax,-0x110(%rbp)
    b952:	8b 85 fc fe ff ff    	mov    -0x104(%rbp),%eax
    b958:	48 c1 e0 04          	shl    $0x4,%rax
    b95c:	48 89 c2             	mov    %rax,%rdx
    b95f:	48 b8 88 ff ff ff ff 	movabs $0xffffffffffffff88,%rax
    b966:	ff ff ff 
    b969:	48 8b 04 06          	mov    (%rsi,%rax,1),%rax
    b96d:	48 8d 3c 02          	lea    (%rdx,%rax,1),%rdi
    b971:	8b 85 fc fe ff ff    	mov    -0x104(%rbp),%eax
    b977:	48 c1 e0 04          	shl    $0x4,%rax
    b97b:	48 8d 50 08          	lea    0x8(%rax),%rdx
    b97f:	48 b8 88 ff ff ff ff 	movabs $0xffffffffffffff88,%rax
    b986:	ff ff ff 
    b989:	48 8b 04 06          	mov    (%rsi,%rax,1),%rax
    b98d:	4c 8d 04 02          	lea    (%rdx,%rax,1),%r8
    b991:	48 8b 85 f0 fe ff ff 	mov    -0x110(%rbp),%rax
    b998:	41 b9 00 00 08 00    	mov    $0x80000,%r9d
    b99e:	0f b6 8d fb fe ff ff 	movzbl -0x105(%rbp),%ecx
    b9a5:	48 89 c2             	mov    %rax,%rdx
    b9a8:	44 89 c8             	mov    %r9d,%eax
    b9ab:	66 89 d0             	mov    %dx,%ax
    b9ae:	48 83 e1 07          	and    $0x7,%rcx
    b9b2:	48 81 c1 00 8f 00 00 	add    $0x8f00,%rcx
    b9b9:	48 c1 e1 20          	shl    $0x20,%rcx
    b9bd:	48 01 c8             	add    %rcx,%rax
    b9c0:	48 31 c9             	xor    %rcx,%rcx
    b9c3:	89 d1                	mov    %edx,%ecx
    b9c5:	48 c1 e9 10          	shr    $0x10,%rcx
    b9c9:	48 c1 e1 30          	shl    $0x30,%rcx
    b9cd:	48 01 c8             	add    %rcx,%rax
    b9d0:	48 89 07             	mov    %rax,(%rdi)
    b9d3:	48 c1 ea 20          	shr    $0x20,%rdx
    b9d7:	49 89 10             	mov    %rdx,(%r8)
    b9da:	48 89 85 e8 fe ff ff 	mov    %rax,-0x118(%rbp)
    b9e1:	48 89 95 e0 fe ff ff 	mov    %rdx,-0x120(%rbp)
    b9e8:	90                   	nop
    b9e9:	c7 85 1c ff ff ff 0c 	movl   $0xc,-0xe4(%rbp)
    b9f0:	00 00 00 
    b9f3:	c6 85 1b ff ff ff 01 	movb   $0x1,-0xe5(%rbp)
    b9fa:	48 b8 80 ff ff ff ff 	movabs $0xffffffffffffff80,%rax
    ba01:	ff ff ff 
    ba04:	48 8b 04 06          	mov    (%rsi,%rax,1),%rax
    ba08:	48 89 85 10 ff ff ff 	mov    %rax,-0xf0(%rbp)
    ba0f:	8b 85 1c ff ff ff    	mov    -0xe4(%rbp),%eax
    ba15:	48 c1 e0 04          	shl    $0x4,%rax
    ba19:	48 89 c2             	mov    %rax,%rdx
    ba1c:	48 b8 88 ff ff ff ff 	movabs $0xffffffffffffff88,%rax
    ba23:	ff ff ff 
    ba26:	48 8b 04 06          	mov    (%rsi,%rax,1),%rax
    ba2a:	48 8d 3c 02          	lea    (%rdx,%rax,1),%rdi
    ba2e:	8b 85 1c ff ff ff    	mov    -0xe4(%rbp),%eax
    ba34:	48 c1 e0 04          	shl    $0x4,%rax
    ba38:	48 8d 50 08          	lea    0x8(%rax),%rdx
    ba3c:	48 b8 88 ff ff ff ff 	movabs $0xffffffffffffff88,%rax
    ba43:	ff ff ff 
    ba46:	48 8b 04 06          	mov    (%rsi,%rax,1),%rax
    ba4a:	4c 8d 04 02          	lea    (%rdx,%rax,1),%r8
    ba4e:	48 8b 85 10 ff ff ff 	mov    -0xf0(%rbp),%rax
    ba55:	41 b9 00 00 08 00    	mov    $0x80000,%r9d
    ba5b:	0f b6 8d 1b ff ff ff 	movzbl -0xe5(%rbp),%ecx
    ba62:	48 89 c2             	mov    %rax,%rdx
    ba65:	44 89 c8             	mov    %r9d,%eax
    ba68:	66 89 d0             	mov    %dx,%ax
    ba6b:	48 83 e1 07          	and    $0x7,%rcx
    ba6f:	48 81 c1 00 8f 00 00 	add    $0x8f00,%rcx
    ba76:	48 c1 e1 20          	shl    $0x20,%rcx
    ba7a:	48 01 c8             	add    %rcx,%rax
    ba7d:	48 31 c9             	xor    %rcx,%rcx
    ba80:	89 d1                	mov    %edx,%ecx
    ba82:	48 c1 e9 10          	shr    $0x10,%rcx
    ba86:	48 c1 e1 30          	shl    $0x30,%rcx
    ba8a:	48 01 c8             	add    %rcx,%rax
    ba8d:	48 89 07             	mov    %rax,(%rdi)
    ba90:	48 c1 ea 20          	shr    $0x20,%rdx
    ba94:	49 89 10             	mov    %rdx,(%r8)
    ba97:	48 89 85 08 ff ff ff 	mov    %rax,-0xf8(%rbp)
    ba9e:	48 89 95 00 ff ff ff 	mov    %rdx,-0x100(%rbp)
    baa5:	90                   	nop
    baa6:	c7 85 3c ff ff ff 0d 	movl   $0xd,-0xc4(%rbp)
    baad:	00 00 00 
    bab0:	c6 85 3b ff ff ff 01 	movb   $0x1,-0xc5(%rbp)
    bab7:	48 b8 50 ff ff ff ff 	movabs $0xffffffffffffff50,%rax
    babe:	ff ff ff 
    bac1:	48 8b 04 06          	mov    (%rsi,%rax,1),%rax
    bac5:	48 89 85 30 ff ff ff 	mov    %rax,-0xd0(%rbp)
    bacc:	8b 85 3c ff ff ff    	mov    -0xc4(%rbp),%eax
    bad2:	48 c1 e0 04          	shl    $0x4,%rax
    bad6:	48 89 c2             	mov    %rax,%rdx
    bad9:	48 b8 88 ff ff ff ff 	movabs $0xffffffffffffff88,%rax
    bae0:	ff ff ff 
    bae3:	48 8b 04 06          	mov    (%rsi,%rax,1),%rax
    bae7:	48 8d 3c 02          	lea    (%rdx,%rax,1),%rdi
    baeb:	8b 85 3c ff ff ff    	mov    -0xc4(%rbp),%eax
    baf1:	48 c1 e0 04          	shl    $0x4,%rax
    baf5:	48 8d 50 08          	lea    0x8(%rax),%rdx
    baf9:	48 b8 88 ff ff ff ff 	movabs $0xffffffffffffff88,%rax
    bb00:	ff ff ff 
    bb03:	48 8b 04 06          	mov    (%rsi,%rax,1),%rax
    bb07:	4c 8d 04 02          	lea    (%rdx,%rax,1),%r8
    bb0b:	48 8b 85 30 ff ff ff 	mov    -0xd0(%rbp),%rax
    bb12:	41 b9 00 00 08 00    	mov    $0x80000,%r9d
    bb18:	0f b6 8d 3b ff ff ff 	movzbl -0xc5(%rbp),%ecx
    bb1f:	48 89 c2             	mov    %rax,%rdx
    bb22:	44 89 c8             	mov    %r9d,%eax
    bb25:	66 89 d0             	mov    %dx,%ax
    bb28:	48 83 e1 07          	and    $0x7,%rcx
    bb2c:	48 81 c1 00 8f 00 00 	add    $0x8f00,%rcx
    bb33:	48 c1 e1 20          	shl    $0x20,%rcx
    bb37:	48 01 c8             	add    %rcx,%rax
    bb3a:	48 31 c9             	xor    %rcx,%rcx
    bb3d:	89 d1                	mov    %edx,%ecx
    bb3f:	48 c1 e9 10          	shr    $0x10,%rcx
    bb43:	48 c1 e1 30          	shl    $0x30,%rcx
    bb47:	48 01 c8             	add    %rcx,%rax
    bb4a:	48 89 07             	mov    %rax,(%rdi)
    bb4d:	48 c1 ea 20          	shr    $0x20,%rdx
    bb51:	49 89 10             	mov    %rdx,(%r8)
    bb54:	48 89 85 28 ff ff ff 	mov    %rax,-0xd8(%rbp)
    bb5b:	48 89 95 20 ff ff ff 	mov    %rdx,-0xe0(%rbp)
    bb62:	90                   	nop
    bb63:	c7 85 5c ff ff ff 0e 	movl   $0xe,-0xa4(%rbp)
    bb6a:	00 00 00 
    bb6d:	c6 85 5b ff ff ff 01 	movb   $0x1,-0xa5(%rbp)
    bb74:	48 b8 d0 ff ff ff ff 	movabs $0xffffffffffffffd0,%rax
    bb7b:	ff ff ff 
    bb7e:	48 8b 04 06          	mov    (%rsi,%rax,1),%rax
    bb82:	48 89 85 50 ff ff ff 	mov    %rax,-0xb0(%rbp)
    bb89:	8b 85 5c ff ff ff    	mov    -0xa4(%rbp),%eax
    bb8f:	48 c1 e0 04          	shl    $0x4,%rax
    bb93:	48 89 c2             	mov    %rax,%rdx
    bb96:	48 b8 88 ff ff ff ff 	movabs $0xffffffffffffff88,%rax
    bb9d:	ff ff ff 
    bba0:	48 8b 04 06          	mov    (%rsi,%rax,1),%rax
    bba4:	48 8d 3c 02          	lea    (%rdx,%rax,1),%rdi
    bba8:	8b 85 5c ff ff ff    	mov    -0xa4(%rbp),%eax
    bbae:	48 c1 e0 04          	shl    $0x4,%rax
    bbb2:	48 8d 50 08          	lea    0x8(%rax),%rdx
    bbb6:	48 b8 88 ff ff ff ff 	movabs $0xffffffffffffff88,%rax
    bbbd:	ff ff ff 
    bbc0:	48 8b 04 06          	mov    (%rsi,%rax,1),%rax
    bbc4:	4c 8d 04 02          	lea    (%rdx,%rax,1),%r8
    bbc8:	48 8b 85 50 ff ff ff 	mov    -0xb0(%rbp),%rax
    bbcf:	41 b9 00 00 08 00    	mov    $0x80000,%r9d
    bbd5:	0f b6 8d 5b ff ff ff 	movzbl -0xa5(%rbp),%ecx
    bbdc:	48 89 c2             	mov    %rax,%rdx
    bbdf:	44 89 c8             	mov    %r9d,%eax
    bbe2:	66 89 d0             	mov    %dx,%ax
    bbe5:	48 83 e1 07          	and    $0x7,%rcx
    bbe9:	48 81 c1 00 8f 00 00 	add    $0x8f00,%rcx
    bbf0:	48 c1 e1 20          	shl    $0x20,%rcx
    bbf4:	48 01 c8             	add    %rcx,%rax
    bbf7:	48 31 c9             	xor    %rcx,%rcx
    bbfa:	89 d1                	mov    %edx,%ecx
    bbfc:	48 c1 e9 10          	shr    $0x10,%rcx
    bc00:	48 c1 e1 30          	shl    $0x30,%rcx
    bc04:	48 01 c8             	add    %rcx,%rax
    bc07:	48 89 07             	mov    %rax,(%rdi)
    bc0a:	48 c1 ea 20          	shr    $0x20,%rdx
    bc0e:	49 89 10             	mov    %rdx,(%r8)
    bc11:	48 89 85 48 ff ff ff 	mov    %rax,-0xb8(%rbp)
    bc18:	48 89 95 40 ff ff ff 	mov    %rdx,-0xc0(%rbp)
    bc1f:	90                   	nop
    bc20:	c7 85 7c ff ff ff 10 	movl   $0x10,-0x84(%rbp)
    bc27:	00 00 00 
    bc2a:	c6 85 7b ff ff ff 01 	movb   $0x1,-0x85(%rbp)
    bc31:	48 b8 a8 ff ff ff ff 	movabs $0xffffffffffffffa8,%rax
    bc38:	ff ff ff 
    bc3b:	48 8b 04 06          	mov    (%rsi,%rax,1),%rax
    bc3f:	48 89 85 70 ff ff ff 	mov    %rax,-0x90(%rbp)
    bc46:	8b 85 7c ff ff ff    	mov    -0x84(%rbp),%eax
    bc4c:	48 c1 e0 04          	shl    $0x4,%rax
    bc50:	48 89 c2             	mov    %rax,%rdx
    bc53:	48 b8 88 ff ff ff ff 	movabs $0xffffffffffffff88,%rax
    bc5a:	ff ff ff 
    bc5d:	48 8b 04 06          	mov    (%rsi,%rax,1),%rax
    bc61:	48 8d 3c 02          	lea    (%rdx,%rax,1),%rdi
    bc65:	8b 85 7c ff ff ff    	mov    -0x84(%rbp),%eax
    bc6b:	48 c1 e0 04          	shl    $0x4,%rax
    bc6f:	48 8d 50 08          	lea    0x8(%rax),%rdx
    bc73:	48 b8 88 ff ff ff ff 	movabs $0xffffffffffffff88,%rax
    bc7a:	ff ff ff 
    bc7d:	48 8b 04 06          	mov    (%rsi,%rax,1),%rax
    bc81:	4c 8d 04 02          	lea    (%rdx,%rax,1),%r8
    bc85:	48 8b 85 70 ff ff ff 	mov    -0x90(%rbp),%rax
    bc8c:	41 b9 00 00 08 00    	mov    $0x80000,%r9d
    bc92:	0f b6 8d 7b ff ff ff 	movzbl -0x85(%rbp),%ecx
    bc99:	48 89 c2             	mov    %rax,%rdx
    bc9c:	44 89 c8             	mov    %r9d,%eax
    bc9f:	66 89 d0             	mov    %dx,%ax
    bca2:	48 83 e1 07          	and    $0x7,%rcx
    bca6:	48 81 c1 00 8f 00 00 	add    $0x8f00,%rcx
    bcad:	48 c1 e1 20          	shl    $0x20,%rcx
    bcb1:	48 01 c8             	add    %rcx,%rax
    bcb4:	48 31 c9             	xor    %rcx,%rcx
    bcb7:	89 d1                	mov    %edx,%ecx
    bcb9:	48 c1 e9 10          	shr    $0x10,%rcx
    bcbd:	48 c1 e1 30          	shl    $0x30,%rcx
    bcc1:	48 01 c8             	add    %rcx,%rax
    bcc4:	48 89 07             	mov    %rax,(%rdi)
    bcc7:	48 c1 ea 20          	shr    $0x20,%rdx
    bccb:	49 89 10             	mov    %rdx,(%r8)
    bcce:	48 89 85 68 ff ff ff 	mov    %rax,-0x98(%rbp)
    bcd5:	48 89 95 60 ff ff ff 	mov    %rdx,-0xa0(%rbp)
    bcdc:	90                   	nop
    bcdd:	c7 45 9c 11 00 00 00 	movl   $0x11,-0x64(%rbp)
    bce4:	c6 45 9b 01          	movb   $0x1,-0x65(%rbp)
    bce8:	48 b8 a0 ff ff ff ff 	movabs $0xffffffffffffffa0,%rax
    bcef:	ff ff ff 
    bcf2:	48 8b 04 06          	mov    (%rsi,%rax,1),%rax
    bcf6:	48 89 45 90          	mov    %rax,-0x70(%rbp)
    bcfa:	8b 45 9c             	mov    -0x64(%rbp),%eax
    bcfd:	48 c1 e0 04          	shl    $0x4,%rax
    bd01:	48 89 c2             	mov    %rax,%rdx
    bd04:	48 b8 88 ff ff ff ff 	movabs $0xffffffffffffff88,%rax
    bd0b:	ff ff ff 
    bd0e:	48 8b 04 06          	mov    (%rsi,%rax,1),%rax
    bd12:	48 8d 3c 02          	lea    (%rdx,%rax,1),%rdi
    bd16:	8b 45 9c             	mov    -0x64(%rbp),%eax
    bd19:	48 c1 e0 04          	shl    $0x4,%rax
    bd1d:	48 8d 50 08          	lea    0x8(%rax),%rdx
    bd21:	48 b8 88 ff ff ff ff 	movabs $0xffffffffffffff88,%rax
    bd28:	ff ff ff 
    bd2b:	48 8b 04 06          	mov    (%rsi,%rax,1),%rax
    bd2f:	4c 8d 04 02          	lea    (%rdx,%rax,1),%r8
    bd33:	48 8b 45 90          	mov    -0x70(%rbp),%rax
    bd37:	41 b9 00 00 08 00    	mov    $0x80000,%r9d
    bd3d:	0f b6 4d 9b          	movzbl -0x65(%rbp),%ecx
    bd41:	48 89 c2             	mov    %rax,%rdx
    bd44:	44 89 c8             	mov    %r9d,%eax
    bd47:	66 89 d0             	mov    %dx,%ax
    bd4a:	48 83 e1 07          	and    $0x7,%rcx
    bd4e:	48 81 c1 00 8f 00 00 	add    $0x8f00,%rcx
    bd55:	48 c1 e1 20          	shl    $0x20,%rcx
    bd59:	48 01 c8             	add    %rcx,%rax
    bd5c:	48 31 c9             	xor    %rcx,%rcx
    bd5f:	89 d1                	mov    %edx,%ecx
    bd61:	48 c1 e9 10          	shr    $0x10,%rcx
    bd65:	48 c1 e1 30          	shl    $0x30,%rcx
    bd69:	48 01 c8             	add    %rcx,%rax
    bd6c:	48 89 07             	mov    %rax,(%rdi)
    bd6f:	48 c1 ea 20          	shr    $0x20,%rdx
    bd73:	49 89 10             	mov    %rdx,(%r8)
    bd76:	48 89 45 88          	mov    %rax,-0x78(%rbp)
    bd7a:	48 89 55 80          	mov    %rdx,-0x80(%rbp)
    bd7e:	90                   	nop
    bd7f:	c7 45 bc 12 00 00 00 	movl   $0x12,-0x44(%rbp)
    bd86:	c6 45 bb 01          	movb   $0x1,-0x45(%rbp)
    bd8a:	48 b8 d8 ff ff ff ff 	movabs $0xffffffffffffffd8,%rax
    bd91:	ff ff ff 
    bd94:	48 8b 04 06          	mov    (%rsi,%rax,1),%rax
    bd98:	48 89 45 b0          	mov    %rax,-0x50(%rbp)
    bd9c:	8b 45 bc             	mov    -0x44(%rbp),%eax
    bd9f:	48 c1 e0 04          	shl    $0x4,%rax
    bda3:	48 89 c2             	mov    %rax,%rdx
    bda6:	48 b8 88 ff ff ff ff 	movabs $0xffffffffffffff88,%rax
    bdad:	ff ff ff 
    bdb0:	48 8b 04 06          	mov    (%rsi,%rax,1),%rax
    bdb4:	48 8d 3c 02          	lea    (%rdx,%rax,1),%rdi
    bdb8:	8b 45 bc             	mov    -0x44(%rbp),%eax
    bdbb:	48 c1 e0 04          	shl    $0x4,%rax
    bdbf:	48 8d 50 08          	lea    0x8(%rax),%rdx
    bdc3:	48 b8 88 ff ff ff ff 	movabs $0xffffffffffffff88,%rax
    bdca:	ff ff ff 
    bdcd:	48 8b 04 06          	mov    (%rsi,%rax,1),%rax
    bdd1:	4c 8d 04 02          	lea    (%rdx,%rax,1),%r8
    bdd5:	48 8b 45 b0          	mov    -0x50(%rbp),%rax
    bdd9:	41 b9 00 00 08 00    	mov    $0x80000,%r9d
    bddf:	0f b6 4d bb          	movzbl -0x45(%rbp),%ecx
    bde3:	48 89 c2             	mov    %rax,%rdx
    bde6:	44 89 c8             	mov    %r9d,%eax
    bde9:	66 89 d0             	mov    %dx,%ax
    bdec:	48 83 e1 07          	and    $0x7,%rcx
    bdf0:	48 81 c1 00 8f 00 00 	add    $0x8f00,%rcx
    bdf7:	48 c1 e1 20          	shl    $0x20,%rcx
    bdfb:	48 01 c8             	add    %rcx,%rax
    bdfe:	48 31 c9             	xor    %rcx,%rcx
    be01:	89 d1                	mov    %edx,%ecx
    be03:	48 c1 e9 10          	shr    $0x10,%rcx
    be07:	48 c1 e1 30          	shl    $0x30,%rcx
    be0b:	48 01 c8             	add    %rcx,%rax
    be0e:	48 89 07             	mov    %rax,(%rdi)
    be11:	48 c1 ea 20          	shr    $0x20,%rdx
    be15:	49 89 10             	mov    %rdx,(%r8)
    be18:	48 89 45 a8          	mov    %rax,-0x58(%rbp)
    be1c:	48 89 55 a0          	mov    %rdx,-0x60(%rbp)
    be20:	90                   	nop
    be21:	c7 45 dc 13 00 00 00 	movl   $0x13,-0x24(%rbp)
    be28:	c6 45 db 01          	movb   $0x1,-0x25(%rbp)
    be2c:	48 b8 e0 ff ff ff ff 	movabs $0xffffffffffffffe0,%rax
    be33:	ff ff ff 
    be36:	48 8b 04 06          	mov    (%rsi,%rax,1),%rax
    be3a:	48 89 45 d0          	mov    %rax,-0x30(%rbp)
    be3e:	8b 45 dc             	mov    -0x24(%rbp),%eax
    be41:	48 c1 e0 04          	shl    $0x4,%rax
    be45:	48 89 c2             	mov    %rax,%rdx
    be48:	48 b8 88 ff ff ff ff 	movabs $0xffffffffffffff88,%rax
    be4f:	ff ff ff 
    be52:	48 8b 04 06          	mov    (%rsi,%rax,1),%rax
    be56:	48 8d 3c 02          	lea    (%rdx,%rax,1),%rdi
    be5a:	8b 45 dc             	mov    -0x24(%rbp),%eax
    be5d:	48 c1 e0 04          	shl    $0x4,%rax
    be61:	48 8d 50 08          	lea    0x8(%rax),%rdx
    be65:	48 b8 88 ff ff ff ff 	movabs $0xffffffffffffff88,%rax
    be6c:	ff ff ff 
    be6f:	48 8b 04 06          	mov    (%rsi,%rax,1),%rax
    be73:	4c 8d 04 02          	lea    (%rdx,%rax,1),%r8
    be77:	48 8b 45 d0          	mov    -0x30(%rbp),%rax
    be7b:	41 b9 00 00 08 00    	mov    $0x80000,%r9d
    be81:	0f b6 4d db          	movzbl -0x25(%rbp),%ecx
    be85:	48 89 c2             	mov    %rax,%rdx
    be88:	44 89 c8             	mov    %r9d,%eax
    be8b:	66 89 d0             	mov    %dx,%ax
    be8e:	48 83 e1 07          	and    $0x7,%rcx
    be92:	48 81 c1 00 8f 00 00 	add    $0x8f00,%rcx
    be99:	48 c1 e1 20          	shl    $0x20,%rcx
    be9d:	48 01 c8             	add    %rcx,%rax
    bea0:	48 31 c9             	xor    %rcx,%rcx
    bea3:	89 d1                	mov    %edx,%ecx
    bea5:	48 c1 e9 10          	shr    $0x10,%rcx
    bea9:	48 c1 e1 30          	shl    $0x30,%rcx
    bead:	48 01 c8             	add    %rcx,%rax
    beb0:	48 89 07             	mov    %rax,(%rdi)
    beb3:	48 c1 ea 20          	shr    $0x20,%rdx
    beb7:	49 89 10             	mov    %rdx,(%r8)
    beba:	48 89 45 c8          	mov    %rax,-0x38(%rbp)
    bebe:	48 89 55 c0          	mov    %rdx,-0x40(%rbp)
    bec2:	90                   	nop
    bec3:	c7 45 fc 14 00 00 00 	movl   $0x14,-0x4(%rbp)
    beca:	c6 45 fb 01          	movb   $0x1,-0x5(%rbp)
    bece:	48 b8 c0 ff ff ff ff 	movabs $0xffffffffffffffc0,%rax
    bed5:	ff ff ff 
    bed8:	48 8b 04 06          	mov    (%rsi,%rax,1),%rax
    bedc:	48 89 45 f0          	mov    %rax,-0x10(%rbp)
    bee0:	8b 45 fc             	mov    -0x4(%rbp),%eax
    bee3:	48 c1 e0 04          	shl    $0x4,%rax
    bee7:	48 89 c2             	mov    %rax,%rdx
    beea:	48 b8 88 ff ff ff ff 	movabs $0xffffffffffffff88,%rax
    bef1:	ff ff ff 
    bef4:	48 8b 04 06          	mov    (%rsi,%rax,1),%rax
    bef8:	48 8d 3c 02          	lea    (%rdx,%rax,1),%rdi
    befc:	8b 45 fc             	mov    -0x4(%rbp),%eax
    beff:	48 c1 e0 04          	shl    $0x4,%rax
    bf03:	48 8d 50 08          	lea    0x8(%rax),%rdx
    bf07:	48 b8 88 ff ff ff ff 	movabs $0xffffffffffffff88,%rax
    bf0e:	ff ff ff 
    bf11:	48 8b 04 06          	mov    (%rsi,%rax,1),%rax
    bf15:	48 8d 34 02          	lea    (%rdx,%rax,1),%rsi
    bf19:	48 8b 45 f0          	mov    -0x10(%rbp),%rax
    bf1d:	41 b8 00 00 08 00    	mov    $0x80000,%r8d
    bf23:	0f b6 4d fb          	movzbl -0x5(%rbp),%ecx
    bf27:	48 89 c2             	mov    %rax,%rdx
    bf2a:	44 89 c0             	mov    %r8d,%eax
    bf2d:	66 89 d0             	mov    %dx,%ax
    bf30:	48 83 e1 07          	and    $0x7,%rcx
    bf34:	48 81 c1 00 8f 00 00 	add    $0x8f00,%rcx
    bf3b:	48 c1 e1 20          	shl    $0x20,%rcx
    bf3f:	48 01 c8             	add    %rcx,%rax
    bf42:	48 31 c9             	xor    %rcx,%rcx
    bf45:	89 d1                	mov    %edx,%ecx
    bf47:	48 c1 e9 10          	shr    $0x10,%rcx
    bf4b:	48 c1 e1 30          	shl    $0x30,%rcx
    bf4f:	48 01 c8             	add    %rcx,%rax
    bf52:	48 89 07             	mov    %rax,(%rdi)
    bf55:	48 c1 ea 20          	shr    $0x20,%rdx
    bf59:	48 89 16             	mov    %rdx,(%rsi)
    bf5c:	48 89 45 e8          	mov    %rax,-0x18(%rbp)
    bf60:	48 89 55 e0          	mov    %rdx,-0x20(%rbp)
    bf64:	90                   	nop
    bf65:	90                   	nop
    bf66:	c9                   	leave  
    bf67:	c3                   	ret    
    bf68:	41 5f                	pop    %r15
    bf6a:	41 5e                	pop    %r14
    bf6c:	41 5d                	pop    %r13
    bf6e:	41 5c                	pop    %r12
    bf70:	41 5b                	pop    %r11
    bf72:	41 5a                	pop    %r10
    bf74:	41 59                	pop    %r9
    bf76:	41 58                	pop    %r8
    bf78:	5b                   	pop    %rbx
    bf79:	59                   	pop    %rcx
    bf7a:	5a                   	pop    %rdx
    bf7b:	5e                   	pop    %rsi
    bf7c:	5f                   	pop    %rdi
    bf7d:	5d                   	pop    %rbp
    bf7e:	58                   	pop    %rax
    bf7f:	48 8e d8             	mov    %rax,%ds
    bf82:	58                   	pop    %rax
    bf83:	48 8e c0             	mov    %rax,%es
    bf86:	58                   	pop    %rax
    bf87:	48 83 c4 10          	add    $0x10,%rsp
    bf8b:	48 cf                	iretq  
    bf8d:	eb d9                	jmp    0xbf68
    bf8f:	6a 00                	push   $0x0
    bf91:	50                   	push   %rax
    bf92:	48 8d 05 f6 d7 ff ff 	lea    -0x280a(%rip),%rax        # 0x978f
    bf99:	48 87 04 24          	xchg   %rax,(%rsp)
    bf9d:	50                   	push   %rax
    bf9e:	48 8c c0             	mov    %es,%rax
    bfa1:	50                   	push   %rax
    bfa2:	48 8c d8             	mov    %ds,%rax
    bfa5:	50                   	push   %rax
    bfa6:	48 31 c0             	xor    %rax,%rax
    bfa9:	55                   	push   %rbp
    bfaa:	57                   	push   %rdi
    bfab:	56                   	push   %rsi
    bfac:	52                   	push   %rdx
    bfad:	51                   	push   %rcx
    bfae:	53                   	push   %rbx
    bfaf:	41 50                	push   %r8
    bfb1:	41 51                	push   %r9
    bfb3:	41 52                	push   %r10
    bfb5:	41 53                	push   %r11
    bfb7:	41 54                	push   %r12
    bfb9:	41 55                	push   %r13
    bfbb:	41 56                	push   %r14
    bfbd:	41 57                	push   %r15
    bfbf:	fc                   	cld    
    bfc0:	48 8b b4 24 90 00 00 	mov    0x90(%rsp),%rsi
    bfc7:	00 
    bfc8:	48 8b 94 24 88 00 00 	mov    0x88(%rsp),%rdx
    bfcf:	00 
    bfd0:	48 c7 c7 10 00 00 00 	mov    $0x10,%rdi
    bfd7:	48 8e df             	mov    %rdi,%ds
    bfda:	48 8e c7             	mov    %rdi,%es
    bfdd:	48 89 e7             	mov    %rsp,%rdi
    bfe0:	ff d2                	call   *%rdx
    bfe2:	eb a9                	jmp    0xbf8d
    bfe4:	6a 00                	push   $0x0
    bfe6:	50                   	push   %rax
    bfe7:	48 8d 05 4a d8 ff ff 	lea    -0x27b6(%rip),%rax        # 0x9838
    bfee:	48 87 04 24          	xchg   %rax,(%rsp)
    bff2:	eb a9                	jmp    0xbf9d
    bff4:	50                   	push   %rax
    bff5:	fc                   	cld    
    bff6:	50                   	push   %rax
    bff7:	50                   	push   %rax
    bff8:	48 8c c0             	mov    %es,%rax
    bffb:	50                   	push   %rax
    bffc:	48 8c d8             	mov    %ds,%rax
    bfff:	50                   	push   %rax
    c000:	48 31 c0             	xor    %rax,%rax
    c003:	55                   	push   %rbp
    c004:	57                   	push   %rdi
    c005:	56                   	push   %rsi
    c006:	52                   	push   %rdx
    c007:	51                   	push   %rcx
    c008:	53                   	push   %rbx
    c009:	41 50                	push   %r8
    c00b:	41 51                	push   %r9
    c00d:	41 52                	push   %r10
    c00f:	41 53                	push   %r11
    c011:	41 54                	push   %r12
    c013:	41 55                	push   %r13
    c015:	41 56                	push   %r14
    c017:	41 57                	push   %r15
    c019:	48 c7 c2 10 00 00 00 	mov    $0x10,%rdx
    c020:	48 8e da             	mov    %rdx,%ds
    c023:	48 8e c2             	mov    %rdx,%es
    c026:	48 c7 c6 00 00 00 00 	mov    $0x0,%rsi
    c02d:	48 89 e7             	mov    %rsp,%rdi
    c030:	e8 ac d8 ff ff       	call   0x98e1
    c035:	e9 2e ff ff ff       	jmp    0xbf68
    c03a:	6a 00                	push   $0x0
    c03c:	50                   	push   %rax
    c03d:	48 8d 05 46 d9 ff ff 	lea    -0x26ba(%rip),%rax        # 0x998a
    c044:	48 87 04 24          	xchg   %rax,(%rsp)
    c048:	e9 50 ff ff ff       	jmp    0xbf9d
    c04d:	6a 00                	push   $0x0
    c04f:	50                   	push   %rax
    c050:	48 8d 05 dc d9 ff ff 	lea    -0x2624(%rip),%rax        # 0x9a33
    c057:	48 87 04 24          	xchg   %rax,(%rsp)
    c05b:	e9 3d ff ff ff       	jmp    0xbf9d
    c060:	6a 00                	push   $0x0
    c062:	50                   	push   %rax
    c063:	48 8d 05 72 da ff ff 	lea    -0x258e(%rip),%rax        # 0x9adc
    c06a:	48 87 04 24          	xchg   %rax,(%rsp)
    c06e:	e9 2a ff ff ff       	jmp    0xbf9d
    c073:	6a 00                	push   $0x0
    c075:	50                   	push   %rax
    c076:	48 8d 05 08 db ff ff 	lea    -0x24f8(%rip),%rax        # 0x9b85
    c07d:	48 87 04 24          	xchg   %rax,(%rsp)
    c081:	e9 17 ff ff ff       	jmp    0xbf9d
    c086:	6a 00                	push   $0x0
    c088:	50                   	push   %rax
    c089:	48 8d 05 9e db ff ff 	lea    -0x2462(%rip),%rax        # 0x9c2e
    c090:	48 87 04 24          	xchg   %rax,(%rsp)
    c094:	e9 04 ff ff ff       	jmp    0xbf9d
    c099:	50                   	push   %rax
    c09a:	48 8d 05 36 dc ff ff 	lea    -0x23ca(%rip),%rax        # 0x9cd7
    c0a1:	48 87 04 24          	xchg   %rax,(%rsp)
    c0a5:	e9 f3 fe ff ff       	jmp    0xbf9d
    c0aa:	6a 00                	push   $0x0
    c0ac:	50                   	push   %rax
    c0ad:	48 8d 05 cc dc ff ff 	lea    -0x2334(%rip),%rax        # 0x9d80
    c0b4:	48 87 04 24          	xchg   %rax,(%rsp)
    c0b8:	e9 e0 fe ff ff       	jmp    0xbf9d
    c0bd:	50                   	push   %rax
    c0be:	48 8d 05 64 dd ff ff 	lea    -0x229c(%rip),%rax        # 0x9e29
    c0c5:	48 87 04 24          	xchg   %rax,(%rsp)
    c0c9:	e9 cf fe ff ff       	jmp    0xbf9d
    c0ce:	50                   	push   %rax
    c0cf:	48 8d 05 48 e0 ff ff 	lea    -0x1fb8(%rip),%rax        # 0xa11e
    c0d6:	48 87 04 24          	xchg   %rax,(%rsp)
    c0da:	e9 be fe ff ff       	jmp    0xbf9d
    c0df:	50                   	push   %rax
    c0e0:	48 8d 05 2c e3 ff ff 	lea    -0x1cd4(%rip),%rax        # 0xa413
    c0e7:	48 87 04 24          	xchg   %rax,(%rsp)
    c0eb:	e9 ad fe ff ff       	jmp    0xbf9d
    c0f0:	50                   	push   %rax
    c0f1:	48 8d 05 10 e6 ff ff 	lea    -0x19f0(%rip),%rax        # 0xa708
    c0f8:	48 87 04 24          	xchg   %rax,(%rsp)
    c0fc:	e9 9c fe ff ff       	jmp    0xbf9d
    c101:	50                   	push   %rax
    c102:	48 8d 05 f4 e8 ff ff 	lea    -0x170c(%rip),%rax        # 0xa9fd
    c109:	48 87 04 24          	xchg   %rax,(%rsp)
    c10d:	e9 8b fe ff ff       	jmp    0xbf9d
    c112:	6a 00                	push   $0x0
    c114:	50                   	push   %rax
    c115:	48 8d 05 81 ec ff ff 	lea    -0x137f(%rip),%rax        # 0xad9d
    c11c:	48 87 04 24          	xchg   %rax,(%rsp)
    c120:	e9 78 fe ff ff       	jmp    0xbf9d
    c125:	50                   	push   %rax
    c126:	48 8d 05 19 ed ff ff 	lea    -0x12e7(%rip),%rax        # 0xae46
    c12d:	48 87 04 24          	xchg   %rax,(%rsp)
    c131:	e9 67 fe ff ff       	jmp    0xbf9d
    c136:	6a 00                	push   $0x0
    c138:	50                   	push   %rax
    c139:	48 8d 05 af ed ff ff 	lea    -0x1251(%rip),%rax        # 0xaeef
    c140:	48 87 04 24          	xchg   %rax,(%rsp)
    c144:	e9 54 fe ff ff       	jmp    0xbf9d
    c149:	6a 00                	push   $0x0
    c14b:	50                   	push   %rax
    c14c:	48 8d 05 45 ee ff ff 	lea    -0x11bb(%rip),%rax        # 0xaf98
    c153:	48 87 04 24          	xchg   %rax,(%rsp)
    c157:	e9 41 fe ff ff       	jmp    0xbf9d
    c15c:	6a 00                	push   $0x0
    c15e:	50                   	push   %rax
    c15f:	48 8d 05 db ee ff ff 	lea    -0x1125(%rip),%rax        # 0xb041
    c166:	48 87 04 24          	xchg   %rax,(%rsp)
    c16a:	e9 2e fe ff ff       	jmp    0xbf9d
	...
    c38f:	00 00                	add    %al,(%rax)
    c391:	10 10                	adc    %dl,(%rax)
    c393:	10 10                	adc    %dl,(%rax)
    c395:	10 10                	adc    %dl,(%rax)
    c397:	10 10                	adc    %dl,(%rax)
    c399:	10 00                	adc    %al,(%rax)
    c39b:	00 10                	add    %dl,(%rax)
    c39d:	10 00                	adc    %al,(%rax)
    c39f:	00 28                	add    %ch,(%rax)
    c3a1:	28 28                	sub    %ch,(%rax)
	...
    c3af:	00 00                	add    %al,(%rax)
    c3b1:	44                   	rex.R
    c3b2:	44                   	rex.R
    c3b3:	44 fe 44 44 44       	rex.R incb 0x44(%rsp,%rax,2)
    c3b8:	44                   	rex.R
    c3b9:	44 fe 44 44 44       	rex.R incb 0x44(%rsp,%rax,2)
    c3be:	00 00                	add    %al,(%rax)
    c3c0:	10 3a                	adc    %bh,(%rdx)
    c3c2:	56                   	push   %rsi
    c3c3:	92                   	xchg   %eax,%edx
    c3c4:	92                   	xchg   %eax,%edx
    c3c5:	90                   	nop
    c3c6:	50                   	push   %rax
    c3c7:	38 14 12             	cmp    %dl,(%rdx,%rdx,1)
    c3ca:	92                   	xchg   %eax,%edx
    c3cb:	92                   	xchg   %eax,%edx
    c3cc:	d4                   	(bad)  
    c3cd:	b8 10 10 62 92       	mov    $0x92621010,%eax
    c3d2:	94                   	xchg   %eax,%esp
    c3d3:	94                   	xchg   %eax,%esp
    c3d4:	68 08 10 10 20       	push   $0x20101008
    c3d9:	2c 52                	sub    $0x52,%al
    c3db:	52                   	push   %rdx
    c3dc:	92                   	xchg   %eax,%edx
    c3dd:	8c 00                	mov    %es,(%rax)
    c3df:	00 00                	add    %al,(%rax)
    c3e1:	70 88                	jo     0xc36b
    c3e3:	88 88 90 60 47 a2    	mov    %cl,-0x5db89f70(%rax)
    c3e9:	92                   	xchg   %eax,%edx
    c3ea:	8a 84 46 39 00 00 04 	mov    0x4000039(%rsi,%rax,2),%al
    c3f1:	08 10                	or     %dl,(%rax)
	...
    c3ff:	00 02                	add    %al,(%rdx)
    c401:	04 08                	add    $0x8,%al
    c403:	08 10                	or     %dl,(%rax)
    c405:	10 10                	adc    %dl,(%rax)
    c407:	10 10                	adc    %dl,(%rax)
    c409:	10 10                	adc    %dl,(%rax)
    c40b:	08 08                	or     %cl,(%rax)
    c40d:	04 02                	add    $0x2,%al
    c40f:	00 80 40 20 20 10    	add    %al,0x10202040(%rax)
    c415:	10 10                	adc    %dl,(%rax)
    c417:	10 10                	adc    %dl,(%rax)
    c419:	10 10                	adc    %dl,(%rax)
    c41b:	20 20                	and    %ah,(%rax)
    c41d:	40 80 00 00          	rex addb $0x0,(%rax)
    c421:	00 00                	add    %al,(%rax)
    c423:	00 00                	add    %al,(%rax)
    c425:	10 92 54 38 54 92    	adc    %dl,-0x6dabc7ac(%rdx)
    c42b:	10 00                	adc    %al,(%rax)
	...
    c435:	10 10                	adc    %dl,(%rax)
    c437:	10 fe                	adc    %bh,%dh
    c439:	10 10                	adc    %dl,(%rax)
    c43b:	10 00                	adc    %al,(%rax)
	...
    c449:	00 00                	add    %al,(%rax)
    c44b:	18 18                	sbb    %bl,(%rax)
    c44d:	08 08                	or     %cl,(%rax)
    c44f:	10 00                	adc    %al,(%rax)
    c451:	00 00                	add    %al,(%rax)
    c453:	00 00                	add    %al,(%rax)
    c455:	00 00                	add    %al,(%rax)
    c457:	00 fe                	add    %bh,%dh
	...
    c469:	00 00                	add    %al,(%rax)
    c46b:	00 18                	add    %bl,(%rax)
    c46d:	18 00                	sbb    %al,(%rax)
    c46f:	00 02                	add    %al,(%rdx)
    c471:	02 04 04             	add    (%rsp,%rax,1),%al
    c474:	08 08                	or     %cl,(%rax)
    c476:	08 10                	or     %dl,(%rax)
    c478:	10 20                	adc    %ah,(%rax)
    c47a:	20 40 40             	and    %al,0x40(%rax)
    c47d:	40 80 80 00 18 24 24 	rex addb $0x42,0x24241800(%rax)
    c484:	42 
    c485:	42                   	rex.X
    c486:	42                   	rex.X
    c487:	42                   	rex.X
    c488:	42                   	rex.X
    c489:	42                   	rex.X
    c48a:	42 24 24             	rex.X and $0x24,%al
    c48d:	18 00                	sbb    %al,(%rax)
    c48f:	00 00                	add    %al,(%rax)
    c491:	08 18                	or     %bl,(%rax)
    c493:	28 08                	sub    %cl,(%rax)
    c495:	08 08                	or     %cl,(%rax)
    c497:	08 08                	or     %cl,(%rax)
    c499:	08 08                	or     %cl,(%rax)
    c49b:	08 08                	or     %cl,(%rax)
    c49d:	3e 00 00             	ds add %al,(%rax)
    c4a0:	00 18                	add    %bl,(%rax)
    c4a2:	24 42                	and    $0x42,%al
    c4a4:	42 02 04 08          	add    (%rax,%r9,1),%al
    c4a8:	10 20                	adc    %ah,(%rax)
    c4aa:	20 40 40             	and    %al,0x40(%rax)
    c4ad:	7e 00                	jle    0xc4af
    c4af:	00 00                	add    %al,(%rax)
    c4b1:	18 24 42             	sbb    %ah,(%rdx,%rax,2)
    c4b4:	02 02                	add    (%rdx),%al
    c4b6:	04 18                	add    $0x18,%al
    c4b8:	04 02                	add    $0x2,%al
    c4ba:	02 42 24             	add    0x24(%rdx),%al
    c4bd:	18 00                	sbb    %al,(%rax)
    c4bf:	00 00                	add    %al,(%rax)
    c4c1:	0c 0c                	or     $0xc,%al
    c4c3:	0c 14                	or     $0x14,%al
    c4c5:	14 14                	adc    $0x14,%al
    c4c7:	24 24                	and    $0x24,%al
    c4c9:	44 7e 04             	rex.R jle 0xc4d0
    c4cc:	04 1e                	add    $0x1e,%al
    c4ce:	00 00                	add    %al,(%rax)
    c4d0:	00 7c 40 40          	add    %bh,0x40(%rax,%rax,2)
    c4d4:	40 58                	rex pop %rax
    c4d6:	64 02 02             	add    %fs:(%rdx),%al
    c4d9:	02 02                	add    (%rdx),%al
    c4db:	42 24 18             	rex.X and $0x18,%al
    c4de:	00 00                	add    %al,(%rax)
    c4e0:	00 18                	add    %bl,(%rax)
    c4e2:	24 42                	and    $0x42,%al
    c4e4:	40 58                	rex pop %rax
    c4e6:	64 42                	fs rex.X
    c4e8:	42                   	rex.X
    c4e9:	42                   	rex.X
    c4ea:	42                   	rex.X
    c4eb:	42 24 18             	rex.X and $0x18,%al
    c4ee:	00 00                	add    %al,(%rax)
    c4f0:	00 7e 42             	add    %bh,0x42(%rsi)
    c4f3:	42 04 04             	rex.X add $0x4,%al
    c4f6:	08 08                	or     %cl,(%rax)
    c4f8:	08 10                	or     %dl,(%rax)
    c4fa:	10 10                	adc    %dl,(%rax)
    c4fc:	10 38                	adc    %bh,(%rax)
    c4fe:	00 00                	add    %al,(%rax)
    c500:	00 18                	add    %bl,(%rax)
    c502:	24 42                	and    $0x42,%al
    c504:	42                   	rex.X
    c505:	42 24 18             	rex.X and $0x18,%al
    c508:	24 42                	and    $0x42,%al
    c50a:	42                   	rex.X
    c50b:	42 24 18             	rex.X and $0x18,%al
    c50e:	00 00                	add    %al,(%rax)
    c510:	00 18                	add    %bl,(%rax)
    c512:	24 42                	and    $0x42,%al
    c514:	42                   	rex.X
    c515:	42                   	rex.X
    c516:	42                   	rex.X
    c517:	42                   	rex.X
    c518:	26 1a 02             	es sbb (%rdx),%al
    c51b:	42 24 18             	rex.X and $0x18,%al
    c51e:	00 00                	add    %al,(%rax)
    c520:	00 00                	add    %al,(%rax)
    c522:	00 00                	add    %al,(%rax)
    c524:	00 18                	add    %bl,(%rax)
    c526:	18 00                	sbb    %al,(%rax)
    c528:	00 00                	add    %al,(%rax)
    c52a:	00 00                	add    %al,(%rax)
    c52c:	18 18                	sbb    %bl,(%rax)
    c52e:	00 00                	add    %al,(%rax)
    c530:	00 00                	add    %al,(%rax)
    c532:	00 00                	add    %al,(%rax)
    c534:	00 18                	add    %bl,(%rax)
    c536:	18 00                	sbb    %al,(%rax)
    c538:	00 00                	add    %al,(%rax)
    c53a:	00 18                	add    %bl,(%rax)
    c53c:	18 08                	sbb    %cl,(%rax)
    c53e:	08 10                	or     %dl,(%rax)
    c540:	00 02                	add    %al,(%rdx)
    c542:	04 08                	add    $0x8,%al
    c544:	10 20                	adc    %ah,(%rax)
    c546:	40 80 80 40 20 10 08 	rex addb $0x4,0x8102040(%rax)
    c54d:	04 
    c54e:	02 00                	add    (%rax),%al
    c550:	00 00                	add    %al,(%rax)
    c552:	00 00                	add    %al,(%rax)
    c554:	00 00                	add    %al,(%rax)
    c556:	fe 00                	incb   (%rax)
    c558:	00 fe                	add    %bh,%dh
    c55a:	00 00                	add    %al,(%rax)
    c55c:	00 00                	add    %al,(%rax)
    c55e:	00 00                	add    %al,(%rax)
    c560:	00 80 40 20 10 08    	add    %al,0x8102040(%rax)
    c566:	04 02                	add    $0x2,%al
    c568:	02 04 08             	add    (%rax,%rcx,1),%al
    c56b:	10 20                	adc    %ah,(%rax)
    c56d:	40 80 00 00          	rex addb $0x0,(%rax)
    c571:	38 44 82 82          	cmp    %al,-0x7e(%rdx,%rax,4)
    c575:	82                   	(bad)  
    c576:	04 08                	add    $0x8,%al
    c578:	10 10                	adc    %dl,(%rax)
    c57a:	00 00                	add    %al,(%rax)
    c57c:	18 18                	sbb    %bl,(%rax)
    c57e:	00 00                	add    %al,(%rax)
    c580:	00 38                	add    %bh,(%rax)
    c582:	44 82                	rex.R (bad) 
    c584:	9a                   	(bad)  
    c585:	aa                   	stos   %al,%es:(%rdi)
    c586:	aa                   	stos   %al,%es:(%rdi)
    c587:	aa                   	stos   %al,%es:(%rdi)
    c588:	aa                   	stos   %al,%es:(%rdi)
    c589:	aa                   	stos   %al,%es:(%rdi)
    c58a:	9c                   	pushf  
    c58b:	80 46 38 00          	addb   $0x0,0x38(%rsi)
    c58f:	00 00                	add    %al,(%rax)
    c591:	18 18                	sbb    %bl,(%rax)
    c593:	18 18                	sbb    %bl,(%rax)
    c595:	24 24                	and    $0x24,%al
    c597:	24 24                	and    $0x24,%al
    c599:	7e 42                	jle    0xc5dd
    c59b:	42                   	rex.X
    c59c:	42 e7 00             	rex.X out %eax,$0x0
    c59f:	00 00                	add    %al,(%rax)
    c5a1:	f0 48                	lock rex.W
    c5a3:	44                   	rex.R
    c5a4:	44                   	rex.R
    c5a5:	44                   	rex.R
    c5a6:	48 78 44             	rex.W js 0xc5ed
    c5a9:	42                   	rex.X
    c5aa:	42                   	rex.X
    c5ab:	42                   	rex.X
    c5ac:	44 f8                	rex.R clc 
    c5ae:	00 00                	add    %al,(%rax)
    c5b0:	00 3a                	add    %bh,(%rdx)
    c5b2:	46                   	rex.RX
    c5b3:	42 82                	rex.X (bad) 
    c5b5:	80 80 80 80 80 82 42 	addb   $0x42,-0x7d7f7f80(%rax)
    c5bc:	44 38 00             	cmp    %r8b,(%rax)
    c5bf:	00 00                	add    %al,(%rax)
    c5c1:	f8                   	clc    
    c5c2:	44                   	rex.R
    c5c3:	44                   	rex.R
    c5c4:	42                   	rex.X
    c5c5:	42                   	rex.X
    c5c6:	42                   	rex.X
    c5c7:	42                   	rex.X
    c5c8:	42                   	rex.X
    c5c9:	42                   	rex.X
    c5ca:	42                   	rex.X
    c5cb:	44                   	rex.R
    c5cc:	44 f8                	rex.R clc 
    c5ce:	00 00                	add    %al,(%rax)
    c5d0:	00 fe                	add    %bh,%dh
    c5d2:	42                   	rex.X
    c5d3:	42                   	rex.X
    c5d4:	40                   	rex
    c5d5:	40                   	rex
    c5d6:	44 7c 44             	rex.R jl 0xc61d
    c5d9:	40                   	rex
    c5da:	40                   	rex
    c5db:	42                   	rex.X
    c5dc:	42 fe 00             	rex.X incb (%rax)
    c5df:	00 00                	add    %al,(%rax)
    c5e1:	fe 42 42             	incb   0x42(%rdx)
    c5e4:	40                   	rex
    c5e5:	40                   	rex
    c5e6:	44 7c 44             	rex.R jl 0xc62d
    c5e9:	44                   	rex.R
    c5ea:	40                   	rex
    c5eb:	40                   	rex
    c5ec:	40                   	rex
    c5ed:	f0 00 00             	lock add %al,(%rax)
    c5f0:	00 3a                	add    %bh,(%rdx)
    c5f2:	46                   	rex.RX
    c5f3:	42 82                	rex.X (bad) 
    c5f5:	80 80 9e 82 82 82 42 	addb   $0x42,-0x7d7d7d62(%rax)
    c5fc:	46 38 00             	rex.RX cmp %r8b,(%rax)
    c5ff:	00 00                	add    %al,(%rax)
    c601:	e7 42                	out    %eax,$0x42
    c603:	42                   	rex.X
    c604:	42                   	rex.X
    c605:	42                   	rex.X
    c606:	42 7e 42             	rex.X jle 0xc64b
    c609:	42                   	rex.X
    c60a:	42                   	rex.X
    c60b:	42                   	rex.X
    c60c:	42 e7 00             	rex.X out %eax,$0x0
    c60f:	00 00                	add    %al,(%rax)
    c611:	7c 10                	jl     0xc623
    c613:	10 10                	adc    %dl,(%rax)
    c615:	10 10                	adc    %dl,(%rax)
    c617:	10 10                	adc    %dl,(%rax)
    c619:	10 10                	adc    %dl,(%rax)
    c61b:	10 10                	adc    %dl,(%rax)
    c61d:	7c 00                	jl     0xc61f
    c61f:	00 00                	add    %al,(%rax)
    c621:	1f                   	(bad)  
    c622:	04 04                	add    $0x4,%al
    c624:	04 04                	add    $0x4,%al
    c626:	04 04                	add    $0x4,%al
    c628:	04 04                	add    $0x4,%al
    c62a:	04 04                	add    $0x4,%al
    c62c:	84 48 30             	test   %cl,0x30(%rax)
    c62f:	00 00                	add    %al,(%rax)
    c631:	e7 42                	out    %eax,$0x42
    c633:	44                   	rex.R
    c634:	48 50                	rex.W push %rax
    c636:	50                   	push   %rax
    c637:	60                   	(bad)  
    c638:	50                   	push   %rax
    c639:	50                   	push   %rax
    c63a:	48                   	rex.W
    c63b:	44                   	rex.R
    c63c:	42 e7 00             	rex.X out %eax,$0x0
    c63f:	00 00                	add    %al,(%rax)
    c641:	f0 40                	lock rex
    c643:	40                   	rex
    c644:	40                   	rex
    c645:	40                   	rex
    c646:	40                   	rex
    c647:	40                   	rex
    c648:	40                   	rex
    c649:	40                   	rex
    c64a:	40                   	rex
    c64b:	42                   	rex.X
    c64c:	42 fe 00             	rex.X incb (%rax)
    c64f:	00 00                	add    %al,(%rax)
    c651:	c3                   	ret    
    c652:	42                   	rex.X
    c653:	66 66 66 5a          	data16 data16 pop %dx
    c657:	5a                   	pop    %rdx
    c658:	5a                   	pop    %rdx
    c659:	42                   	rex.X
    c65a:	42                   	rex.X
    c65b:	42                   	rex.X
    c65c:	42 e7 00             	rex.X out %eax,$0x0
    c65f:	00 00                	add    %al,(%rax)
    c661:	c7 42 62 62 52 52 52 	movl   $0x52525262,0x62(%rdx)
    c668:	4a                   	rex.WX
    c669:	4a                   	rex.WX
    c66a:	4a                   	rex.WX
    c66b:	46                   	rex.RX
    c66c:	46 e2 00             	rex.RX loop 0xc66f
    c66f:	00 00                	add    %al,(%rax)
    c671:	38 44 82 82          	cmp    %al,-0x7e(%rdx,%rax,4)
    c675:	82                   	(bad)  
    c676:	82                   	(bad)  
    c677:	82                   	(bad)  
    c678:	82                   	(bad)  
    c679:	82                   	(bad)  
    c67a:	82                   	(bad)  
    c67b:	82                   	(bad)  
    c67c:	44 38 00             	cmp    %r8b,(%rax)
    c67f:	00 00                	add    %al,(%rax)
    c681:	f8                   	clc    
    c682:	44                   	rex.R
    c683:	42                   	rex.X
    c684:	42                   	rex.X
    c685:	42                   	rex.X
    c686:	44 78 40             	rex.R js 0xc6c9
    c689:	40                   	rex
    c68a:	40                   	rex
    c68b:	40                   	rex
    c68c:	40                   	rex
    c68d:	f0 00 00             	lock add %al,(%rax)
    c690:	00 38                	add    %bh,(%rax)
    c692:	44 82                	rex.R (bad) 
    c694:	82                   	(bad)  
    c695:	82                   	(bad)  
    c696:	82                   	(bad)  
    c697:	82                   	(bad)  
    c698:	82                   	(bad)  
    c699:	82                   	(bad)  
    c69a:	92                   	xchg   %eax,%edx
    c69b:	8a 44 3a 00          	mov    0x0(%rdx,%rdi,1),%al
    c69f:	00 00                	add    %al,(%rax)
    c6a1:	fc                   	cld    
    c6a2:	42                   	rex.X
    c6a3:	42                   	rex.X
    c6a4:	42                   	rex.X
    c6a5:	42 7c 44             	rex.X jl 0xc6ec
    c6a8:	42                   	rex.X
    c6a9:	42                   	rex.X
    c6aa:	42                   	rex.X
    c6ab:	42                   	rex.X
    c6ac:	42 e7 00             	rex.X out %eax,$0x0
    c6af:	00 00                	add    %al,(%rax)
    c6b1:	3a 46 82             	cmp    -0x7e(%rsi),%al
    c6b4:	82                   	(bad)  
    c6b5:	80 40 38 04          	addb   $0x4,0x38(%rax)
    c6b9:	02 82 82 c4 b8 00    	add    0xb8c482(%rdx),%al
    c6bf:	00 00                	add    %al,(%rax)
    c6c1:	fe                   	(bad)  
    c6c2:	92                   	xchg   %eax,%edx
    c6c3:	92                   	xchg   %eax,%edx
    c6c4:	10 10                	adc    %dl,(%rax)
    c6c6:	10 10                	adc    %dl,(%rax)
    c6c8:	10 10                	adc    %dl,(%rax)
    c6ca:	10 10                	adc    %dl,(%rax)
    c6cc:	10 7c 00 00          	adc    %bh,0x0(%rax,%rax,1)
    c6d0:	00 e7                	add    %ah,%bh
    c6d2:	42                   	rex.X
    c6d3:	42                   	rex.X
    c6d4:	42                   	rex.X
    c6d5:	42                   	rex.X
    c6d6:	42                   	rex.X
    c6d7:	42                   	rex.X
    c6d8:	42                   	rex.X
    c6d9:	42                   	rex.X
    c6da:	42                   	rex.X
    c6db:	42 24 3c             	rex.X and $0x3c,%al
    c6de:	00 00                	add    %al,(%rax)
    c6e0:	00 e7                	add    %ah,%bh
    c6e2:	42                   	rex.X
    c6e3:	42                   	rex.X
    c6e4:	42                   	rex.X
    c6e5:	42 24 24             	rex.X and $0x24,%al
    c6e8:	24 24                	and    $0x24,%al
    c6ea:	18 18                	sbb    %bl,(%rax)
    c6ec:	18 18                	sbb    %bl,(%rax)
    c6ee:	00 00                	add    %al,(%rax)
    c6f0:	00 e7                	add    %ah,%bh
    c6f2:	42                   	rex.X
    c6f3:	42                   	rex.X
    c6f4:	42 5a                	rex.X pop %rdx
    c6f6:	5a                   	pop    %rdx
    c6f7:	5a                   	pop    %rdx
    c6f8:	5a                   	pop    %rdx
    c6f9:	24 24                	and    $0x24,%al
    c6fb:	24 24                	and    $0x24,%al
    c6fd:	24 00                	and    $0x0,%al
    c6ff:	00 00                	add    %al,(%rax)
    c701:	e7 42                	out    %eax,$0x42
    c703:	42 24 24             	rex.X and $0x24,%al
    c706:	24 18                	and    $0x18,%al
    c708:	24 24                	and    $0x24,%al
    c70a:	24 42                	and    $0x42,%al
    c70c:	42 e7 00             	rex.X out %eax,$0x0
    c70f:	00 00                	add    %al,(%rax)
    c711:	ee                   	out    %al,(%dx)
    c712:	44                   	rex.R
    c713:	44                   	rex.R
    c714:	44 28 28             	sub    %r13b,(%rax)
    c717:	28 10                	sub    %dl,(%rax)
    c719:	10 10                	adc    %dl,(%rax)
    c71b:	10 10                	adc    %dl,(%rax)
    c71d:	7c 00                	jl     0xc71f
    c71f:	00 00                	add    %al,(%rax)
    c721:	fe 84 84 08 08 10 10 	incb   0x10100808(%rsp,%rax,4)
    c728:	20 20                	and    %ah,(%rax)
    c72a:	40                   	rex
    c72b:	42 82                	rex.X (bad) 
    c72d:	fe 00                	incb   (%rax)
    c72f:	00 00                	add    %al,(%rax)
    c731:	3e 20 20             	ds and %ah,(%rax)
    c734:	20 20                	and    %ah,(%rax)
    c736:	20 20                	and    %ah,(%rax)
    c738:	20 20                	and    %ah,(%rax)
    c73a:	20 20                	and    %ah,(%rax)
    c73c:	20 20                	and    %ah,(%rax)
    c73e:	3e 00 80 80 40 40 20 	ds add %al,0x20404080(%rax)
    c745:	20 20                	and    %ah,(%rax)
    c747:	10 10                	adc    %dl,(%rax)
    c749:	08 08                	or     %cl,(%rax)
    c74b:	04 04                	add    $0x4,%al
    c74d:	04 02                	add    $0x2,%al
    c74f:	02 00                	add    (%rax),%al
    c751:	7c 04                	jl     0xc757
    c753:	04 04                	add    $0x4,%al
    c755:	04 04                	add    $0x4,%al
    c757:	04 04                	add    $0x4,%al
    c759:	04 04                	add    $0x4,%al
    c75b:	04 04                	add    $0x4,%al
    c75d:	04 7c                	add    $0x7c,%al
    c75f:	00 00                	add    %al,(%rax)
    c761:	10 28                	adc    %ch,(%rax)
    c763:	44 82                	rex.R (bad) 
	...
    c77d:	00 fe                	add    %bh,%dh
    c77f:	00 10                	add    %dl,(%rax)
    c781:	08 04 00             	or     %al,(%rax,%rax,1)
	...
    c794:	00 70 08             	add    %dh,0x8(%rax)
    c797:	04 3c                	add    $0x3c,%al
    c799:	44 84 84 8c 76 00 00 	test   %r8b,-0x3fffff8a(%rsp,%rcx,4)
    c7a0:	c0 
    c7a1:	40                   	rex
    c7a2:	40                   	rex
    c7a3:	40                   	rex
    c7a4:	40 58                	rex pop %rax
    c7a6:	64 42                	fs rex.X
    c7a8:	42                   	rex.X
    c7a9:	42                   	rex.X
    c7aa:	42                   	rex.X
    c7ab:	42                   	rex.X
    c7ac:	64 58                	fs pop %rax
    c7ae:	00 00                	add    %al,(%rax)
    c7b0:	00 00                	add    %al,(%rax)
    c7b2:	00 00                	add    %al,(%rax)
    c7b4:	00 30                	add    %dh,(%rax)
    c7b6:	4c 84 84 80 80 82 44 	rex.WR test %r8b,0x38448280(%rax,%rax,4)
    c7bd:	38 
    c7be:	00 00                	add    %al,(%rax)
    c7c0:	0c 04                	or     $0x4,%al
    c7c2:	04 04                	add    $0x4,%al
    c7c4:	04 34                	add    $0x34,%al
    c7c6:	4c 84 84 84 84 84 4c 	rex.WR test %r8b,0x364c8484(%rsp,%rax,4)
    c7cd:	36 
    c7ce:	00 00                	add    %al,(%rax)
    c7d0:	00 00                	add    %al,(%rax)
    c7d2:	00 00                	add    %al,(%rax)
    c7d4:	00 38                	add    %bh,(%rax)
    c7d6:	44 82                	rex.R (bad) 
    c7d8:	82                   	(bad)  
    c7d9:	fc                   	cld    
    c7da:	80 82 42 3c 00 00 0e 	addb   $0xe,0x3c42(%rdx)
    c7e1:	10 10                	adc    %dl,(%rax)
    c7e3:	10 10                	adc    %dl,(%rax)
    c7e5:	7c 10                	jl     0xc7f7
    c7e7:	10 10                	adc    %dl,(%rax)
    c7e9:	10 10                	adc    %dl,(%rax)
    c7eb:	10 10                	adc    %dl,(%rax)
    c7ed:	7c 00                	jl     0xc7ef
    c7ef:	00 00                	add    %al,(%rax)
    c7f1:	00 00                	add    %al,(%rax)
    c7f3:	00 00                	add    %al,(%rax)
    c7f5:	36 4c 84 84 84 84 4c 	ss rex.WR test %r8b,0x4344c84(%rsp,%rax,4)
    c7fc:	34 04 
    c7fe:	04 38                	add    $0x38,%al
    c800:	c0 40 40 40          	rolb   $0x40,0x40(%rax)
    c804:	40 58                	rex pop %rax
    c806:	64 42                	fs rex.X
    c808:	42                   	rex.X
    c809:	42                   	rex.X
    c80a:	42                   	rex.X
    c80b:	42                   	rex.X
    c80c:	42 e3 00             	rex.X jrcxz 0xc80f
    c80f:	00 00                	add    %al,(%rax)
    c811:	10 10                	adc    %dl,(%rax)
    c813:	00 00                	add    %al,(%rax)
    c815:	30 10                	xor    %dl,(%rax)
    c817:	10 10                	adc    %dl,(%rax)
    c819:	10 10                	adc    %dl,(%rax)
    c81b:	10 10                	adc    %dl,(%rax)
    c81d:	38 00                	cmp    %al,(%rax)
    c81f:	00 00                	add    %al,(%rax)
    c821:	04 04                	add    $0x4,%al
    c823:	00 00                	add    %al,(%rax)
    c825:	0c 04                	or     $0x4,%al
    c827:	04 04                	add    $0x4,%al
    c829:	04 04                	add    $0x4,%al
    c82b:	04 04                	add    $0x4,%al
    c82d:	08 08                	or     %cl,(%rax)
    c82f:	30 c0                	xor    %al,%al
    c831:	40                   	rex
    c832:	40                   	rex
    c833:	40                   	rex
    c834:	40                   	rex
    c835:	4e                   	rex.WRX
    c836:	44                   	rex.R
    c837:	48 50                	rex.W push %rax
    c839:	60                   	(bad)  
    c83a:	50                   	push   %rax
    c83b:	48                   	rex.W
    c83c:	44 e6 00             	rex.R out %al,$0x0
    c83f:	00 30                	add    %dh,(%rax)
    c841:	10 10                	adc    %dl,(%rax)
    c843:	10 10                	adc    %dl,(%rax)
    c845:	10 10                	adc    %dl,(%rax)
    c847:	10 10                	adc    %dl,(%rax)
    c849:	10 10                	adc    %dl,(%rax)
    c84b:	10 10                	adc    %dl,(%rax)
    c84d:	38 00                	cmp    %al,(%rax)
    c84f:	00 00                	add    %al,(%rax)
    c851:	00 00                	add    %al,(%rax)
    c853:	00 00                	add    %al,(%rax)
    c855:	f6 49 49 49          	testb  $0x49,0x49(%rcx)
    c859:	49                   	rex.WB
    c85a:	49                   	rex.WB
    c85b:	49                   	rex.WB
    c85c:	49 db 00             	rex.WB fildl (%r8)
    c85f:	00 00                	add    %al,(%rax)
    c861:	00 00                	add    %al,(%rax)
    c863:	00 00                	add    %al,(%rax)
    c865:	d8 64 42 42          	fsubs  0x42(%rdx,%rax,2)
    c869:	42                   	rex.X
    c86a:	42                   	rex.X
    c86b:	42                   	rex.X
    c86c:	42 e3 00             	rex.X jrcxz 0xc86f
    c86f:	00 00                	add    %al,(%rax)
    c871:	00 00                	add    %al,(%rax)
    c873:	00 00                	add    %al,(%rax)
    c875:	38 44 82 82          	cmp    %al,-0x7e(%rdx,%rax,4)
    c879:	82                   	(bad)  
    c87a:	82                   	(bad)  
    c87b:	82                   	(bad)  
    c87c:	44 38 00             	cmp    %r8b,(%rax)
    c87f:	00 00                	add    %al,(%rax)
    c881:	00 00                	add    %al,(%rax)
    c883:	00 d8                	add    %bl,%al
    c885:	64 42                	fs rex.X
    c887:	42                   	rex.X
    c888:	42                   	rex.X
    c889:	42                   	rex.X
    c88a:	42                   	rex.X
    c88b:	64 58                	fs pop %rax
    c88d:	40                   	rex
    c88e:	40 e0 00             	rex loopne 0xc891
    c891:	00 00                	add    %al,(%rax)
    c893:	00 34 4c             	add    %dh,(%rsp,%rcx,2)
    c896:	84 84 84 84 84 4c 34 	test   %al,0x344c8484(%rsp,%rax,4)
    c89d:	04 04                	add    $0x4,%al
    c89f:	0e                   	(bad)  
    c8a0:	00 00                	add    %al,(%rax)
    c8a2:	00 00                	add    %al,(%rax)
    c8a4:	00 dc                	add    %bl,%ah
    c8a6:	62 42                	(bad)  
    c8a8:	40                   	rex
    c8a9:	40                   	rex
    c8aa:	40                   	rex
    c8ab:	40                   	rex
    c8ac:	40 e0 00             	rex loopne 0xc8af
    c8af:	00 00                	add    %al,(%rax)
    c8b1:	00 00                	add    %al,(%rax)
    c8b3:	00 00                	add    %al,(%rax)
    c8b5:	7a 86                	jp     0xc83d
    c8b7:	82                   	(bad)  
    c8b8:	c0 38 06             	sarb   $0x6,(%rax)
    c8bb:	82                   	(bad)  
    c8bc:	c2 bc 00             	ret    $0xbc
    c8bf:	00 00                	add    %al,(%rax)
    c8c1:	00 10                	add    %dl,(%rax)
    c8c3:	10 10                	adc    %dl,(%rax)
    c8c5:	7c 10                	jl     0xc8d7
    c8c7:	10 10                	adc    %dl,(%rax)
    c8c9:	10 10                	adc    %dl,(%rax)
    c8cb:	10 10                	adc    %dl,(%rax)
    c8cd:	0e                   	(bad)  
    c8ce:	00 00                	add    %al,(%rax)
    c8d0:	00 00                	add    %al,(%rax)
    c8d2:	00 00                	add    %al,(%rax)
    c8d4:	00 c6                	add    %al,%dh
    c8d6:	42                   	rex.X
    c8d7:	42                   	rex.X
    c8d8:	42                   	rex.X
    c8d9:	42                   	rex.X
    c8da:	42                   	rex.X
    c8db:	42                   	rex.X
    c8dc:	46 3b 00             	rex.RX cmp (%rax),%r8d
    c8df:	00 00                	add    %al,(%rax)
    c8e1:	00 00                	add    %al,(%rax)
    c8e3:	00 00                	add    %al,(%rax)
    c8e5:	e7 42                	out    %eax,$0x42
    c8e7:	42                   	rex.X
    c8e8:	42 24 24             	rex.X and $0x24,%al
    c8eb:	24 18                	and    $0x18,%al
    c8ed:	18 00                	sbb    %al,(%rax)
    c8ef:	00 00                	add    %al,(%rax)
    c8f1:	00 00                	add    %al,(%rax)
    c8f3:	00 00                	add    %al,(%rax)
    c8f5:	e7 42                	out    %eax,$0x42
    c8f7:	42 5a                	rex.X pop %rdx
    c8f9:	5a                   	pop    %rdx
    c8fa:	5a                   	pop    %rdx
    c8fb:	24 24                	and    $0x24,%al
    c8fd:	24 00                	and    $0x0,%al
    c8ff:	00 00                	add    %al,(%rax)
    c901:	00 00                	add    %al,(%rax)
    c903:	00 00                	add    %al,(%rax)
    c905:	c6 44 28 28 10       	movb   $0x10,0x28(%rax,%rbp,1)
    c90a:	28 28                	sub    %ch,(%rax)
    c90c:	44 c6 00 00          	rex.R movb $0x0,(%rax)
    c910:	00 00                	add    %al,(%rax)
    c912:	00 00                	add    %al,(%rax)
    c914:	00 e7                	add    %ah,%bh
    c916:	42                   	rex.X
    c917:	42 24 24             	rex.X and $0x24,%al
    c91a:	24 18                	and    $0x18,%al
    c91c:	18 10                	sbb    %dl,(%rax)
    c91e:	10 60 00             	adc    %ah,0x0(%rax)
    c921:	00 00                	add    %al,(%rax)
    c923:	00 00                	add    %al,(%rax)
    c925:	fe 82 84 08 10 20    	incb   0x20100884(%rdx)
    c92b:	42 82                	rex.X (bad) 
    c92d:	fe 00                	incb   (%rax)
    c92f:	00 00                	add    %al,(%rax)
    c931:	06                   	(bad)  
    c932:	08 10                	or     %dl,(%rax)
    c934:	10 10                	adc    %dl,(%rax)
    c936:	10 60 10             	adc    %ah,0x10(%rax)
    c939:	10 10                	adc    %dl,(%rax)
    c93b:	10 08                	adc    %cl,(%rax)
    c93d:	06                   	(bad)  
    c93e:	00 00                	add    %al,(%rax)
    c940:	10 10                	adc    %dl,(%rax)
    c942:	10 10                	adc    %dl,(%rax)
    c944:	10 10                	adc    %dl,(%rax)
    c946:	10 10                	adc    %dl,(%rax)
    c948:	10 10                	adc    %dl,(%rax)
    c94a:	10 10                	adc    %dl,(%rax)
    c94c:	10 10                	adc    %dl,(%rax)
    c94e:	10 10                	adc    %dl,(%rax)
    c950:	00 60 10             	add    %ah,0x10(%rax)
    c953:	08 08                	or     %cl,(%rax)
    c955:	08 08                	or     %cl,(%rax)
    c957:	06                   	(bad)  
    c958:	08 08                	or     %cl,(%rax)
    c95a:	08 08                	or     %cl,(%rax)
    c95c:	10 60 00             	adc    %ah,0x0(%rax)
    c95f:	00 00                	add    %al,(%rax)
    c961:	72 8c                	jb     0xc8ef
	...
    d17f:	00 2a                	add    %ch,(%rdx)
    d181:	2a 2a                	sub    (%rdx),%ch
    d183:	2a 2a                	sub    (%rdx),%ch
    d185:	2a 2a                	sub    (%rdx),%ch
    d187:	2a 2a                	sub    (%rdx),%ch
    d189:	2a 2a                	sub    (%rdx),%ch
    d18b:	2a 2a                	sub    (%rdx),%ch
    d18d:	2a 2e                	sub    (%rsi),%ch
    d18f:	2e 2a 4f 4f          	cs sub 0x4f(%rdi),%cl
    d193:	4f                   	rex.WRXB
    d194:	4f                   	rex.WRXB
    d195:	4f                   	rex.WRXB
    d196:	4f                   	rex.WRXB
    d197:	4f                   	rex.WRXB
    d198:	4f                   	rex.WRXB
    d199:	4f                   	rex.WRXB
    d19a:	4f                   	rex.WRXB
    d19b:	4f 2a 2e             	rex.WRXB sub (%r14),%r13b
    d19e:	2e 2e 2a 4f 4f       	cs cs sub 0x4f(%rdi),%cl
    d1a3:	4f                   	rex.WRXB
    d1a4:	4f                   	rex.WRXB
    d1a5:	4f                   	rex.WRXB
    d1a6:	4f                   	rex.WRXB
    d1a7:	4f                   	rex.WRXB
    d1a8:	4f                   	rex.WRXB
    d1a9:	4f                   	rex.WRXB
    d1aa:	4f 2a 2e             	rex.WRXB sub (%r14),%r13b
    d1ad:	2e 2e 2e 2a 4f 4f    	cs cs cs sub 0x4f(%rdi),%cl
    d1b3:	4f                   	rex.WRXB
    d1b4:	4f                   	rex.WRXB
    d1b5:	4f                   	rex.WRXB
    d1b6:	4f                   	rex.WRXB
    d1b7:	4f                   	rex.WRXB
    d1b8:	4f                   	rex.WRXB
    d1b9:	4f 2a 2e             	rex.WRXB sub (%r14),%r13b
    d1bc:	2e 2e 2e 2e 2a 4f 4f 	cs cs cs cs sub 0x4f(%rdi),%cl
    d1c3:	4f                   	rex.WRXB
    d1c4:	4f                   	rex.WRXB
    d1c5:	4f                   	rex.WRXB
    d1c6:	4f                   	rex.WRXB
    d1c7:	4f                   	rex.WRXB
    d1c8:	4f 2a 2e             	rex.WRXB sub (%r14),%r13b
    d1cb:	2e 2e 2e 2e 2e 2a 4f 	cs cs cs cs cs sub 0x4f(%rdi),%cl
    d1d2:	4f 
    d1d3:	4f                   	rex.WRXB
    d1d4:	4f                   	rex.WRXB
    d1d5:	4f                   	rex.WRXB
    d1d6:	4f                   	rex.WRXB
    d1d7:	4f 2a 2e             	rex.WRXB sub (%r14),%r13b
    d1da:	2e 2e 2e 2e 2e 2e 2a 	cs cs cs cs cs cs sub 0x4f(%rdi),%cl
    d1e1:	4f 4f 
    d1e3:	4f                   	rex.WRXB
    d1e4:	4f                   	rex.WRXB
    d1e5:	4f                   	rex.WRXB
    d1e6:	4f                   	rex.WRXB
    d1e7:	4f 2a 2e             	rex.WRXB sub (%r14),%r13b
    d1ea:	2e 2e 2e 2e 2e 2e 2a 	cs cs cs cs cs cs sub 0x4f(%rdi),%cl
    d1f1:	4f 4f 
    d1f3:	4f                   	rex.WRXB
    d1f4:	4f                   	rex.WRXB
    d1f5:	4f                   	rex.WRXB
    d1f6:	4f                   	rex.WRXB
    d1f7:	4f                   	rex.WRXB
    d1f8:	4f 2a 2e             	rex.WRXB sub (%r14),%r13b
    d1fb:	2e 2e 2e 2e 2e 2a 4f 	cs cs cs cs cs sub 0x4f(%rdi),%cl
    d202:	4f 
    d203:	4f                   	rex.WRXB
    d204:	4f 2a 2a             	rex.WRXB sub (%r10),%r13b
    d207:	4f                   	rex.WRXB
    d208:	4f                   	rex.WRXB
    d209:	4f 2a 2e             	rex.WRXB sub (%r14),%r13b
    d20c:	2e 2e 2e 2e 2a 4f 4f 	cs cs cs cs sub 0x4f(%rdi),%cl
    d213:	4f 2a 2e             	rex.WRXB sub (%r14),%r13b
    d216:	2e 2a 4f 4f          	cs sub 0x4f(%rdi),%cl
    d21a:	4f 2a 2e             	rex.WRXB sub (%r14),%r13b
    d21d:	2e 2e 2e 2a 4f 4f    	cs cs cs sub 0x4f(%rdi),%cl
    d223:	2a 2e                	sub    (%rsi),%ch
    d225:	2e 2e 2e 2a 4f 4f    	cs cs cs sub 0x4f(%rdi),%cl
    d22b:	4f 2a 2e             	rex.WRXB sub (%r14),%r13b
    d22e:	2e 2e 2a 4f 2a       	cs cs sub 0x2a(%rdi),%cl
    d233:	2e 2e 2e 2e 2e 2e 2a 	cs cs cs cs cs cs sub 0x4f(%rdi),%cl
    d23a:	4f 4f 
    d23c:	4f 2a 2e             	rex.WRXB sub (%r14),%r13b
    d23f:	2e 2a 2a             	cs sub (%rdx),%ch
    d242:	2e 2e 2e 2e 2e 2e 2e 	cs cs cs cs cs cs cs cs sub 0x4f(%rdi),%cl
    d249:	2e 2a 4f 4f 
    d24d:	4f 2a 2e             	rex.WRXB sub (%r14),%r13b
    d250:	2a 2e                	sub    (%rsi),%ch
    d252:	2e 2e 2e 2e 2e 2e 2e 	cs cs cs cs cs cs cs cs cs sub 0x4f(%rdi),%cl
    d259:	2e 2e 2a 4f 4f 
    d25e:	4f 2a 2e             	rex.WRXB sub (%r14),%r13b
    d261:	2e 2e 2e 2e 2e 2e 2e 	cs cs cs cs cs cs cs cs cs cs cs sub 0x4f(%rdi),%cl
    d268:	2e 2e 2e 2e 2a 4f 4f 
    d26f:	2a 2e                	sub    (%rsi),%ch
    d271:	2e 2e 2e 2e 2e 2e 2e 	cs cs cs cs cs cs cs cs cs cs cs cs sub (%rdx),%ch
    d278:	2e 2e 2e 2e 2e 2a 2a 
    d27f:	2a 00                	sub    (%rax),%al
	...
    d28d:	98                   	cwtl   
    d28e:	20 00                	and    %al,(%rax)
    d290:	00 00                	add    %al,(%rax)
    d292:	00 00                	add    %al,(%rax)
    d294:	00 92 00 00 00 00    	add    %dl,0x0(%rdx)
    d29a:	00 00                	add    %al,(%rax)
    d29c:	00 f8                	add    %bh,%al
    d29e:	20 00                	and    %al,(%rax)
    d2a0:	00 00                	add    %al,(%rax)
    d2a2:	00 00                	add    %al,(%rax)
    d2a4:	00 f2                	add    %dh,%dl
    d2a6:	00 00                	add    %al,(%rax)
    d2a8:	ff                   	(bad)  
    d2a9:	ff 00                	incl   (%rax)
    d2ab:	00 00                	add    %al,(%rax)
    d2ad:	9a                   	(bad)  
    d2ae:	cf                   	iret   
    d2af:	00 ff                	add    %bh,%bh
    d2b1:	ff 00                	incl   (%rax)
    d2b3:	00 00                	add    %al,(%rax)
    d2b5:	92                   	xchg   %eax,%edx
    d2b6:	cf                   	iret   
	...
    d307:	00 87 00 80 d2 10    	add    %al,0x10d28000(%rdi)
    d30d:	00 00                	add    %al,(%rax)
    d30f:	80 ff ff             	cmp    $0xff,%bh
	...
    e312:	ff 0f                	decl   (%rdi)
    e314:	12 d3                	adc    %bl,%dl
    e316:	10 00                	adc    %al,(%rax)
    e318:	00 80 ff ff 00 00    	add    %al,0xffff(%rax)
	...
    e382:	00 00                	add    %al,(%rax)
    e384:	67 00 1c e3          	add    %bl,(%ebx,%eiz,8)
    e388:	10 00                	adc    %al,(%rax)
    e38a:	00 80 ff ff 00 00    	add    %al,0xffff(%rax)
	...
    e398:	00 00                	add    %al,(%rax)
    e39a:	00 98 20 00 00 00    	add    %bl,0x20(%rax)
    e3a0:	00 00                	add    %al,(%rax)
    e3a2:	00 92 00 00 00 00    	add    %dl,0x0(%rdx)
    e3a8:	00 00                	add    %al,(%rax)
    e3aa:	00 f8                	add    %bh,%al
    e3ac:	20 00                	and    %al,(%rax)
    e3ae:	00 00                	add    %al,(%rax)
    e3b0:	00 00                	add    %al,(%rax)
    e3b2:	00 f2                	add    %dh,%dl
    e3b4:	00 00                	add    %al,(%rax)
    e3b6:	ff                   	(bad)  
    e3b7:	ff 00                	incl   (%rax)
    e3b9:	00 00                	add    %al,(%rax)
    e3bb:	9a                   	(bad)  
    e3bc:	cf                   	iret   
    e3bd:	00 ff                	add    %bh,%bh
    e3bf:	ff 00                	incl   (%rax)
    e3c1:	00 00                	add    %al,(%rax)
    e3c3:	92                   	xchg   %eax,%edx
    e3c4:	cf                   	iret   
	...
    e415:	00 87 00 80 d2 10    	add    %al,0x10d28000(%rdi)
    e41b:	00 00                	add    %al,(%rax)
    e41d:	80 ff ff             	cmp    $0xff,%bh
	...
    f420:	ff 0f                	decl   (%rdi)
    f422:	12 d3                	adc    %bl,%dl
    f424:	10 00                	adc    %al,(%rax)
    f426:	00 80 ff ff 00 00    	add    %al,0xffff(%rax)
	...
    f490:	00 00                	add    %al,(%rax)
    f492:	67 00 1c e3          	add    %bl,(%ebx,%eiz,8)
    f496:	10 00                	adc    %al,(%rax)
    f498:	00 80 ff ff 00 00    	add    %al,0xffff(%rax)
    f49e:	00 00                	add    %al,(%rax)
    f4a0:	8f                   	(bad)  
    f4a1:	bf 10 00 00 80       	mov    $0x80000010,%edi
    f4a6:	ff                   	(bad)  
    f4a7:	ff f0                	push   %rax
    f4a9:	c0 10 00             	rclb   $0x0,(%rax)
    f4ac:	00 80 ff ff 4d c0    	add    %al,-0x3fb20001(%rax)
    f4b2:	10 00                	adc    %al,(%rax)
    f4b4:	00 80 ff ff e4 bf    	add    %al,-0x401b0001(%rax)
    f4ba:	10 00                	adc    %al,(%rax)
    f4bc:	00 80 ff ff 60 c0    	add    %al,-0x3f9f0001(%rax)
    f4c2:	10 00                	adc    %al,(%rax)
    f4c4:	00 80 ff ff bd c0    	add    %al,-0x3f420001(%rax)
    f4ca:	10 00                	adc    %al,(%rax)
    f4cc:	00 80 ff ff ce c0    	add    %al,-0x3f310001(%rax)
    f4d2:	10 00                	adc    %al,(%rax)
    f4d4:	00 80 ff ff df c0    	add    %al,-0x3f200001(%rax)
    f4da:	10 00                	adc    %al,(%rax)
    f4dc:	00 80 ff ff 12 d3    	add    %al,-0x2ced0001(%rax)
    f4e2:	10 00                	adc    %al,(%rax)
    f4e4:	00 80 ff ff 73 c0    	add    %al,-0x3f8c0001(%rax)
    f4ea:	10 00                	adc    %al,(%rax)
    f4ec:	00 80 ff ff 1c e3    	add    %al,-0x1ce30001(%rax)
    f4f2:	10 00                	adc    %al,(%rax)
    f4f4:	00 80 ff ff 25 c1    	add    %al,-0x3eda0001(%rax)
    f4fa:	10 00                	adc    %al,(%rax)
    f4fc:	00 80 ff ff 12 c1    	add    %al,-0x3eed0001(%rax)
    f502:	10 00                	adc    %al,(%rax)
    f504:	00 80 ff ff 99 c0    	add    %al,-0x3f660001(%rax)
    f50a:	10 00                	adc    %al,(%rax)
    f50c:	00 80 ff ff 00 03    	add    %al,0x300ffff(%rax)
    f512:	11 00                	adc    %eax,(%rax)
    f514:	00 80 ff ff 5c c1    	add    %al,-0x3ea30001(%rax)
    f51a:	10 00                	adc    %al,(%rax)
    f51c:	00 80 ff ff aa c0    	add    %al,-0x3f550001(%rax)
    f522:	10 00                	adc    %al,(%rax)
    f524:	00 80 ff ff 01 c1    	add    %al,-0x3efe0001(%rax)
    f52a:	10 00                	adc    %al,(%rax)
    f52c:	00 80 ff ff 36 c1    	add    %al,-0x3ec90001(%rax)
    f532:	10 00                	adc    %al,(%rax)
    f534:	00 80 ff ff 49 c1    	add    %al,-0x3eb60001(%rax)
    f53a:	10 00                	adc    %al,(%rax)
    f53c:	00 80 ff ff f4 bf    	add    %al,-0x400b0001(%rax)
    f542:	10 00                	adc    %al,(%rax)
    f544:	00 80 ff ff 86 c0    	add    %al,-0x3f790001(%rax)
    f54a:	10 00                	adc    %al,(%rax)
    f54c:	00 80 ff ff 3a c0    	add    %al,-0x3fc50001(%rax)
    f552:	10 00                	adc    %al,(%rax)
    f554:	00 80 ff ff 00 00    	add    %al,0xffff(%rax)
	...
    f56e:	00 00                	add    %al,(%rax)
    f570:	64 6f                	outsl  %fs:(%rsi),(%dx)
    f572:	5f                   	pop    %rdi
    f573:	64 69 76 69 64 65 5f 	imul   $0x655f6564,%fs:0x69(%rsi),%esi
    f57a:	65 
    f57b:	72 72                	jb     0xf5ef
    f57d:	6f                   	outsl  %ds:(%rsi),(%dx)
    f57e:	72 28                	jb     0xf5a8
    f580:	30 29                	xor    %ch,(%rcx)
    f582:	2c 45                	sub    $0x45,%al
    f584:	52                   	push   %rdx
    f585:	52                   	push   %rdx
    f586:	4f 52                	rex.WRXB push %r10
    f588:	5f                   	pop    %rdi
    f589:	43                   	rex.XB
    f58a:	4f                   	rex.WRXB
    f58b:	44                   	rex.R
    f58c:	45 3a 25 78 2c 52 53 	cmp    0x53522c78(%rip),%r12b        # 0x5353220b
    f593:	50                   	push   %rax
    f594:	3a 25 78 2c 52 49    	cmp    0x49522c78(%rip),%ah        # 0x49532212
    f59a:	50                   	push   %rax
    f59b:	3a 25 78 0a 00 64    	cmp    0x64000a78(%rip),%ah        # 0x64010019
    f5a1:	6f                   	outsl  %ds:(%rsi),(%dx)
    f5a2:	5f                   	pop    %rdi
    f5a3:	64 65 62 75 67 28 31 	(bad)
    f5aa:	29 2c 45 52 52 4f 52 	sub    %ebp,0x524f5252(,%rax,2)
    f5b1:	5f                   	pop    %rdi
    f5b2:	43                   	rex.XB
    f5b3:	4f                   	rex.WRXB
    f5b4:	44                   	rex.R
    f5b5:	45 3a 25 78 2c 52 53 	cmp    0x53522c78(%rip),%r12b        # 0x53532234
    f5bc:	50                   	push   %rax
    f5bd:	3a 25 78 2c 52 49    	cmp    0x49522c78(%rip),%ah        # 0x4953223b
    f5c3:	50                   	push   %rax
    f5c4:	3a 25 78 0a 00 00    	cmp    0xa78(%rip),%ah        # 0x10042
    f5ca:	00 00                	add    %al,(%rax)
    f5cc:	00 00                	add    %al,(%rax)
    f5ce:	00 00                	add    %al,(%rax)
    f5d0:	64 6f                	outsl  %fs:(%rsi),(%dx)
    f5d2:	5f                   	pop    %rdi
    f5d3:	6e                   	outsb  %ds:(%rsi),(%dx)
    f5d4:	6d                   	insl   (%dx),%es:(%rdi)
    f5d5:	69 28 32 29 2c 45    	imul   $0x452c2932,(%rax),%ebp
    f5db:	52                   	push   %rdx
    f5dc:	52                   	push   %rdx
    f5dd:	4f 52                	rex.WRXB push %r10
    f5df:	5f                   	pop    %rdi
    f5e0:	43                   	rex.XB
    f5e1:	4f                   	rex.WRXB
    f5e2:	44                   	rex.R
    f5e3:	45 3a 25 78 2c 52 53 	cmp    0x53522c78(%rip),%r12b        # 0x53532262
    f5ea:	50                   	push   %rax
    f5eb:	3a 25 78 2c 52 49    	cmp    0x49522c78(%rip),%ah        # 0x49532269
    f5f1:	50                   	push   %rax
    f5f2:	3a 25 78 0a 00 00    	cmp    0xa78(%rip),%ah        # 0x10070
    f5f8:	64 6f                	outsl  %fs:(%rsi),(%dx)
    f5fa:	5f                   	pop    %rdi
    f5fb:	69 6e 74 33 28 33 29 	imul   $0x29332833,0x74(%rsi),%ebp
    f602:	2c 45                	sub    $0x45,%al
    f604:	52                   	push   %rdx
    f605:	52                   	push   %rdx
    f606:	4f 52                	rex.WRXB push %r10
    f608:	5f                   	pop    %rdi
    f609:	43                   	rex.XB
    f60a:	4f                   	rex.WRXB
    f60b:	44                   	rex.R
    f60c:	45 3a 25 78 2c 52 53 	cmp    0x53522c78(%rip),%r12b        # 0x5353228b
    f613:	50                   	push   %rax
    f614:	3a 25 78 2c 52 49    	cmp    0x49522c78(%rip),%ah        # 0x49532292
    f61a:	50                   	push   %rax
    f61b:	3a 25 78 0a 00 64    	cmp    0x64000a78(%rip),%ah        # 0x64010099
    f621:	6f                   	outsl  %ds:(%rsi),(%dx)
    f622:	5f                   	pop    %rdi
    f623:	6f                   	outsl  %ds:(%rsi),(%dx)
    f624:	76 65                	jbe    0xf68b
    f626:	72 66                	jb     0xf68e
    f628:	6c                   	insb   (%dx),%es:(%rdi)
    f629:	6f                   	outsl  %ds:(%rsi),(%dx)
    f62a:	77 28                	ja     0xf654
    f62c:	34 29                	xor    $0x29,%al
    f62e:	2c 45                	sub    $0x45,%al
    f630:	52                   	push   %rdx
    f631:	52                   	push   %rdx
    f632:	4f 52                	rex.WRXB push %r10
    f634:	5f                   	pop    %rdi
    f635:	43                   	rex.XB
    f636:	4f                   	rex.WRXB
    f637:	44                   	rex.R
    f638:	45 3a 25 78 2c 52 53 	cmp    0x53522c78(%rip),%r12b        # 0x535322b7
    f63f:	50                   	push   %rax
    f640:	3a 25 78 2c 52 49    	cmp    0x49522c78(%rip),%ah        # 0x495322be
    f646:	50                   	push   %rax
    f647:	3a 25 78 0a 00 00    	cmp    0xa78(%rip),%ah        # 0x100c5
    f64d:	00 00                	add    %al,(%rax)
    f64f:	00 64 6f 5f          	add    %ah,0x5f(%rdi,%rbp,2)
    f653:	62                   	(bad)  
    f654:	6f                   	outsl  %ds:(%rsi),(%dx)
    f655:	75 6e                	jne    0xf6c5
    f657:	64 73 28             	fs jae 0xf682
    f65a:	35 29 2c 45 52       	xor    $0x52452c29,%eax
    f65f:	52                   	push   %rdx
    f660:	4f 52                	rex.WRXB push %r10
    f662:	5f                   	pop    %rdi
    f663:	43                   	rex.XB
    f664:	4f                   	rex.WRXB
    f665:	44                   	rex.R
    f666:	45 3a 25 78 2c 52 53 	cmp    0x53522c78(%rip),%r12b        # 0x535322e5
    f66d:	50                   	push   %rax
    f66e:	3a 25 78 2c 52 49    	cmp    0x49522c78(%rip),%ah        # 0x495322ec
    f674:	50                   	push   %rax
    f675:	3a 25 78 0a 00 00    	cmp    0xa78(%rip),%ah        # 0x100f3
    f67b:	00 00                	add    %al,(%rax)
    f67d:	00 00                	add    %al,(%rax)
    f67f:	00 64 6f 5f          	add    %ah,0x5f(%rdi,%rbp,2)
    f683:	75 6e                	jne    0xf6f3
    f685:	64 65 66 69 6e 65 64 	fs imul $0x5f64,%gs:0x65(%rsi),%bp
    f68c:	5f 
    f68d:	6f                   	outsl  %ds:(%rsi),(%dx)
    f68e:	70 63                	jo     0xf6f3
    f690:	6f                   	outsl  %ds:(%rsi),(%dx)
    f691:	64 65 28 36          	fs sub %dh,%gs:(%rsi)
    f695:	29 2c 45 52 52 4f 52 	sub    %ebp,0x524f5252(,%rax,2)
    f69c:	5f                   	pop    %rdi
    f69d:	43                   	rex.XB
    f69e:	4f                   	rex.WRXB
    f69f:	44                   	rex.R
    f6a0:	45 3a 25 78 2c 52 53 	cmp    0x53522c78(%rip),%r12b        # 0x5353231f
    f6a7:	50                   	push   %rax
    f6a8:	3a 25 78 2c 52 49    	cmp    0x49522c78(%rip),%ah        # 0x49532326
    f6ae:	50                   	push   %rax
    f6af:	3a 25 78 0a 00 00    	cmp    0xa78(%rip),%ah        # 0x1012d
    f6b5:	00 00                	add    %al,(%rax)
    f6b7:	00 64 6f 5f          	add    %ah,0x5f(%rdi,%rbp,2)
    f6bb:	64 65 76 5f          	fs gs jbe 0xf71e
    f6bf:	6e                   	outsb  %ds:(%rsi),(%dx)
    f6c0:	6f                   	outsl  %ds:(%rsi),(%dx)
    f6c1:	74 5f                	je     0xf722
    f6c3:	61                   	(bad)  
    f6c4:	76 61                	jbe    0xf727
    f6c6:	69 6c 61 62 6c 65 28 	imul   $0x3728656c,0x62(%rcx,%riz,2),%ebp
    f6cd:	37 
    f6ce:	29 2c 45 52 52 4f 52 	sub    %ebp,0x524f5252(,%rax,2)
    f6d5:	5f                   	pop    %rdi
    f6d6:	43                   	rex.XB
    f6d7:	4f                   	rex.WRXB
    f6d8:	44                   	rex.R
    f6d9:	45 3a 25 78 2c 52 53 	cmp    0x53522c78(%rip),%r12b        # 0x53532358
    f6e0:	50                   	push   %rax
    f6e1:	3a 25 78 2c 52 49    	cmp    0x49522c78(%rip),%ah        # 0x4953235f
    f6e7:	50                   	push   %rax
    f6e8:	3a 25 78 0a 00 00    	cmp    0xa78(%rip),%ah        # 0x10166
    f6ee:	00 00                	add    %al,(%rax)
    f6f0:	64 6f                	outsl  %fs:(%rsi),(%dx)
    f6f2:	5f                   	pop    %rdi
    f6f3:	64 6f                	outsl  %fs:(%rsi),(%dx)
    f6f5:	75 62                	jne    0xf759
    f6f7:	6c                   	insb   (%dx),%es:(%rdi)
    f6f8:	65 5f                	gs pop %rdi
    f6fa:	66 61                	data16 (bad) 
    f6fc:	75 6c                	jne    0xf76a
    f6fe:	74 28                	je     0xf728
    f700:	38 29                	cmp    %ch,(%rcx)
    f702:	2c 45                	sub    $0x45,%al
    f704:	52                   	push   %rdx
    f705:	52                   	push   %rdx
    f706:	4f 52                	rex.WRXB push %r10
    f708:	5f                   	pop    %rdi
    f709:	43                   	rex.XB
    f70a:	4f                   	rex.WRXB
    f70b:	44                   	rex.R
    f70c:	45 3a 25 78 2c 52 53 	cmp    0x53522c78(%rip),%r12b        # 0x5353238b
    f713:	50                   	push   %rax
    f714:	3a 25 78 2c 52 49    	cmp    0x49522c78(%rip),%ah        # 0x49532392
    f71a:	50                   	push   %rax
    f71b:	3a 25 78 0a 00 64    	cmp    0x64000a78(%rip),%ah        # 0x64010199
    f721:	6f                   	outsl  %ds:(%rsi),(%dx)
    f722:	5f                   	pop    %rdi
    f723:	63 6f 70             	movsxd 0x70(%rdi),%ebp
    f726:	72 6f                	jb     0xf797
    f728:	63 65 73             	movsxd 0x73(%rbp),%esp
    f72b:	73 6f                	jae    0xf79c
    f72d:	72 5f                	jb     0xf78e
    f72f:	73 65                	jae    0xf796
    f731:	67 6d                	insl   (%dx),%es:(%edi)
    f733:	65 6e                	outsb  %gs:(%rsi),(%dx)
    f735:	74 5f                	je     0xf796
    f737:	6f                   	outsl  %ds:(%rsi),(%dx)
    f738:	76 65                	jbe    0xf79f
    f73a:	72 72                	jb     0xf7ae
    f73c:	75 6e                	jne    0xf7ac
    f73e:	28 39                	sub    %bh,(%rcx)
    f740:	29 2c 45 52 52 4f 52 	sub    %ebp,0x524f5252(,%rax,2)
    f747:	5f                   	pop    %rdi
    f748:	43                   	rex.XB
    f749:	4f                   	rex.WRXB
    f74a:	44                   	rex.R
    f74b:	45 3a 25 78 2c 52 53 	cmp    0x53522c78(%rip),%r12b        # 0x535323ca
    f752:	50                   	push   %rax
    f753:	3a 25 78 2c 52 49    	cmp    0x49522c78(%rip),%ah        # 0x495323d1
    f759:	50                   	push   %rax
    f75a:	3a 25 78 0a 00 00    	cmp    0xa78(%rip),%ah        # 0x101d8
    f760:	64 6f                	outsl  %fs:(%rsi),(%dx)
    f762:	5f                   	pop    %rdi
    f763:	69 6e 76 61 6c 69 64 	imul   $0x64696c61,0x76(%rsi),%ebp
    f76a:	5f                   	pop    %rdi
    f76b:	54                   	push   %rsp
    f76c:	53                   	push   %rbx
    f76d:	53                   	push   %rbx
    f76e:	28 31                	sub    %dh,(%rcx)
    f770:	30 29                	xor    %ch,(%rcx)
    f772:	2c 45                	sub    $0x45,%al
    f774:	52                   	push   %rdx
    f775:	52                   	push   %rdx
    f776:	4f 52                	rex.WRXB push %r10
    f778:	5f                   	pop    %rdi
    f779:	43                   	rex.XB
    f77a:	4f                   	rex.WRXB
    f77b:	44                   	rex.R
    f77c:	45 3a 25 78 2c 52 53 	cmp    0x53522c78(%rip),%r12b        # 0x535323fb
    f783:	50                   	push   %rax
    f784:	3a 25 78 2c 52 49    	cmp    0x49522c78(%rip),%ah        # 0x49532402
    f78a:	50                   	push   %rax
    f78b:	3a 25 78 0a 00 54    	cmp    0x54000a78(%rip),%ah        # 0x54010209
    f791:	68 65 20 65 78       	push   $0x78652065
    f796:	63 65 70             	movsxd 0x70(%rbp),%esp
    f799:	74 69                	je     0xf804
    f79b:	6f                   	outsl  %ds:(%rsi),(%dx)
    f79c:	6e                   	outsb  %ds:(%rsi),(%dx)
    f79d:	20 6f 63             	and    %ch,0x63(%rdi)
    f7a0:	63 75 72             	movsxd 0x72(%rbp),%esi
    f7a3:	72 65                	jb     0xf80a
    f7a5:	64 20 64 75 72       	and    %ah,%fs:0x72(%rbp,%rsi,2)
    f7aa:	69 6e 67 20 64 65 6c 	imul   $0x6c656420,0x67(%rsi),%ebp
    f7b1:	69 76 65 72 79 20 6f 	imul   $0x6f207972,0x65(%rsi),%esi
    f7b8:	66 20 61 6e          	data16 and %ah,0x6e(%rcx)
    f7bc:	20 65 76             	and    %ah,0x76(%rbp)
    f7bf:	65 6e                	outsb  %gs:(%rsi),(%dx)
    f7c1:	74 20                	je     0xf7e3
    f7c3:	65 78 74             	gs js  0xf83a
    f7c6:	65 72 6e             	gs jb  0xf837
    f7c9:	61                   	(bad)  
    f7ca:	6c                   	insb   (%dx),%es:(%rdi)
    f7cb:	20 74 6f 20          	and    %dh,0x20(%rdi,%rbp,2)
    f7cf:	74 68                	je     0xf839
    f7d1:	65 20 70 72          	and    %dh,%gs:0x72(%rax)
    f7d5:	6f                   	outsl  %ds:(%rsi),(%dx)
    f7d6:	67 72 61             	addr32 jb 0xf83a
    f7d9:	6d                   	insl   (%dx),%es:(%rdi)
    f7da:	2c 73                	sub    $0x73,%al
    f7dc:	75 63                	jne    0xf841
    f7de:	68 20 61 73 20       	push   $0x20736120
    f7e3:	61                   	(bad)  
    f7e4:	6e                   	outsb  %ds:(%rsi),(%dx)
    f7e5:	20 69 6e             	and    %ch,0x6e(%rcx)
    f7e8:	74 65                	je     0xf84f
    f7ea:	72 72                	jb     0xf85e
    f7ec:	75 70                	jne    0xf85e
    f7ee:	74 20                	je     0xf810
    f7f0:	6f                   	outsl  %ds:(%rsi),(%dx)
    f7f1:	72 20                	jb     0xf813
    f7f3:	61                   	(bad)  
    f7f4:	6e                   	outsb  %ds:(%rsi),(%dx)
    f7f5:	20 65 61             	and    %ah,0x61(%rbp)
    f7f8:	72 6c                	jb     0xf866
    f7fa:	69 65 72 20 65 78 63 	imul   $0x63786520,0x72(%rbp),%esp
    f801:	65 70 74             	gs jo  0xf878
    f804:	69 6f 6e 2e 0a 00 00 	imul   $0xa2e,0x6e(%rdi),%ebp
    f80b:	00 00                	add    %al,(%rax)
    f80d:	00 00                	add    %al,(%rax)
    f80f:	00 52 65             	add    %dl,0x65(%rdx)
    f812:	66 65 72 73          	data16 gs jb 0xf889
    f816:	20 74 6f 20          	and    %dh,0x20(%rdi,%rbp,2)
    f81a:	61                   	(bad)  
    f81b:	20 67 61             	and    %ah,0x61(%rdi)
    f81e:	74 65                	je     0xf885
    f820:	20 64 65 73          	and    %ah,0x73(%rbp,%riz,2)
    f824:	63 72 69             	movsxd 0x69(%rdx),%esi
    f827:	70 74                	jo     0xf89d
    f829:	6f                   	outsl  %ds:(%rsi),(%dx)
    f82a:	72 20                	jb     0xf84c
    f82c:	69 6e 20 74 68 65 20 	imul   $0x20656874,0x20(%rsi),%ebp
    f833:	49                   	rex.WB
    f834:	44 54                	rex.R push %rsp
    f836:	3b 0a                	cmp    (%rdx),%ecx
	...
    f840:	52                   	push   %rdx
    f841:	65 66 65 72 73       	gs data16 gs jb 0xf8b9
    f846:	20 74 6f 20          	and    %dh,0x20(%rdi,%rbp,2)
    f84a:	61                   	(bad)  
    f84b:	20 64 65 73          	and    %ah,0x73(%rbp,%riz,2)
    f84f:	63 72 69             	movsxd 0x69(%rdx),%esi
    f852:	70 74                	jo     0xf8c8
    f854:	6f                   	outsl  %ds:(%rsi),(%dx)
    f855:	72 20                	jb     0xf877
    f857:	69 6e 20 74 68 65 20 	imul   $0x20656874,0x20(%rsi),%ebp
    f85e:	47                   	rex.RXB
    f85f:	44 54                	rex.R push %rsp
    f861:	20 6f 72             	and    %ch,0x72(%rdi)
    f864:	20 74 68 65          	and    %dh,0x65(%rax,%rbp,2)
    f868:	20 63 75             	and    %ah,0x75(%rbx)
    f86b:	72 72                	jb     0xf8df
    f86d:	65 6e                	outsb  %gs:(%rsi),(%dx)
    f86f:	74 20                	je     0xf891
    f871:	4c                   	rex.WR
    f872:	44 54                	rex.R push %rsp
    f874:	3b 0a                	cmp    (%rdx),%ecx
    f876:	00 00                	add    %al,(%rax)
    f878:	52                   	push   %rdx
    f879:	65 66 65 72 73       	gs data16 gs jb 0xf8f1
    f87e:	20 74 6f 20          	and    %dh,0x20(%rdi,%rbp,2)
    f882:	61                   	(bad)  
    f883:	20 73 65             	and    %dh,0x65(%rbx)
    f886:	67 6d                	insl   (%dx),%es:(%edi)
    f888:	65 6e                	outsb  %gs:(%rsi),(%dx)
    f88a:	74 20                	je     0xf8ac
    f88c:	6f                   	outsl  %ds:(%rsi),(%dx)
    f88d:	72 20                	jb     0xf8af
    f88f:	67 61                	addr32 (bad) 
    f891:	74 65                	je     0xf8f8
    f893:	20 64 65 73          	and    %ah,0x73(%rbp,%riz,2)
    f897:	63 72 69             	movsxd 0x69(%rdx),%esi
    f89a:	70 74                	jo     0xf910
    f89c:	6f                   	outsl  %ds:(%rsi),(%dx)
    f89d:	72 20                	jb     0xf8bf
    f89f:	69 6e 20 74 68 65 20 	imul   $0x20656874,0x20(%rsi),%ebp
    f8a6:	4c                   	rex.WR
    f8a7:	44 54                	rex.R push %rsp
    f8a9:	3b 0a                	cmp    (%rdx),%ecx
    f8ab:	00 00                	add    %al,(%rax)
    f8ad:	00 00                	add    %al,(%rax)
    f8af:	00 52 65             	add    %dl,0x65(%rdx)
    f8b2:	66 65 72 73          	data16 gs jb 0xf929
    f8b6:	20 74 6f 20          	and    %dh,0x20(%rdi,%rbp,2)
    f8ba:	61                   	(bad)  
    f8bb:	20 64 65 73          	and    %ah,0x73(%rbp,%riz,2)
    f8bf:	63 72 69             	movsxd 0x69(%rdx),%esi
    f8c2:	70 74                	jo     0xf938
    f8c4:	6f                   	outsl  %ds:(%rsi),(%dx)
    f8c5:	72 20                	jb     0xf8e7
    f8c7:	69 6e 20 74 68 65 20 	imul   $0x20656874,0x20(%rsi),%ebp
    f8ce:	63 75 72             	movsxd 0x72(%rbp),%esi
    f8d1:	72 65                	jb     0xf938
    f8d3:	6e                   	outsb  %ds:(%rsi),(%dx)
    f8d4:	74 20                	je     0xf8f6
    f8d6:	47                   	rex.RXB
    f8d7:	44 54                	rex.R push %rsp
    f8d9:	3b 0a                	cmp    (%rdx),%ecx
    f8db:	00 53 65             	add    %dl,0x65(%rbx)
    f8de:	67 6d                	insl   (%dx),%es:(%edi)
    f8e0:	65 6e                	outsb  %gs:(%rsi),(%dx)
    f8e2:	74 20                	je     0xf904
    f8e4:	53                   	push   %rbx
    f8e5:	65 6c                	gs insb (%dx),%es:(%rdi)
    f8e7:	65 63 74 6f 72       	movsxd %gs:0x72(%rdi,%rbp,2),%esi
    f8ec:	20 49 6e             	and    %cl,0x6e(%rcx)
    f8ef:	64 65 78 3a          	fs gs js 0xf92d
    f8f3:	25 78 0a 00 00       	and    $0xa78,%eax
    f8f8:	64 6f                	outsl  %fs:(%rsi),(%dx)
    f8fa:	5f                   	pop    %rdi
    f8fb:	73 65                	jae    0xf962
    f8fd:	67 6d                	insl   (%dx),%es:(%edi)
    f8ff:	65 6e                	outsb  %gs:(%rsi),(%dx)
    f901:	74 5f                	je     0xf962
    f903:	6e                   	outsb  %ds:(%rsi),(%dx)
    f904:	6f                   	outsl  %ds:(%rsi),(%dx)
    f905:	74 5f                	je     0xf966
    f907:	70 72                	jo     0xf97b
    f909:	65 73 65             	gs jae 0xf971
    f90c:	6e                   	outsb  %ds:(%rsi),(%dx)
    f90d:	74 28                	je     0xf937
    f90f:	31 31                	xor    %esi,(%rcx)
    f911:	29 2c 45 52 52 4f 52 	sub    %ebp,0x524f5252(,%rax,2)
    f918:	5f                   	pop    %rdi
    f919:	43                   	rex.XB
    f91a:	4f                   	rex.WRXB
    f91b:	44                   	rex.R
    f91c:	45 3a 25 78 2c 52 53 	cmp    0x53522c78(%rip),%r12b        # 0x5353259b
    f923:	50                   	push   %rax
    f924:	3a 25 78 2c 52 49    	cmp    0x49522c78(%rip),%ah        # 0x495325a2
    f92a:	50                   	push   %rax
    f92b:	3a 25 78 0a 00 64    	cmp    0x64000a78(%rip),%ah        # 0x640103a9
    f931:	6f                   	outsl  %ds:(%rsi),(%dx)
    f932:	5f                   	pop    %rdi
    f933:	73 74                	jae    0xf9a9
    f935:	61                   	(bad)  
    f936:	63 6b 5f             	movsxd 0x5f(%rbx),%ebp
    f939:	73 65                	jae    0xf9a0
    f93b:	67 6d                	insl   (%dx),%es:(%edi)
    f93d:	65 6e                	outsb  %gs:(%rsi),(%dx)
    f93f:	74 5f                	je     0xf9a0
    f941:	66 61                	data16 (bad) 
    f943:	75 6c                	jne    0xf9b1
    f945:	74 28                	je     0xf96f
    f947:	31 32                	xor    %esi,(%rdx)
    f949:	29 2c 45 52 52 4f 52 	sub    %ebp,0x524f5252(,%rax,2)
    f950:	5f                   	pop    %rdi
    f951:	43                   	rex.XB
    f952:	4f                   	rex.WRXB
    f953:	44                   	rex.R
    f954:	45 3a 25 78 2c 52 53 	cmp    0x53522c78(%rip),%r12b        # 0x535325d3
    f95b:	50                   	push   %rax
    f95c:	3a 25 78 2c 52 49    	cmp    0x49522c78(%rip),%ah        # 0x495325da
    f962:	50                   	push   %rax
    f963:	3a 25 78 0a 00 64    	cmp    0x64000a78(%rip),%ah        # 0x640103e1
    f969:	6f                   	outsl  %ds:(%rsi),(%dx)
    f96a:	5f                   	pop    %rdi
    f96b:	67 65 6e             	outsb  %gs:(%esi),(%dx)
    f96e:	65 72 61             	gs jb  0xf9d2
    f971:	6c                   	insb   (%dx),%es:(%rdi)
    f972:	5f                   	pop    %rdi
    f973:	70 72                	jo     0xf9e7
    f975:	6f                   	outsl  %ds:(%rsi),(%dx)
    f976:	74 65                	je     0xf9dd
    f978:	63 74 69 6f          	movsxd 0x6f(%rcx,%rbp,2),%esi
    f97c:	6e                   	outsb  %ds:(%rsi),(%dx)
    f97d:	28 31                	sub    %dh,(%rcx)
    f97f:	33 29                	xor    (%rcx),%ebp
    f981:	2c 45                	sub    $0x45,%al
    f983:	52                   	push   %rdx
    f984:	52                   	push   %rdx
    f985:	4f 52                	rex.WRXB push %r10
    f987:	5f                   	pop    %rdi
    f988:	43                   	rex.XB
    f989:	4f                   	rex.WRXB
    f98a:	44                   	rex.R
    f98b:	45 3a 25 78 2c 52 53 	cmp    0x53522c78(%rip),%r12b        # 0x5353260a
    f992:	50                   	push   %rax
    f993:	3a 25 78 2c 52 49    	cmp    0x49522c78(%rip),%ah        # 0x49532611
    f999:	50                   	push   %rax
    f99a:	3a 25 78 0a 00 00    	cmp    0xa78(%rip),%ah        # 0x10418
    f9a0:	64 6f                	outsl  %fs:(%rsi),(%dx)
    f9a2:	5f                   	pop    %rdi
    f9a3:	70 61                	jo     0xfa06
    f9a5:	67 65 5f             	addr32 gs pop %rdi
    f9a8:	66 61                	data16 (bad) 
    f9aa:	75 6c                	jne    0xfa18
    f9ac:	74 28                	je     0xf9d6
    f9ae:	31 34 29             	xor    %esi,(%rcx,%rbp,1)
    f9b1:	2c 45                	sub    $0x45,%al
    f9b3:	52                   	push   %rdx
    f9b4:	52                   	push   %rdx
    f9b5:	4f 52                	rex.WRXB push %r10
    f9b7:	5f                   	pop    %rdi
    f9b8:	43                   	rex.XB
    f9b9:	4f                   	rex.WRXB
    f9ba:	44                   	rex.R
    f9bb:	45 3a 25 78 2c 52 53 	cmp    0x53522c78(%rip),%r12b        # 0x5353263a
    f9c2:	50                   	push   %rax
    f9c3:	3a 25 78 2c 52 49    	cmp    0x49522c78(%rip),%ah        # 0x49532641
    f9c9:	50                   	push   %rax
    f9ca:	3a 25 78 0a 00 50    	cmp    0x50000a78(%rip),%ah        # 0x50010448
    f9d0:	61                   	(bad)  
    f9d1:	67 65 20 4e 6f       	and    %cl,%gs:0x6f(%esi)
    f9d6:	74 2d                	je     0xfa05
    f9d8:	50                   	push   %rax
    f9d9:	72 65                	jb     0xfa40
    f9db:	73 65                	jae    0xfa42
    f9dd:	6e                   	outsb  %ds:(%rsi),(%dx)
    f9de:	74 2c                	je     0xfa0c
    f9e0:	09 00                	or     %eax,(%rax)
    f9e2:	57                   	push   %rdi
    f9e3:	72 69                	jb     0xfa4e
    f9e5:	74 65                	je     0xfa4c
    f9e7:	20 43 61             	and    %al,0x61(%rbx)
    f9ea:	75 73                	jne    0xfa5f
    f9ec:	65 20 46 61          	and    %al,%gs:0x61(%rsi)
    f9f0:	75 6c                	jne    0xfa5e
    f9f2:	74 2c                	je     0xfa20
    f9f4:	09 00                	or     %eax,(%rax)
    f9f6:	52                   	push   %rdx
    f9f7:	65 61                	gs (bad) 
    f9f9:	64 20 43 61          	and    %al,%fs:0x61(%rbx)
    f9fd:	75 73                	jne    0xfa72
    f9ff:	65 20 46 61          	and    %al,%gs:0x61(%rsi)
    fa03:	75 6c                	jne    0xfa71
    fa05:	74 2c                	je     0xfa33
    fa07:	09 00                	or     %eax,(%rax)
    fa09:	46 61                	rex.RX (bad) 
    fa0b:	75 6c                	jne    0xfa79
    fa0d:	74 20                	je     0xfa2f
    fa0f:	69 6e 20 75 73 65 72 	imul   $0x72657375,0x20(%rsi),%ebp
    fa16:	28 33                	sub    %dh,(%rbx)
    fa18:	29 09                	sub    %ecx,(%rcx)
    fa1a:	00 46 61             	add    %al,0x61(%rsi)
    fa1d:	75 6c                	jne    0xfa8b
    fa1f:	74 20                	je     0xfa41
    fa21:	69 6e 20 73 75 70 65 	imul   $0x65707573,0x20(%rsi),%ebp
    fa28:	72 76                	jb     0xfaa0
    fa2a:	69 73 6f 72 28 30 2c 	imul   $0x2c302872,0x6f(%rbx),%esi
    fa31:	31 2c 32             	xor    %ebp,(%rdx,%rsi,1)
    fa34:	29 09                	sub    %ecx,(%rcx)
    fa36:	00 2c 52             	add    %ch,(%rdx,%rdx,2)
    fa39:	65 73 65             	gs jae 0xfaa1
    fa3c:	72 76                	jb     0xfab4
    fa3e:	65 64 20 42 69       	gs and %al,%fs:0x69(%rdx)
    fa43:	74 20                	je     0xfa65
    fa45:	43 61                	rex.XB (bad) 
    fa47:	75 73                	jne    0xfabc
    fa49:	65 20 46 61          	and    %al,%gs:0x61(%rsi)
    fa4d:	75 6c                	jne    0xfabb
    fa4f:	74 09                	je     0xfa5a
    fa51:	00 00                	add    %al,(%rax)
    fa53:	00 00                	add    %al,(%rax)
    fa55:	00 00                	add    %al,(%rax)
    fa57:	00 2c 49             	add    %ch,(%rcx,%rcx,2)
    fa5a:	6e                   	outsb  %ds:(%rsi),(%dx)
    fa5b:	73 74                	jae    0xfad1
    fa5d:	72 75                	jb     0xfad4
    fa5f:	63 74 69 6f          	movsxd 0x6f(%rcx,%rbp,2),%esi
    fa63:	6e                   	outsb  %ds:(%rsi),(%dx)
    fa64:	20 66 65             	and    %ah,0x65(%rsi)
    fa67:	74 63                	je     0xfacc
    fa69:	68 20 43 61 75       	push   $0x75614320
    fa6e:	73 65                	jae    0xfad5
    fa70:	20 46 61             	and    %al,0x61(%rsi)
    fa73:	75 6c                	jne    0xfae1
    fa75:	74 00                	je     0xfa77
    fa77:	43 52                	rex.XB push %r10
    fa79:	32 3a                	xor    (%rdx),%bh
    fa7b:	25 78 0a 00 00       	and    $0xa78,%eax
    fa80:	64 6f                	outsl  %fs:(%rsi),(%dx)
    fa82:	5f                   	pop    %rdi
    fa83:	78 38                	js     0xfabd
    fa85:	37                   	(bad)  
    fa86:	5f                   	pop    %rdi
    fa87:	46 50                	rex.RX push %rax
    fa89:	55                   	push   %rbp
    fa8a:	5f                   	pop    %rdi
    fa8b:	65 72 72             	gs jb  0xfb00
    fa8e:	6f                   	outsl  %ds:(%rsi),(%dx)
    fa8f:	72 28                	jb     0xfab9
    fa91:	31 36                	xor    %esi,(%rsi)
    fa93:	29 2c 45 52 52 4f 52 	sub    %ebp,0x524f5252(,%rax,2)
    fa9a:	5f                   	pop    %rdi
    fa9b:	43                   	rex.XB
    fa9c:	4f                   	rex.WRXB
    fa9d:	44                   	rex.R
    fa9e:	45 3a 25 78 2c 52 53 	cmp    0x53522c78(%rip),%r12b        # 0x5353271d
    faa5:	50                   	push   %rax
    faa6:	3a 25 78 2c 52 49    	cmp    0x49522c78(%rip),%ah        # 0x49532724
    faac:	50                   	push   %rax
    faad:	3a 25 78 0a 00 00    	cmp    0xa78(%rip),%ah        # 0x1052b
    fab3:	00 00                	add    %al,(%rax)
    fab5:	00 00                	add    %al,(%rax)
    fab7:	00 64 6f 5f          	add    %ah,0x5f(%rdi,%rbp,2)
    fabb:	61                   	(bad)  
    fabc:	6c                   	insb   (%dx),%es:(%rdi)
    fabd:	69 67 6e 6d 65 6e 74 	imul   $0x746e656d,0x6e(%rdi),%esp
    fac4:	5f                   	pop    %rdi
    fac5:	63 68 65             	movsxd 0x65(%rax),%ebp
    fac8:	63 6b 28             	movsxd 0x28(%rbx),%ebp
    facb:	31 37                	xor    %esi,(%rdi)
    facd:	29 2c 45 52 52 4f 52 	sub    %ebp,0x524f5252(,%rax,2)
    fad4:	5f                   	pop    %rdi
    fad5:	43                   	rex.XB
    fad6:	4f                   	rex.WRXB
    fad7:	44                   	rex.R
    fad8:	45 3a 25 78 2c 52 53 	cmp    0x53522c78(%rip),%r12b        # 0x53532757
    fadf:	50                   	push   %rax
    fae0:	3a 25 78 2c 52 49    	cmp    0x49522c78(%rip),%ah        # 0x4953275e
    fae6:	50                   	push   %rax
    fae7:	3a 25 78 0a 00 00    	cmp    0xa78(%rip),%ah        # 0x10565
    faed:	00 00                	add    %al,(%rax)
    faef:	00 64 6f 5f          	add    %ah,0x5f(%rdi,%rbp,2)
    faf3:	6d                   	insl   (%dx),%es:(%rdi)
    faf4:	61                   	(bad)  
    faf5:	63 68 69             	movsxd 0x69(%rax),%ebp
    faf8:	6e                   	outsb  %ds:(%rsi),(%dx)
    faf9:	65 5f                	gs pop %rdi
    fafb:	63 68 65             	movsxd 0x65(%rax),%ebp
    fafe:	63 6b 28             	movsxd 0x28(%rbx),%ebp
    fb01:	31 38                	xor    %edi,(%rax)
    fb03:	29 2c 45 52 52 4f 52 	sub    %ebp,0x524f5252(,%rax,2)
    fb0a:	5f                   	pop    %rdi
    fb0b:	43                   	rex.XB
    fb0c:	4f                   	rex.WRXB
    fb0d:	44                   	rex.R
    fb0e:	45 3a 25 78 2c 52 53 	cmp    0x53522c78(%rip),%r12b        # 0x5353278d
    fb15:	50                   	push   %rax
    fb16:	3a 25 78 2c 52 49    	cmp    0x49522c78(%rip),%ah        # 0x49532794
    fb1c:	50                   	push   %rax
    fb1d:	3a 25 78 0a 00 00    	cmp    0xa78(%rip),%ah        # 0x1059b
    fb23:	00 00                	add    %al,(%rax)
    fb25:	00 00                	add    %al,(%rax)
    fb27:	00 64 6f 5f          	add    %ah,0x5f(%rdi,%rbp,2)
    fb2b:	53                   	push   %rbx
    fb2c:	49                   	rex.WB
    fb2d:	4d                   	rex.WRB
    fb2e:	44 5f                	rex.R pop %rdi
    fb30:	65 78 63             	gs js  0xfb96
    fb33:	65 70 74             	gs jo  0xfbaa
    fb36:	69 6f 6e 28 31 39 29 	imul   $0x29393128,0x6e(%rdi),%ebp
    fb3d:	2c 45                	sub    $0x45,%al
    fb3f:	52                   	push   %rdx
    fb40:	52                   	push   %rdx
    fb41:	4f 52                	rex.WRXB push %r10
    fb43:	5f                   	pop    %rdi
    fb44:	43                   	rex.XB
    fb45:	4f                   	rex.WRXB
    fb46:	44                   	rex.R
    fb47:	45 3a 25 78 2c 52 53 	cmp    0x53522c78(%rip),%r12b        # 0x535327c6
    fb4e:	50                   	push   %rax
    fb4f:	3a 25 78 2c 52 49    	cmp    0x49522c78(%rip),%ah        # 0x495327cd
    fb55:	50                   	push   %rax
    fb56:	3a 25 78 0a 00 00    	cmp    0xa78(%rip),%ah        # 0x105d4
    fb5c:	00 00                	add    %al,(%rax)
    fb5e:	00 00                	add    %al,(%rax)
    fb60:	64 6f                	outsl  %fs:(%rsi),(%dx)
    fb62:	5f                   	pop    %rdi
    fb63:	76 69                	jbe    0xfbce
    fb65:	72 74                	jb     0xfbdb
    fb67:	75 61                	jne    0xfbca
    fb69:	6c                   	insb   (%dx),%es:(%rdi)
    fb6a:	69 7a 61 74 69 6f 6e 	imul   $0x6e6f6974,0x61(%rdx),%edi
    fb71:	5f                   	pop    %rdi
    fb72:	65 78 63             	gs js  0xfbd8
    fb75:	65 70 74             	gs jo  0xfbec
    fb78:	69 6f 6e 28 32 30 29 	imul   $0x29303228,0x6e(%rdi),%ebp
    fb7f:	2c 45                	sub    $0x45,%al
    fb81:	52                   	push   %rdx
    fb82:	52                   	push   %rdx
    fb83:	4f 52                	rex.WRXB push %r10
    fb85:	5f                   	pop    %rdi
    fb86:	43                   	rex.XB
    fb87:	4f                   	rex.WRXB
    fb88:	44                   	rex.R
    fb89:	45 3a 25 78 2c 52 53 	cmp    0x53522c78(%rip),%r12b        # 0x53532808
    fb90:	50                   	push   %rax
    fb91:	3a 25 78 2c 52 49    	cmp    0x49522c78(%rip),%ah        # 0x4953280f
    fb97:	50                   	push   %rax
    fb98:	3a                   	.byte 0x3a
    fb99:	25                   	.byte 0x25
    fb9a:	78 0a                	js     0xfba6
	...
