
build/kernel/system.o：     文件格式 elf64-x86-64


Disassembly of section .text:

ffff800000100000 <_text>:
ffff800000100000:	66 8c d0             	mov    %ss,%ax
ffff800000100003:	8e d8                	mov    %eax,%ds
ffff800000100005:	8e c0                	mov    %eax,%es
ffff800000100007:	8e e0                	mov    %eax,%fs
ffff800000100009:	8e d0                	mov    %eax,%ss
ffff80000010000b:	bc 00 7e 00 00       	mov    $0x7e00,%esp
ffff800000100010:	48 c7 c0 00 10 10 00 	mov    $0x101000,%rax
ffff800000100017:	0f 22 d8             	mov    %rax,%cr3
ffff80000010001a:	0f 01 15 f5 e3 00 00 	lgdt   0xe3f5(%rip)        # ffff80000010e416 <GDT_END>
ffff800000100021:	0f 01 1d f8 f3 00 00 	lidt   0xf3f8(%rip)        # ffff80000010f420 <IDT_END>
ffff800000100028:	66 b8 10 00          	mov    $0x10,%ax
ffff80000010002c:	8e d8                	mov    %eax,%ds
ffff80000010002e:	8e c0                	mov    %eax,%es
ffff800000100030:	8e e0                	mov    %eax,%fs
ffff800000100032:	8e e8                	mov    %eax,%gs
ffff800000100034:	8e d0                	mov    %eax,%ss
ffff800000100036:	48 c7 c4 00 7e 00 00 	mov    $0x7e00,%rsp
ffff80000010003d:	48 c7 c0 00 10 10 00 	mov    $0x101000,%rax
ffff800000100044:	0f 22 d8             	mov    %rax,%cr3
ffff800000100047:	48 8b 05 05 00 00 00 	mov    0x5(%rip),%rax        # ffff800000100053 <switch_seg>
ffff80000010004e:	6a 08                	push   $0x8
ffff800000100050:	50                   	push   %rax
ffff800000100051:	48 cb                	lretq  

ffff800000100053 <switch_seg>:
ffff800000100053:	5b                   	pop    %rbx
ffff800000100054:	00 10                	add    %dl,(%rax)
ffff800000100056:	00 00                	add    %al,(%rax)
ffff800000100058:	80 ff ff             	cmp    $0xff,%bh

ffff80000010005b <entry64>:
ffff80000010005b:	48 c7 c0 10 00 00 00 	mov    $0x10,%rax
ffff800000100062:	48 8e d8             	mov    %rax,%ds
ffff800000100065:	48 8e c0             	mov    %rax,%es
ffff800000100068:	48 8e e8             	mov    %rax,%gs
ffff80000010006b:	48 8e d0             	mov    %rax,%ss
ffff80000010006e:	48 bc 00 7e 00 00 00 	movabs $0xffff800000007e00,%rsp
ffff800000100075:	80 ff ff 

ffff800000100078 <setup_IDT>:
ffff800000100078:	48 8d 15 ad 00 00 00 	lea    0xad(%rip),%rdx        # ffff80000010012c <ignore_int>
ffff80000010007f:	48 c7 c0 00 00 08 00 	mov    $0x80000,%rax
ffff800000100086:	66 89 d0             	mov    %dx,%ax
ffff800000100089:	48 b9 00 00 00 00 00 	movabs $0x8e0000000000,%rcx
ffff800000100090:	8e 00 00 
ffff800000100093:	48 01 c8             	add    %rcx,%rax
ffff800000100096:	89 d1                	mov    %edx,%ecx
ffff800000100098:	c1 e9 10             	shr    $0x10,%ecx
ffff80000010009b:	48 c1 e1 30          	shl    $0x30,%rcx
ffff80000010009f:	48 01 c8             	add    %rcx,%rax
ffff8000001000a2:	48 c1 ea 20          	shr    $0x20,%rdx
ffff8000001000a6:	48 8d 3d 65 d2 00 00 	lea    0xd265(%rip),%rdi        # ffff80000010d312 <IDT_Table>
ffff8000001000ad:	48 c7 c1 00 01 00 00 	mov    $0x100,%rcx

ffff8000001000b4 <rp_sidt>:
ffff8000001000b4:	48 89 07             	mov    %rax,(%rdi)
ffff8000001000b7:	48 89 57 08          	mov    %rdx,0x8(%rdi)
ffff8000001000bb:	48 83 c7 10          	add    $0x10,%rdi
ffff8000001000bf:	48 ff c9             	dec    %rcx
ffff8000001000c2:	75 f0                	jne    ffff8000001000b4 <rp_sidt>

ffff8000001000c4 <setup_TSS64>:
ffff8000001000c4:	48 8d 15 51 e2 00 00 	lea    0xe251(%rip),%rdx        # ffff80000010e31c <TSS64_Table>
ffff8000001000cb:	48 31 c0             	xor    %rax,%rax
ffff8000001000ce:	48 31 c9             	xor    %rcx,%rcx
ffff8000001000d1:	48 c7 c0 89 00 00 00 	mov    $0x89,%rax
ffff8000001000d8:	48 c1 e0 28          	shl    $0x28,%rax
ffff8000001000dc:	89 d1                	mov    %edx,%ecx
ffff8000001000de:	c1 e9 18             	shr    $0x18,%ecx
ffff8000001000e1:	48 c1 e1 38          	shl    $0x38,%rcx
ffff8000001000e5:	48 01 c8             	add    %rcx,%rax
ffff8000001000e8:	48 31 c9             	xor    %rcx,%rcx
ffff8000001000eb:	89 d1                	mov    %edx,%ecx
ffff8000001000ed:	81 e1 ff ff ff 00    	and    $0xffffff,%ecx
ffff8000001000f3:	48 c1 e1 10          	shl    $0x10,%rcx
ffff8000001000f7:	48 01 c8             	add    %rcx,%rax
ffff8000001000fa:	48 83 c0 67          	add    $0x67,%rax
ffff8000001000fe:	48 8d 3d 7b d1 00 00 	lea    0xd17b(%rip),%rdi        # ffff80000010d280 <GDT_Table>
ffff800000100105:	48 89 47 40          	mov    %rax,0x40(%rdi)
ffff800000100109:	48 c1 ea 20          	shr    $0x20,%rdx
ffff80000010010d:	48 89 57 48          	mov    %rdx,0x48(%rdi)
ffff800000100111:	66 b8 40 00          	mov    $0x40,%ax
ffff800000100115:	0f 00 d8             	ltr    %ax
ffff800000100118:	48 8b 05 05 00 00 00 	mov    0x5(%rip),%rax        # ffff800000100124 <go_to_kernel>
ffff80000010011f:	6a 08                	push   $0x8
ffff800000100121:	50                   	push   %rax
ffff800000100122:	48 cb                	lretq  

ffff800000100124 <go_to_kernel>:
ffff800000100124:	00 40 10             	add    %al,0x10(%rax)
ffff800000100127:	00 00                	add    %al,(%rax)
ffff800000100129:	80 ff ff             	cmp    $0xff,%bh

ffff80000010012c <ignore_int>:
ffff80000010012c:	fc                   	cld    
ffff80000010012d:	50                   	push   %rax
ffff80000010012e:	53                   	push   %rbx
ffff80000010012f:	51                   	push   %rcx
ffff800000100130:	52                   	push   %rdx
ffff800000100131:	55                   	push   %rbp
ffff800000100132:	57                   	push   %rdi
ffff800000100133:	56                   	push   %rsi
ffff800000100134:	41 50                	push   %r8
ffff800000100136:	41 51                	push   %r9
ffff800000100138:	41 52                	push   %r10
ffff80000010013a:	41 53                	push   %r11
ffff80000010013c:	41 54                	push   %r12
ffff80000010013e:	41 55                	push   %r13
ffff800000100140:	41 56                	push   %r14
ffff800000100142:	41 57                	push   %r15
ffff800000100144:	48 8c c0             	mov    %es,%rax
ffff800000100147:	50                   	push   %rax
ffff800000100148:	48 8c d8             	mov    %ds,%rax
ffff80000010014b:	50                   	push   %rax
ffff80000010014c:	48 c7 c0 10 00 00 00 	mov    $0x10,%rax
ffff800000100153:	48 8e d8             	mov    %rax,%ds
ffff800000100156:	48 8e c0             	mov    %rax,%es
ffff800000100159:	e8 c2 94 00 00       	call   ffff800000109620 <interrupt_handle>

ffff80000010015e <Loop>:
ffff80000010015e:	eb fe                	jmp    ffff80000010015e <Loop>
ffff800000100160:	58                   	pop    %rax
ffff800000100161:	48 8e d8             	mov    %rax,%ds
ffff800000100164:	58                   	pop    %rax
ffff800000100165:	48 8e c0             	mov    %rax,%es
ffff800000100168:	41 5f                	pop    %r15
ffff80000010016a:	41 5e                	pop    %r14
ffff80000010016c:	41 5d                	pop    %r13
ffff80000010016e:	41 5c                	pop    %r12
ffff800000100170:	41 5b                	pop    %r11
ffff800000100172:	41 5a                	pop    %r10
ffff800000100174:	41 59                	pop    %r9
ffff800000100176:	41 58                	pop    %r8
ffff800000100178:	5e                   	pop    %rsi
ffff800000100179:	5f                   	pop    %rdi
ffff80000010017a:	5d                   	pop    %rbp
ffff80000010017b:	5a                   	pop    %rdx
ffff80000010017c:	59                   	pop    %rcx
ffff80000010017d:	5b                   	pop    %rbx
ffff80000010017e:	58                   	pop    %rax
ffff80000010017f:	48 cf                	iretq  

ffff800000100181 <int_msg>:
ffff800000100181:	55                   	push   %rbp
ffff800000100182:	6e                   	outsb  %ds:(%rsi),(%dx)
ffff800000100183:	6b 6e 6f 77          	imul   $0x77,0x6f(%rsi),%ebp
ffff800000100187:	6e                   	outsb  %ds:(%rsi),(%dx)
ffff800000100188:	20 69 6e             	and    %ch,0x6e(%rcx)
ffff80000010018b:	74 65                	je     ffff8000001001f2 <int_msg+0x71>
ffff80000010018d:	72 72                	jb     ffff800000100201 <int_msg+0x80>
ffff80000010018f:	75 70                	jne    ffff800000100201 <int_msg+0x80>
ffff800000100191:	74 20                	je     ffff8000001001b3 <int_msg+0x32>
ffff800000100193:	6f                   	outsl  %ds:(%rsi),(%dx)
ffff800000100194:	72 20                	jb     ffff8000001001b6 <int_msg+0x35>
ffff800000100196:	66 61                	data16 (bad) 
ffff800000100198:	75 6c                	jne    ffff800000100206 <int_msg+0x85>
ffff80000010019a:	74 20                	je     ffff8000001001bc <int_msg+0x3b>
ffff80000010019c:	61                   	(bad)  
ffff80000010019d:	74 20                	je     ffff8000001001bf <int_msg+0x3e>
ffff80000010019f:	52                   	push   %rdx
ffff8000001001a0:	49 50                	rex.WB push %r8
ffff8000001001a2:	0a 00                	or     (%rax),%al
ffff8000001001a4:	0f 1f 40 00          	nopl   0x0(%rax)
	...

ffff800000101000 <__PML4E>:
ffff800000101000:	07                   	(bad)  
ffff800000101001:	20 10                	and    %dl,(%rax)
	...
ffff8000001017ff:	00 07                	add    %al,(%rdi)
ffff800000101801:	20 10                	and    %dl,(%rax)
	...

ffff800000102000 <__PDPTE>:
ffff800000102000:	07                   	(bad)  
ffff800000102001:	30 10                	xor    %dl,(%rax)
	...

ffff800000103000 <__PDE>:
ffff800000103000:	87 00                	xchg   %eax,(%rax)
ffff800000103002:	00 00                	add    %al,(%rax)
ffff800000103004:	00 00                	add    %al,(%rax)
ffff800000103006:	00 00                	add    %al,(%rax)
ffff800000103008:	87 00                	xchg   %eax,(%rax)
ffff80000010300a:	20 00                	and    %al,(%rax)
ffff80000010300c:	00 00                	add    %al,(%rax)
ffff80000010300e:	00 00                	add    %al,(%rax)
ffff800000103010:	87 00                	xchg   %eax,(%rax)
ffff800000103012:	40 00 00             	rex add %al,(%rax)
ffff800000103015:	00 00                	add    %al,(%rax)
ffff800000103017:	00 87 00 60 00 00    	add    %al,0x6000(%rdi)
ffff80000010301d:	00 00                	add    %al,(%rax)
ffff80000010301f:	00 87 00 80 00 00    	add    %al,0x8000(%rdi)
ffff800000103025:	00 00                	add    %al,(%rax)
ffff800000103027:	00 87 00 a0 00 00    	add    %al,0xa000(%rdi)
ffff80000010302d:	00 00                	add    %al,(%rax)
ffff80000010302f:	00 87 00 c0 00 00    	add    %al,0xc000(%rdi)
ffff800000103035:	00 00                	add    %al,(%rax)
ffff800000103037:	00 87 00 e0 00 00    	add    %al,0xe000(%rdi)
ffff80000010303d:	00 00                	add    %al,(%rax)
ffff80000010303f:	00 87 00 00 01 00    	add    %al,0x10000(%rdi)
ffff800000103045:	00 00                	add    %al,(%rax)
ffff800000103047:	00 87 00 20 01 00    	add    %al,0x12000(%rdi)
ffff80000010304d:	00 00                	add    %al,(%rax)
ffff80000010304f:	00 87 00 40 01 00    	add    %al,0x14000(%rdi)
ffff800000103055:	00 00                	add    %al,(%rax)
ffff800000103057:	00 87 00 60 01 00    	add    %al,0x16000(%rdi)
ffff80000010305d:	00 00                	add    %al,(%rax)
ffff80000010305f:	00 87 00 80 01 00    	add    %al,0x18000(%rdi)
	...

ffff800000104000 <kernel_main>:
ffff800000104000:	f3 0f 1e fa          	endbr64 
ffff800000104004:	55                   	push   %rbp
ffff800000104005:	48 89 e5             	mov    %rsp,%rbp
ffff800000104008:	48 83 ec 10          	sub    $0x10,%rsp
ffff80000010400c:	48 8d 15 f9 ff ff ff 	lea    -0x7(%rip),%rdx        # ffff80000010400c <kernel_main+0xc>
ffff800000104013:	49 bb 4c b5 00 00 00 	movabs $0xb54c,%r11
ffff80000010401a:	00 00 00 
ffff80000010401d:	4c 01 da             	add    %r11,%rdx
ffff800000104020:	b8 00 00 00 00       	mov    $0x0,%eax
ffff800000104025:	48 b9 ef 4a ff ff ff 	movabs $0xffffffffffff4aef,%rcx
ffff80000010402c:	ff ff ff 
ffff80000010402f:	48 8d 14 0a          	lea    (%rdx,%rcx,1),%rdx
ffff800000104033:	ff d2                	call   *%rdx
ffff800000104035:	b8 01 00 00 00       	mov    $0x1,%eax
ffff80000010403a:	be 00 00 00 00       	mov    $0x0,%esi
ffff80000010403f:	99                   	cltd   
ffff800000104040:	f7 fe                	idiv   %esi
ffff800000104042:	89 45 fc             	mov    %eax,-0x4(%rbp)
ffff800000104045:	eb fe                	jmp    ffff800000104045 <kernel_main+0x45>

ffff800000104047 <init_all>:
ffff800000104047:	f3 0f 1e fa          	endbr64 
ffff80000010404b:	55                   	push   %rbp
ffff80000010404c:	48 89 e5             	mov    %rsp,%rbp
ffff80000010404f:	41 57                	push   %r15
ffff800000104051:	53                   	push   %rbx
ffff800000104052:	48 8d 1d f9 ff ff ff 	lea    -0x7(%rip),%rbx        # ffff800000104052 <init_all+0xb>
ffff800000104059:	49 bb 06 b5 00 00 00 	movabs $0xb506,%r11
ffff800000104060:	00 00 00 
ffff800000104063:	4c 01 db             	add    %r11,%rbx
ffff800000104066:	49 89 df             	mov    %rbx,%r15
ffff800000104069:	b8 00 00 00 00       	mov    $0x0,%eax
ffff80000010406e:	48 ba 46 4c ff ff ff 	movabs $0xffffffffffff4c46,%rdx
ffff800000104075:	ff ff ff 
ffff800000104078:	48 01 da             	add    %rbx,%rdx
ffff80000010407b:	ff d2                	call   *%rdx
ffff80000010407d:	68 00 7c 00 00       	push   $0x7c00
ffff800000104082:	c7 44 24 04 00 80 ff 	movl   $0xffff8000,0x4(%rsp)
ffff800000104089:	ff 
ffff80000010408a:	68 00 7c 00 00       	push   $0x7c00
ffff80000010408f:	c7 44 24 04 00 80 ff 	movl   $0xffff8000,0x4(%rsp)
ffff800000104096:	ff 
ffff800000104097:	68 00 7c 00 00       	push   $0x7c00
ffff80000010409c:	c7 44 24 04 00 80 ff 	movl   $0xffff8000,0x4(%rsp)
ffff8000001040a3:	ff 
ffff8000001040a4:	68 00 7c 00 00       	push   $0x7c00
ffff8000001040a9:	c7 44 24 04 00 80 ff 	movl   $0xffff8000,0x4(%rsp)
ffff8000001040b0:	ff 
ffff8000001040b1:	49 b9 00 7c 00 00 00 	movabs $0xffff800000007c00,%r9
ffff8000001040b8:	80 ff ff 
ffff8000001040bb:	49 b8 00 7c 00 00 00 	movabs $0xffff800000007c00,%r8
ffff8000001040c2:	80 ff ff 
ffff8000001040c5:	48 b8 00 7c 00 00 00 	movabs $0xffff800000007c00,%rax
ffff8000001040cc:	80 ff ff 
ffff8000001040cf:	48 89 c1             	mov    %rax,%rcx
ffff8000001040d2:	48 b8 00 7c 00 00 00 	movabs $0xffff800000007c00,%rax
ffff8000001040d9:	80 ff ff 
ffff8000001040dc:	48 89 c2             	mov    %rax,%rdx
ffff8000001040df:	48 b8 00 7c 00 00 00 	movabs $0xffff800000007c00,%rax
ffff8000001040e6:	80 ff ff 
ffff8000001040e9:	48 89 c6             	mov    %rax,%rsi
ffff8000001040ec:	48 b8 00 7c 00 00 00 	movabs $0xffff800000007c00,%rax
ffff8000001040f3:	80 ff ff 
ffff8000001040f6:	48 89 c7             	mov    %rax,%rdi
ffff8000001040f9:	49 89 df             	mov    %rbx,%r15
ffff8000001040fc:	48 b8 06 a1 ff ff ff 	movabs $0xffffffffffffa106,%rax
ffff800000104103:	ff ff ff 
ffff800000104106:	48 01 d8             	add    %rbx,%rax
ffff800000104109:	ff d0                	call   *%rax
ffff80000010410b:	48 83 c4 20          	add    $0x20,%rsp
ffff80000010410f:	49 89 df             	mov    %rbx,%r15
ffff800000104112:	b8 00 00 00 00       	mov    $0x0,%eax
ffff800000104117:	48 ba 92 bb ff ff ff 	movabs $0xffffffffffffbb92,%rdx
ffff80000010411e:	ff ff ff 
ffff800000104121:	48 01 da             	add    %rbx,%rdx
ffff800000104124:	ff d2                	call   *%rdx
ffff800000104126:	49 89 df             	mov    %rbx,%r15
ffff800000104129:	b8 00 00 00 00       	mov    $0x0,%eax
ffff80000010412e:	48 ba 3a 54 ff ff ff 	movabs $0xffffffffffff543a,%rdx
ffff800000104135:	ff ff ff 
ffff800000104138:	48 01 da             	add    %rbx,%rdx
ffff80000010413b:	ff d2                	call   *%rdx
ffff80000010413d:	49 89 df             	mov    %rbx,%r15
ffff800000104140:	b8 00 00 00 00       	mov    $0x0,%eax
ffff800000104145:	48 ba 8c 5d ff ff ff 	movabs $0xffffffffffff5d8c,%rdx
ffff80000010414c:	ff ff ff 
ffff80000010414f:	48 01 da             	add    %rbx,%rdx
ffff800000104152:	ff d2                	call   *%rdx
ffff800000104154:	90                   	nop
ffff800000104155:	48 8d 65 f0          	lea    -0x10(%rbp),%rsp
ffff800000104159:	5b                   	pop    %rbx
ffff80000010415a:	41 5f                	pop    %r15
ffff80000010415c:	5d                   	pop    %rbp
ffff80000010415d:	c3                   	ret    

ffff80000010415e <test_all>:
ffff80000010415e:	f3 0f 1e fa          	endbr64 
ffff800000104162:	55                   	push   %rbp
ffff800000104163:	48 89 e5             	mov    %rsp,%rbp
ffff800000104166:	41 57                	push   %r15
ffff800000104168:	48 83 ec 08          	sub    $0x8,%rsp
ffff80000010416c:	48 8d 15 f9 ff ff ff 	lea    -0x7(%rip),%rdx        # ffff80000010416c <test_all+0xe>
ffff800000104173:	49 bb ec b3 00 00 00 	movabs $0xb3ec,%r11
ffff80000010417a:	00 00 00 
ffff80000010417d:	4c 01 da             	add    %r11,%rdx
ffff800000104180:	49 89 d7             	mov    %rdx,%r15
ffff800000104183:	b8 00 00 00 00       	mov    $0x0,%eax
ffff800000104188:	48 b9 9f 54 ff ff ff 	movabs $0xffffffffffff549f,%rcx
ffff80000010418f:	ff ff ff 
ffff800000104192:	48 01 d1             	add    %rdx,%rcx
ffff800000104195:	ff d1                	call   *%rcx
ffff800000104197:	90                   	nop
ffff800000104198:	4c 8b 7d f8          	mov    -0x8(%rbp),%r15
ffff80000010419c:	c9                   	leave  
ffff80000010419d:	c3                   	ret    

ffff80000010419e <init_boot_info>:
ffff80000010419e:	f3 0f 1e fa          	endbr64 
ffff8000001041a2:	55                   	push   %rbp
ffff8000001041a3:	48 89 e5             	mov    %rsp,%rbp
ffff8000001041a6:	53                   	push   %rbx
ffff8000001041a7:	48 8d 05 f9 ff ff ff 	lea    -0x7(%rip),%rax        # ffff8000001041a7 <init_boot_info+0x9>
ffff8000001041ae:	49 bb b1 b3 00 00 00 	movabs $0xb3b1,%r11
ffff8000001041b5:	00 00 00 
ffff8000001041b8:	4c 01 d8             	add    %r11,%rax
ffff8000001041bb:	48 bf 00 00 06 00 00 	movabs $0xffff800000060000,%rdi
ffff8000001041c2:	80 ff ff 
ffff8000001041c5:	48 89 7d f0          	mov    %rdi,-0x10(%rbp)
ffff8000001041c9:	48 be a8 0d 00 00 00 	movabs $0xda8,%rsi
ffff8000001041d0:	00 00 00 
ffff8000001041d3:	48 8b 55 f0          	mov    -0x10(%rbp),%rdx
ffff8000001041d7:	48 8b 0a             	mov    (%rdx),%rcx
ffff8000001041da:	48 8b 5a 08          	mov    0x8(%rdx),%rbx
ffff8000001041de:	48 89 0c 30          	mov    %rcx,(%rax,%rsi,1)
ffff8000001041e2:	48 89 5c 30 08       	mov    %rbx,0x8(%rax,%rsi,1)
ffff8000001041e7:	48 8b 4a 10          	mov    0x10(%rdx),%rcx
ffff8000001041eb:	48 8b 5a 18          	mov    0x18(%rdx),%rbx
ffff8000001041ef:	48 89 4c 30 10       	mov    %rcx,0x10(%rax,%rsi,1)
ffff8000001041f4:	48 89 5c 30 18       	mov    %rbx,0x18(%rax,%rsi,1)
ffff8000001041f9:	48 ba a8 0d 00 00 00 	movabs $0xda8,%rdx
ffff800000104200:	00 00 00 
ffff800000104203:	48 bb 00 00 00 03 00 	movabs $0xffff800003000000,%rbx
ffff80000010420a:	80 ff ff 
ffff80000010420d:	48 89 5c 10 10       	mov    %rbx,0x10(%rax,%rdx,1)
ffff800000104212:	90                   	nop
ffff800000104213:	48 8b 5d f8          	mov    -0x8(%rbp),%rbx
ffff800000104217:	c9                   	leave  
ffff800000104218:	c3                   	ret    

ffff800000104219 <draw_pixel>:
ffff800000104219:	f3 0f 1e fa          	endbr64 
ffff80000010421d:	55                   	push   %rbp
ffff80000010421e:	48 89 e5             	mov    %rsp,%rbp
ffff800000104221:	48 8d 05 f9 ff ff ff 	lea    -0x7(%rip),%rax        # ffff800000104221 <draw_pixel+0x8>
ffff800000104228:	49 bb 37 b3 00 00 00 	movabs $0xb337,%r11
ffff80000010422f:	00 00 00 
ffff800000104232:	4c 01 d8             	add    %r11,%rax
ffff800000104235:	89 7d dc             	mov    %edi,-0x24(%rbp)
ffff800000104238:	89 75 d8             	mov    %esi,-0x28(%rbp)
ffff80000010423b:	89 55 d4             	mov    %edx,-0x2c(%rbp)
ffff80000010423e:	48 ba 88 0d 00 00 00 	movabs $0xd88,%rdx
ffff800000104245:	00 00 00 
ffff800000104248:	48 8b 14 10          	mov    (%rax,%rdx,1),%rdx
ffff80000010424c:	8b 52 08             	mov    0x8(%rdx),%edx
ffff80000010424f:	89 55 fc             	mov    %edx,-0x4(%rbp)
ffff800000104252:	48 ba 88 0d 00 00 00 	movabs $0xd88,%rdx
ffff800000104259:	00 00 00 
ffff80000010425c:	48 8b 04 10          	mov    (%rax,%rdx,1),%rax
ffff800000104260:	48 8b 40 10          	mov    0x10(%rax),%rax
ffff800000104264:	48 89 45 f0          	mov    %rax,-0x10(%rbp)
ffff800000104268:	8b 45 fc             	mov    -0x4(%rbp),%eax
ffff80000010426b:	0f af 45 d8          	imul   -0x28(%rbp),%eax
ffff80000010426f:	89 c2                	mov    %eax,%edx
ffff800000104271:	8b 45 dc             	mov    -0x24(%rbp),%eax
ffff800000104274:	48 01 d0             	add    %rdx,%rax
ffff800000104277:	48 8d 14 85 00 00 00 	lea    0x0(,%rax,4),%rdx
ffff80000010427e:	00 
ffff80000010427f:	48 8b 45 f0          	mov    -0x10(%rbp),%rax
ffff800000104283:	48 01 d0             	add    %rdx,%rax
ffff800000104286:	48 89 45 e8          	mov    %rax,-0x18(%rbp)
ffff80000010428a:	48 8b 45 e8          	mov    -0x18(%rbp),%rax
ffff80000010428e:	8b 55 d4             	mov    -0x2c(%rbp),%edx
ffff800000104291:	89 10                	mov    %edx,(%rax)
ffff800000104293:	90                   	nop
ffff800000104294:	5d                   	pop    %rbp
ffff800000104295:	c3                   	ret    

ffff800000104296 <draw_straight_line>:
ffff800000104296:	f3 0f 1e fa          	endbr64 
ffff80000010429a:	55                   	push   %rbp
ffff80000010429b:	48 89 e5             	mov    %rsp,%rbp
ffff80000010429e:	41 57                	push   %r15
ffff8000001042a0:	53                   	push   %rbx
ffff8000001042a1:	48 83 ec 20          	sub    $0x20,%rsp
ffff8000001042a5:	48 8d 1d f9 ff ff ff 	lea    -0x7(%rip),%rbx        # ffff8000001042a5 <draw_straight_line+0xf>
ffff8000001042ac:	49 bb b3 b2 00 00 00 	movabs $0xb2b3,%r11
ffff8000001042b3:	00 00 00 
ffff8000001042b6:	4c 01 db             	add    %r11,%rbx
ffff8000001042b9:	89 7d dc             	mov    %edi,-0x24(%rbp)
ffff8000001042bc:	89 75 d8             	mov    %esi,-0x28(%rbp)
ffff8000001042bf:	89 55 d4             	mov    %edx,-0x2c(%rbp)
ffff8000001042c2:	89 4d d0             	mov    %ecx,-0x30(%rbp)
ffff8000001042c5:	48 b8 88 0d 00 00 00 	movabs $0xd88,%rax
ffff8000001042cc:	00 00 00 
ffff8000001042cf:	48 8b 04 03          	mov    (%rbx,%rax,1),%rax
ffff8000001042d3:	8b 40 08             	mov    0x8(%rax),%eax
ffff8000001042d6:	0f af 45 d8          	imul   -0x28(%rbp),%eax
ffff8000001042da:	89 c2                	mov    %eax,%edx
ffff8000001042dc:	8b 45 dc             	mov    -0x24(%rbp),%eax
ffff8000001042df:	01 d0                	add    %edx,%eax
ffff8000001042e1:	c1 e0 02             	shl    $0x2,%eax
ffff8000001042e4:	89 c2                	mov    %eax,%edx
ffff8000001042e6:	48 b8 b8 ff ff ff ff 	movabs $0xffffffffffffffb8,%rax
ffff8000001042ed:	ff ff ff 
ffff8000001042f0:	48 8b 04 03          	mov    (%rbx,%rax,1),%rax
ffff8000001042f4:	48 8b 40 10          	mov    0x10(%rax),%rax
ffff8000001042f8:	48 01 d0             	add    %rdx,%rax
ffff8000001042fb:	48 89 45 e8          	mov    %rax,-0x18(%rbp)
ffff8000001042ff:	48 c7 45 e0 00 00 00 	movq   $0x0,-0x20(%rbp)
ffff800000104306:	00 
ffff800000104307:	0f b6 45 d0          	movzbl -0x30(%rbp),%eax
ffff80000010430b:	0f b6 c0             	movzbl %al,%eax
ffff80000010430e:	48 09 45 e0          	or     %rax,-0x20(%rbp)
ffff800000104312:	0f b6 45 d1          	movzbl -0x2f(%rbp),%eax
ffff800000104316:	0f b6 c0             	movzbl %al,%eax
ffff800000104319:	48 c1 e0 08          	shl    $0x8,%rax
ffff80000010431d:	48 09 45 e0          	or     %rax,-0x20(%rbp)
ffff800000104321:	0f b6 45 d2          	movzbl -0x2e(%rbp),%eax
ffff800000104325:	0f b6 c0             	movzbl %al,%eax
ffff800000104328:	48 c1 e0 10          	shl    $0x10,%rax
ffff80000010432c:	48 09 45 e0          	or     %rax,-0x20(%rbp)
ffff800000104330:	0f b6 45 d3          	movzbl -0x2d(%rbp),%eax
ffff800000104334:	0f b6 c0             	movzbl %al,%eax
ffff800000104337:	48 c1 e0 0e          	shl    $0xe,%rax
ffff80000010433b:	48 09 45 e0          	or     %rax,-0x20(%rbp)
ffff80000010433f:	48 8b 45 e0          	mov    -0x20(%rbp),%rax
ffff800000104343:	48 c1 e0 20          	shl    $0x20,%rax
ffff800000104347:	48 09 45 e0          	or     %rax,-0x20(%rbp)
ffff80000010434b:	8b 45 d4             	mov    -0x2c(%rbp),%eax
ffff80000010434e:	d1 e8                	shr    %eax
ffff800000104350:	89 c2                	mov    %eax,%edx
ffff800000104352:	48 8b 4d e0          	mov    -0x20(%rbp),%rcx
ffff800000104356:	48 8b 45 e8          	mov    -0x18(%rbp),%rax
ffff80000010435a:	48 89 ce             	mov    %rcx,%rsi
ffff80000010435d:	48 89 c7             	mov    %rax,%rdi
ffff800000104360:	49 89 df             	mov    %rbx,%r15
ffff800000104363:	48 b8 be 54 ff ff ff 	movabs $0xffffffffffff54be,%rax
ffff80000010436a:	ff ff ff 
ffff80000010436d:	48 01 d8             	add    %rbx,%rax
ffff800000104370:	ff d0                	call   *%rax
ffff800000104372:	8b 45 d4             	mov    -0x2c(%rbp),%eax
ffff800000104375:	83 e0 01             	and    $0x1,%eax
ffff800000104378:	85 c0                	test   %eax,%eax
ffff80000010437a:	74 25                	je     ffff8000001043a1 <draw_straight_line+0x10b>
ffff80000010437c:	8b 55 dc             	mov    -0x24(%rbp),%edx
ffff80000010437f:	8b 45 d4             	mov    -0x2c(%rbp),%eax
ffff800000104382:	01 d0                	add    %edx,%eax
ffff800000104384:	8d 48 ff             	lea    -0x1(%rax),%ecx
ffff800000104387:	8b 55 d0             	mov    -0x30(%rbp),%edx
ffff80000010438a:	8b 45 d8             	mov    -0x28(%rbp),%eax
ffff80000010438d:	89 c6                	mov    %eax,%esi
ffff80000010438f:	89 cf                	mov    %ecx,%edi
ffff800000104391:	48 b8 c1 4c ff ff ff 	movabs $0xffffffffffff4cc1,%rax
ffff800000104398:	ff ff ff 
ffff80000010439b:	48 8d 04 03          	lea    (%rbx,%rax,1),%rax
ffff80000010439f:	ff d0                	call   *%rax
ffff8000001043a1:	90                   	nop
ffff8000001043a2:	48 83 c4 20          	add    $0x20,%rsp
ffff8000001043a6:	5b                   	pop    %rbx
ffff8000001043a7:	41 5f                	pop    %r15
ffff8000001043a9:	5d                   	pop    %rbp
ffff8000001043aa:	c3                   	ret    

ffff8000001043ab <draw_rect>:
ffff8000001043ab:	f3 0f 1e fa          	endbr64 
ffff8000001043af:	55                   	push   %rbp
ffff8000001043b0:	48 89 e5             	mov    %rsp,%rbp
ffff8000001043b3:	53                   	push   %rbx
ffff8000001043b4:	48 83 ec 38          	sub    $0x38,%rsp
ffff8000001043b8:	48 8d 1d f9 ff ff ff 	lea    -0x7(%rip),%rbx        # ffff8000001043b8 <draw_rect+0xd>
ffff8000001043bf:	49 bb a0 b1 00 00 00 	movabs $0xb1a0,%r11
ffff8000001043c6:	00 00 00 
ffff8000001043c9:	4c 01 db             	add    %r11,%rbx
ffff8000001043cc:	48 89 f9             	mov    %rdi,%rcx
ffff8000001043cf:	48 89 f0             	mov    %rsi,%rax
ffff8000001043d2:	48 89 ce             	mov    %rcx,%rsi
ffff8000001043d5:	48 89 df             	mov    %rbx,%rdi
ffff8000001043d8:	48 89 c7             	mov    %rax,%rdi
ffff8000001043db:	48 89 75 d0          	mov    %rsi,-0x30(%rbp)
ffff8000001043df:	48 89 7d d8          	mov    %rdi,-0x28(%rbp)
ffff8000001043e3:	89 55 cc             	mov    %edx,-0x34(%rbp)
ffff8000001043e6:	8b 45 d0             	mov    -0x30(%rbp),%eax
ffff8000001043e9:	89 45 ec             	mov    %eax,-0x14(%rbp)
ffff8000001043ec:	eb 46                	jmp    ffff800000104434 <draw_rect+0x89>
ffff8000001043ee:	8b 4d d4             	mov    -0x2c(%rbp),%ecx
ffff8000001043f1:	8b 55 cc             	mov    -0x34(%rbp),%edx
ffff8000001043f4:	8b 45 ec             	mov    -0x14(%rbp),%eax
ffff8000001043f7:	89 ce                	mov    %ecx,%esi
ffff8000001043f9:	89 c7                	mov    %eax,%edi
ffff8000001043fb:	48 b8 c1 4c ff ff ff 	movabs $0xffffffffffff4cc1,%rax
ffff800000104402:	ff ff ff 
ffff800000104405:	48 8d 04 03          	lea    (%rbx,%rax,1),%rax
ffff800000104409:	ff d0                	call   *%rax
ffff80000010440b:	8b 55 d4             	mov    -0x2c(%rbp),%edx
ffff80000010440e:	8b 45 dc             	mov    -0x24(%rbp),%eax
ffff800000104411:	01 d0                	add    %edx,%eax
ffff800000104413:	8d 48 ff             	lea    -0x1(%rax),%ecx
ffff800000104416:	8b 55 cc             	mov    -0x34(%rbp),%edx
ffff800000104419:	8b 45 ec             	mov    -0x14(%rbp),%eax
ffff80000010441c:	89 ce                	mov    %ecx,%esi
ffff80000010441e:	89 c7                	mov    %eax,%edi
ffff800000104420:	48 b8 c1 4c ff ff ff 	movabs $0xffffffffffff4cc1,%rax
ffff800000104427:	ff ff ff 
ffff80000010442a:	48 8d 04 03          	lea    (%rbx,%rax,1),%rax
ffff80000010442e:	ff d0                	call   *%rax
ffff800000104430:	83 45 ec 01          	addl   $0x1,-0x14(%rbp)
ffff800000104434:	8b 55 d0             	mov    -0x30(%rbp),%edx
ffff800000104437:	8b 45 d8             	mov    -0x28(%rbp),%eax
ffff80000010443a:	01 d0                	add    %edx,%eax
ffff80000010443c:	39 45 ec             	cmp    %eax,-0x14(%rbp)
ffff80000010443f:	72 ad                	jb     ffff8000001043ee <draw_rect+0x43>
ffff800000104441:	8b 45 d4             	mov    -0x2c(%rbp),%eax
ffff800000104444:	89 45 ec             	mov    %eax,-0x14(%rbp)
ffff800000104447:	eb 46                	jmp    ffff80000010448f <draw_rect+0xe4>
ffff800000104449:	8b 45 d0             	mov    -0x30(%rbp),%eax
ffff80000010444c:	8b 55 cc             	mov    -0x34(%rbp),%edx
ffff80000010444f:	8b 4d ec             	mov    -0x14(%rbp),%ecx
ffff800000104452:	89 ce                	mov    %ecx,%esi
ffff800000104454:	89 c7                	mov    %eax,%edi
ffff800000104456:	48 b8 c1 4c ff ff ff 	movabs $0xffffffffffff4cc1,%rax
ffff80000010445d:	ff ff ff 
ffff800000104460:	48 8d 04 03          	lea    (%rbx,%rax,1),%rax
ffff800000104464:	ff d0                	call   *%rax
ffff800000104466:	8b 55 d0             	mov    -0x30(%rbp),%edx
ffff800000104469:	8b 45 d8             	mov    -0x28(%rbp),%eax
ffff80000010446c:	01 d0                	add    %edx,%eax
ffff80000010446e:	8d 48 ff             	lea    -0x1(%rax),%ecx
ffff800000104471:	8b 55 cc             	mov    -0x34(%rbp),%edx
ffff800000104474:	8b 45 ec             	mov    -0x14(%rbp),%eax
ffff800000104477:	89 c6                	mov    %eax,%esi
ffff800000104479:	89 cf                	mov    %ecx,%edi
ffff80000010447b:	48 b8 c1 4c ff ff ff 	movabs $0xffffffffffff4cc1,%rax
ffff800000104482:	ff ff ff 
ffff800000104485:	48 8d 04 03          	lea    (%rbx,%rax,1),%rax
ffff800000104489:	ff d0                	call   *%rax
ffff80000010448b:	83 45 ec 01          	addl   $0x1,-0x14(%rbp)
ffff80000010448f:	8b 55 d4             	mov    -0x2c(%rbp),%edx
ffff800000104492:	8b 45 dc             	mov    -0x24(%rbp),%eax
ffff800000104495:	01 d0                	add    %edx,%eax
ffff800000104497:	39 45 ec             	cmp    %eax,-0x14(%rbp)
ffff80000010449a:	72 ad                	jb     ffff800000104449 <draw_rect+0x9e>
ffff80000010449c:	90                   	nop
ffff80000010449d:	90                   	nop
ffff80000010449e:	48 8b 5d f8          	mov    -0x8(%rbp),%rbx
ffff8000001044a2:	c9                   	leave  
ffff8000001044a3:	c3                   	ret    

ffff8000001044a4 <draw_solid_rect>:
ffff8000001044a4:	f3 0f 1e fa          	endbr64 
ffff8000001044a8:	55                   	push   %rbp
ffff8000001044a9:	48 89 e5             	mov    %rsp,%rbp
ffff8000001044ac:	53                   	push   %rbx
ffff8000001044ad:	48 83 ec 38          	sub    $0x38,%rsp
ffff8000001044b1:	48 8d 1d f9 ff ff ff 	lea    -0x7(%rip),%rbx        # ffff8000001044b1 <draw_solid_rect+0xd>
ffff8000001044b8:	49 bb a7 b0 00 00 00 	movabs $0xb0a7,%r11
ffff8000001044bf:	00 00 00 
ffff8000001044c2:	4c 01 db             	add    %r11,%rbx
ffff8000001044c5:	48 89 f9             	mov    %rdi,%rcx
ffff8000001044c8:	48 89 f0             	mov    %rsi,%rax
ffff8000001044cb:	48 89 ce             	mov    %rcx,%rsi
ffff8000001044ce:	48 89 df             	mov    %rbx,%rdi
ffff8000001044d1:	48 89 c7             	mov    %rax,%rdi
ffff8000001044d4:	48 89 75 d0          	mov    %rsi,-0x30(%rbp)
ffff8000001044d8:	48 89 7d d8          	mov    %rdi,-0x28(%rbp)
ffff8000001044dc:	89 55 cc             	mov    %edx,-0x34(%rbp)
ffff8000001044df:	8b 45 d4             	mov    -0x2c(%rbp),%eax
ffff8000001044e2:	89 45 ec             	mov    %eax,-0x14(%rbp)
ffff8000001044e5:	eb 22                	jmp    ffff800000104509 <draw_solid_rect+0x65>
ffff8000001044e7:	8b 55 d8             	mov    -0x28(%rbp),%edx
ffff8000001044ea:	8b 45 d0             	mov    -0x30(%rbp),%eax
ffff8000001044ed:	8b 4d cc             	mov    -0x34(%rbp),%ecx
ffff8000001044f0:	8b 75 ec             	mov    -0x14(%rbp),%esi
ffff8000001044f3:	89 c7                	mov    %eax,%edi
ffff8000001044f5:	48 b8 3e 4d ff ff ff 	movabs $0xffffffffffff4d3e,%rax
ffff8000001044fc:	ff ff ff 
ffff8000001044ff:	48 8d 04 03          	lea    (%rbx,%rax,1),%rax
ffff800000104503:	ff d0                	call   *%rax
ffff800000104505:	83 45 ec 01          	addl   $0x1,-0x14(%rbp)
ffff800000104509:	8b 55 d4             	mov    -0x2c(%rbp),%edx
ffff80000010450c:	8b 45 dc             	mov    -0x24(%rbp),%eax
ffff80000010450f:	01 d0                	add    %edx,%eax
ffff800000104511:	39 45 ec             	cmp    %eax,-0x14(%rbp)
ffff800000104514:	72 d1                	jb     ffff8000001044e7 <draw_solid_rect+0x43>
ffff800000104516:	90                   	nop
ffff800000104517:	90                   	nop
ffff800000104518:	48 8b 5d f8          	mov    -0x8(%rbp),%rbx
ffff80000010451c:	c9                   	leave  
ffff80000010451d:	c3                   	ret    

ffff80000010451e <clear_screen>:
ffff80000010451e:	f3 0f 1e fa          	endbr64 
ffff800000104522:	55                   	push   %rbp
ffff800000104523:	48 89 e5             	mov    %rsp,%rbp
ffff800000104526:	41 57                	push   %r15
ffff800000104528:	48 83 ec 28          	sub    $0x28,%rsp
ffff80000010452c:	48 8d 05 f9 ff ff ff 	lea    -0x7(%rip),%rax        # ffff80000010452c <clear_screen+0xe>
ffff800000104533:	49 bb 2c b0 00 00 00 	movabs $0xb02c,%r11
ffff80000010453a:	00 00 00 
ffff80000010453d:	4c 01 d8             	add    %r11,%rax
ffff800000104540:	89 7d dc             	mov    %edi,-0x24(%rbp)
ffff800000104543:	48 ba 88 0d 00 00 00 	movabs $0xd88,%rdx
ffff80000010454a:	00 00 00 
ffff80000010454d:	48 8b 14 10          	mov    (%rax,%rdx,1),%rdx
ffff800000104551:	48 8b 52 10          	mov    0x10(%rdx),%rdx
ffff800000104555:	48 89 55 e8          	mov    %rdx,-0x18(%rbp)
ffff800000104559:	48 c7 45 e0 00 00 00 	movq   $0x0,-0x20(%rbp)
ffff800000104560:	00 
ffff800000104561:	0f b6 55 dc          	movzbl -0x24(%rbp),%edx
ffff800000104565:	0f b6 d2             	movzbl %dl,%edx
ffff800000104568:	48 09 55 e0          	or     %rdx,-0x20(%rbp)
ffff80000010456c:	0f b6 55 dd          	movzbl -0x23(%rbp),%edx
ffff800000104570:	0f b6 d2             	movzbl %dl,%edx
ffff800000104573:	48 c1 e2 08          	shl    $0x8,%rdx
ffff800000104577:	48 09 55 e0          	or     %rdx,-0x20(%rbp)
ffff80000010457b:	0f b6 55 de          	movzbl -0x22(%rbp),%edx
ffff80000010457f:	0f b6 d2             	movzbl %dl,%edx
ffff800000104582:	48 c1 e2 10          	shl    $0x10,%rdx
ffff800000104586:	48 09 55 e0          	or     %rdx,-0x20(%rbp)
ffff80000010458a:	0f b6 55 df          	movzbl -0x21(%rbp),%edx
ffff80000010458e:	0f b6 d2             	movzbl %dl,%edx
ffff800000104591:	48 c1 e2 0e          	shl    $0xe,%rdx
ffff800000104595:	48 09 55 e0          	or     %rdx,-0x20(%rbp)
ffff800000104599:	48 8b 55 e0          	mov    -0x20(%rbp),%rdx
ffff80000010459d:	48 c1 e2 20          	shl    $0x20,%rdx
ffff8000001045a1:	48 09 55 e0          	or     %rdx,-0x20(%rbp)
ffff8000001045a5:	48 ba b8 ff ff ff ff 	movabs $0xffffffffffffffb8,%rdx
ffff8000001045ac:	ff ff ff 
ffff8000001045af:	48 8b 14 10          	mov    (%rax,%rdx,1),%rdx
ffff8000001045b3:	8b 0a                	mov    (%rdx),%ecx
ffff8000001045b5:	48 ba b8 ff ff ff ff 	movabs $0xffffffffffffffb8,%rdx
ffff8000001045bc:	ff ff ff 
ffff8000001045bf:	48 8b 14 10          	mov    (%rax,%rdx,1),%rdx
ffff8000001045c3:	8b 52 04             	mov    0x4(%rdx),%edx
ffff8000001045c6:	0f af d1             	imul   %ecx,%edx
ffff8000001045c9:	d1 ea                	shr    %edx
ffff8000001045cb:	48 8b 75 e0          	mov    -0x20(%rbp),%rsi
ffff8000001045cf:	48 8b 4d e8          	mov    -0x18(%rbp),%rcx
ffff8000001045d3:	48 89 cf             	mov    %rcx,%rdi
ffff8000001045d6:	49 89 c7             	mov    %rax,%r15
ffff8000001045d9:	48 b9 be 54 ff ff ff 	movabs $0xffffffffffff54be,%rcx
ffff8000001045e0:	ff ff ff 
ffff8000001045e3:	48 01 c1             	add    %rax,%rcx
ffff8000001045e6:	ff d1                	call   *%rcx
ffff8000001045e8:	90                   	nop
ffff8000001045e9:	4c 8b 7d f8          	mov    -0x8(%rbp),%r15
ffff8000001045ed:	c9                   	leave  
ffff8000001045ee:	c3                   	ret    

ffff8000001045ef <draw_font_ascii>:
ffff8000001045ef:	f3 0f 1e fa          	endbr64 
ffff8000001045f3:	55                   	push   %rbp
ffff8000001045f4:	48 89 e5             	mov    %rsp,%rbp
ffff8000001045f7:	53                   	push   %rbx
ffff8000001045f8:	48 83 ec 20          	sub    $0x20,%rsp
ffff8000001045fc:	48 8d 1d f9 ff ff ff 	lea    -0x7(%rip),%rbx        # ffff8000001045fc <draw_font_ascii+0xd>
ffff800000104603:	49 bb 5c af 00 00 00 	movabs $0xaf5c,%r11
ffff80000010460a:	00 00 00 
ffff80000010460d:	4c 01 db             	add    %r11,%rbx
ffff800000104610:	89 7d e4             	mov    %edi,-0x1c(%rbp)
ffff800000104613:	89 75 e0             	mov    %esi,-0x20(%rbp)
ffff800000104616:	89 55 dc             	mov    %edx,-0x24(%rbp)
ffff800000104619:	89 c8                	mov    %ecx,%eax
ffff80000010461b:	88 45 d8             	mov    %al,-0x28(%rbp)
ffff80000010461e:	c7 45 f4 00 00 00 00 	movl   $0x0,-0xc(%rbp)
ffff800000104625:	e9 ac 01 00 00       	jmp    ffff8000001047d6 <draw_font_ascii+0x1e7>
ffff80000010462a:	0f b6 45 d8          	movzbl -0x28(%rbp),%eax
ffff80000010462e:	48 ba 28 cc ff ff ff 	movabs $0xffffffffffffcc28,%rdx
ffff800000104635:	ff ff ff 
ffff800000104638:	8b 4d f4             	mov    -0xc(%rbp),%ecx
ffff80000010463b:	48 98                	cltq   
ffff80000010463d:	48 01 da             	add    %rbx,%rdx
ffff800000104640:	48 c1 e0 04          	shl    $0x4,%rax
ffff800000104644:	48 01 c8             	add    %rcx,%rax
ffff800000104647:	48 01 d0             	add    %rdx,%rax
ffff80000010464a:	0f b6 00             	movzbl (%rax),%eax
ffff80000010464d:	88 45 f3             	mov    %al,-0xd(%rbp)
ffff800000104650:	0f b6 45 f3          	movzbl -0xd(%rbp),%eax
ffff800000104654:	84 c0                	test   %al,%al
ffff800000104656:	79 23                	jns    ffff80000010467b <draw_font_ascii+0x8c>
ffff800000104658:	8b 55 e0             	mov    -0x20(%rbp),%edx
ffff80000010465b:	8b 45 f4             	mov    -0xc(%rbp),%eax
ffff80000010465e:	8d 0c 02             	lea    (%rdx,%rax,1),%ecx
ffff800000104661:	8b 55 dc             	mov    -0x24(%rbp),%edx
ffff800000104664:	8b 45 e4             	mov    -0x1c(%rbp),%eax
ffff800000104667:	89 ce                	mov    %ecx,%esi
ffff800000104669:	89 c7                	mov    %eax,%edi
ffff80000010466b:	48 b8 c1 4c ff ff ff 	movabs $0xffffffffffff4cc1,%rax
ffff800000104672:	ff ff ff 
ffff800000104675:	48 8d 04 03          	lea    (%rbx,%rax,1),%rax
ffff800000104679:	ff d0                	call   *%rax
ffff80000010467b:	0f b6 45 f3          	movzbl -0xd(%rbp),%eax
ffff80000010467f:	83 e0 40             	and    $0x40,%eax
ffff800000104682:	85 c0                	test   %eax,%eax
ffff800000104684:	74 26                	je     ffff8000001046ac <draw_font_ascii+0xbd>
ffff800000104686:	8b 55 e0             	mov    -0x20(%rbp),%edx
ffff800000104689:	8b 45 f4             	mov    -0xc(%rbp),%eax
ffff80000010468c:	8d 34 02             	lea    (%rdx,%rax,1),%esi
ffff80000010468f:	8b 45 e4             	mov    -0x1c(%rbp),%eax
ffff800000104692:	8d 48 01             	lea    0x1(%rax),%ecx
ffff800000104695:	8b 45 dc             	mov    -0x24(%rbp),%eax
ffff800000104698:	89 c2                	mov    %eax,%edx
ffff80000010469a:	89 cf                	mov    %ecx,%edi
ffff80000010469c:	48 b8 c1 4c ff ff ff 	movabs $0xffffffffffff4cc1,%rax
ffff8000001046a3:	ff ff ff 
ffff8000001046a6:	48 8d 04 03          	lea    (%rbx,%rax,1),%rax
ffff8000001046aa:	ff d0                	call   *%rax
ffff8000001046ac:	0f b6 45 f3          	movzbl -0xd(%rbp),%eax
ffff8000001046b0:	83 e0 20             	and    $0x20,%eax
ffff8000001046b3:	85 c0                	test   %eax,%eax
ffff8000001046b5:	74 26                	je     ffff8000001046dd <draw_font_ascii+0xee>
ffff8000001046b7:	8b 55 e0             	mov    -0x20(%rbp),%edx
ffff8000001046ba:	8b 45 f4             	mov    -0xc(%rbp),%eax
ffff8000001046bd:	8d 34 02             	lea    (%rdx,%rax,1),%esi
ffff8000001046c0:	8b 45 e4             	mov    -0x1c(%rbp),%eax
ffff8000001046c3:	8d 48 02             	lea    0x2(%rax),%ecx
ffff8000001046c6:	8b 45 dc             	mov    -0x24(%rbp),%eax
ffff8000001046c9:	89 c2                	mov    %eax,%edx
ffff8000001046cb:	89 cf                	mov    %ecx,%edi
ffff8000001046cd:	48 b8 c1 4c ff ff ff 	movabs $0xffffffffffff4cc1,%rax
ffff8000001046d4:	ff ff ff 
ffff8000001046d7:	48 8d 04 03          	lea    (%rbx,%rax,1),%rax
ffff8000001046db:	ff d0                	call   *%rax
ffff8000001046dd:	0f b6 45 f3          	movzbl -0xd(%rbp),%eax
ffff8000001046e1:	83 e0 10             	and    $0x10,%eax
ffff8000001046e4:	85 c0                	test   %eax,%eax
ffff8000001046e6:	74 26                	je     ffff80000010470e <draw_font_ascii+0x11f>
ffff8000001046e8:	8b 55 e0             	mov    -0x20(%rbp),%edx
ffff8000001046eb:	8b 45 f4             	mov    -0xc(%rbp),%eax
ffff8000001046ee:	8d 34 02             	lea    (%rdx,%rax,1),%esi
ffff8000001046f1:	8b 45 e4             	mov    -0x1c(%rbp),%eax
ffff8000001046f4:	8d 48 03             	lea    0x3(%rax),%ecx
ffff8000001046f7:	8b 45 dc             	mov    -0x24(%rbp),%eax
ffff8000001046fa:	89 c2                	mov    %eax,%edx
ffff8000001046fc:	89 cf                	mov    %ecx,%edi
ffff8000001046fe:	48 b8 c1 4c ff ff ff 	movabs $0xffffffffffff4cc1,%rax
ffff800000104705:	ff ff ff 
ffff800000104708:	48 8d 04 03          	lea    (%rbx,%rax,1),%rax
ffff80000010470c:	ff d0                	call   *%rax
ffff80000010470e:	0f b6 45 f3          	movzbl -0xd(%rbp),%eax
ffff800000104712:	83 e0 08             	and    $0x8,%eax
ffff800000104715:	85 c0                	test   %eax,%eax
ffff800000104717:	74 26                	je     ffff80000010473f <draw_font_ascii+0x150>
ffff800000104719:	8b 55 e0             	mov    -0x20(%rbp),%edx
ffff80000010471c:	8b 45 f4             	mov    -0xc(%rbp),%eax
ffff80000010471f:	8d 34 02             	lea    (%rdx,%rax,1),%esi
ffff800000104722:	8b 45 e4             	mov    -0x1c(%rbp),%eax
ffff800000104725:	8d 48 04             	lea    0x4(%rax),%ecx
ffff800000104728:	8b 45 dc             	mov    -0x24(%rbp),%eax
ffff80000010472b:	89 c2                	mov    %eax,%edx
ffff80000010472d:	89 cf                	mov    %ecx,%edi
ffff80000010472f:	48 b8 c1 4c ff ff ff 	movabs $0xffffffffffff4cc1,%rax
ffff800000104736:	ff ff ff 
ffff800000104739:	48 8d 04 03          	lea    (%rbx,%rax,1),%rax
ffff80000010473d:	ff d0                	call   *%rax
ffff80000010473f:	0f b6 45 f3          	movzbl -0xd(%rbp),%eax
ffff800000104743:	83 e0 04             	and    $0x4,%eax
ffff800000104746:	85 c0                	test   %eax,%eax
ffff800000104748:	74 26                	je     ffff800000104770 <draw_font_ascii+0x181>
ffff80000010474a:	8b 55 e0             	mov    -0x20(%rbp),%edx
ffff80000010474d:	8b 45 f4             	mov    -0xc(%rbp),%eax
ffff800000104750:	8d 34 02             	lea    (%rdx,%rax,1),%esi
ffff800000104753:	8b 45 e4             	mov    -0x1c(%rbp),%eax
ffff800000104756:	8d 48 05             	lea    0x5(%rax),%ecx
ffff800000104759:	8b 45 dc             	mov    -0x24(%rbp),%eax
ffff80000010475c:	89 c2                	mov    %eax,%edx
ffff80000010475e:	89 cf                	mov    %ecx,%edi
ffff800000104760:	48 b8 c1 4c ff ff ff 	movabs $0xffffffffffff4cc1,%rax
ffff800000104767:	ff ff ff 
ffff80000010476a:	48 8d 04 03          	lea    (%rbx,%rax,1),%rax
ffff80000010476e:	ff d0                	call   *%rax
ffff800000104770:	0f b6 45 f3          	movzbl -0xd(%rbp),%eax
ffff800000104774:	83 e0 02             	and    $0x2,%eax
ffff800000104777:	85 c0                	test   %eax,%eax
ffff800000104779:	74 26                	je     ffff8000001047a1 <draw_font_ascii+0x1b2>
ffff80000010477b:	8b 55 e0             	mov    -0x20(%rbp),%edx
ffff80000010477e:	8b 45 f4             	mov    -0xc(%rbp),%eax
ffff800000104781:	8d 34 02             	lea    (%rdx,%rax,1),%esi
ffff800000104784:	8b 45 e4             	mov    -0x1c(%rbp),%eax
ffff800000104787:	8d 48 06             	lea    0x6(%rax),%ecx
ffff80000010478a:	8b 45 dc             	mov    -0x24(%rbp),%eax
ffff80000010478d:	89 c2                	mov    %eax,%edx
ffff80000010478f:	89 cf                	mov    %ecx,%edi
ffff800000104791:	48 b8 c1 4c ff ff ff 	movabs $0xffffffffffff4cc1,%rax
ffff800000104798:	ff ff ff 
ffff80000010479b:	48 8d 04 03          	lea    (%rbx,%rax,1),%rax
ffff80000010479f:	ff d0                	call   *%rax
ffff8000001047a1:	0f b6 45 f3          	movzbl -0xd(%rbp),%eax
ffff8000001047a5:	83 e0 01             	and    $0x1,%eax
ffff8000001047a8:	85 c0                	test   %eax,%eax
ffff8000001047aa:	74 26                	je     ffff8000001047d2 <draw_font_ascii+0x1e3>
ffff8000001047ac:	8b 55 e0             	mov    -0x20(%rbp),%edx
ffff8000001047af:	8b 45 f4             	mov    -0xc(%rbp),%eax
ffff8000001047b2:	8d 34 02             	lea    (%rdx,%rax,1),%esi
ffff8000001047b5:	8b 45 e4             	mov    -0x1c(%rbp),%eax
ffff8000001047b8:	8d 48 07             	lea    0x7(%rax),%ecx
ffff8000001047bb:	8b 45 dc             	mov    -0x24(%rbp),%eax
ffff8000001047be:	89 c2                	mov    %eax,%edx
ffff8000001047c0:	89 cf                	mov    %ecx,%edi
ffff8000001047c2:	48 b8 c1 4c ff ff ff 	movabs $0xffffffffffff4cc1,%rax
ffff8000001047c9:	ff ff ff 
ffff8000001047cc:	48 8d 04 03          	lea    (%rbx,%rax,1),%rax
ffff8000001047d0:	ff d0                	call   *%rax
ffff8000001047d2:	83 45 f4 01          	addl   $0x1,-0xc(%rbp)
ffff8000001047d6:	83 7d f4 0f          	cmpl   $0xf,-0xc(%rbp)
ffff8000001047da:	0f 86 4a fe ff ff    	jbe    ffff80000010462a <draw_font_ascii+0x3b>
ffff8000001047e0:	90                   	nop
ffff8000001047e1:	48 8b 5d f8          	mov    -0x8(%rbp),%rbx
ffff8000001047e5:	c9                   	leave  
ffff8000001047e6:	c3                   	ret    

ffff8000001047e7 <draw_text>:
ffff8000001047e7:	f3 0f 1e fa          	endbr64 
ffff8000001047eb:	55                   	push   %rbp
ffff8000001047ec:	48 89 e5             	mov    %rsp,%rbp
ffff8000001047ef:	53                   	push   %rbx
ffff8000001047f0:	48 83 ec 28          	sub    $0x28,%rsp
ffff8000001047f4:	48 8d 1d f9 ff ff ff 	lea    -0x7(%rip),%rbx        # ffff8000001047f4 <draw_text+0xd>
ffff8000001047fb:	49 bb 64 ad 00 00 00 	movabs $0xad64,%r11
ffff800000104802:	00 00 00 
ffff800000104805:	4c 01 db             	add    %r11,%rbx
ffff800000104808:	89 7d e4             	mov    %edi,-0x1c(%rbp)
ffff80000010480b:	89 75 e0             	mov    %esi,-0x20(%rbp)
ffff80000010480e:	89 55 dc             	mov    %edx,-0x24(%rbp)
ffff800000104811:	48 89 4d d0          	mov    %rcx,-0x30(%rbp)
ffff800000104815:	c7 45 f4 00 00 00 00 	movl   $0x0,-0xc(%rbp)
ffff80000010481c:	eb 3c                	jmp    ffff80000010485a <draw_text+0x73>
ffff80000010481e:	8b 55 f4             	mov    -0xc(%rbp),%edx
ffff800000104821:	48 8b 45 d0          	mov    -0x30(%rbp),%rax
ffff800000104825:	48 01 d0             	add    %rdx,%rax
ffff800000104828:	0f b6 00             	movzbl (%rax),%eax
ffff80000010482b:	0f b6 c8             	movzbl %al,%ecx
ffff80000010482e:	8b 45 f4             	mov    -0xc(%rbp),%eax
ffff800000104831:	8d 14 c5 00 00 00 00 	lea    0x0(,%rax,8),%edx
ffff800000104838:	8b 45 e4             	mov    -0x1c(%rbp),%eax
ffff80000010483b:	8d 3c 02             	lea    (%rdx,%rax,1),%edi
ffff80000010483e:	8b 55 dc             	mov    -0x24(%rbp),%edx
ffff800000104841:	8b 45 e0             	mov    -0x20(%rbp),%eax
ffff800000104844:	89 c6                	mov    %eax,%esi
ffff800000104846:	48 b8 97 50 ff ff ff 	movabs $0xffffffffffff5097,%rax
ffff80000010484d:	ff ff ff 
ffff800000104850:	48 8d 04 03          	lea    (%rbx,%rax,1),%rax
ffff800000104854:	ff d0                	call   *%rax
ffff800000104856:	83 45 f4 01          	addl   $0x1,-0xc(%rbp)
ffff80000010485a:	8b 55 f4             	mov    -0xc(%rbp),%edx
ffff80000010485d:	48 8b 45 d0          	mov    -0x30(%rbp),%rax
ffff800000104861:	48 01 d0             	add    %rdx,%rax
ffff800000104864:	0f b6 00             	movzbl (%rax),%eax
ffff800000104867:	84 c0                	test   %al,%al
ffff800000104869:	75 b3                	jne    ffff80000010481e <draw_text+0x37>
ffff80000010486b:	90                   	nop
ffff80000010486c:	90                   	nop
ffff80000010486d:	48 8b 5d f8          	mov    -0x8(%rbp),%rbx
ffff800000104871:	c9                   	leave  
ffff800000104872:	c3                   	ret    

ffff800000104873 <draw_printf>:
ffff800000104873:	f3 0f 1e fa          	endbr64 
ffff800000104877:	55                   	push   %rbp
ffff800000104878:	48 89 e5             	mov    %rsp,%rbp
ffff80000010487b:	41 57                	push   %r15
ffff80000010487d:	53                   	push   %rbx
ffff80000010487e:	48 81 ec f0 00 00 00 	sub    $0xf0,%rsp
ffff800000104885:	48 8d 1d f9 ff ff ff 	lea    -0x7(%rip),%rbx        # ffff800000104885 <draw_printf+0x12>
ffff80000010488c:	49 bb d3 ac 00 00 00 	movabs $0xacd3,%r11
ffff800000104893:	00 00 00 
ffff800000104896:	4c 01 db             	add    %r11,%rbx
ffff800000104899:	89 bd 1c ff ff ff    	mov    %edi,-0xe4(%rbp)
ffff80000010489f:	89 b5 18 ff ff ff    	mov    %esi,-0xe8(%rbp)
ffff8000001048a5:	89 95 14 ff ff ff    	mov    %edx,-0xec(%rbp)
ffff8000001048ab:	48 89 8d 08 ff ff ff 	mov    %rcx,-0xf8(%rbp)
ffff8000001048b2:	4c 89 85 60 ff ff ff 	mov    %r8,-0xa0(%rbp)
ffff8000001048b9:	4c 89 8d 68 ff ff ff 	mov    %r9,-0x98(%rbp)
ffff8000001048c0:	84 c0                	test   %al,%al
ffff8000001048c2:	74 23                	je     ffff8000001048e7 <draw_printf+0x74>
ffff8000001048c4:	0f 29 85 70 ff ff ff 	movaps %xmm0,-0x90(%rbp)
ffff8000001048cb:	0f 29 4d 80          	movaps %xmm1,-0x80(%rbp)
ffff8000001048cf:	0f 29 55 90          	movaps %xmm2,-0x70(%rbp)
ffff8000001048d3:	0f 29 5d a0          	movaps %xmm3,-0x60(%rbp)
ffff8000001048d7:	0f 29 65 b0          	movaps %xmm4,-0x50(%rbp)
ffff8000001048db:	0f 29 6d c0          	movaps %xmm5,-0x40(%rbp)
ffff8000001048df:	0f 29 75 d0          	movaps %xmm6,-0x30(%rbp)
ffff8000001048e3:	0f 29 7d e0          	movaps %xmm7,-0x20(%rbp)
ffff8000001048e7:	c7 85 20 ff ff ff 20 	movl   $0x20,-0xe0(%rbp)
ffff8000001048ee:	00 00 00 
ffff8000001048f1:	c7 85 24 ff ff ff 30 	movl   $0x30,-0xdc(%rbp)
ffff8000001048f8:	00 00 00 
ffff8000001048fb:	48 8d 45 10          	lea    0x10(%rbp),%rax
ffff8000001048ff:	48 89 85 28 ff ff ff 	mov    %rax,-0xd8(%rbp)
ffff800000104906:	48 8d 85 40 ff ff ff 	lea    -0xc0(%rbp),%rax
ffff80000010490d:	48 89 85 30 ff ff ff 	mov    %rax,-0xd0(%rbp)
ffff800000104914:	48 8d 95 20 ff ff ff 	lea    -0xe0(%rbp),%rdx
ffff80000010491b:	48 8b 85 08 ff ff ff 	mov    -0xf8(%rbp),%rax
ffff800000104922:	48 89 c6             	mov    %rax,%rsi
ffff800000104925:	48 b8 e8 0d 00 00 00 	movabs $0xde8,%rax
ffff80000010492c:	00 00 00 
ffff80000010492f:	48 8d 04 03          	lea    (%rbx,%rax,1),%rax
ffff800000104933:	48 89 c7             	mov    %rax,%rdi
ffff800000104936:	49 89 df             	mov    %rbx,%r15
ffff800000104939:	48 b8 c7 55 ff ff ff 	movabs $0xffffffffffff55c7,%rax
ffff800000104940:	ff ff ff 
ffff800000104943:	48 01 d8             	add    %rbx,%rax
ffff800000104946:	ff d0                	call   *%rax
ffff800000104948:	89 85 3c ff ff ff    	mov    %eax,-0xc4(%rbp)
ffff80000010494e:	8b 95 14 ff ff ff    	mov    -0xec(%rbp),%edx
ffff800000104954:	8b b5 18 ff ff ff    	mov    -0xe8(%rbp),%esi
ffff80000010495a:	8b 85 1c ff ff ff    	mov    -0xe4(%rbp),%eax
ffff800000104960:	48 b9 e8 0d 00 00 00 	movabs $0xde8,%rcx
ffff800000104967:	00 00 00 
ffff80000010496a:	48 8d 0c 0b          	lea    (%rbx,%rcx,1),%rcx
ffff80000010496e:	89 c7                	mov    %eax,%edi
ffff800000104970:	48 b8 8f 52 ff ff ff 	movabs $0xffffffffffff528f,%rax
ffff800000104977:	ff ff ff 
ffff80000010497a:	48 8d 04 03          	lea    (%rbx,%rax,1),%rax
ffff80000010497e:	ff d0                	call   *%rax
ffff800000104980:	8b 85 3c ff ff ff    	mov    -0xc4(%rbp),%eax
ffff800000104986:	48 81 c4 f0 00 00 00 	add    $0xf0,%rsp
ffff80000010498d:	5b                   	pop    %rbx
ffff80000010498e:	41 5f                	pop    %r15
ffff800000104990:	5d                   	pop    %rbp
ffff800000104991:	c3                   	ret    

ffff800000104992 <init_draw>:
ffff800000104992:	f3 0f 1e fa          	endbr64 
ffff800000104996:	55                   	push   %rbp
ffff800000104997:	48 89 e5             	mov    %rsp,%rbp
ffff80000010499a:	48 8d 15 f9 ff ff ff 	lea    -0x7(%rip),%rdx        # ffff80000010499a <init_draw+0x8>
ffff8000001049a1:	49 bb be ab 00 00 00 	movabs $0xabbe,%r11
ffff8000001049a8:	00 00 00 
ffff8000001049ab:	4c 01 da             	add    %r11,%rdx
ffff8000001049ae:	48 b9 88 0d 00 00 00 	movabs $0xd88,%rcx
ffff8000001049b5:	00 00 00 
ffff8000001049b8:	48 be b8 ff ff ff ff 	movabs $0xffffffffffffffb8,%rsi
ffff8000001049bf:	ff ff ff 
ffff8000001049c2:	48 8b 34 32          	mov    (%rdx,%rsi,1),%rsi
ffff8000001049c6:	48 89 34 0a          	mov    %rsi,(%rdx,%rcx,1)
ffff8000001049ca:	b0 64                	mov    $0x64,%al
ffff8000001049cc:	b9 64 00 00 00       	mov    $0x64,%ecx
ffff8000001049d1:	88 cc                	mov    %cl,%ah
ffff8000001049d3:	25 ff ff 00 ff       	and    $0xff00ffff,%eax
ffff8000001049d8:	0d 00 00 64 00       	or     $0x640000,%eax
ffff8000001049dd:	25 ff ff ff 00       	and    $0xffffff,%eax
ffff8000001049e2:	89 c7                	mov    %eax,%edi
ffff8000001049e4:	48 b8 c6 4f ff ff ff 	movabs $0xffffffffffff4fc6,%rax
ffff8000001049eb:	ff ff ff 
ffff8000001049ee:	48 8d 04 02          	lea    (%rdx,%rax,1),%rax
ffff8000001049f2:	ff d0                	call   *%rax
ffff8000001049f4:	90                   	nop
ffff8000001049f5:	5d                   	pop    %rbp
ffff8000001049f6:	c3                   	ret    

ffff8000001049f7 <draw_test>:
ffff8000001049f7:	f3 0f 1e fa          	endbr64 
ffff8000001049fb:	55                   	push   %rbp
ffff8000001049fc:	48 89 e5             	mov    %rsp,%rbp
ffff8000001049ff:	48 8d 05 f9 ff ff ff 	lea    -0x7(%rip),%rax        # ffff8000001049ff <draw_test+0x8>
ffff800000104a06:	49 bb 59 ab 00 00 00 	movabs $0xab59,%r11
ffff800000104a0d:	00 00 00 
ffff800000104a10:	4c 01 d8             	add    %r11,%rax
ffff800000104a13:	90                   	nop
ffff800000104a14:	5d                   	pop    %rbp
ffff800000104a15:	c3                   	ret    

ffff800000104a16 <memsetl>:
ffff800000104a16:	f3 0f 1e fa          	endbr64 
ffff800000104a1a:	55                   	push   %rbp
ffff800000104a1b:	48 89 e5             	mov    %rsp,%rbp
ffff800000104a1e:	48 8d 05 f9 ff ff ff 	lea    -0x7(%rip),%rax        # ffff800000104a1e <memsetl+0x8>
ffff800000104a25:	49 bb 3a ab 00 00 00 	movabs $0xab3a,%r11
ffff800000104a2c:	00 00 00 
ffff800000104a2f:	4c 01 d8             	add    %r11,%rax
ffff800000104a32:	48 89 7d e8          	mov    %rdi,-0x18(%rbp)
ffff800000104a36:	48 89 75 e0          	mov    %rsi,-0x20(%rbp)
ffff800000104a3a:	89 55 dc             	mov    %edx,-0x24(%rbp)
ffff800000104a3d:	48 8b 45 e8          	mov    -0x18(%rbp),%rax
ffff800000104a41:	48 89 45 f8          	mov    %rax,-0x8(%rbp)
ffff800000104a45:	eb 13                	jmp    ffff800000104a5a <memsetl+0x44>
ffff800000104a47:	48 8b 45 f8          	mov    -0x8(%rbp),%rax
ffff800000104a4b:	48 8d 50 08          	lea    0x8(%rax),%rdx
ffff800000104a4f:	48 89 55 f8          	mov    %rdx,-0x8(%rbp)
ffff800000104a53:	48 8b 55 e0          	mov    -0x20(%rbp),%rdx
ffff800000104a57:	48 89 10             	mov    %rdx,(%rax)
ffff800000104a5a:	8b 45 dc             	mov    -0x24(%rbp),%eax
ffff800000104a5d:	8d 50 ff             	lea    -0x1(%rax),%edx
ffff800000104a60:	89 55 dc             	mov    %edx,-0x24(%rbp)
ffff800000104a63:	85 c0                	test   %eax,%eax
ffff800000104a65:	75 e0                	jne    ffff800000104a47 <memsetl+0x31>
ffff800000104a67:	90                   	nop
ffff800000104a68:	90                   	nop
ffff800000104a69:	5d                   	pop    %rbp
ffff800000104a6a:	c3                   	ret    

ffff800000104a6b <itoa>:
ffff800000104a6b:	f3 0f 1e fa          	endbr64 
ffff800000104a6f:	55                   	push   %rbp
ffff800000104a70:	48 89 e5             	mov    %rsp,%rbp
ffff800000104a73:	48 83 ec 20          	sub    $0x20,%rsp
ffff800000104a77:	48 8d 0d f9 ff ff ff 	lea    -0x7(%rip),%rcx        # ffff800000104a77 <itoa+0xc>
ffff800000104a7e:	49 bb e1 aa 00 00 00 	movabs $0xaae1,%r11
ffff800000104a85:	00 00 00 
ffff800000104a88:	4c 01 d9             	add    %r11,%rcx
ffff800000104a8b:	89 7d ec             	mov    %edi,-0x14(%rbp)
ffff800000104a8e:	48 89 75 e0          	mov    %rsi,-0x20(%rbp)
ffff800000104a92:	89 d0                	mov    %edx,%eax
ffff800000104a94:	88 45 e8             	mov    %al,-0x18(%rbp)
ffff800000104a97:	0f b6 75 e8          	movzbl -0x18(%rbp),%esi
ffff800000104a9b:	8b 45 ec             	mov    -0x14(%rbp),%eax
ffff800000104a9e:	ba 00 00 00 00       	mov    $0x0,%edx
ffff800000104aa3:	f7 f6                	div    %esi
ffff800000104aa5:	89 55 fc             	mov    %edx,-0x4(%rbp)
ffff800000104aa8:	0f b6 7d e8          	movzbl -0x18(%rbp),%edi
ffff800000104aac:	8b 45 ec             	mov    -0x14(%rbp),%eax
ffff800000104aaf:	ba 00 00 00 00       	mov    $0x0,%edx
ffff800000104ab4:	f7 f7                	div    %edi
ffff800000104ab6:	89 45 f8             	mov    %eax,-0x8(%rbp)
ffff800000104ab9:	83 7d f8 00          	cmpl   $0x0,-0x8(%rbp)
ffff800000104abd:	74 1d                	je     ffff800000104adc <itoa+0x71>
ffff800000104abf:	0f b6 55 e8          	movzbl -0x18(%rbp),%edx
ffff800000104ac3:	48 8b 75 e0          	mov    -0x20(%rbp),%rsi
ffff800000104ac7:	8b 45 f8             	mov    -0x8(%rbp),%eax
ffff800000104aca:	89 c7                	mov    %eax,%edi
ffff800000104acc:	48 b8 13 55 ff ff ff 	movabs $0xffffffffffff5513,%rax
ffff800000104ad3:	ff ff ff 
ffff800000104ad6:	48 8d 04 01          	lea    (%rcx,%rax,1),%rax
ffff800000104ada:	ff d0                	call   *%rax
ffff800000104adc:	83 7d fc 09          	cmpl   $0x9,-0x4(%rbp)
ffff800000104ae0:	77 1e                	ja     ffff800000104b00 <itoa+0x95>
ffff800000104ae2:	8b 45 fc             	mov    -0x4(%rbp),%eax
ffff800000104ae5:	8d 70 30             	lea    0x30(%rax),%esi
ffff800000104ae8:	48 8b 45 e0          	mov    -0x20(%rbp),%rax
ffff800000104aec:	48 8b 00             	mov    (%rax),%rax
ffff800000104aef:	48 8d 48 01          	lea    0x1(%rax),%rcx
ffff800000104af3:	48 8b 55 e0          	mov    -0x20(%rbp),%rdx
ffff800000104af7:	48 89 0a             	mov    %rcx,(%rdx)
ffff800000104afa:	89 f2                	mov    %esi,%edx
ffff800000104afc:	88 10                	mov    %dl,(%rax)
ffff800000104afe:	eb 1c                	jmp    ffff800000104b1c <itoa+0xb1>
ffff800000104b00:	8b 45 fc             	mov    -0x4(%rbp),%eax
ffff800000104b03:	8d 70 37             	lea    0x37(%rax),%esi
ffff800000104b06:	48 8b 45 e0          	mov    -0x20(%rbp),%rax
ffff800000104b0a:	48 8b 00             	mov    (%rax),%rax
ffff800000104b0d:	48 8d 48 01          	lea    0x1(%rax),%rcx
ffff800000104b11:	48 8b 55 e0          	mov    -0x20(%rbp),%rdx
ffff800000104b15:	48 89 0a             	mov    %rcx,(%rdx)
ffff800000104b18:	89 f2                	mov    %esi,%edx
ffff800000104b1a:	88 10                	mov    %dl,(%rax)
ffff800000104b1c:	90                   	nop
ffff800000104b1d:	c9                   	leave  
ffff800000104b1e:	c3                   	ret    

ffff800000104b1f <vsprintf>:
ffff800000104b1f:	f3 0f 1e fa          	endbr64 
ffff800000104b23:	55                   	push   %rbp
ffff800000104b24:	48 89 e5             	mov    %rsp,%rbp
ffff800000104b27:	41 57                	push   %r15
ffff800000104b29:	53                   	push   %rbx
ffff800000104b2a:	48 83 ec 40          	sub    $0x40,%rsp
ffff800000104b2e:	48 8d 1d f9 ff ff ff 	lea    -0x7(%rip),%rbx        # ffff800000104b2e <vsprintf+0xf>
ffff800000104b35:	49 bb 2a aa 00 00 00 	movabs $0xaa2a,%r11
ffff800000104b3c:	00 00 00 
ffff800000104b3f:	4c 01 db             	add    %r11,%rbx
ffff800000104b42:	48 89 7d c8          	mov    %rdi,-0x38(%rbp)
ffff800000104b46:	48 89 75 c0          	mov    %rsi,-0x40(%rbp)
ffff800000104b4a:	48 89 55 b8          	mov    %rdx,-0x48(%rbp)
ffff800000104b4e:	48 8b 45 c8          	mov    -0x38(%rbp),%rax
ffff800000104b52:	48 89 45 d0          	mov    %rax,-0x30(%rbp)
ffff800000104b56:	48 8b 45 c0          	mov    -0x40(%rbp),%rax
ffff800000104b5a:	48 89 45 e8          	mov    %rax,-0x18(%rbp)
ffff800000104b5e:	48 8b 45 e8          	mov    -0x18(%rbp),%rax
ffff800000104b62:	0f b6 00             	movzbl (%rax),%eax
ffff800000104b65:	88 45 e7             	mov    %al,-0x19(%rbp)
ffff800000104b68:	e9 8e 02 00 00       	jmp    ffff800000104dfb <vsprintf+0x2dc>
ffff800000104b6d:	80 7d e7 25          	cmpb   $0x25,-0x19(%rbp)
ffff800000104b71:	74 26                	je     ffff800000104b99 <vsprintf+0x7a>
ffff800000104b73:	48 8b 45 d0          	mov    -0x30(%rbp),%rax
ffff800000104b77:	48 8d 50 01          	lea    0x1(%rax),%rdx
ffff800000104b7b:	48 89 55 d0          	mov    %rdx,-0x30(%rbp)
ffff800000104b7f:	0f b6 55 e7          	movzbl -0x19(%rbp),%edx
ffff800000104b83:	88 10                	mov    %dl,(%rax)
ffff800000104b85:	48 83 45 e8 01       	addq   $0x1,-0x18(%rbp)
ffff800000104b8a:	48 8b 45 e8          	mov    -0x18(%rbp),%rax
ffff800000104b8e:	0f b6 00             	movzbl (%rax),%eax
ffff800000104b91:	88 45 e7             	mov    %al,-0x19(%rbp)
ffff800000104b94:	e9 62 02 00 00       	jmp    ffff800000104dfb <vsprintf+0x2dc>
ffff800000104b99:	48 83 45 e8 01       	addq   $0x1,-0x18(%rbp)
ffff800000104b9e:	48 8b 45 e8          	mov    -0x18(%rbp),%rax
ffff800000104ba2:	0f b6 00             	movzbl (%rax),%eax
ffff800000104ba5:	88 45 e7             	mov    %al,-0x19(%rbp)
ffff800000104ba8:	0f be 45 e7          	movsbl -0x19(%rbp),%eax
ffff800000104bac:	83 f8 78             	cmp    $0x78,%eax
ffff800000104baf:	0f 84 cd 01 00 00    	je     ffff800000104d82 <vsprintf+0x263>
ffff800000104bb5:	83 f8 78             	cmp    $0x78,%eax
ffff800000104bb8:	0f 8f 3d 02 00 00    	jg     ffff800000104dfb <vsprintf+0x2dc>
ffff800000104bbe:	83 f8 73             	cmp    $0x73,%eax
ffff800000104bc1:	74 20                	je     ffff800000104be3 <vsprintf+0xc4>
ffff800000104bc3:	83 f8 73             	cmp    $0x73,%eax
ffff800000104bc6:	0f 8f 2f 02 00 00    	jg     ffff800000104dfb <vsprintf+0x2dc>
ffff800000104bcc:	83 f8 63             	cmp    $0x63,%eax
ffff800000104bcf:	0f 84 b2 00 00 00    	je     ffff800000104c87 <vsprintf+0x168>
ffff800000104bd5:	83 f8 64             	cmp    $0x64,%eax
ffff800000104bd8:	0f 84 12 01 00 00    	je     ffff800000104cf0 <vsprintf+0x1d1>
ffff800000104bde:	e9 18 02 00 00       	jmp    ffff800000104dfb <vsprintf+0x2dc>
ffff800000104be3:	48 8b 45 b8          	mov    -0x48(%rbp),%rax
ffff800000104be7:	8b 00                	mov    (%rax),%eax
ffff800000104be9:	83 f8 2f             	cmp    $0x2f,%eax
ffff800000104bec:	77 24                	ja     ffff800000104c12 <vsprintf+0xf3>
ffff800000104bee:	48 8b 45 b8          	mov    -0x48(%rbp),%rax
ffff800000104bf2:	48 8b 50 10          	mov    0x10(%rax),%rdx
ffff800000104bf6:	48 8b 45 b8          	mov    -0x48(%rbp),%rax
ffff800000104bfa:	8b 00                	mov    (%rax),%eax
ffff800000104bfc:	89 c0                	mov    %eax,%eax
ffff800000104bfe:	48 01 d0             	add    %rdx,%rax
ffff800000104c01:	48 8b 55 b8          	mov    -0x48(%rbp),%rdx
ffff800000104c05:	8b 12                	mov    (%rdx),%edx
ffff800000104c07:	8d 4a 08             	lea    0x8(%rdx),%ecx
ffff800000104c0a:	48 8b 55 b8          	mov    -0x48(%rbp),%rdx
ffff800000104c0e:	89 0a                	mov    %ecx,(%rdx)
ffff800000104c10:	eb 14                	jmp    ffff800000104c26 <vsprintf+0x107>
ffff800000104c12:	48 8b 45 b8          	mov    -0x48(%rbp),%rax
ffff800000104c16:	48 8b 40 08          	mov    0x8(%rax),%rax
ffff800000104c1a:	48 8d 48 08          	lea    0x8(%rax),%rcx
ffff800000104c1e:	48 8b 55 b8          	mov    -0x48(%rbp),%rdx
ffff800000104c22:	48 89 4a 08          	mov    %rcx,0x8(%rdx)
ffff800000104c26:	48 8b 00             	mov    (%rax),%rax
ffff800000104c29:	48 89 45 d8          	mov    %rax,-0x28(%rbp)
ffff800000104c2d:	48 8b 45 d0          	mov    -0x30(%rbp),%rax
ffff800000104c31:	48 8b 55 d8          	mov    -0x28(%rbp),%rdx
ffff800000104c35:	48 89 d6             	mov    %rdx,%rsi
ffff800000104c38:	48 89 c7             	mov    %rax,%rdi
ffff800000104c3b:	49 89 df             	mov    %rbx,%r15
ffff800000104c3e:	48 b8 eb 5a ff ff ff 	movabs $0xffffffffffff5aeb,%rax
ffff800000104c45:	ff ff ff 
ffff800000104c48:	48 01 d8             	add    %rbx,%rax
ffff800000104c4b:	ff d0                	call   *%rax
ffff800000104c4d:	48 8b 45 d8          	mov    -0x28(%rbp),%rax
ffff800000104c51:	48 89 c7             	mov    %rax,%rdi
ffff800000104c54:	49 89 df             	mov    %rbx,%r15
ffff800000104c57:	48 b8 42 5b ff ff ff 	movabs $0xffffffffffff5b42,%rax
ffff800000104c5e:	ff ff ff 
ffff800000104c61:	48 01 d8             	add    %rbx,%rax
ffff800000104c64:	ff d0                	call   *%rax
ffff800000104c66:	48 8b 55 d0          	mov    -0x30(%rbp),%rdx
ffff800000104c6a:	89 c0                	mov    %eax,%eax
ffff800000104c6c:	48 01 d0             	add    %rdx,%rax
ffff800000104c6f:	48 89 45 d0          	mov    %rax,-0x30(%rbp)
ffff800000104c73:	48 83 45 e8 01       	addq   $0x1,-0x18(%rbp)
ffff800000104c78:	48 8b 45 e8          	mov    -0x18(%rbp),%rax
ffff800000104c7c:	0f b6 00             	movzbl (%rax),%eax
ffff800000104c7f:	88 45 e7             	mov    %al,-0x19(%rbp)
ffff800000104c82:	e9 74 01 00 00       	jmp    ffff800000104dfb <vsprintf+0x2dc>
ffff800000104c87:	48 8b 45 b8          	mov    -0x48(%rbp),%rax
ffff800000104c8b:	8b 00                	mov    (%rax),%eax
ffff800000104c8d:	83 f8 2f             	cmp    $0x2f,%eax
ffff800000104c90:	77 24                	ja     ffff800000104cb6 <vsprintf+0x197>
ffff800000104c92:	48 8b 45 b8          	mov    -0x48(%rbp),%rax
ffff800000104c96:	48 8b 50 10          	mov    0x10(%rax),%rdx
ffff800000104c9a:	48 8b 45 b8          	mov    -0x48(%rbp),%rax
ffff800000104c9e:	8b 00                	mov    (%rax),%eax
ffff800000104ca0:	89 c0                	mov    %eax,%eax
ffff800000104ca2:	48 01 d0             	add    %rdx,%rax
ffff800000104ca5:	48 8b 55 b8          	mov    -0x48(%rbp),%rdx
ffff800000104ca9:	8b 12                	mov    (%rdx),%edx
ffff800000104cab:	8d 4a 08             	lea    0x8(%rdx),%ecx
ffff800000104cae:	48 8b 55 b8          	mov    -0x48(%rbp),%rdx
ffff800000104cb2:	89 0a                	mov    %ecx,(%rdx)
ffff800000104cb4:	eb 14                	jmp    ffff800000104cca <vsprintf+0x1ab>
ffff800000104cb6:	48 8b 45 b8          	mov    -0x48(%rbp),%rax
ffff800000104cba:	48 8b 40 08          	mov    0x8(%rax),%rax
ffff800000104cbe:	48 8d 48 08          	lea    0x8(%rax),%rcx
ffff800000104cc2:	48 8b 55 b8          	mov    -0x48(%rbp),%rdx
ffff800000104cc6:	48 89 4a 08          	mov    %rcx,0x8(%rdx)
ffff800000104cca:	8b 08                	mov    (%rax),%ecx
ffff800000104ccc:	48 8b 45 d0          	mov    -0x30(%rbp),%rax
ffff800000104cd0:	48 8d 50 01          	lea    0x1(%rax),%rdx
ffff800000104cd4:	48 89 55 d0          	mov    %rdx,-0x30(%rbp)
ffff800000104cd8:	89 ca                	mov    %ecx,%edx
ffff800000104cda:	88 10                	mov    %dl,(%rax)
ffff800000104cdc:	48 83 45 e8 01       	addq   $0x1,-0x18(%rbp)
ffff800000104ce1:	48 8b 45 e8          	mov    -0x18(%rbp),%rax
ffff800000104ce5:	0f b6 00             	movzbl (%rax),%eax
ffff800000104ce8:	88 45 e7             	mov    %al,-0x19(%rbp)
ffff800000104ceb:	e9 0b 01 00 00       	jmp    ffff800000104dfb <vsprintf+0x2dc>
ffff800000104cf0:	48 8b 45 b8          	mov    -0x48(%rbp),%rax
ffff800000104cf4:	8b 00                	mov    (%rax),%eax
ffff800000104cf6:	83 f8 2f             	cmp    $0x2f,%eax
ffff800000104cf9:	77 24                	ja     ffff800000104d1f <vsprintf+0x200>
ffff800000104cfb:	48 8b 45 b8          	mov    -0x48(%rbp),%rax
ffff800000104cff:	48 8b 50 10          	mov    0x10(%rax),%rdx
ffff800000104d03:	48 8b 45 b8          	mov    -0x48(%rbp),%rax
ffff800000104d07:	8b 00                	mov    (%rax),%eax
ffff800000104d09:	89 c0                	mov    %eax,%eax
ffff800000104d0b:	48 01 d0             	add    %rdx,%rax
ffff800000104d0e:	48 8b 55 b8          	mov    -0x48(%rbp),%rdx
ffff800000104d12:	8b 12                	mov    (%rdx),%edx
ffff800000104d14:	8d 4a 08             	lea    0x8(%rdx),%ecx
ffff800000104d17:	48 8b 55 b8          	mov    -0x48(%rbp),%rdx
ffff800000104d1b:	89 0a                	mov    %ecx,(%rdx)
ffff800000104d1d:	eb 14                	jmp    ffff800000104d33 <vsprintf+0x214>
ffff800000104d1f:	48 8b 45 b8          	mov    -0x48(%rbp),%rax
ffff800000104d23:	48 8b 40 08          	mov    0x8(%rax),%rax
ffff800000104d27:	48 8d 48 08          	lea    0x8(%rax),%rcx
ffff800000104d2b:	48 8b 55 b8          	mov    -0x48(%rbp),%rdx
ffff800000104d2f:	48 89 4a 08          	mov    %rcx,0x8(%rdx)
ffff800000104d33:	8b 00                	mov    (%rax),%eax
ffff800000104d35:	89 45 e0             	mov    %eax,-0x20(%rbp)
ffff800000104d38:	83 7d e0 00          	cmpl   $0x0,-0x20(%rbp)
ffff800000104d3c:	79 12                	jns    ffff800000104d50 <vsprintf+0x231>
ffff800000104d3e:	f7 5d e0             	negl   -0x20(%rbp)
ffff800000104d41:	48 8b 45 d0          	mov    -0x30(%rbp),%rax
ffff800000104d45:	48 8d 50 01          	lea    0x1(%rax),%rdx
ffff800000104d49:	48 89 55 d0          	mov    %rdx,-0x30(%rbp)
ffff800000104d4d:	c6 00 2d             	movb   $0x2d,(%rax)
ffff800000104d50:	8b 45 e0             	mov    -0x20(%rbp),%eax
ffff800000104d53:	48 8d 4d d0          	lea    -0x30(%rbp),%rcx
ffff800000104d57:	ba 0a 00 00 00       	mov    $0xa,%edx
ffff800000104d5c:	48 89 ce             	mov    %rcx,%rsi
ffff800000104d5f:	89 c7                	mov    %eax,%edi
ffff800000104d61:	48 b8 13 55 ff ff ff 	movabs $0xffffffffffff5513,%rax
ffff800000104d68:	ff ff ff 
ffff800000104d6b:	48 8d 04 03          	lea    (%rbx,%rax,1),%rax
ffff800000104d6f:	ff d0                	call   *%rax
ffff800000104d71:	48 83 45 e8 01       	addq   $0x1,-0x18(%rbp)
ffff800000104d76:	48 8b 45 e8          	mov    -0x18(%rbp),%rax
ffff800000104d7a:	0f b6 00             	movzbl (%rax),%eax
ffff800000104d7d:	88 45 e7             	mov    %al,-0x19(%rbp)
ffff800000104d80:	eb 79                	jmp    ffff800000104dfb <vsprintf+0x2dc>
ffff800000104d82:	48 8b 45 b8          	mov    -0x48(%rbp),%rax
ffff800000104d86:	8b 00                	mov    (%rax),%eax
ffff800000104d88:	83 f8 2f             	cmp    $0x2f,%eax
ffff800000104d8b:	77 24                	ja     ffff800000104db1 <vsprintf+0x292>
ffff800000104d8d:	48 8b 45 b8          	mov    -0x48(%rbp),%rax
ffff800000104d91:	48 8b 50 10          	mov    0x10(%rax),%rdx
ffff800000104d95:	48 8b 45 b8          	mov    -0x48(%rbp),%rax
ffff800000104d99:	8b 00                	mov    (%rax),%eax
ffff800000104d9b:	89 c0                	mov    %eax,%eax
ffff800000104d9d:	48 01 d0             	add    %rdx,%rax
ffff800000104da0:	48 8b 55 b8          	mov    -0x48(%rbp),%rdx
ffff800000104da4:	8b 12                	mov    (%rdx),%edx
ffff800000104da6:	8d 4a 08             	lea    0x8(%rdx),%ecx
ffff800000104da9:	48 8b 55 b8          	mov    -0x48(%rbp),%rdx
ffff800000104dad:	89 0a                	mov    %ecx,(%rdx)
ffff800000104daf:	eb 14                	jmp    ffff800000104dc5 <vsprintf+0x2a6>
ffff800000104db1:	48 8b 45 b8          	mov    -0x48(%rbp),%rax
ffff800000104db5:	48 8b 40 08          	mov    0x8(%rax),%rax
ffff800000104db9:	48 8d 48 08          	lea    0x8(%rax),%rcx
ffff800000104dbd:	48 8b 55 b8          	mov    -0x48(%rbp),%rdx
ffff800000104dc1:	48 89 4a 08          	mov    %rcx,0x8(%rdx)
ffff800000104dc5:	8b 00                	mov    (%rax),%eax
ffff800000104dc7:	89 45 e0             	mov    %eax,-0x20(%rbp)
ffff800000104dca:	8b 45 e0             	mov    -0x20(%rbp),%eax
ffff800000104dcd:	48 8d 4d d0          	lea    -0x30(%rbp),%rcx
ffff800000104dd1:	ba 10 00 00 00       	mov    $0x10,%edx
ffff800000104dd6:	48 89 ce             	mov    %rcx,%rsi
ffff800000104dd9:	89 c7                	mov    %eax,%edi
ffff800000104ddb:	48 b8 13 55 ff ff ff 	movabs $0xffffffffffff5513,%rax
ffff800000104de2:	ff ff ff 
ffff800000104de5:	48 8d 04 03          	lea    (%rbx,%rax,1),%rax
ffff800000104de9:	ff d0                	call   *%rax
ffff800000104deb:	48 83 45 e8 01       	addq   $0x1,-0x18(%rbp)
ffff800000104df0:	48 8b 45 e8          	mov    -0x18(%rbp),%rax
ffff800000104df4:	0f b6 00             	movzbl (%rax),%eax
ffff800000104df7:	88 45 e7             	mov    %al,-0x19(%rbp)
ffff800000104dfa:	90                   	nop
ffff800000104dfb:	80 7d e7 00          	cmpb   $0x0,-0x19(%rbp)
ffff800000104dff:	0f 85 68 fd ff ff    	jne    ffff800000104b6d <vsprintf+0x4e>
ffff800000104e05:	48 8b 45 c8          	mov    -0x38(%rbp),%rax
ffff800000104e09:	48 89 c7             	mov    %rax,%rdi
ffff800000104e0c:	49 89 df             	mov    %rbx,%r15
ffff800000104e0f:	48 b8 42 5b ff ff ff 	movabs $0xffffffffffff5b42,%rax
ffff800000104e16:	ff ff ff 
ffff800000104e19:	48 01 d8             	add    %rbx,%rax
ffff800000104e1c:	ff d0                	call   *%rax
ffff800000104e1e:	48 83 c4 40          	add    $0x40,%rsp
ffff800000104e22:	5b                   	pop    %rbx
ffff800000104e23:	41 5f                	pop    %r15
ffff800000104e25:	5d                   	pop    %rbp
ffff800000104e26:	c3                   	ret    

ffff800000104e27 <sprintf>:
ffff800000104e27:	f3 0f 1e fa          	endbr64 
ffff800000104e2b:	55                   	push   %rbp
ffff800000104e2c:	48 89 e5             	mov    %rsp,%rbp
ffff800000104e2f:	48 81 ec e0 00 00 00 	sub    $0xe0,%rsp
ffff800000104e36:	4c 8d 15 f9 ff ff ff 	lea    -0x7(%rip),%r10        # ffff800000104e36 <sprintf+0xf>
ffff800000104e3d:	49 bb 22 a7 00 00 00 	movabs $0xa722,%r11
ffff800000104e44:	00 00 00 
ffff800000104e47:	4d 01 da             	add    %r11,%r10
ffff800000104e4a:	48 89 bd 28 ff ff ff 	mov    %rdi,-0xd8(%rbp)
ffff800000104e51:	48 89 b5 20 ff ff ff 	mov    %rsi,-0xe0(%rbp)
ffff800000104e58:	48 89 95 60 ff ff ff 	mov    %rdx,-0xa0(%rbp)
ffff800000104e5f:	48 89 8d 68 ff ff ff 	mov    %rcx,-0x98(%rbp)
ffff800000104e66:	4c 89 85 70 ff ff ff 	mov    %r8,-0x90(%rbp)
ffff800000104e6d:	4c 89 8d 78 ff ff ff 	mov    %r9,-0x88(%rbp)
ffff800000104e74:	84 c0                	test   %al,%al
ffff800000104e76:	74 20                	je     ffff800000104e98 <sprintf+0x71>
ffff800000104e78:	0f 29 45 80          	movaps %xmm0,-0x80(%rbp)
ffff800000104e7c:	0f 29 4d 90          	movaps %xmm1,-0x70(%rbp)
ffff800000104e80:	0f 29 55 a0          	movaps %xmm2,-0x60(%rbp)
ffff800000104e84:	0f 29 5d b0          	movaps %xmm3,-0x50(%rbp)
ffff800000104e88:	0f 29 65 c0          	movaps %xmm4,-0x40(%rbp)
ffff800000104e8c:	0f 29 6d d0          	movaps %xmm5,-0x30(%rbp)
ffff800000104e90:	0f 29 75 e0          	movaps %xmm6,-0x20(%rbp)
ffff800000104e94:	0f 29 7d f0          	movaps %xmm7,-0x10(%rbp)
ffff800000104e98:	c7 85 30 ff ff ff 10 	movl   $0x10,-0xd0(%rbp)
ffff800000104e9f:	00 00 00 
ffff800000104ea2:	c7 85 34 ff ff ff 30 	movl   $0x30,-0xcc(%rbp)
ffff800000104ea9:	00 00 00 
ffff800000104eac:	48 8d 45 10          	lea    0x10(%rbp),%rax
ffff800000104eb0:	48 89 85 38 ff ff ff 	mov    %rax,-0xc8(%rbp)
ffff800000104eb7:	48 8d 85 50 ff ff ff 	lea    -0xb0(%rbp),%rax
ffff800000104ebe:	48 89 85 40 ff ff ff 	mov    %rax,-0xc0(%rbp)
ffff800000104ec5:	48 8d 95 30 ff ff ff 	lea    -0xd0(%rbp),%rdx
ffff800000104ecc:	48 8b 8d 20 ff ff ff 	mov    -0xe0(%rbp),%rcx
ffff800000104ed3:	48 8b 85 28 ff ff ff 	mov    -0xd8(%rbp),%rax
ffff800000104eda:	48 89 ce             	mov    %rcx,%rsi
ffff800000104edd:	48 89 c7             	mov    %rax,%rdi
ffff800000104ee0:	48 b8 c7 55 ff ff ff 	movabs $0xffffffffffff55c7,%rax
ffff800000104ee7:	ff ff ff 
ffff800000104eea:	49 8d 04 02          	lea    (%r10,%rax,1),%rax
ffff800000104eee:	ff d0                	call   *%rax
ffff800000104ef0:	89 85 4c ff ff ff    	mov    %eax,-0xb4(%rbp)
ffff800000104ef6:	8b 85 4c ff ff ff    	mov    -0xb4(%rbp),%eax
ffff800000104efc:	c9                   	leave  
ffff800000104efd:	c3                   	ret    

ffff800000104efe <memset>:
ffff800000104efe:	f3 0f 1e fa          	endbr64 
ffff800000104f02:	55                   	push   %rbp
ffff800000104f03:	48 89 e5             	mov    %rsp,%rbp
ffff800000104f06:	48 8d 05 f9 ff ff ff 	lea    -0x7(%rip),%rax        # ffff800000104f06 <memset+0x8>
ffff800000104f0d:	49 bb 52 a6 00 00 00 	movabs $0xa652,%r11
ffff800000104f14:	00 00 00 
ffff800000104f17:	4c 01 d8             	add    %r11,%rax
ffff800000104f1a:	48 89 7d e8          	mov    %rdi,-0x18(%rbp)
ffff800000104f1e:	89 f0                	mov    %esi,%eax
ffff800000104f20:	89 55 e0             	mov    %edx,-0x20(%rbp)
ffff800000104f23:	88 45 e4             	mov    %al,-0x1c(%rbp)
ffff800000104f26:	48 8b 45 e8          	mov    -0x18(%rbp),%rax
ffff800000104f2a:	48 89 45 f8          	mov    %rax,-0x8(%rbp)
ffff800000104f2e:	eb 12                	jmp    ffff800000104f42 <memset+0x44>
ffff800000104f30:	48 8b 45 f8          	mov    -0x8(%rbp),%rax
ffff800000104f34:	48 8d 50 01          	lea    0x1(%rax),%rdx
ffff800000104f38:	48 89 55 f8          	mov    %rdx,-0x8(%rbp)
ffff800000104f3c:	0f b6 55 e4          	movzbl -0x1c(%rbp),%edx
ffff800000104f40:	88 10                	mov    %dl,(%rax)
ffff800000104f42:	8b 45 e0             	mov    -0x20(%rbp),%eax
ffff800000104f45:	8d 50 ff             	lea    -0x1(%rax),%edx
ffff800000104f48:	89 55 e0             	mov    %edx,-0x20(%rbp)
ffff800000104f4b:	85 c0                	test   %eax,%eax
ffff800000104f4d:	75 e1                	jne    ffff800000104f30 <memset+0x32>
ffff800000104f4f:	90                   	nop
ffff800000104f50:	90                   	nop
ffff800000104f51:	5d                   	pop    %rbp
ffff800000104f52:	c3                   	ret    

ffff800000104f53 <memcpy>:
ffff800000104f53:	f3 0f 1e fa          	endbr64 
ffff800000104f57:	55                   	push   %rbp
ffff800000104f58:	48 89 e5             	mov    %rsp,%rbp
ffff800000104f5b:	48 8d 05 f9 ff ff ff 	lea    -0x7(%rip),%rax        # ffff800000104f5b <memcpy+0x8>
ffff800000104f62:	49 bb fd a5 00 00 00 	movabs $0xa5fd,%r11
ffff800000104f69:	00 00 00 
ffff800000104f6c:	4c 01 d8             	add    %r11,%rax
ffff800000104f6f:	48 89 7d e8          	mov    %rdi,-0x18(%rbp)
ffff800000104f73:	48 89 75 e0          	mov    %rsi,-0x20(%rbp)
ffff800000104f77:	89 55 dc             	mov    %edx,-0x24(%rbp)
ffff800000104f7a:	48 8b 45 e8          	mov    -0x18(%rbp),%rax
ffff800000104f7e:	48 89 45 f8          	mov    %rax,-0x8(%rbp)
ffff800000104f82:	48 8b 45 e0          	mov    -0x20(%rbp),%rax
ffff800000104f86:	48 89 45 f0          	mov    %rax,-0x10(%rbp)
ffff800000104f8a:	eb 1d                	jmp    ffff800000104fa9 <memcpy+0x56>
ffff800000104f8c:	48 8b 55 f0          	mov    -0x10(%rbp),%rdx
ffff800000104f90:	48 8d 42 01          	lea    0x1(%rdx),%rax
ffff800000104f94:	48 89 45 f0          	mov    %rax,-0x10(%rbp)
ffff800000104f98:	48 8b 45 f8          	mov    -0x8(%rbp),%rax
ffff800000104f9c:	48 8d 48 01          	lea    0x1(%rax),%rcx
ffff800000104fa0:	48 89 4d f8          	mov    %rcx,-0x8(%rbp)
ffff800000104fa4:	0f b6 12             	movzbl (%rdx),%edx
ffff800000104fa7:	88 10                	mov    %dl,(%rax)
ffff800000104fa9:	8b 45 dc             	mov    -0x24(%rbp),%eax
ffff800000104fac:	8d 50 ff             	lea    -0x1(%rax),%edx
ffff800000104faf:	89 55 dc             	mov    %edx,-0x24(%rbp)
ffff800000104fb2:	85 c0                	test   %eax,%eax
ffff800000104fb4:	75 d6                	jne    ffff800000104f8c <memcpy+0x39>
ffff800000104fb6:	90                   	nop
ffff800000104fb7:	90                   	nop
ffff800000104fb8:	5d                   	pop    %rbp
ffff800000104fb9:	c3                   	ret    

ffff800000104fba <memcmp>:
ffff800000104fba:	f3 0f 1e fa          	endbr64 
ffff800000104fbe:	55                   	push   %rbp
ffff800000104fbf:	48 89 e5             	mov    %rsp,%rbp
ffff800000104fc2:	48 8d 05 f9 ff ff ff 	lea    -0x7(%rip),%rax        # ffff800000104fc2 <memcmp+0x8>
ffff800000104fc9:	49 bb 96 a5 00 00 00 	movabs $0xa596,%r11
ffff800000104fd0:	00 00 00 
ffff800000104fd3:	4c 01 d8             	add    %r11,%rax
ffff800000104fd6:	48 89 7d e8          	mov    %rdi,-0x18(%rbp)
ffff800000104fda:	48 89 75 e0          	mov    %rsi,-0x20(%rbp)
ffff800000104fde:	89 55 dc             	mov    %edx,-0x24(%rbp)
ffff800000104fe1:	48 8b 45 e8          	mov    -0x18(%rbp),%rax
ffff800000104fe5:	48 89 45 f8          	mov    %rax,-0x8(%rbp)
ffff800000104fe9:	48 8b 45 e0          	mov    -0x20(%rbp),%rax
ffff800000104fed:	48 89 45 f0          	mov    %rax,-0x10(%rbp)
ffff800000104ff1:	eb 3c                	jmp    ffff80000010502f <memcmp+0x75>
ffff800000104ff3:	48 8b 45 f8          	mov    -0x8(%rbp),%rax
ffff800000104ff7:	0f b6 10             	movzbl (%rax),%edx
ffff800000104ffa:	48 8b 45 f0          	mov    -0x10(%rbp),%rax
ffff800000104ffe:	0f b6 00             	movzbl (%rax),%eax
ffff800000105001:	38 c2                	cmp    %al,%dl
ffff800000105003:	74 20                	je     ffff800000105025 <memcmp+0x6b>
ffff800000105005:	48 8b 45 f8          	mov    -0x8(%rbp),%rax
ffff800000105009:	0f b6 10             	movzbl (%rax),%edx
ffff80000010500c:	48 8b 45 f0          	mov    -0x10(%rbp),%rax
ffff800000105010:	0f b6 00             	movzbl (%rax),%eax
ffff800000105013:	38 c2                	cmp    %al,%dl
ffff800000105015:	7e 07                	jle    ffff80000010501e <memcmp+0x64>
ffff800000105017:	b8 01 00 00 00       	mov    $0x1,%eax
ffff80000010501c:	eb 23                	jmp    ffff800000105041 <memcmp+0x87>
ffff80000010501e:	b8 ff ff ff ff       	mov    $0xffffffff,%eax
ffff800000105023:	eb 1c                	jmp    ffff800000105041 <memcmp+0x87>
ffff800000105025:	48 83 45 f8 01       	addq   $0x1,-0x8(%rbp)
ffff80000010502a:	48 83 45 f0 01       	addq   $0x1,-0x10(%rbp)
ffff80000010502f:	8b 45 dc             	mov    -0x24(%rbp),%eax
ffff800000105032:	8d 50 ff             	lea    -0x1(%rax),%edx
ffff800000105035:	89 55 dc             	mov    %edx,-0x24(%rbp)
ffff800000105038:	85 c0                	test   %eax,%eax
ffff80000010503a:	75 b7                	jne    ffff800000104ff3 <memcmp+0x39>
ffff80000010503c:	b8 00 00 00 00       	mov    $0x0,%eax
ffff800000105041:	5d                   	pop    %rbp
ffff800000105042:	c3                   	ret    

ffff800000105043 <strcpy>:
ffff800000105043:	f3 0f 1e fa          	endbr64 
ffff800000105047:	55                   	push   %rbp
ffff800000105048:	48 89 e5             	mov    %rsp,%rbp
ffff80000010504b:	48 8d 05 f9 ff ff ff 	lea    -0x7(%rip),%rax        # ffff80000010504b <strcpy+0x8>
ffff800000105052:	49 bb 0d a5 00 00 00 	movabs $0xa50d,%r11
ffff800000105059:	00 00 00 
ffff80000010505c:	4c 01 d8             	add    %r11,%rax
ffff80000010505f:	48 89 7d e8          	mov    %rdi,-0x18(%rbp)
ffff800000105063:	48 89 75 e0          	mov    %rsi,-0x20(%rbp)
ffff800000105067:	48 8b 45 e8          	mov    -0x18(%rbp),%rax
ffff80000010506b:	48 89 45 f8          	mov    %rax,-0x8(%rbp)
ffff80000010506f:	90                   	nop
ffff800000105070:	48 8b 55 e0          	mov    -0x20(%rbp),%rdx
ffff800000105074:	48 8d 42 01          	lea    0x1(%rdx),%rax
ffff800000105078:	48 89 45 e0          	mov    %rax,-0x20(%rbp)
ffff80000010507c:	48 8b 45 e8          	mov    -0x18(%rbp),%rax
ffff800000105080:	48 8d 48 01          	lea    0x1(%rax),%rcx
ffff800000105084:	48 89 4d e8          	mov    %rcx,-0x18(%rbp)
ffff800000105088:	0f b6 12             	movzbl (%rdx),%edx
ffff80000010508b:	88 10                	mov    %dl,(%rax)
ffff80000010508d:	0f b6 00             	movzbl (%rax),%eax
ffff800000105090:	84 c0                	test   %al,%al
ffff800000105092:	75 dc                	jne    ffff800000105070 <strcpy+0x2d>
ffff800000105094:	48 8b 45 f8          	mov    -0x8(%rbp),%rax
ffff800000105098:	5d                   	pop    %rbp
ffff800000105099:	c3                   	ret    

ffff80000010509a <strlen>:
ffff80000010509a:	f3 0f 1e fa          	endbr64 
ffff80000010509e:	55                   	push   %rbp
ffff80000010509f:	48 89 e5             	mov    %rsp,%rbp
ffff8000001050a2:	48 8d 05 f9 ff ff ff 	lea    -0x7(%rip),%rax        # ffff8000001050a2 <strlen+0x8>
ffff8000001050a9:	49 bb b6 a4 00 00 00 	movabs $0xa4b6,%r11
ffff8000001050b0:	00 00 00 
ffff8000001050b3:	4c 01 d8             	add    %r11,%rax
ffff8000001050b6:	48 89 7d e8          	mov    %rdi,-0x18(%rbp)
ffff8000001050ba:	48 8b 45 e8          	mov    -0x18(%rbp),%rax
ffff8000001050be:	48 89 45 f8          	mov    %rax,-0x8(%rbp)
ffff8000001050c2:	90                   	nop
ffff8000001050c3:	48 8b 45 f8          	mov    -0x8(%rbp),%rax
ffff8000001050c7:	48 8d 50 01          	lea    0x1(%rax),%rdx
ffff8000001050cb:	48 89 55 f8          	mov    %rdx,-0x8(%rbp)
ffff8000001050cf:	0f b6 00             	movzbl (%rax),%eax
ffff8000001050d2:	84 c0                	test   %al,%al
ffff8000001050d4:	75 ed                	jne    ffff8000001050c3 <strlen+0x29>
ffff8000001050d6:	48 8b 45 f8          	mov    -0x8(%rbp),%rax
ffff8000001050da:	48 2b 45 e8          	sub    -0x18(%rbp),%rax
ffff8000001050de:	83 e8 01             	sub    $0x1,%eax
ffff8000001050e1:	5d                   	pop    %rbp
ffff8000001050e2:	c3                   	ret    

ffff8000001050e3 <strcmp>:
ffff8000001050e3:	f3 0f 1e fa          	endbr64 
ffff8000001050e7:	55                   	push   %rbp
ffff8000001050e8:	48 89 e5             	mov    %rsp,%rbp
ffff8000001050eb:	48 8d 05 f9 ff ff ff 	lea    -0x7(%rip),%rax        # ffff8000001050eb <strcmp+0x8>
ffff8000001050f2:	49 bb 6d a4 00 00 00 	movabs $0xa46d,%r11
ffff8000001050f9:	00 00 00 
ffff8000001050fc:	4c 01 d8             	add    %r11,%rax
ffff8000001050ff:	48 89 7d f8          	mov    %rdi,-0x8(%rbp)
ffff800000105103:	48 89 75 f0          	mov    %rsi,-0x10(%rbp)
ffff800000105107:	eb 0a                	jmp    ffff800000105113 <strcmp+0x30>
ffff800000105109:	48 83 45 f8 01       	addq   $0x1,-0x8(%rbp)
ffff80000010510e:	48 83 45 f0 01       	addq   $0x1,-0x10(%rbp)
ffff800000105113:	48 8b 45 f8          	mov    -0x8(%rbp),%rax
ffff800000105117:	0f b6 00             	movzbl (%rax),%eax
ffff80000010511a:	84 c0                	test   %al,%al
ffff80000010511c:	74 12                	je     ffff800000105130 <strcmp+0x4d>
ffff80000010511e:	48 8b 45 f8          	mov    -0x8(%rbp),%rax
ffff800000105122:	0f b6 10             	movzbl (%rax),%edx
ffff800000105125:	48 8b 45 f0          	mov    -0x10(%rbp),%rax
ffff800000105129:	0f b6 00             	movzbl (%rax),%eax
ffff80000010512c:	38 c2                	cmp    %al,%dl
ffff80000010512e:	74 d9                	je     ffff800000105109 <strcmp+0x26>
ffff800000105130:	48 8b 45 f8          	mov    -0x8(%rbp),%rax
ffff800000105134:	0f b6 10             	movzbl (%rax),%edx
ffff800000105137:	48 8b 45 f0          	mov    -0x10(%rbp),%rax
ffff80000010513b:	0f b6 00             	movzbl (%rax),%eax
ffff80000010513e:	38 c2                	cmp    %al,%dl
ffff800000105140:	7c 15                	jl     ffff800000105157 <strcmp+0x74>
ffff800000105142:	48 8b 45 f8          	mov    -0x8(%rbp),%rax
ffff800000105146:	0f b6 10             	movzbl (%rax),%edx
ffff800000105149:	48 8b 45 f0          	mov    -0x10(%rbp),%rax
ffff80000010514d:	0f b6 00             	movzbl (%rax),%eax
ffff800000105150:	38 c2                	cmp    %al,%dl
ffff800000105152:	0f 9f c0             	setg   %al
ffff800000105155:	eb 05                	jmp    ffff80000010515c <strcmp+0x79>
ffff800000105157:	b8 ff ff ff ff       	mov    $0xffffffff,%eax
ffff80000010515c:	5d                   	pop    %rbp
ffff80000010515d:	c3                   	ret    

ffff80000010515e <strchr>:
ffff80000010515e:	f3 0f 1e fa          	endbr64 
ffff800000105162:	55                   	push   %rbp
ffff800000105163:	48 89 e5             	mov    %rsp,%rbp
ffff800000105166:	48 8d 05 f9 ff ff ff 	lea    -0x7(%rip),%rax        # ffff800000105166 <strchr+0x8>
ffff80000010516d:	49 bb f2 a3 00 00 00 	movabs $0xa3f2,%r11
ffff800000105174:	00 00 00 
ffff800000105177:	4c 01 d8             	add    %r11,%rax
ffff80000010517a:	48 89 7d f8          	mov    %rdi,-0x8(%rbp)
ffff80000010517e:	89 f0                	mov    %esi,%eax
ffff800000105180:	88 45 f4             	mov    %al,-0xc(%rbp)
ffff800000105183:	eb 1d                	jmp    ffff8000001051a2 <strchr+0x44>
ffff800000105185:	48 8b 45 f8          	mov    -0x8(%rbp),%rax
ffff800000105189:	0f b6 00             	movzbl (%rax),%eax
ffff80000010518c:	0f be d0             	movsbl %al,%edx
ffff80000010518f:	0f b6 45 f4          	movzbl -0xc(%rbp),%eax
ffff800000105193:	39 c2                	cmp    %eax,%edx
ffff800000105195:	75 06                	jne    ffff80000010519d <strchr+0x3f>
ffff800000105197:	48 8b 45 f8          	mov    -0x8(%rbp),%rax
ffff80000010519b:	eb 15                	jmp    ffff8000001051b2 <strchr+0x54>
ffff80000010519d:	48 83 45 f8 01       	addq   $0x1,-0x8(%rbp)
ffff8000001051a2:	48 8b 45 f8          	mov    -0x8(%rbp),%rax
ffff8000001051a6:	0f b6 00             	movzbl (%rax),%eax
ffff8000001051a9:	84 c0                	test   %al,%al
ffff8000001051ab:	75 d8                	jne    ffff800000105185 <strchr+0x27>
ffff8000001051ad:	b8 00 00 00 00       	mov    $0x0,%eax
ffff8000001051b2:	5d                   	pop    %rbp
ffff8000001051b3:	c3                   	ret    

ffff8000001051b4 <strrchr>:
ffff8000001051b4:	f3 0f 1e fa          	endbr64 
ffff8000001051b8:	55                   	push   %rbp
ffff8000001051b9:	48 89 e5             	mov    %rsp,%rbp
ffff8000001051bc:	48 8d 05 f9 ff ff ff 	lea    -0x7(%rip),%rax        # ffff8000001051bc <strrchr+0x8>
ffff8000001051c3:	49 bb 9c a3 00 00 00 	movabs $0xa39c,%r11
ffff8000001051ca:	00 00 00 
ffff8000001051cd:	4c 01 d8             	add    %r11,%rax
ffff8000001051d0:	48 89 7d e8          	mov    %rdi,-0x18(%rbp)
ffff8000001051d4:	89 f0                	mov    %esi,%eax
ffff8000001051d6:	88 45 e4             	mov    %al,-0x1c(%rbp)
ffff8000001051d9:	48 c7 45 f8 00 00 00 	movq   $0x0,-0x8(%rbp)
ffff8000001051e0:	00 
ffff8000001051e1:	eb 1f                	jmp    ffff800000105202 <strrchr+0x4e>
ffff8000001051e3:	48 8b 45 e8          	mov    -0x18(%rbp),%rax
ffff8000001051e7:	0f b6 00             	movzbl (%rax),%eax
ffff8000001051ea:	0f be d0             	movsbl %al,%edx
ffff8000001051ed:	0f b6 45 e4          	movzbl -0x1c(%rbp),%eax
ffff8000001051f1:	39 c2                	cmp    %eax,%edx
ffff8000001051f3:	75 08                	jne    ffff8000001051fd <strrchr+0x49>
ffff8000001051f5:	48 8b 45 e8          	mov    -0x18(%rbp),%rax
ffff8000001051f9:	48 89 45 f8          	mov    %rax,-0x8(%rbp)
ffff8000001051fd:	48 83 45 e8 01       	addq   $0x1,-0x18(%rbp)
ffff800000105202:	48 8b 45 e8          	mov    -0x18(%rbp),%rax
ffff800000105206:	0f b6 00             	movzbl (%rax),%eax
ffff800000105209:	84 c0                	test   %al,%al
ffff80000010520b:	75 d6                	jne    ffff8000001051e3 <strrchr+0x2f>
ffff80000010520d:	48 8b 45 f8          	mov    -0x8(%rbp),%rax
ffff800000105211:	5d                   	pop    %rbp
ffff800000105212:	c3                   	ret    

ffff800000105213 <strcat>:
ffff800000105213:	f3 0f 1e fa          	endbr64 
ffff800000105217:	55                   	push   %rbp
ffff800000105218:	48 89 e5             	mov    %rsp,%rbp
ffff80000010521b:	48 8d 05 f9 ff ff ff 	lea    -0x7(%rip),%rax        # ffff80000010521b <strcat+0x8>
ffff800000105222:	49 bb 3d a3 00 00 00 	movabs $0xa33d,%r11
ffff800000105229:	00 00 00 
ffff80000010522c:	4c 01 d8             	add    %r11,%rax
ffff80000010522f:	48 89 7d e8          	mov    %rdi,-0x18(%rbp)
ffff800000105233:	48 89 75 e0          	mov    %rsi,-0x20(%rbp)
ffff800000105237:	48 8b 45 e8          	mov    -0x18(%rbp),%rax
ffff80000010523b:	48 89 45 f8          	mov    %rax,-0x8(%rbp)
ffff80000010523f:	90                   	nop
ffff800000105240:	48 8b 45 f8          	mov    -0x8(%rbp),%rax
ffff800000105244:	48 8d 50 01          	lea    0x1(%rax),%rdx
ffff800000105248:	48 89 55 f8          	mov    %rdx,-0x8(%rbp)
ffff80000010524c:	0f b6 00             	movzbl (%rax),%eax
ffff80000010524f:	84 c0                	test   %al,%al
ffff800000105251:	75 ed                	jne    ffff800000105240 <strcat+0x2d>
ffff800000105253:	48 83 6d f8 01       	subq   $0x1,-0x8(%rbp)
ffff800000105258:	90                   	nop
ffff800000105259:	48 8b 55 e0          	mov    -0x20(%rbp),%rdx
ffff80000010525d:	48 8d 42 01          	lea    0x1(%rdx),%rax
ffff800000105261:	48 89 45 e0          	mov    %rax,-0x20(%rbp)
ffff800000105265:	48 8b 45 f8          	mov    -0x8(%rbp),%rax
ffff800000105269:	48 8d 48 01          	lea    0x1(%rax),%rcx
ffff80000010526d:	48 89 4d f8          	mov    %rcx,-0x8(%rbp)
ffff800000105271:	0f b6 12             	movzbl (%rdx),%edx
ffff800000105274:	88 10                	mov    %dl,(%rax)
ffff800000105276:	0f b6 00             	movzbl (%rax),%eax
ffff800000105279:	84 c0                	test   %al,%al
ffff80000010527b:	75 dc                	jne    ffff800000105259 <strcat+0x46>
ffff80000010527d:	48 8b 45 e8          	mov    -0x18(%rbp),%rax
ffff800000105281:	5d                   	pop    %rbp
ffff800000105282:	c3                   	ret    

ffff800000105283 <strchrs>:
ffff800000105283:	f3 0f 1e fa          	endbr64 
ffff800000105287:	55                   	push   %rbp
ffff800000105288:	48 89 e5             	mov    %rsp,%rbp
ffff80000010528b:	48 8d 05 f9 ff ff ff 	lea    -0x7(%rip),%rax        # ffff80000010528b <strchrs+0x8>
ffff800000105292:	49 bb cd a2 00 00 00 	movabs $0xa2cd,%r11
ffff800000105299:	00 00 00 
ffff80000010529c:	4c 01 d8             	add    %r11,%rax
ffff80000010529f:	48 89 7d e8          	mov    %rdi,-0x18(%rbp)
ffff8000001052a3:	89 f0                	mov    %esi,%eax
ffff8000001052a5:	88 45 e4             	mov    %al,-0x1c(%rbp)
ffff8000001052a8:	c7 45 fc 00 00 00 00 	movl   $0x0,-0x4(%rbp)
ffff8000001052af:	48 8b 45 e8          	mov    -0x18(%rbp),%rax
ffff8000001052b3:	48 89 45 f0          	mov    %rax,-0x10(%rbp)
ffff8000001052b7:	eb 1b                	jmp    ffff8000001052d4 <strchrs+0x51>
ffff8000001052b9:	48 8b 45 f0          	mov    -0x10(%rbp),%rax
ffff8000001052bd:	0f b6 00             	movzbl (%rax),%eax
ffff8000001052c0:	0f be d0             	movsbl %al,%edx
ffff8000001052c3:	0f b6 45 e4          	movzbl -0x1c(%rbp),%eax
ffff8000001052c7:	39 c2                	cmp    %eax,%edx
ffff8000001052c9:	75 04                	jne    ffff8000001052cf <strchrs+0x4c>
ffff8000001052cb:	83 45 fc 01          	addl   $0x1,-0x4(%rbp)
ffff8000001052cf:	48 83 45 f0 01       	addq   $0x1,-0x10(%rbp)
ffff8000001052d4:	48 8b 45 f0          	mov    -0x10(%rbp),%rax
ffff8000001052d8:	0f b6 00             	movzbl (%rax),%eax
ffff8000001052db:	84 c0                	test   %al,%al
ffff8000001052dd:	75 da                	jne    ffff8000001052b9 <strchrs+0x36>
ffff8000001052df:	8b 45 fc             	mov    -0x4(%rbp),%eax
ffff8000001052e2:	5d                   	pop    %rbp
ffff8000001052e3:	c3                   	ret    

ffff8000001052e4 <init_mouse>:
ffff8000001052e4:	f3 0f 1e fa          	endbr64 
ffff8000001052e8:	55                   	push   %rbp
ffff8000001052e9:	48 89 e5             	mov    %rsp,%rbp
ffff8000001052ec:	48 8d 15 f9 ff ff ff 	lea    -0x7(%rip),%rdx        # ffff8000001052ec <init_mouse+0x8>
ffff8000001052f3:	49 bb 6c a2 00 00 00 	movabs $0xa26c,%r11
ffff8000001052fa:	00 00 00 
ffff8000001052fd:	4c 01 da             	add    %r11,%rdx
ffff800000105300:	48 b8 88 0d 00 00 00 	movabs $0xd88,%rax
ffff800000105307:	00 00 00 
ffff80000010530a:	48 8b 04 02          	mov    (%rdx,%rax,1),%rax
ffff80000010530e:	8b 00                	mov    (%rax),%eax
ffff800000105310:	d1 e8                	shr    %eax
ffff800000105312:	89 c1                	mov    %eax,%ecx
ffff800000105314:	48 b8 90 0d 00 00 00 	movabs $0xd90,%rax
ffff80000010531b:	00 00 00 
ffff80000010531e:	89 0c 02             	mov    %ecx,(%rdx,%rax,1)
ffff800000105321:	48 b8 88 0d 00 00 00 	movabs $0xd88,%rax
ffff800000105328:	00 00 00 
ffff80000010532b:	48 8b 04 02          	mov    (%rdx,%rax,1),%rax
ffff80000010532f:	8b 40 04             	mov    0x4(%rax),%eax
ffff800000105332:	d1 e8                	shr    %eax
ffff800000105334:	89 c1                	mov    %eax,%ecx
ffff800000105336:	48 b8 94 0d 00 00 00 	movabs $0xd94,%rax
ffff80000010533d:	00 00 00 
ffff800000105340:	89 0c 02             	mov    %ecx,(%rdx,%rax,1)
ffff800000105343:	b8 00 00 00 00       	mov    $0x0,%eax
ffff800000105348:	48 b9 03 5e ff ff ff 	movabs $0xffffffffffff5e03,%rcx
ffff80000010534f:	ff ff ff 
ffff800000105352:	48 8d 14 0a          	lea    (%rdx,%rcx,1),%rdx
ffff800000105356:	ff d2                	call   *%rdx
ffff800000105358:	90                   	nop
ffff800000105359:	5d                   	pop    %rbp
ffff80000010535a:	c3                   	ret    

ffff80000010535b <draw_mouse>:
ffff80000010535b:	f3 0f 1e fa          	endbr64 
ffff80000010535f:	55                   	push   %rbp
ffff800000105360:	48 89 e5             	mov    %rsp,%rbp
ffff800000105363:	41 57                	push   %r15
ffff800000105365:	53                   	push   %rbx
ffff800000105366:	48 83 ec 20          	sub    $0x20,%rsp
ffff80000010536a:	48 8d 1d f9 ff ff ff 	lea    -0x7(%rip),%rbx        # ffff80000010536a <draw_mouse+0xf>
ffff800000105371:	49 bb ee a1 00 00 00 	movabs $0xa1ee,%r11
ffff800000105378:	00 00 00 
ffff80000010537b:	4c 01 db             	add    %r11,%rbx
ffff80000010537e:	c7 45 e8 00 00 00 00 	movl   $0x0,-0x18(%rbp)
ffff800000105385:	e9 ac 01 00 00       	jmp    ffff800000105536 <draw_mouse+0x1db>
ffff80000010538a:	c7 45 ec 00 00 00 00 	movl   $0x0,-0x14(%rbp)
ffff800000105391:	e9 92 01 00 00       	jmp    ffff800000105528 <draw_mouse+0x1cd>
ffff800000105396:	48 ba 28 dc ff ff ff 	movabs $0xffffffffffffdc28,%rdx
ffff80000010539d:	ff ff ff 
ffff8000001053a0:	8b 45 ec             	mov    -0x14(%rbp),%eax
ffff8000001053a3:	48 63 c8             	movslq %eax,%rcx
ffff8000001053a6:	8b 45 e8             	mov    -0x18(%rbp),%eax
ffff8000001053a9:	48 98                	cltq   
ffff8000001053ab:	48 01 da             	add    %rbx,%rdx
ffff8000001053ae:	48 c1 e0 04          	shl    $0x4,%rax
ffff8000001053b2:	48 01 c8             	add    %rcx,%rax
ffff8000001053b5:	48 01 d0             	add    %rdx,%rax
ffff8000001053b8:	0f b6 00             	movzbl (%rax),%eax
ffff8000001053bb:	3c 2a                	cmp    $0x2a,%al
ffff8000001053bd:	75 5a                	jne    ffff800000105419 <draw_mouse+0xbe>
ffff8000001053bf:	8b 4d dc             	mov    -0x24(%rbp),%ecx
ffff8000001053c2:	b1 00                	mov    $0x0,%cl
ffff8000001053c4:	b8 00 00 00 00       	mov    $0x0,%eax
ffff8000001053c9:	88 c5                	mov    %al,%ch
ffff8000001053cb:	81 e1 ff ff 00 ff    	and    $0xff00ffff,%ecx
ffff8000001053d1:	89 c8                	mov    %ecx,%eax
ffff8000001053d3:	25 ff ff ff 00       	and    $0xffffff,%eax
ffff8000001053d8:	89 45 dc             	mov    %eax,-0x24(%rbp)
ffff8000001053db:	48 b8 94 0d 00 00 00 	movabs $0xd94,%rax
ffff8000001053e2:	00 00 00 
ffff8000001053e5:	8b 14 03             	mov    (%rbx,%rax,1),%edx
ffff8000001053e8:	8b 45 e8             	mov    -0x18(%rbp),%eax
ffff8000001053eb:	8d 0c 02             	lea    (%rdx,%rax,1),%ecx
ffff8000001053ee:	48 b8 90 0d 00 00 00 	movabs $0xd90,%rax
ffff8000001053f5:	00 00 00 
ffff8000001053f8:	8b 14 03             	mov    (%rbx,%rax,1),%edx
ffff8000001053fb:	8b 45 ec             	mov    -0x14(%rbp),%eax
ffff8000001053fe:	01 d0                	add    %edx,%eax
ffff800000105400:	8b 55 dc             	mov    -0x24(%rbp),%edx
ffff800000105403:	89 ce                	mov    %ecx,%esi
ffff800000105405:	89 c7                	mov    %eax,%edi
ffff800000105407:	49 89 df             	mov    %rbx,%r15
ffff80000010540a:	48 b8 c1 4c ff ff ff 	movabs $0xffffffffffff4cc1,%rax
ffff800000105411:	ff ff ff 
ffff800000105414:	48 01 d8             	add    %rbx,%rax
ffff800000105417:	ff d0                	call   *%rax
ffff800000105419:	48 ba 28 dc ff ff ff 	movabs $0xffffffffffffdc28,%rdx
ffff800000105420:	ff ff ff 
ffff800000105423:	8b 45 ec             	mov    -0x14(%rbp),%eax
ffff800000105426:	48 63 c8             	movslq %eax,%rcx
ffff800000105429:	8b 45 e8             	mov    -0x18(%rbp),%eax
ffff80000010542c:	48 98                	cltq   
ffff80000010542e:	48 01 da             	add    %rbx,%rdx
ffff800000105431:	48 c1 e0 04          	shl    $0x4,%rax
ffff800000105435:	48 01 c8             	add    %rcx,%rax
ffff800000105438:	48 01 d0             	add    %rdx,%rax
ffff80000010543b:	0f b6 00             	movzbl (%rax),%eax
ffff80000010543e:	3c 4f                	cmp    $0x4f,%al
ffff800000105440:	75 5a                	jne    ffff80000010549c <draw_mouse+0x141>
ffff800000105442:	8b 4d d8             	mov    -0x28(%rbp),%ecx
ffff800000105445:	b1 ff                	mov    $0xff,%cl
ffff800000105447:	b8 ff ff ff ff       	mov    $0xffffffff,%eax
ffff80000010544c:	88 c5                	mov    %al,%ch
ffff80000010544e:	81 c9 00 00 ff 00    	or     $0xff0000,%ecx
ffff800000105454:	89 c8                	mov    %ecx,%eax
ffff800000105456:	25 ff ff ff 00       	and    $0xffffff,%eax
ffff80000010545b:	89 45 d8             	mov    %eax,-0x28(%rbp)
ffff80000010545e:	48 b8 94 0d 00 00 00 	movabs $0xd94,%rax
ffff800000105465:	00 00 00 
ffff800000105468:	8b 14 03             	mov    (%rbx,%rax,1),%edx
ffff80000010546b:	8b 45 e8             	mov    -0x18(%rbp),%eax
ffff80000010546e:	8d 0c 02             	lea    (%rdx,%rax,1),%ecx
ffff800000105471:	48 b8 90 0d 00 00 00 	movabs $0xd90,%rax
ffff800000105478:	00 00 00 
ffff80000010547b:	8b 14 03             	mov    (%rbx,%rax,1),%edx
ffff80000010547e:	8b 45 ec             	mov    -0x14(%rbp),%eax
ffff800000105481:	01 d0                	add    %edx,%eax
ffff800000105483:	8b 55 d8             	mov    -0x28(%rbp),%edx
ffff800000105486:	89 ce                	mov    %ecx,%esi
ffff800000105488:	89 c7                	mov    %eax,%edi
ffff80000010548a:	49 89 df             	mov    %rbx,%r15
ffff80000010548d:	48 b8 c1 4c ff ff ff 	movabs $0xffffffffffff4cc1,%rax
ffff800000105494:	ff ff ff 
ffff800000105497:	48 01 d8             	add    %rbx,%rax
ffff80000010549a:	ff d0                	call   *%rax
ffff80000010549c:	48 ba 28 dc ff ff ff 	movabs $0xffffffffffffdc28,%rdx
ffff8000001054a3:	ff ff ff 
ffff8000001054a6:	8b 45 ec             	mov    -0x14(%rbp),%eax
ffff8000001054a9:	48 63 c8             	movslq %eax,%rcx
ffff8000001054ac:	8b 45 e8             	mov    -0x18(%rbp),%eax
ffff8000001054af:	48 98                	cltq   
ffff8000001054b1:	48 01 da             	add    %rbx,%rdx
ffff8000001054b4:	48 c1 e0 04          	shl    $0x4,%rax
ffff8000001054b8:	48 01 c8             	add    %rcx,%rax
ffff8000001054bb:	48 01 d0             	add    %rdx,%rax
ffff8000001054be:	0f b6 00             	movzbl (%rax),%eax
ffff8000001054c1:	3c 2e                	cmp    $0x2e,%al
ffff8000001054c3:	75 5f                	jne    ffff800000105524 <draw_mouse+0x1c9>
ffff8000001054c5:	8b 4d d4             	mov    -0x2c(%rbp),%ecx
ffff8000001054c8:	b1 64                	mov    $0x64,%cl
ffff8000001054ca:	b8 64 00 00 00       	mov    $0x64,%eax
ffff8000001054cf:	88 c5                	mov    %al,%ch
ffff8000001054d1:	81 e1 ff ff 00 ff    	and    $0xff00ffff,%ecx
ffff8000001054d7:	89 c8                	mov    %ecx,%eax
ffff8000001054d9:	0d 00 00 64 00       	or     $0x640000,%eax
ffff8000001054de:	25 ff ff ff 00       	and    $0xffffff,%eax
ffff8000001054e3:	89 45 d4             	mov    %eax,-0x2c(%rbp)
ffff8000001054e6:	48 b8 94 0d 00 00 00 	movabs $0xd94,%rax
ffff8000001054ed:	00 00 00 
ffff8000001054f0:	8b 14 03             	mov    (%rbx,%rax,1),%edx
ffff8000001054f3:	8b 45 e8             	mov    -0x18(%rbp),%eax
ffff8000001054f6:	8d 0c 02             	lea    (%rdx,%rax,1),%ecx
ffff8000001054f9:	48 b8 90 0d 00 00 00 	movabs $0xd90,%rax
ffff800000105500:	00 00 00 
ffff800000105503:	8b 14 03             	mov    (%rbx,%rax,1),%edx
ffff800000105506:	8b 45 ec             	mov    -0x14(%rbp),%eax
ffff800000105509:	01 d0                	add    %edx,%eax
ffff80000010550b:	8b 55 d4             	mov    -0x2c(%rbp),%edx
ffff80000010550e:	89 ce                	mov    %ecx,%esi
ffff800000105510:	89 c7                	mov    %eax,%edi
ffff800000105512:	49 89 df             	mov    %rbx,%r15
ffff800000105515:	48 b8 c1 4c ff ff ff 	movabs $0xffffffffffff4cc1,%rax
ffff80000010551c:	ff ff ff 
ffff80000010551f:	48 01 d8             	add    %rbx,%rax
ffff800000105522:	ff d0                	call   *%rax
ffff800000105524:	83 45 ec 01          	addl   $0x1,-0x14(%rbp)
ffff800000105528:	83 7d ec 0f          	cmpl   $0xf,-0x14(%rbp)
ffff80000010552c:	0f 8e 64 fe ff ff    	jle    ffff800000105396 <draw_mouse+0x3b>
ffff800000105532:	83 45 e8 01          	addl   $0x1,-0x18(%rbp)
ffff800000105536:	83 7d e8 0f          	cmpl   $0xf,-0x18(%rbp)
ffff80000010553a:	0f 8e 4a fe ff ff    	jle    ffff80000010538a <draw_mouse+0x2f>
ffff800000105540:	90                   	nop
ffff800000105541:	48 83 c4 20          	add    $0x20,%rsp
ffff800000105545:	5b                   	pop    %rbx
ffff800000105546:	41 5f                	pop    %r15
ffff800000105548:	5d                   	pop    %rbp
ffff800000105549:	c3                   	ret    
ffff80000010554a:	66 0f 1f 44 00 00    	nopw   0x0(%rax,%rax,1)

ffff800000105550 <_start>:
ffff800000105550:	66 8c d0             	mov    %ss,%ax
ffff800000105553:	8e d8                	mov    %eax,%ds
ffff800000105555:	8e c0                	mov    %eax,%es
ffff800000105557:	8e e0                	mov    %eax,%fs
ffff800000105559:	8e d0                	mov    %eax,%ss
ffff80000010555b:	bc 00 7e 00 00       	mov    $0x7e00,%esp
ffff800000105560:	48 c7 c0 00 10 10 00 	mov    $0x101000,%rax
ffff800000105567:	0f 22 d8             	mov    %rax,%cr3
ffff80000010556a:	0f 01 15 97 7d 00 00 	lgdt   0x7d97(%rip)        # ffff80000010d308 <GDT_END>
ffff800000105571:	0f 01 1d 9a 8d 00 00 	lidt   0x8d9a(%rip)        # ffff80000010e312 <IDT_END>
ffff800000105578:	66 b8 10 00          	mov    $0x10,%ax
ffff80000010557c:	8e d8                	mov    %eax,%ds
ffff80000010557e:	8e c0                	mov    %eax,%es
ffff800000105580:	8e e0                	mov    %eax,%fs
ffff800000105582:	8e e8                	mov    %eax,%gs
ffff800000105584:	8e d0                	mov    %eax,%ss
ffff800000105586:	48 c7 c4 00 7e 00 00 	mov    $0x7e00,%rsp
ffff80000010558d:	48 c7 c0 00 10 10 00 	mov    $0x101000,%rax
ffff800000105594:	0f 22 d8             	mov    %rax,%cr3
ffff800000105597:	48 8b 05 05 00 00 00 	mov    0x5(%rip),%rax        # ffff8000001055a3 <switch_seg>
ffff80000010559e:	6a 08                	push   $0x8
ffff8000001055a0:	50                   	push   %rax
ffff8000001055a1:	48 cb                	lretq  

ffff8000001055a3 <switch_seg>:
ffff8000001055a3:	ab                   	stos   %eax,%es:(%rdi)
ffff8000001055a4:	55                   	push   %rbp
ffff8000001055a5:	10 00                	adc    %al,(%rax)
ffff8000001055a7:	00 80 ff ff      	add    %al,-0x38b70001(%rax)

ffff8000001055ab <entry64>:
ffff8000001055ab:	48 c7 c0 10 00 00 00 	mov    $0x10,%rax
ffff8000001055b2:	48 8e d8             	mov    %rax,%ds
ffff8000001055b5:	48 8e c0             	mov    %rax,%es
ffff8000001055b8:	48 8e e8             	mov    %rax,%gs
ffff8000001055bb:	48 8e d0             	mov    %rax,%ss
ffff8000001055be:	48 bc 00 7e 00 00 00 	movabs $0xffff800000007e00,%rsp
ffff8000001055c5:	80 ff ff 

ffff8000001055c8 <setup_IDT>:
ffff8000001055c8:	48 8d 15 ad 00 00 00 	lea    0xad(%rip),%rdx        # ffff80000010567c <ignore_int>
ffff8000001055cf:	48 c7 c0 00 00 08 00 	mov    $0x80000,%rax
ffff8000001055d6:	66 89 d0             	mov    %dx,%ax
ffff8000001055d9:	48 b9 00 00 00 00 00 	movabs $0x8e0000000000,%rcx
ffff8000001055e0:	8e 00 00 
ffff8000001055e3:	48 01 c8             	add    %rcx,%rax
ffff8000001055e6:	89 d1                	mov    %edx,%ecx
ffff8000001055e8:	c1 e9 10             	shr    $0x10,%ecx
ffff8000001055eb:	48 c1 e1 30          	shl    $0x30,%rcx
ffff8000001055ef:	48 01 c8             	add    %rcx,%rax
ffff8000001055f2:	48 c1 ea 20          	shr    $0x20,%rdx
ffff8000001055f6:	48 8d 3d 15 7d 00 00 	lea    0x7d15(%rip),%rdi        # ffff80000010d312 <IDT_Table>
ffff8000001055fd:	48 c7 c1 00 01 00 00 	mov    $0x100,%rcx

ffff800000105604 <rp_sidt>:
ffff800000105604:	48 89 07             	mov    %rax,(%rdi)
ffff800000105607:	48 89 57 08          	mov    %rdx,0x8(%rdi)
ffff80000010560b:	48 83 c7 10          	add    $0x10,%rdi
ffff80000010560f:	48 ff c9             	dec    %rcx
ffff800000105612:	75 f0                	jne    ffff800000105604 <rp_sidt>

ffff800000105614 <setup_TSS64>:
ffff800000105614:	48 8d 15 01 8d 00 00 	lea    0x8d01(%rip),%rdx        # ffff80000010e31c <TSS64_Table>
ffff80000010561b:	48 31 c0             	xor    %rax,%rax
ffff80000010561e:	48 31 c9             	xor    %rcx,%rcx
ffff800000105621:	48 c7 c0 89 00 00 00 	mov    $0x89,%rax
ffff800000105628:	48 c1 e0 28          	shl    $0x28,%rax
ffff80000010562c:	89 d1                	mov    %edx,%ecx
ffff80000010562e:	c1 e9 18             	shr    $0x18,%ecx
ffff800000105631:	48 c1 e1 38          	shl    $0x38,%rcx
ffff800000105635:	48 01 c8             	add    %rcx,%rax
ffff800000105638:	48 31 c9             	xor    %rcx,%rcx
ffff80000010563b:	89 d1                	mov    %edx,%ecx
ffff80000010563d:	81 e1 ff ff ff 00    	and    $0xffffff,%ecx
ffff800000105643:	48 c1 e1 10          	shl    $0x10,%rcx
ffff800000105647:	48 01 c8             	add    %rcx,%rax
ffff80000010564a:	48 83 c0 67          	add    $0x67,%rax
ffff80000010564e:	48 8d 3d 2b 7c 00 00 	lea    0x7c2b(%rip),%rdi        # ffff80000010d280 <GDT_Table>
ffff800000105655:	48 89 47 40          	mov    %rax,0x40(%rdi)
ffff800000105659:	48 c1 ea 20          	shr    $0x20,%rdx
ffff80000010565d:	48 89 57 48          	mov    %rdx,0x48(%rdi)
ffff800000105661:	66 b8 40 00          	mov    $0x40,%ax
ffff800000105665:	0f 00 d8             	ltr    %ax
ffff800000105668:	48 8b 05 05 00 00 00 	mov    0x5(%rip),%rax        # ffff800000105674 <go_to_kernel>
ffff80000010566f:	6a 08                	push   $0x8
ffff800000105671:	50                   	push   %rax
ffff800000105672:	48 cb                	lretq  

ffff800000105674 <go_to_kernel>:
ffff800000105674:	00 40 10             	add    %al,0x10(%rax)
ffff800000105677:	00 00                	add    %al,(%rax)
ffff800000105679:	80 ff ff             	cmp    $0xff,%bh

ffff80000010567c <ignore_int>:
ffff80000010567c:	fc                   	cld    
ffff80000010567d:	50                   	push   %rax
ffff80000010567e:	53                   	push   %rbx
ffff80000010567f:	51                   	push   %rcx
ffff800000105680:	52                   	push   %rdx
ffff800000105681:	55                   	push   %rbp
ffff800000105682:	57                   	push   %rdi
ffff800000105683:	56                   	push   %rsi
ffff800000105684:	41 50                	push   %r8
ffff800000105686:	41 51                	push   %r9
ffff800000105688:	41 52                	push   %r10
ffff80000010568a:	41 53                	push   %r11
ffff80000010568c:	41 54                	push   %r12
ffff80000010568e:	41 55                	push   %r13
ffff800000105690:	41 56                	push   %r14
ffff800000105692:	41 57                	push   %r15
ffff800000105694:	48 8c c0             	mov    %es,%rax
ffff800000105697:	50                   	push   %rax
ffff800000105698:	48 8c d8             	mov    %ds,%rax
ffff80000010569b:	50                   	push   %rax
ffff80000010569c:	48 c7 c0 10 00 00 00 	mov    $0x10,%rax
ffff8000001056a3:	48 8e d8             	mov    %rax,%ds
ffff8000001056a6:	48 8e c0             	mov    %rax,%es
ffff8000001056a9:	e8 72 3f 00 00       	call   ffff800000109620 <interrupt_handle>

ffff8000001056ae <Loop>:
ffff8000001056ae:	eb fe                	jmp    ffff8000001056ae <Loop>
ffff8000001056b0:	58                   	pop    %rax
ffff8000001056b1:	48 8e d8             	mov    %rax,%ds
ffff8000001056b4:	58                   	pop    %rax
ffff8000001056b5:	48 8e c0             	mov    %rax,%es
ffff8000001056b8:	41 5f                	pop    %r15
ffff8000001056ba:	41 5e                	pop    %r14
ffff8000001056bc:	41 5d                	pop    %r13
ffff8000001056be:	41 5c                	pop    %r12
ffff8000001056c0:	41 5b                	pop    %r11
ffff8000001056c2:	41 5a                	pop    %r10
ffff8000001056c4:	41 59                	pop    %r9
ffff8000001056c6:	41 58                	pop    %r8
ffff8000001056c8:	5e                   	pop    %rsi
ffff8000001056c9:	5f                   	pop    %rdi
ffff8000001056ca:	5d                   	pop    %rbp
ffff8000001056cb:	5a                   	pop    %rdx
ffff8000001056cc:	59                   	pop    %rcx
ffff8000001056cd:	5b                   	pop    %rbx
ffff8000001056ce:	58                   	pop    %rax
ffff8000001056cf:	48 cf                	iretq  

ffff8000001056d1 <int_msg>:
ffff8000001056d1:	55                   	push   %rbp
ffff8000001056d2:	6e                   	outsb  %ds:(%rsi),(%dx)
ffff8000001056d3:	6b 6e 6f 77          	imul   $0x77,0x6f(%rsi),%ebp
ffff8000001056d7:	6e                   	outsb  %ds:(%rsi),(%dx)
ffff8000001056d8:	20 69 6e             	and    %ch,0x6e(%rcx)
ffff8000001056db:	74 65                	je     ffff800000105742 <int_msg+0x71>
ffff8000001056dd:	72 72                	jb     ffff800000105751 <int_msg+0x80>
ffff8000001056df:	75 70                	jne    ffff800000105751 <int_msg+0x80>
ffff8000001056e1:	74 20                	je     ffff800000105703 <int_msg+0x32>
ffff8000001056e3:	6f                   	outsl  %ds:(%rsi),(%dx)
ffff8000001056e4:	72 20                	jb     ffff800000105706 <int_msg+0x35>
ffff8000001056e6:	66 61                	data16 (bad) 
ffff8000001056e8:	75 6c                	jne    ffff800000105756 <int_msg+0x85>
ffff8000001056ea:	74 20                	je     ffff80000010570c <int_msg+0x3b>
ffff8000001056ec:	61                   	(bad)  
ffff8000001056ed:	74 20                	je     ffff80000010570f <int_msg+0x3e>
ffff8000001056ef:	52                   	push   %rdx
ffff8000001056f0:	49 50                	rex.WB push %r8
ffff8000001056f2:	0a 00                	or     (%rax),%al
ffff8000001056f4:	0f 1f 40 00          	nopl   0x0(%rax)
	...

ffff800000106550 <__PML4E>:
ffff800000106550:	07                   	(bad)  
ffff800000106551:	20 10                	and    %dl,(%rax)
	...
ffff800000106d4f:	00 07                	add    %al,(%rdi)
ffff800000106d51:	20 10                	and    %dl,(%rax)
	...

ffff800000107550 <__PDPTE>:
ffff800000107550:	07                   	(bad)  
ffff800000107551:	30 10                	xor    %dl,(%rax)
	...

ffff800000108550 <__PDE>:
ffff800000108550:	87 00                	xchg   %eax,(%rax)
ffff800000108552:	00 00                	add    %al,(%rax)
ffff800000108554:	00 00                	add    %al,(%rax)
ffff800000108556:	00 00                	add    %al,(%rax)
ffff800000108558:	87 00                	xchg   %eax,(%rax)
ffff80000010855a:	20 00                	and    %al,(%rax)
ffff80000010855c:	00 00                	add    %al,(%rax)
ffff80000010855e:	00 00                	add    %al,(%rax)
ffff800000108560:	87 00                	xchg   %eax,(%rax)
ffff800000108562:	40 00 00             	rex add %al,(%rax)
ffff800000108565:	00 00                	add    %al,(%rax)
ffff800000108567:	00 87 00 60 00 00    	add    %al,0x6000(%rdi)
ffff80000010856d:	00 00                	add    %al,(%rax)
ffff80000010856f:	00 87 00 80 00 00    	add    %al,0x8000(%rdi)
ffff800000108575:	00 00                	add    %al,(%rax)
ffff800000108577:	00 87 00 a0 00 00    	add    %al,0xa000(%rdi)
ffff80000010857d:	00 00                	add    %al,(%rax)
ffff80000010857f:	00 87 00 c0 00 00    	add    %al,0xc000(%rdi)
ffff800000108585:	00 00                	add    %al,(%rax)
ffff800000108587:	00 87 00 e0 00 00    	add    %al,0xe000(%rdi)
ffff80000010858d:	00 00                	add    %al,(%rax)
ffff80000010858f:	00 87 00 00 01 00    	add    %al,0x10000(%rdi)
ffff800000108595:	00 00                	add    %al,(%rax)
ffff800000108597:	00 87 00 20 01 00    	add    %al,0x12000(%rdi)
ffff80000010859d:	00 00                	add    %al,(%rax)
ffff80000010859f:	00 87 00 40 01 00    	add    %al,0x14000(%rdi)
ffff8000001085a5:	00 00                	add    %al,(%rax)
ffff8000001085a7:	00 87 00 60 01 00    	add    %al,0x16000(%rdi)
ffff8000001085ad:	00 00                	add    %al,(%rax)
ffff8000001085af:	00 87 00 80 01 00    	add    %al,0x18000(%rdi)
	...

ffff800000109550 <interrupt_init>:
ffff800000109550:	f3 0f 1e fa          	endbr64 
ffff800000109554:	55                   	push   %rbp
ffff800000109555:	48 89 e5             	mov    %rsp,%rbp
ffff800000109558:	48 8d 05 f9 ff ff ff 	lea    -0x7(%rip),%rax        # ffff800000109558 <interrupt_init+0x8>
ffff80000010955f:	49 bb 00 60 00 00 00 	movabs $0x6000,%r11
ffff800000109566:	00 00 00 
ffff800000109569:	4c 01 d8             	add    %r11,%rax
ffff80000010956c:	90                   	nop
ffff80000010956d:	5d                   	pop    %rbp
ffff80000010956e:	c3                   	ret    

ffff80000010956f <set_idt_gate>:
ffff80000010956f:	f3 0f 1e fa          	endbr64 
ffff800000109573:	55                   	push   %rbp
ffff800000109574:	48 89 e5             	mov    %rsp,%rbp
ffff800000109577:	48 8d 05 f9 ff ff ff 	lea    -0x7(%rip),%rax        # ffff800000109577 <set_idt_gate+0x8>
ffff80000010957e:	49 bb e1 5f 00 00 00 	movabs $0x5fe1,%r11
ffff800000109585:	00 00 00 
ffff800000109588:	4c 01 d8             	add    %r11,%rax
ffff80000010958b:	48 89 75 e0          	mov    %rsi,-0x20(%rbp)
ffff80000010958f:	89 fe                	mov    %edi,%esi
ffff800000109591:	40 88 75 ec          	mov    %sil,-0x14(%rbp)
ffff800000109595:	66 89 55 e8          	mov    %dx,-0x18(%rbp)
ffff800000109599:	89 ca                	mov    %ecx,%edx
ffff80000010959b:	88 55 dc             	mov    %dl,-0x24(%rbp)
ffff80000010959e:	44 89 c2             	mov    %r8d,%edx
ffff8000001095a1:	88 55 d8             	mov    %dl,-0x28(%rbp)
ffff8000001095a4:	0f b6 55 ec          	movzbl -0x14(%rbp),%edx
ffff8000001095a8:	c1 e2 04             	shl    $0x4,%edx
ffff8000001095ab:	48 63 ca             	movslq %edx,%rcx
ffff8000001095ae:	48 ba 88 ff ff ff ff 	movabs $0xffffffffffffff88,%rdx
ffff8000001095b5:	ff ff ff 
ffff8000001095b8:	48 8b 04 10          	mov    (%rax,%rdx,1),%rax
ffff8000001095bc:	48 01 c8             	add    %rcx,%rax
ffff8000001095bf:	48 89 45 f8          	mov    %rax,-0x8(%rbp)
ffff8000001095c3:	48 8b 45 f8          	mov    -0x8(%rbp),%rax
ffff8000001095c7:	48 89 45 f0          	mov    %rax,-0x10(%rbp)
ffff8000001095cb:	48 8b 45 e0          	mov    -0x20(%rbp),%rax
ffff8000001095cf:	89 c2                	mov    %eax,%edx
ffff8000001095d1:	48 8b 45 f0          	mov    -0x10(%rbp),%rax
ffff8000001095d5:	66 89 10             	mov    %dx,(%rax)
ffff8000001095d8:	48 8b 45 f0          	mov    -0x10(%rbp),%rax
ffff8000001095dc:	0f b7 55 e8          	movzwl -0x18(%rbp),%edx
ffff8000001095e0:	66 89 50 02          	mov    %dx,0x2(%rax)
ffff8000001095e4:	48 8b 45 f0          	mov    -0x10(%rbp),%rax
ffff8000001095e8:	0f b6 55 dc          	movzbl -0x24(%rbp),%edx
ffff8000001095ec:	88 50 04             	mov    %dl,0x4(%rax)
ffff8000001095ef:	48 8b 45 f0          	mov    -0x10(%rbp),%rax
ffff8000001095f3:	0f b6 55 d8          	movzbl -0x28(%rbp),%edx
ffff8000001095f7:	88 50 05             	mov    %dl,0x5(%rax)
ffff8000001095fa:	48 8b 45 e0          	mov    -0x20(%rbp),%rax
ffff8000001095fe:	48 c1 e8 10          	shr    $0x10,%rax
ffff800000109602:	89 c2                	mov    %eax,%edx
ffff800000109604:	48 8b 45 f0          	mov    -0x10(%rbp),%rax
ffff800000109608:	66 89 50 06          	mov    %dx,0x6(%rax)
ffff80000010960c:	48 8b 45 e0          	mov    -0x20(%rbp),%rax
ffff800000109610:	48 c1 e8 20          	shr    $0x20,%rax
ffff800000109614:	89 c2                	mov    %eax,%edx
ffff800000109616:	48 8b 45 f0          	mov    -0x10(%rbp),%rax
ffff80000010961a:	89 50 08             	mov    %edx,0x8(%rax)
ffff80000010961d:	90                   	nop
ffff80000010961e:	5d                   	pop    %rbp
ffff80000010961f:	c3                   	ret    

ffff800000109620 <interrupt_handle>:
ffff800000109620:	f3 0f 1e fa          	endbr64 
ffff800000109624:	55                   	push   %rbp
ffff800000109625:	48 89 e5             	mov    %rsp,%rbp
ffff800000109628:	48 8d 05 f9 ff ff ff 	lea    -0x7(%rip),%rax        # ffff800000109628 <interrupt_handle+0x8>
ffff80000010962f:	49 bb 30 5f 00 00 00 	movabs $0x5f30,%r11
ffff800000109636:	00 00 00 
ffff800000109639:	4c 01 d8             	add    %r11,%rax
ffff80000010963c:	90                   	nop
ffff80000010963d:	5d                   	pop    %rbp
ffff80000010963e:	c3                   	ret    

ffff80000010963f <exception_handle>:
ffff80000010963f:	f3 0f 1e fa          	endbr64 
ffff800000109643:	55                   	push   %rbp
ffff800000109644:	48 89 e5             	mov    %rsp,%rbp
ffff800000109647:	48 8d 05 f9 ff ff ff 	lea    -0x7(%rip),%rax        # ffff800000109647 <exception_handle+0x8>
ffff80000010964e:	49 bb 11 5f 00 00 00 	movabs $0x5f11,%r11
ffff800000109655:	00 00 00 
ffff800000109658:	4c 01 d8             	add    %r11,%rax
ffff80000010965b:	90                   	nop
ffff80000010965c:	5d                   	pop    %rbp
ffff80000010965d:	c3                   	ret    

ffff80000010965e <set_tss64>:
ffff80000010965e:	f3 0f 1e fa          	endbr64 
ffff800000109662:	55                   	push   %rbp
ffff800000109663:	48 89 e5             	mov    %rsp,%rbp
ffff800000109666:	48 8d 05 f9 ff ff ff 	lea    -0x7(%rip),%rax        # ffff800000109666 <set_tss64+0x8>
ffff80000010966d:	49 bb f2 5e 00 00 00 	movabs $0x5ef2,%r11
ffff800000109674:	00 00 00 
ffff800000109677:	4c 01 d8             	add    %r11,%rax
ffff80000010967a:	48 89 7d f8          	mov    %rdi,-0x8(%rbp)
ffff80000010967e:	48 89 75 f0          	mov    %rsi,-0x10(%rbp)
ffff800000109682:	48 89 55 e8          	mov    %rdx,-0x18(%rbp)
ffff800000109686:	48 89 4d e0          	mov    %rcx,-0x20(%rbp)
ffff80000010968a:	4c 89 45 d8          	mov    %r8,-0x28(%rbp)
ffff80000010968e:	4c 89 4d d0          	mov    %r9,-0x30(%rbp)
ffff800000109692:	48 ba 98 ff ff ff ff 	movabs $0xffffffffffffff98,%rdx
ffff800000109699:	ff ff ff 
ffff80000010969c:	48 8b 14 10          	mov    (%rax,%rdx,1),%rdx
ffff8000001096a0:	48 8d 52 04          	lea    0x4(%rdx),%rdx
ffff8000001096a4:	48 8b 4d f8          	mov    -0x8(%rbp),%rcx
ffff8000001096a8:	48 89 0a             	mov    %rcx,(%rdx)
ffff8000001096ab:	48 ba 98 ff ff ff ff 	movabs $0xffffffffffffff98,%rdx
ffff8000001096b2:	ff ff ff 
ffff8000001096b5:	48 8b 14 10          	mov    (%rax,%rdx,1),%rdx
ffff8000001096b9:	48 8d 52 0c          	lea    0xc(%rdx),%rdx
ffff8000001096bd:	48 8b 4d f0          	mov    -0x10(%rbp),%rcx
ffff8000001096c1:	48 89 0a             	mov    %rcx,(%rdx)
ffff8000001096c4:	48 ba 98 ff ff ff ff 	movabs $0xffffffffffffff98,%rdx
ffff8000001096cb:	ff ff ff 
ffff8000001096ce:	48 8b 14 10          	mov    (%rax,%rdx,1),%rdx
ffff8000001096d2:	48 8d 52 14          	lea    0x14(%rdx),%rdx
ffff8000001096d6:	48 8b 4d e8          	mov    -0x18(%rbp),%rcx
ffff8000001096da:	48 89 0a             	mov    %rcx,(%rdx)
ffff8000001096dd:	48 ba 98 ff ff ff ff 	movabs $0xffffffffffffff98,%rdx
ffff8000001096e4:	ff ff ff 
ffff8000001096e7:	48 8b 14 10          	mov    (%rax,%rdx,1),%rdx
ffff8000001096eb:	48 8d 52 24          	lea    0x24(%rdx),%rdx
ffff8000001096ef:	48 8b 4d e0          	mov    -0x20(%rbp),%rcx
ffff8000001096f3:	48 89 0a             	mov    %rcx,(%rdx)
ffff8000001096f6:	48 ba 98 ff ff ff ff 	movabs $0xffffffffffffff98,%rdx
ffff8000001096fd:	ff ff ff 
ffff800000109700:	48 8b 14 10          	mov    (%rax,%rdx,1),%rdx
ffff800000109704:	48 8d 52 2c          	lea    0x2c(%rdx),%rdx
ffff800000109708:	48 8b 4d d8          	mov    -0x28(%rbp),%rcx
ffff80000010970c:	48 89 0a             	mov    %rcx,(%rdx)
ffff80000010970f:	48 ba 98 ff ff ff ff 	movabs $0xffffffffffffff98,%rdx
ffff800000109716:	ff ff ff 
ffff800000109719:	48 8b 14 10          	mov    (%rax,%rdx,1),%rdx
ffff80000010971d:	48 8d 52 34          	lea    0x34(%rdx),%rdx
ffff800000109721:	48 8b 4d d0          	mov    -0x30(%rbp),%rcx
ffff800000109725:	48 89 0a             	mov    %rcx,(%rdx)
ffff800000109728:	48 ba 98 ff ff ff ff 	movabs $0xffffffffffffff98,%rdx
ffff80000010972f:	ff ff ff 
ffff800000109732:	48 8b 14 10          	mov    (%rax,%rdx,1),%rdx
ffff800000109736:	48 8d 52 3c          	lea    0x3c(%rdx),%rdx
ffff80000010973a:	48 8b 4d 10          	mov    0x10(%rbp),%rcx
ffff80000010973e:	48 89 0a             	mov    %rcx,(%rdx)
ffff800000109741:	48 ba 98 ff ff ff ff 	movabs $0xffffffffffffff98,%rdx
ffff800000109748:	ff ff ff 
ffff80000010974b:	48 8b 14 10          	mov    (%rax,%rdx,1),%rdx
ffff80000010974f:	48 8d 52 44          	lea    0x44(%rdx),%rdx
ffff800000109753:	48 8b 4d 18          	mov    0x18(%rbp),%rcx
ffff800000109757:	48 89 0a             	mov    %rcx,(%rdx)
ffff80000010975a:	48 ba 98 ff ff ff ff 	movabs $0xffffffffffffff98,%rdx
ffff800000109761:	ff ff ff 
ffff800000109764:	48 8b 14 10          	mov    (%rax,%rdx,1),%rdx
ffff800000109768:	48 8d 52 4c          	lea    0x4c(%rdx),%rdx
ffff80000010976c:	48 8b 4d 20          	mov    0x20(%rbp),%rcx
ffff800000109770:	48 89 0a             	mov    %rcx,(%rdx)
ffff800000109773:	48 ba 98 ff ff ff ff 	movabs $0xffffffffffffff98,%rdx
ffff80000010977a:	ff ff ff 
ffff80000010977d:	48 8b 04 10          	mov    (%rax,%rdx,1),%rax
ffff800000109781:	48 8d 40 54          	lea    0x54(%rax),%rax
ffff800000109785:	48 8b 55 28          	mov    0x28(%rbp),%rdx
ffff800000109789:	48 89 10             	mov    %rdx,(%rax)
ffff80000010978c:	90                   	nop
ffff80000010978d:	5d                   	pop    %rbp
ffff80000010978e:	c3                   	ret    

ffff80000010978f <do_divide_error>:
ffff80000010978f:	f3 0f 1e fa          	endbr64 
ffff800000109793:	55                   	push   %rbp
ffff800000109794:	48 89 e5             	mov    %rsp,%rbp
ffff800000109797:	41 57                	push   %r15
ffff800000109799:	48 83 ec 28          	sub    $0x28,%rsp
ffff80000010979d:	4c 8d 15 f9 ff ff ff 	lea    -0x7(%rip),%r10        # ffff80000010979d <do_divide_error+0xe>
ffff8000001097a4:	49 bb bb 5d 00 00 00 	movabs $0x5dbb,%r11
ffff8000001097ab:	00 00 00 
ffff8000001097ae:	4d 01 da             	add    %r11,%r10
ffff8000001097b1:	48 89 7d d8          	mov    %rdi,-0x28(%rbp)
ffff8000001097b5:	48 89 75 d0          	mov    %rsi,-0x30(%rbp)
ffff8000001097b9:	48 c7 45 e8 00 00 00 	movq   $0x0,-0x18(%rbp)
ffff8000001097c0:	00 
ffff8000001097c1:	48 8b 55 d8          	mov    -0x28(%rbp),%rdx
ffff8000001097c5:	48 81 c2 98 00 00 00 	add    $0x98,%rdx
ffff8000001097cc:	48 89 55 e8          	mov    %rdx,-0x18(%rbp)
ffff8000001097d0:	48 8b 55 e8          	mov    -0x18(%rbp),%rdx
ffff8000001097d4:	48 8b 12             	mov    (%rdx),%rdx
ffff8000001097d7:	b0 00                	mov    $0x0,%al
ffff8000001097d9:	b9 00 00 00 00       	mov    $0x0,%ecx
ffff8000001097de:	88 cc                	mov    %cl,%ah
ffff8000001097e0:	0d 00 00 ff 00       	or     $0xff0000,%eax
ffff8000001097e5:	25 ff ff ff 00       	and    $0xffffff,%eax
ffff8000001097ea:	48 8b 75 d8          	mov    -0x28(%rbp),%rsi
ffff8000001097ee:	48 8b 4d d0          	mov    -0x30(%rbp),%rcx
ffff8000001097f2:	48 83 ec 08          	sub    $0x8,%rsp
ffff8000001097f6:	52                   	push   %rdx
ffff8000001097f7:	49 89 f1             	mov    %rsi,%r9
ffff8000001097fa:	49 89 c8             	mov    %rcx,%r8
ffff8000001097fd:	48 ba 18 00 00 00 00 	movabs $0x18,%rdx
ffff800000109804:	00 00 00 
ffff800000109807:	49 8d 14 12          	lea    (%r10,%rdx,1),%rdx
ffff80000010980b:	48 89 d1             	mov    %rdx,%rcx
ffff80000010980e:	89 c2                	mov    %eax,%edx
ffff800000109810:	be 00 00 00 00       	mov    $0x0,%esi
ffff800000109815:	bf 00 00 00 00       	mov    $0x0,%edi
ffff80000010981a:	4d 89 d7             	mov    %r10,%r15
ffff80000010981d:	b8 00 00 00 00       	mov    $0x0,%eax
ffff800000109822:	49 bb 1b 53 ff ff ff 	movabs $0xffffffffffff531b,%r11
ffff800000109829:	ff ff ff 
ffff80000010982c:	4d 01 d3             	add    %r10,%r11
ffff80000010982f:	41 ff d3             	call   *%r11
ffff800000109832:	48 83 c4 10          	add    $0x10,%rsp
ffff800000109836:	eb fe                	jmp    ffff800000109836 <do_divide_error+0xa7>

ffff800000109838 <do_debug>:
ffff800000109838:	f3 0f 1e fa          	endbr64 
ffff80000010983c:	55                   	push   %rbp
ffff80000010983d:	48 89 e5             	mov    %rsp,%rbp
ffff800000109840:	41 57                	push   %r15
ffff800000109842:	48 83 ec 28          	sub    $0x28,%rsp
ffff800000109846:	4c 8d 15 f9 ff ff ff 	lea    -0x7(%rip),%r10        # ffff800000109846 <do_debug+0xe>
ffff80000010984d:	49 bb 12 5d 00 00 00 	movabs $0x5d12,%r11
ffff800000109854:	00 00 00 
ffff800000109857:	4d 01 da             	add    %r11,%r10
ffff80000010985a:	48 89 7d d8          	mov    %rdi,-0x28(%rbp)
ffff80000010985e:	48 89 75 d0          	mov    %rsi,-0x30(%rbp)
ffff800000109862:	48 c7 45 e8 00 00 00 	movq   $0x0,-0x18(%rbp)
ffff800000109869:	00 
ffff80000010986a:	48 8b 55 d8          	mov    -0x28(%rbp),%rdx
ffff80000010986e:	48 81 c2 98 00 00 00 	add    $0x98,%rdx
ffff800000109875:	48 89 55 e8          	mov    %rdx,-0x18(%rbp)
ffff800000109879:	48 8b 55 e8          	mov    -0x18(%rbp),%rdx
ffff80000010987d:	48 8b 12             	mov    (%rdx),%rdx
ffff800000109880:	b0 00                	mov    $0x0,%al
ffff800000109882:	b9 00 00 00 00       	mov    $0x0,%ecx
ffff800000109887:	88 cc                	mov    %cl,%ah
ffff800000109889:	0d 00 00 ff 00       	or     $0xff0000,%eax
ffff80000010988e:	25 ff ff ff 00       	and    $0xffffff,%eax
ffff800000109893:	48 8b 75 d8          	mov    -0x28(%rbp),%rsi
ffff800000109897:	48 8b 4d d0          	mov    -0x30(%rbp),%rcx
ffff80000010989b:	48 83 ec 08          	sub    $0x8,%rsp
ffff80000010989f:	52                   	push   %rdx
ffff8000001098a0:	49 89 f1             	mov    %rsi,%r9
ffff8000001098a3:	49 89 c8             	mov    %rcx,%r8
ffff8000001098a6:	48 ba 48 00 00 00 00 	movabs $0x48,%rdx
ffff8000001098ad:	00 00 00 
ffff8000001098b0:	49 8d 14 12          	lea    (%r10,%rdx,1),%rdx
ffff8000001098b4:	48 89 d1             	mov    %rdx,%rcx
ffff8000001098b7:	89 c2                	mov    %eax,%edx
ffff8000001098b9:	be 00 00 00 00       	mov    $0x0,%esi
ffff8000001098be:	bf 00 00 00 00       	mov    $0x0,%edi
ffff8000001098c3:	4d 89 d7             	mov    %r10,%r15
ffff8000001098c6:	b8 00 00 00 00       	mov    $0x0,%eax
ffff8000001098cb:	49 bb 1b 53 ff ff ff 	movabs $0xffffffffffff531b,%r11
ffff8000001098d2:	ff ff ff 
ffff8000001098d5:	4d 01 d3             	add    %r10,%r11
ffff8000001098d8:	41 ff d3             	call   *%r11
ffff8000001098db:	48 83 c4 10          	add    $0x10,%rsp
ffff8000001098df:	eb fe                	jmp    ffff8000001098df <do_debug+0xa7>

ffff8000001098e1 <do_nmi>:
ffff8000001098e1:	f3 0f 1e fa          	endbr64 
ffff8000001098e5:	55                   	push   %rbp
ffff8000001098e6:	48 89 e5             	mov    %rsp,%rbp
ffff8000001098e9:	41 57                	push   %r15
ffff8000001098eb:	48 83 ec 28          	sub    $0x28,%rsp
ffff8000001098ef:	4c 8d 15 f9 ff ff ff 	lea    -0x7(%rip),%r10        # ffff8000001098ef <do_nmi+0xe>
ffff8000001098f6:	49 bb 69 5c 00 00 00 	movabs $0x5c69,%r11
ffff8000001098fd:	00 00 00 
ffff800000109900:	4d 01 da             	add    %r11,%r10
ffff800000109903:	48 89 7d d8          	mov    %rdi,-0x28(%rbp)
ffff800000109907:	48 89 75 d0          	mov    %rsi,-0x30(%rbp)
ffff80000010990b:	48 c7 45 e8 00 00 00 	movq   $0x0,-0x18(%rbp)
ffff800000109912:	00 
ffff800000109913:	48 8b 55 d8          	mov    -0x28(%rbp),%rdx
ffff800000109917:	48 81 c2 98 00 00 00 	add    $0x98,%rdx
ffff80000010991e:	48 89 55 e8          	mov    %rdx,-0x18(%rbp)
ffff800000109922:	48 8b 55 e8          	mov    -0x18(%rbp),%rdx
ffff800000109926:	48 8b 12             	mov    (%rdx),%rdx
ffff800000109929:	b0 00                	mov    $0x0,%al
ffff80000010992b:	b9 00 00 00 00       	mov    $0x0,%ecx
ffff800000109930:	88 cc                	mov    %cl,%ah
ffff800000109932:	0d 00 00 ff 00       	or     $0xff0000,%eax
ffff800000109937:	25 ff ff ff 00       	and    $0xffffff,%eax
ffff80000010993c:	48 8b 75 d8          	mov    -0x28(%rbp),%rsi
ffff800000109940:	48 8b 4d d0          	mov    -0x30(%rbp),%rcx
ffff800000109944:	48 83 ec 08          	sub    $0x8,%rsp
ffff800000109948:	52                   	push   %rdx
ffff800000109949:	49 89 f1             	mov    %rsi,%r9
ffff80000010994c:	49 89 c8             	mov    %rcx,%r8
ffff80000010994f:	48 ba 78 00 00 00 00 	movabs $0x78,%rdx
ffff800000109956:	00 00 00 
ffff800000109959:	49 8d 14 12          	lea    (%r10,%rdx,1),%rdx
ffff80000010995d:	48 89 d1             	mov    %rdx,%rcx
ffff800000109960:	89 c2                	mov    %eax,%edx
ffff800000109962:	be 00 00 00 00       	mov    $0x0,%esi
ffff800000109967:	bf 00 00 00 00       	mov    $0x0,%edi
ffff80000010996c:	4d 89 d7             	mov    %r10,%r15
ffff80000010996f:	b8 00 00 00 00       	mov    $0x0,%eax
ffff800000109974:	49 bb 1b 53 ff ff ff 	movabs $0xffffffffffff531b,%r11
ffff80000010997b:	ff ff ff 
ffff80000010997e:	4d 01 d3             	add    %r10,%r11
ffff800000109981:	41 ff d3             	call   *%r11
ffff800000109984:	48 83 c4 10          	add    $0x10,%rsp
ffff800000109988:	eb fe                	jmp    ffff800000109988 <do_nmi+0xa7>

ffff80000010998a <do_int3>:
ffff80000010998a:	f3 0f 1e fa          	endbr64 
ffff80000010998e:	55                   	push   %rbp
ffff80000010998f:	48 89 e5             	mov    %rsp,%rbp
ffff800000109992:	41 57                	push   %r15
ffff800000109994:	48 83 ec 28          	sub    $0x28,%rsp
ffff800000109998:	4c 8d 15 f9 ff ff ff 	lea    -0x7(%rip),%r10        # ffff800000109998 <do_int3+0xe>
ffff80000010999f:	49 bb c0 5b 00 00 00 	movabs $0x5bc0,%r11
ffff8000001099a6:	00 00 00 
ffff8000001099a9:	4d 01 da             	add    %r11,%r10
ffff8000001099ac:	48 89 7d d8          	mov    %rdi,-0x28(%rbp)
ffff8000001099b0:	48 89 75 d0          	mov    %rsi,-0x30(%rbp)
ffff8000001099b4:	48 c7 45 e8 00 00 00 	movq   $0x0,-0x18(%rbp)
ffff8000001099bb:	00 
ffff8000001099bc:	48 8b 55 d8          	mov    -0x28(%rbp),%rdx
ffff8000001099c0:	48 81 c2 98 00 00 00 	add    $0x98,%rdx
ffff8000001099c7:	48 89 55 e8          	mov    %rdx,-0x18(%rbp)
ffff8000001099cb:	48 8b 55 e8          	mov    -0x18(%rbp),%rdx
ffff8000001099cf:	48 8b 12             	mov    (%rdx),%rdx
ffff8000001099d2:	b0 00                	mov    $0x0,%al
ffff8000001099d4:	b9 00 00 00 00       	mov    $0x0,%ecx
ffff8000001099d9:	88 cc                	mov    %cl,%ah
ffff8000001099db:	0d 00 00 ff 00       	or     $0xff0000,%eax
ffff8000001099e0:	25 ff ff ff 00       	and    $0xffffff,%eax
ffff8000001099e5:	48 8b 75 d8          	mov    -0x28(%rbp),%rsi
ffff8000001099e9:	48 8b 4d d0          	mov    -0x30(%rbp),%rcx
ffff8000001099ed:	48 83 ec 08          	sub    $0x8,%rsp
ffff8000001099f1:	52                   	push   %rdx
ffff8000001099f2:	49 89 f1             	mov    %rsi,%r9
ffff8000001099f5:	49 89 c8             	mov    %rcx,%r8
ffff8000001099f8:	48 ba a0 00 00 00 00 	movabs $0xa0,%rdx
ffff8000001099ff:	00 00 00 
ffff800000109a02:	49 8d 14 12          	lea    (%r10,%rdx,1),%rdx
ffff800000109a06:	48 89 d1             	mov    %rdx,%rcx
ffff800000109a09:	89 c2                	mov    %eax,%edx
ffff800000109a0b:	be 00 00 00 00       	mov    $0x0,%esi
ffff800000109a10:	bf 00 00 00 00       	mov    $0x0,%edi
ffff800000109a15:	4d 89 d7             	mov    %r10,%r15
ffff800000109a18:	b8 00 00 00 00       	mov    $0x0,%eax
ffff800000109a1d:	49 bb 1b 53 ff ff ff 	movabs $0xffffffffffff531b,%r11
ffff800000109a24:	ff ff ff 
ffff800000109a27:	4d 01 d3             	add    %r10,%r11
ffff800000109a2a:	41 ff d3             	call   *%r11
ffff800000109a2d:	48 83 c4 10          	add    $0x10,%rsp
ffff800000109a31:	eb fe                	jmp    ffff800000109a31 <do_int3+0xa7>

ffff800000109a33 <do_overflow>:
ffff800000109a33:	f3 0f 1e fa          	endbr64 
ffff800000109a37:	55                   	push   %rbp
ffff800000109a38:	48 89 e5             	mov    %rsp,%rbp
ffff800000109a3b:	41 57                	push   %r15
ffff800000109a3d:	48 83 ec 28          	sub    $0x28,%rsp
ffff800000109a41:	4c 8d 15 f9 ff ff ff 	lea    -0x7(%rip),%r10        # ffff800000109a41 <do_overflow+0xe>
ffff800000109a48:	49 bb 17 5b 00 00 00 	movabs $0x5b17,%r11
ffff800000109a4f:	00 00 00 
ffff800000109a52:	4d 01 da             	add    %r11,%r10
ffff800000109a55:	48 89 7d d8          	mov    %rdi,-0x28(%rbp)
ffff800000109a59:	48 89 75 d0          	mov    %rsi,-0x30(%rbp)
ffff800000109a5d:	48 c7 45 e8 00 00 00 	movq   $0x0,-0x18(%rbp)
ffff800000109a64:	00 
ffff800000109a65:	48 8b 55 d8          	mov    -0x28(%rbp),%rdx
ffff800000109a69:	48 81 c2 98 00 00 00 	add    $0x98,%rdx
ffff800000109a70:	48 89 55 e8          	mov    %rdx,-0x18(%rbp)
ffff800000109a74:	48 8b 55 e8          	mov    -0x18(%rbp),%rdx
ffff800000109a78:	48 8b 12             	mov    (%rdx),%rdx
ffff800000109a7b:	b0 00                	mov    $0x0,%al
ffff800000109a7d:	b9 00 00 00 00       	mov    $0x0,%ecx
ffff800000109a82:	88 cc                	mov    %cl,%ah
ffff800000109a84:	0d 00 00 ff 00       	or     $0xff0000,%eax
ffff800000109a89:	25 ff ff ff 00       	and    $0xffffff,%eax
ffff800000109a8e:	48 8b 75 d8          	mov    -0x28(%rbp),%rsi
ffff800000109a92:	48 8b 4d d0          	mov    -0x30(%rbp),%rcx
ffff800000109a96:	48 83 ec 08          	sub    $0x8,%rsp
ffff800000109a9a:	52                   	push   %rdx
ffff800000109a9b:	49 89 f1             	mov    %rsi,%r9
ffff800000109a9e:	49 89 c8             	mov    %rcx,%r8
ffff800000109aa1:	48 ba c8 00 00 00 00 	movabs $0xc8,%rdx
ffff800000109aa8:	00 00 00 
ffff800000109aab:	49 8d 14 12          	lea    (%r10,%rdx,1),%rdx
ffff800000109aaf:	48 89 d1             	mov    %rdx,%rcx
ffff800000109ab2:	89 c2                	mov    %eax,%edx
ffff800000109ab4:	be 00 00 00 00       	mov    $0x0,%esi
ffff800000109ab9:	bf 00 00 00 00       	mov    $0x0,%edi
ffff800000109abe:	4d 89 d7             	mov    %r10,%r15
ffff800000109ac1:	b8 00 00 00 00       	mov    $0x0,%eax
ffff800000109ac6:	49 bb 1b 53 ff ff ff 	movabs $0xffffffffffff531b,%r11
ffff800000109acd:	ff ff ff 
ffff800000109ad0:	4d 01 d3             	add    %r10,%r11
ffff800000109ad3:	41 ff d3             	call   *%r11
ffff800000109ad6:	48 83 c4 10          	add    $0x10,%rsp
ffff800000109ada:	eb fe                	jmp    ffff800000109ada <do_overflow+0xa7>

ffff800000109adc <do_bounds>:
ffff800000109adc:	f3 0f 1e fa          	endbr64 
ffff800000109ae0:	55                   	push   %rbp
ffff800000109ae1:	48 89 e5             	mov    %rsp,%rbp
ffff800000109ae4:	41 57                	push   %r15
ffff800000109ae6:	48 83 ec 28          	sub    $0x28,%rsp
ffff800000109aea:	4c 8d 15 f9 ff ff ff 	lea    -0x7(%rip),%r10        # ffff800000109aea <do_bounds+0xe>
ffff800000109af1:	49 bb 6e 5a 00 00 00 	movabs $0x5a6e,%r11
ffff800000109af8:	00 00 00 
ffff800000109afb:	4d 01 da             	add    %r11,%r10
ffff800000109afe:	48 89 7d d8          	mov    %rdi,-0x28(%rbp)
ffff800000109b02:	48 89 75 d0          	mov    %rsi,-0x30(%rbp)
ffff800000109b06:	48 c7 45 e8 00 00 00 	movq   $0x0,-0x18(%rbp)
ffff800000109b0d:	00 
ffff800000109b0e:	48 8b 55 d8          	mov    -0x28(%rbp),%rdx
ffff800000109b12:	48 81 c2 98 00 00 00 	add    $0x98,%rdx
ffff800000109b19:	48 89 55 e8          	mov    %rdx,-0x18(%rbp)
ffff800000109b1d:	48 8b 55 e8          	mov    -0x18(%rbp),%rdx
ffff800000109b21:	48 8b 12             	mov    (%rdx),%rdx
ffff800000109b24:	b0 00                	mov    $0x0,%al
ffff800000109b26:	b9 00 00 00 00       	mov    $0x0,%ecx
ffff800000109b2b:	88 cc                	mov    %cl,%ah
ffff800000109b2d:	0d 00 00 ff 00       	or     $0xff0000,%eax
ffff800000109b32:	25 ff ff ff 00       	and    $0xffffff,%eax
ffff800000109b37:	48 8b 75 d8          	mov    -0x28(%rbp),%rsi
ffff800000109b3b:	48 8b 4d d0          	mov    -0x30(%rbp),%rcx
ffff800000109b3f:	48 83 ec 08          	sub    $0x8,%rsp
ffff800000109b43:	52                   	push   %rdx
ffff800000109b44:	49 89 f1             	mov    %rsi,%r9
ffff800000109b47:	49 89 c8             	mov    %rcx,%r8
ffff800000109b4a:	48 ba f8 00 00 00 00 	movabs $0xf8,%rdx
ffff800000109b51:	00 00 00 
ffff800000109b54:	49 8d 14 12          	lea    (%r10,%rdx,1),%rdx
ffff800000109b58:	48 89 d1             	mov    %rdx,%rcx
ffff800000109b5b:	89 c2                	mov    %eax,%edx
ffff800000109b5d:	be 00 00 00 00       	mov    $0x0,%esi
ffff800000109b62:	bf 00 00 00 00       	mov    $0x0,%edi
ffff800000109b67:	4d 89 d7             	mov    %r10,%r15
ffff800000109b6a:	b8 00 00 00 00       	mov    $0x0,%eax
ffff800000109b6f:	49 bb 1b 53 ff ff ff 	movabs $0xffffffffffff531b,%r11
ffff800000109b76:	ff ff ff 
ffff800000109b79:	4d 01 d3             	add    %r10,%r11
ffff800000109b7c:	41 ff d3             	call   *%r11
ffff800000109b7f:	48 83 c4 10          	add    $0x10,%rsp
ffff800000109b83:	eb fe                	jmp    ffff800000109b83 <do_bounds+0xa7>

ffff800000109b85 <do_undefined_opcode>:
ffff800000109b85:	f3 0f 1e fa          	endbr64 
ffff800000109b89:	55                   	push   %rbp
ffff800000109b8a:	48 89 e5             	mov    %rsp,%rbp
ffff800000109b8d:	41 57                	push   %r15
ffff800000109b8f:	48 83 ec 28          	sub    $0x28,%rsp
ffff800000109b93:	4c 8d 15 f9 ff ff ff 	lea    -0x7(%rip),%r10        # ffff800000109b93 <do_undefined_opcode+0xe>
ffff800000109b9a:	49 bb c5 59 00 00 00 	movabs $0x59c5,%r11
ffff800000109ba1:	00 00 00 
ffff800000109ba4:	4d 01 da             	add    %r11,%r10
ffff800000109ba7:	48 89 7d d8          	mov    %rdi,-0x28(%rbp)
ffff800000109bab:	48 89 75 d0          	mov    %rsi,-0x30(%rbp)
ffff800000109baf:	48 c7 45 e8 00 00 00 	movq   $0x0,-0x18(%rbp)
ffff800000109bb6:	00 
ffff800000109bb7:	48 8b 55 d8          	mov    -0x28(%rbp),%rdx
ffff800000109bbb:	48 81 c2 98 00 00 00 	add    $0x98,%rdx
ffff800000109bc2:	48 89 55 e8          	mov    %rdx,-0x18(%rbp)
ffff800000109bc6:	48 8b 55 e8          	mov    -0x18(%rbp),%rdx
ffff800000109bca:	48 8b 12             	mov    (%rdx),%rdx
ffff800000109bcd:	b0 00                	mov    $0x0,%al
ffff800000109bcf:	b9 00 00 00 00       	mov    $0x0,%ecx
ffff800000109bd4:	88 cc                	mov    %cl,%ah
ffff800000109bd6:	0d 00 00 ff 00       	or     $0xff0000,%eax
ffff800000109bdb:	25 ff ff ff 00       	and    $0xffffff,%eax
ffff800000109be0:	48 8b 75 d8          	mov    -0x28(%rbp),%rsi
ffff800000109be4:	48 8b 4d d0          	mov    -0x30(%rbp),%rcx
ffff800000109be8:	48 83 ec 08          	sub    $0x8,%rsp
ffff800000109bec:	52                   	push   %rdx
ffff800000109bed:	49 89 f1             	mov    %rsi,%r9
ffff800000109bf0:	49 89 c8             	mov    %rcx,%r8
ffff800000109bf3:	48 ba 28 01 00 00 00 	movabs $0x128,%rdx
ffff800000109bfa:	00 00 00 
ffff800000109bfd:	49 8d 14 12          	lea    (%r10,%rdx,1),%rdx
ffff800000109c01:	48 89 d1             	mov    %rdx,%rcx
ffff800000109c04:	89 c2                	mov    %eax,%edx
ffff800000109c06:	be 00 00 00 00       	mov    $0x0,%esi
ffff800000109c0b:	bf 00 00 00 00       	mov    $0x0,%edi
ffff800000109c10:	4d 89 d7             	mov    %r10,%r15
ffff800000109c13:	b8 00 00 00 00       	mov    $0x0,%eax
ffff800000109c18:	49 bb 1b 53 ff ff ff 	movabs $0xffffffffffff531b,%r11
ffff800000109c1f:	ff ff ff 
ffff800000109c22:	4d 01 d3             	add    %r10,%r11
ffff800000109c25:	41 ff d3             	call   *%r11
ffff800000109c28:	48 83 c4 10          	add    $0x10,%rsp
ffff800000109c2c:	eb fe                	jmp    ffff800000109c2c <do_undefined_opcode+0xa7>

ffff800000109c2e <do_dev_not_available>:
ffff800000109c2e:	f3 0f 1e fa          	endbr64 
ffff800000109c32:	55                   	push   %rbp
ffff800000109c33:	48 89 e5             	mov    %rsp,%rbp
ffff800000109c36:	41 57                	push   %r15
ffff800000109c38:	48 83 ec 28          	sub    $0x28,%rsp
ffff800000109c3c:	4c 8d 15 f9 ff ff ff 	lea    -0x7(%rip),%r10        # ffff800000109c3c <do_dev_not_available+0xe>
ffff800000109c43:	49 bb 1c 59 00 00 00 	movabs $0x591c,%r11
ffff800000109c4a:	00 00 00 
ffff800000109c4d:	4d 01 da             	add    %r11,%r10
ffff800000109c50:	48 89 7d d8          	mov    %rdi,-0x28(%rbp)
ffff800000109c54:	48 89 75 d0          	mov    %rsi,-0x30(%rbp)
ffff800000109c58:	48 c7 45 e8 00 00 00 	movq   $0x0,-0x18(%rbp)
ffff800000109c5f:	00 
ffff800000109c60:	48 8b 55 d8          	mov    -0x28(%rbp),%rdx
ffff800000109c64:	48 81 c2 98 00 00 00 	add    $0x98,%rdx
ffff800000109c6b:	48 89 55 e8          	mov    %rdx,-0x18(%rbp)
ffff800000109c6f:	48 8b 55 e8          	mov    -0x18(%rbp),%rdx
ffff800000109c73:	48 8b 12             	mov    (%rdx),%rdx
ffff800000109c76:	b0 00                	mov    $0x0,%al
ffff800000109c78:	b9 00 00 00 00       	mov    $0x0,%ecx
ffff800000109c7d:	88 cc                	mov    %cl,%ah
ffff800000109c7f:	0d 00 00 ff 00       	or     $0xff0000,%eax
ffff800000109c84:	25 ff ff ff 00       	and    $0xffffff,%eax
ffff800000109c89:	48 8b 75 d8          	mov    -0x28(%rbp),%rsi
ffff800000109c8d:	48 8b 4d d0          	mov    -0x30(%rbp),%rcx
ffff800000109c91:	48 83 ec 08          	sub    $0x8,%rsp
ffff800000109c95:	52                   	push   %rdx
ffff800000109c96:	49 89 f1             	mov    %rsi,%r9
ffff800000109c99:	49 89 c8             	mov    %rcx,%r8
ffff800000109c9c:	48 ba 60 01 00 00 00 	movabs $0x160,%rdx
ffff800000109ca3:	00 00 00 
ffff800000109ca6:	49 8d 14 12          	lea    (%r10,%rdx,1),%rdx
ffff800000109caa:	48 89 d1             	mov    %rdx,%rcx
ffff800000109cad:	89 c2                	mov    %eax,%edx
ffff800000109caf:	be 00 00 00 00       	mov    $0x0,%esi
ffff800000109cb4:	bf 00 00 00 00       	mov    $0x0,%edi
ffff800000109cb9:	4d 89 d7             	mov    %r10,%r15
ffff800000109cbc:	b8 00 00 00 00       	mov    $0x0,%eax
ffff800000109cc1:	49 bb 1b 53 ff ff ff 	movabs $0xffffffffffff531b,%r11
ffff800000109cc8:	ff ff ff 
ffff800000109ccb:	4d 01 d3             	add    %r10,%r11
ffff800000109cce:	41 ff d3             	call   *%r11
ffff800000109cd1:	48 83 c4 10          	add    $0x10,%rsp
ffff800000109cd5:	eb fe                	jmp    ffff800000109cd5 <do_dev_not_available+0xa7>

ffff800000109cd7 <do_double_fault>:
ffff800000109cd7:	f3 0f 1e fa          	endbr64 
ffff800000109cdb:	55                   	push   %rbp
ffff800000109cdc:	48 89 e5             	mov    %rsp,%rbp
ffff800000109cdf:	41 57                	push   %r15
ffff800000109ce1:	48 83 ec 28          	sub    $0x28,%rsp
ffff800000109ce5:	4c 8d 15 f9 ff ff ff 	lea    -0x7(%rip),%r10        # ffff800000109ce5 <do_double_fault+0xe>
ffff800000109cec:	49 bb 73 58 00 00 00 	movabs $0x5873,%r11
ffff800000109cf3:	00 00 00 
ffff800000109cf6:	4d 01 da             	add    %r11,%r10
ffff800000109cf9:	48 89 7d d8          	mov    %rdi,-0x28(%rbp)
ffff800000109cfd:	48 89 75 d0          	mov    %rsi,-0x30(%rbp)
ffff800000109d01:	48 c7 45 e8 00 00 00 	movq   $0x0,-0x18(%rbp)
ffff800000109d08:	00 
ffff800000109d09:	48 8b 55 d8          	mov    -0x28(%rbp),%rdx
ffff800000109d0d:	48 81 c2 98 00 00 00 	add    $0x98,%rdx
ffff800000109d14:	48 89 55 e8          	mov    %rdx,-0x18(%rbp)
ffff800000109d18:	48 8b 55 e8          	mov    -0x18(%rbp),%rdx
ffff800000109d1c:	48 8b 12             	mov    (%rdx),%rdx
ffff800000109d1f:	b0 00                	mov    $0x0,%al
ffff800000109d21:	b9 00 00 00 00       	mov    $0x0,%ecx
ffff800000109d26:	88 cc                	mov    %cl,%ah
ffff800000109d28:	0d 00 00 ff 00       	or     $0xff0000,%eax
ffff800000109d2d:	25 ff ff ff 00       	and    $0xffffff,%eax
ffff800000109d32:	48 8b 75 d8          	mov    -0x28(%rbp),%rsi
ffff800000109d36:	48 8b 4d d0          	mov    -0x30(%rbp),%rcx
ffff800000109d3a:	48 83 ec 08          	sub    $0x8,%rsp
ffff800000109d3e:	52                   	push   %rdx
ffff800000109d3f:	49 89 f1             	mov    %rsi,%r9
ffff800000109d42:	49 89 c8             	mov    %rcx,%r8
ffff800000109d45:	48 ba 98 01 00 00 00 	movabs $0x198,%rdx
ffff800000109d4c:	00 00 00 
ffff800000109d4f:	49 8d 14 12          	lea    (%r10,%rdx,1),%rdx
ffff800000109d53:	48 89 d1             	mov    %rdx,%rcx
ffff800000109d56:	89 c2                	mov    %eax,%edx
ffff800000109d58:	be 00 00 00 00       	mov    $0x0,%esi
ffff800000109d5d:	bf 00 00 00 00       	mov    $0x0,%edi
ffff800000109d62:	4d 89 d7             	mov    %r10,%r15
ffff800000109d65:	b8 00 00 00 00       	mov    $0x0,%eax
ffff800000109d6a:	49 bb 1b 53 ff ff ff 	movabs $0xffffffffffff531b,%r11
ffff800000109d71:	ff ff ff 
ffff800000109d74:	4d 01 d3             	add    %r10,%r11
ffff800000109d77:	41 ff d3             	call   *%r11
ffff800000109d7a:	48 83 c4 10          	add    $0x10,%rsp
ffff800000109d7e:	eb fe                	jmp    ffff800000109d7e <do_double_fault+0xa7>

ffff800000109d80 <do_coprocessor_segment_overrun>:
ffff800000109d80:	f3 0f 1e fa          	endbr64 
ffff800000109d84:	55                   	push   %rbp
ffff800000109d85:	48 89 e5             	mov    %rsp,%rbp
ffff800000109d88:	41 57                	push   %r15
ffff800000109d8a:	48 83 ec 28          	sub    $0x28,%rsp
ffff800000109d8e:	4c 8d 15 f9 ff ff ff 	lea    -0x7(%rip),%r10        # ffff800000109d8e <do_coprocessor_segment_overrun+0xe>
ffff800000109d95:	49 bb ca 57 00 00 00 	movabs $0x57ca,%r11
ffff800000109d9c:	00 00 00 
ffff800000109d9f:	4d 01 da             	add    %r11,%r10
ffff800000109da2:	48 89 7d d8          	mov    %rdi,-0x28(%rbp)
ffff800000109da6:	48 89 75 d0          	mov    %rsi,-0x30(%rbp)
ffff800000109daa:	48 c7 45 e8 00 00 00 	movq   $0x0,-0x18(%rbp)
ffff800000109db1:	00 
ffff800000109db2:	48 8b 55 d8          	mov    -0x28(%rbp),%rdx
ffff800000109db6:	48 81 c2 98 00 00 00 	add    $0x98,%rdx
ffff800000109dbd:	48 89 55 e8          	mov    %rdx,-0x18(%rbp)
ffff800000109dc1:	48 8b 55 e8          	mov    -0x18(%rbp),%rdx
ffff800000109dc5:	48 8b 12             	mov    (%rdx),%rdx
ffff800000109dc8:	b0 00                	mov    $0x0,%al
ffff800000109dca:	b9 00 00 00 00       	mov    $0x0,%ecx
ffff800000109dcf:	88 cc                	mov    %cl,%ah
ffff800000109dd1:	0d 00 00 ff 00       	or     $0xff0000,%eax
ffff800000109dd6:	25 ff ff ff 00       	and    $0xffffff,%eax
ffff800000109ddb:	48 8b 75 d8          	mov    -0x28(%rbp),%rsi
ffff800000109ddf:	48 8b 4d d0          	mov    -0x30(%rbp),%rcx
ffff800000109de3:	48 83 ec 08          	sub    $0x8,%rsp
ffff800000109de7:	52                   	push   %rdx
ffff800000109de8:	49 89 f1             	mov    %rsi,%r9
ffff800000109deb:	49 89 c8             	mov    %rcx,%r8
ffff800000109dee:	48 ba c8 01 00 00 00 	movabs $0x1c8,%rdx
ffff800000109df5:	00 00 00 
ffff800000109df8:	49 8d 14 12          	lea    (%r10,%rdx,1),%rdx
ffff800000109dfc:	48 89 d1             	mov    %rdx,%rcx
ffff800000109dff:	89 c2                	mov    %eax,%edx
ffff800000109e01:	be 00 00 00 00       	mov    $0x0,%esi
ffff800000109e06:	bf 00 00 00 00       	mov    $0x0,%edi
ffff800000109e0b:	4d 89 d7             	mov    %r10,%r15
ffff800000109e0e:	b8 00 00 00 00       	mov    $0x0,%eax
ffff800000109e13:	49 bb 1b 53 ff ff ff 	movabs $0xffffffffffff531b,%r11
ffff800000109e1a:	ff ff ff 
ffff800000109e1d:	4d 01 d3             	add    %r10,%r11
ffff800000109e20:	41 ff d3             	call   *%r11
ffff800000109e23:	48 83 c4 10          	add    $0x10,%rsp
ffff800000109e27:	eb fe                	jmp    ffff800000109e27 <do_coprocessor_segment_overrun+0xa7>

ffff800000109e29 <do_invalid_TSS>:
ffff800000109e29:	f3 0f 1e fa          	endbr64 
ffff800000109e2d:	55                   	push   %rbp
ffff800000109e2e:	48 89 e5             	mov    %rsp,%rbp
ffff800000109e31:	41 57                	push   %r15
ffff800000109e33:	41 56                	push   %r14
ffff800000109e35:	41 55                	push   %r13
ffff800000109e37:	41 54                	push   %r12
ffff800000109e39:	53                   	push   %rbx
ffff800000109e3a:	48 83 ec 38          	sub    $0x38,%rsp
ffff800000109e3e:	48 8d 1d f9 ff ff ff 	lea    -0x7(%rip),%rbx        # ffff800000109e3e <do_invalid_TSS+0x15>
ffff800000109e45:	49 bb 1a 57 00 00 00 	movabs $0x571a,%r11
ffff800000109e4c:	00 00 00 
ffff800000109e4f:	4c 01 db             	add    %r11,%rbx
ffff800000109e52:	48 89 7d b8          	mov    %rdi,-0x48(%rbp)
ffff800000109e56:	48 89 75 b0          	mov    %rsi,-0x50(%rbp)
ffff800000109e5a:	48 c7 45 c8 00 00 00 	movq   $0x0,-0x38(%rbp)
ffff800000109e61:	00 
ffff800000109e62:	48 8b 55 b8          	mov    -0x48(%rbp),%rdx
ffff800000109e66:	48 81 c2 98 00 00 00 	add    $0x98,%rdx
ffff800000109e6d:	48 89 55 c8          	mov    %rdx,-0x38(%rbp)
ffff800000109e71:	48 8b 55 c8          	mov    -0x38(%rbp),%rdx
ffff800000109e75:	48 8b 12             	mov    (%rdx),%rdx
ffff800000109e78:	b0 00                	mov    $0x0,%al
ffff800000109e7a:	b9 00 00 00 00       	mov    $0x0,%ecx
ffff800000109e7f:	88 cc                	mov    %cl,%ah
ffff800000109e81:	0d 00 00 ff 00       	or     $0xff0000,%eax
ffff800000109e86:	25 ff ff ff 00       	and    $0xffffff,%eax
ffff800000109e8b:	48 8b 75 b8          	mov    -0x48(%rbp),%rsi
ffff800000109e8f:	48 8b 4d b0          	mov    -0x50(%rbp),%rcx
ffff800000109e93:	48 83 ec 08          	sub    $0x8,%rsp
ffff800000109e97:	52                   	push   %rdx
ffff800000109e98:	49 89 f1             	mov    %rsi,%r9
ffff800000109e9b:	49 89 c8             	mov    %rcx,%r8
ffff800000109e9e:	48 ba 08 02 00 00 00 	movabs $0x208,%rdx
ffff800000109ea5:	00 00 00 
ffff800000109ea8:	48 8d 14 13          	lea    (%rbx,%rdx,1),%rdx
ffff800000109eac:	48 89 d1             	mov    %rdx,%rcx
ffff800000109eaf:	89 c2                	mov    %eax,%edx
ffff800000109eb1:	be 00 00 00 00       	mov    $0x0,%esi
ffff800000109eb6:	bf 00 00 00 00       	mov    $0x0,%edi
ffff800000109ebb:	49 89 df             	mov    %rbx,%r15
ffff800000109ebe:	b8 00 00 00 00       	mov    $0x0,%eax
ffff800000109ec3:	49 ba 1b 53 ff ff ff 	movabs $0xffffffffffff531b,%r10
ffff800000109eca:	ff ff ff 
ffff800000109ecd:	49 01 da             	add    %rbx,%r10
ffff800000109ed0:	41 ff d2             	call   *%r10
ffff800000109ed3:	48 83 c4 10          	add    $0x10,%rsp
ffff800000109ed7:	48 8b 45 b0          	mov    -0x50(%rbp),%rax
ffff800000109edb:	83 e0 01             	and    $0x1,%eax
ffff800000109ede:	48 85 c0             	test   %rax,%rax
ffff800000109ee1:	74 4e                	je     ffff800000109f31 <do_invalid_TSS+0x108>
ffff800000109ee3:	8b 4d ac             	mov    -0x54(%rbp),%ecx
ffff800000109ee6:	b1 00                	mov    $0x0,%cl
ffff800000109ee8:	b8 00 00 00 00       	mov    $0x0,%eax
ffff800000109eed:	88 c5                	mov    %al,%ch
ffff800000109eef:	81 c9 00 00 ff 00    	or     $0xff0000,%ecx
ffff800000109ef5:	89 c8                	mov    %ecx,%eax
ffff800000109ef7:	25 ff ff ff 00       	and    $0xffffff,%eax
ffff800000109efc:	89 c2                	mov    %eax,%edx
ffff800000109efe:	48 b8 38 02 00 00 00 	movabs $0x238,%rax
ffff800000109f05:	00 00 00 
ffff800000109f08:	48 8d 04 03          	lea    (%rbx,%rax,1),%rax
ffff800000109f0c:	48 89 c1             	mov    %rax,%rcx
ffff800000109f0f:	be 10 00 00 00       	mov    $0x10,%esi
ffff800000109f14:	bf 00 00 00 00       	mov    $0x0,%edi
ffff800000109f19:	49 89 df             	mov    %rbx,%r15
ffff800000109f1c:	b8 00 00 00 00       	mov    $0x0,%eax
ffff800000109f21:	49 b8 1b 53 ff ff ff 	movabs $0xffffffffffff531b,%r8
ffff800000109f28:	ff ff ff 
ffff800000109f2b:	49 01 d8             	add    %rbx,%r8
ffff800000109f2e:	41 ff d0             	call   *%r8
ffff800000109f31:	48 8b 45 b0          	mov    -0x50(%rbp),%rax
ffff800000109f35:	83 e0 02             	and    $0x2,%eax
ffff800000109f38:	48 85 c0             	test   %rax,%rax
ffff800000109f3b:	74 50                	je     ffff800000109f8d <do_invalid_TSS+0x164>
ffff800000109f3d:	8b 4d a8             	mov    -0x58(%rbp),%ecx
ffff800000109f40:	b1 00                	mov    $0x0,%cl
ffff800000109f42:	b8 00 00 00 00       	mov    $0x0,%eax
ffff800000109f47:	88 c5                	mov    %al,%ch
ffff800000109f49:	81 c9 00 00 ff 00    	or     $0xff0000,%ecx
ffff800000109f4f:	89 c8                	mov    %ecx,%eax
ffff800000109f51:	25 ff ff ff 00       	and    $0xffffff,%eax
ffff800000109f56:	89 c2                	mov    %eax,%edx
ffff800000109f58:	48 b8 b8 02 00 00 00 	movabs $0x2b8,%rax
ffff800000109f5f:	00 00 00 
ffff800000109f62:	48 8d 04 03          	lea    (%rbx,%rax,1),%rax
ffff800000109f66:	48 89 c1             	mov    %rax,%rcx
ffff800000109f69:	be 10 00 00 00       	mov    $0x10,%esi
ffff800000109f6e:	bf 00 00 00 00       	mov    $0x0,%edi
ffff800000109f73:	49 89 df             	mov    %rbx,%r15
ffff800000109f76:	b8 00 00 00 00       	mov    $0x0,%eax
ffff800000109f7b:	49 b8 1b 53 ff ff ff 	movabs $0xffffffffffff531b,%r8
ffff800000109f82:	ff ff ff 
ffff800000109f85:	49 01 d8             	add    %rbx,%r8
ffff800000109f88:	41 ff d0             	call   *%r8
ffff800000109f8b:	eb 4e                	jmp    ffff800000109fdb <do_invalid_TSS+0x1b2>
ffff800000109f8d:	8b 55 a4             	mov    -0x5c(%rbp),%edx
ffff800000109f90:	b2 00                	mov    $0x0,%dl
ffff800000109f92:	b8 00 00 00 00       	mov    $0x0,%eax
ffff800000109f97:	88 c6                	mov    %al,%dh
ffff800000109f99:	81 ca 00 00 ff 00    	or     $0xff0000,%edx
ffff800000109f9f:	89 d0                	mov    %edx,%eax
ffff800000109fa1:	25 ff ff ff 00       	and    $0xffffff,%eax
ffff800000109fa6:	89 c2                	mov    %eax,%edx
ffff800000109fa8:	48 b8 e8 02 00 00 00 	movabs $0x2e8,%rax
ffff800000109faf:	00 00 00 
ffff800000109fb2:	48 8d 04 03          	lea    (%rbx,%rax,1),%rax
ffff800000109fb6:	48 89 c1             	mov    %rax,%rcx
ffff800000109fb9:	be 10 00 00 00       	mov    $0x10,%esi
ffff800000109fbe:	bf 00 00 00 00       	mov    $0x0,%edi
ffff800000109fc3:	49 89 df             	mov    %rbx,%r15
ffff800000109fc6:	b8 00 00 00 00       	mov    $0x0,%eax
ffff800000109fcb:	49 b8 1b 53 ff ff ff 	movabs $0xffffffffffff531b,%r8
ffff800000109fd2:	ff ff ff 
ffff800000109fd5:	49 01 d8             	add    %rbx,%r8
ffff800000109fd8:	41 ff d0             	call   *%r8
ffff800000109fdb:	48 8b 45 b0          	mov    -0x50(%rbp),%rax
ffff800000109fdf:	83 e0 02             	and    $0x2,%eax
ffff800000109fe2:	48 85 c0             	test   %rax,%rax
ffff800000109fe5:	0f 85 c6 00 00 00    	jne    ffff80000010a0b1 <do_invalid_TSS+0x288>
ffff800000109feb:	48 8b 45 b0          	mov    -0x50(%rbp),%rax
ffff800000109fef:	83 e0 04             	and    $0x4,%eax
ffff800000109ff2:	48 85 c0             	test   %rax,%rax
ffff800000109ff5:	74 5e                	je     ffff80000010a055 <do_invalid_TSS+0x22c>
ffff800000109ff7:	41 b6 00             	mov    $0x0,%r14b
ffff800000109ffa:	b8 00 00 00 00       	mov    $0x0,%eax
ffff800000109fff:	44 89 f1             	mov    %r14d,%ecx
ffff80000010a002:	88 c5                	mov    %al,%ch
ffff80000010a004:	41 89 ce             	mov    %ecx,%r14d
ffff80000010a007:	44 89 f0             	mov    %r14d,%eax
ffff80000010a00a:	0d 00 00 ff 00       	or     $0xff0000,%eax
ffff80000010a00f:	41 89 c6             	mov    %eax,%r14d
ffff80000010a012:	44 89 f0             	mov    %r14d,%eax
ffff80000010a015:	25 ff ff ff 00       	and    $0xffffff,%eax
ffff80000010a01a:	41 89 c6             	mov    %eax,%r14d
ffff80000010a01d:	48 b8 20 03 00 00 00 	movabs $0x320,%rax
ffff80000010a024:	00 00 00 
ffff80000010a027:	48 8d 04 03          	lea    (%rbx,%rax,1),%rax
ffff80000010a02b:	48 89 c1             	mov    %rax,%rcx
ffff80000010a02e:	44 89 f2             	mov    %r14d,%edx
ffff80000010a031:	be 10 00 00 00       	mov    $0x10,%esi
ffff80000010a036:	bf 00 00 00 00       	mov    $0x0,%edi
ffff80000010a03b:	49 89 df             	mov    %rbx,%r15
ffff80000010a03e:	b8 00 00 00 00       	mov    $0x0,%eax
ffff80000010a043:	49 b8 1b 53 ff ff ff 	movabs $0xffffffffffff531b,%r8
ffff80000010a04a:	ff ff ff 
ffff80000010a04d:	49 01 d8             	add    %rbx,%r8
ffff80000010a050:	41 ff d0             	call   *%r8
ffff80000010a053:	eb 5c                	jmp    ffff80000010a0b1 <do_invalid_TSS+0x288>
ffff80000010a055:	41 b5 00             	mov    $0x0,%r13b
ffff80000010a058:	b8 00 00 00 00       	mov    $0x0,%eax
ffff80000010a05d:	44 89 e9             	mov    %r13d,%ecx
ffff80000010a060:	88 c5                	mov    %al,%ch
ffff80000010a062:	41 89 cd             	mov    %ecx,%r13d
ffff80000010a065:	44 89 e8             	mov    %r13d,%eax
ffff80000010a068:	0d 00 00 ff 00       	or     $0xff0000,%eax
ffff80000010a06d:	41 89 c5             	mov    %eax,%r13d
ffff80000010a070:	44 89 e8             	mov    %r13d,%eax
ffff80000010a073:	25 ff ff ff 00       	and    $0xffffff,%eax
ffff80000010a078:	41 89 c5             	mov    %eax,%r13d
ffff80000010a07b:	48 b8 58 03 00 00 00 	movabs $0x358,%rax
ffff80000010a082:	00 00 00 
ffff80000010a085:	48 8d 04 03          	lea    (%rbx,%rax,1),%rax
ffff80000010a089:	48 89 c1             	mov    %rax,%rcx
ffff80000010a08c:	44 89 ea             	mov    %r13d,%edx
ffff80000010a08f:	be 10 00 00 00       	mov    $0x10,%esi
ffff80000010a094:	bf 00 00 00 00       	mov    $0x0,%edi
ffff80000010a099:	49 89 df             	mov    %rbx,%r15
ffff80000010a09c:	b8 00 00 00 00       	mov    $0x0,%eax
ffff80000010a0a1:	49 b8 1b 53 ff ff ff 	movabs $0xffffffffffff531b,%r8
ffff80000010a0a8:	ff ff ff 
ffff80000010a0ab:	49 01 d8             	add    %rbx,%r8
ffff80000010a0ae:	41 ff d0             	call   *%r8
ffff80000010a0b1:	48 8b 45 b0          	mov    -0x50(%rbp),%rax
ffff80000010a0b5:	25 f8 ff 00 00       	and    $0xfff8,%eax
ffff80000010a0ba:	48 89 c2             	mov    %rax,%rdx
ffff80000010a0bd:	41 b4 00             	mov    $0x0,%r12b
ffff80000010a0c0:	b8 00 00 00 00       	mov    $0x0,%eax
ffff80000010a0c5:	44 89 e1             	mov    %r12d,%ecx
ffff80000010a0c8:	88 c5                	mov    %al,%ch
ffff80000010a0ca:	41 89 cc             	mov    %ecx,%r12d
ffff80000010a0cd:	44 89 e0             	mov    %r12d,%eax
ffff80000010a0d0:	0d 00 00 ff 00       	or     $0xff0000,%eax
ffff80000010a0d5:	41 89 c4             	mov    %eax,%r12d
ffff80000010a0d8:	44 89 e0             	mov    %r12d,%eax
ffff80000010a0db:	25 ff ff ff 00       	and    $0xffffff,%eax
ffff80000010a0e0:	41 89 c4             	mov    %eax,%r12d
ffff80000010a0e3:	49 89 d0             	mov    %rdx,%r8
ffff80000010a0e6:	48 b8 84 03 00 00 00 	movabs $0x384,%rax
ffff80000010a0ed:	00 00 00 
ffff80000010a0f0:	48 8d 04 03          	lea    (%rbx,%rax,1),%rax
ffff80000010a0f4:	48 89 c1             	mov    %rax,%rcx
ffff80000010a0f7:	44 89 e2             	mov    %r12d,%edx
ffff80000010a0fa:	be 20 00 00 00       	mov    $0x20,%esi
ffff80000010a0ff:	bf 00 00 00 00       	mov    $0x0,%edi
ffff80000010a104:	49 89 df             	mov    %rbx,%r15
ffff80000010a107:	b8 00 00 00 00       	mov    $0x0,%eax
ffff80000010a10c:	49 b9 1b 53 ff ff ff 	movabs $0xffffffffffff531b,%r9
ffff80000010a113:	ff ff ff 
ffff80000010a116:	49 01 d9             	add    %rbx,%r9
ffff80000010a119:	41 ff d1             	call   *%r9
ffff80000010a11c:	eb fe                	jmp    ffff80000010a11c <do_invalid_TSS+0x2f3>

ffff80000010a11e <do_segment_not_present>:
ffff80000010a11e:	f3 0f 1e fa          	endbr64 
ffff80000010a122:	55                   	push   %rbp
ffff80000010a123:	48 89 e5             	mov    %rsp,%rbp
ffff80000010a126:	41 57                	push   %r15
ffff80000010a128:	41 56                	push   %r14
ffff80000010a12a:	41 55                	push   %r13
ffff80000010a12c:	41 54                	push   %r12
ffff80000010a12e:	53                   	push   %rbx
ffff80000010a12f:	48 83 ec 38          	sub    $0x38,%rsp
ffff80000010a133:	48 8d 1d f9 ff ff ff 	lea    -0x7(%rip),%rbx        # ffff80000010a133 <do_segment_not_present+0x15>
ffff80000010a13a:	49 bb 25 54 00 00 00 	movabs $0x5425,%r11
ffff80000010a141:	00 00 00 
ffff80000010a144:	4c 01 db             	add    %r11,%rbx
ffff80000010a147:	48 89 7d b8          	mov    %rdi,-0x48(%rbp)
ffff80000010a14b:	48 89 75 b0          	mov    %rsi,-0x50(%rbp)
ffff80000010a14f:	48 c7 45 c8 00 00 00 	movq   $0x0,-0x38(%rbp)
ffff80000010a156:	00 
ffff80000010a157:	48 8b 55 b8          	mov    -0x48(%rbp),%rdx
ffff80000010a15b:	48 81 c2 98 00 00 00 	add    $0x98,%rdx
ffff80000010a162:	48 89 55 c8          	mov    %rdx,-0x38(%rbp)
ffff80000010a166:	48 8b 55 c8          	mov    -0x38(%rbp),%rdx
ffff80000010a16a:	48 8b 12             	mov    (%rdx),%rdx
ffff80000010a16d:	b0 00                	mov    $0x0,%al
ffff80000010a16f:	b9 00 00 00 00       	mov    $0x0,%ecx
ffff80000010a174:	88 cc                	mov    %cl,%ah
ffff80000010a176:	0d 00 00 ff 00       	or     $0xff0000,%eax
ffff80000010a17b:	25 ff ff ff 00       	and    $0xffffff,%eax
ffff80000010a180:	48 8b 75 b8          	mov    -0x48(%rbp),%rsi
ffff80000010a184:	48 8b 4d b0          	mov    -0x50(%rbp),%rcx
ffff80000010a188:	48 83 ec 08          	sub    $0x8,%rsp
ffff80000010a18c:	52                   	push   %rdx
ffff80000010a18d:	49 89 f1             	mov    %rsi,%r9
ffff80000010a190:	49 89 c8             	mov    %rcx,%r8
ffff80000010a193:	48 ba a0 03 00 00 00 	movabs $0x3a0,%rdx
ffff80000010a19a:	00 00 00 
ffff80000010a19d:	48 8d 14 13          	lea    (%rbx,%rdx,1),%rdx
ffff80000010a1a1:	48 89 d1             	mov    %rdx,%rcx
ffff80000010a1a4:	89 c2                	mov    %eax,%edx
ffff80000010a1a6:	be 00 00 00 00       	mov    $0x0,%esi
ffff80000010a1ab:	bf 00 00 00 00       	mov    $0x0,%edi
ffff80000010a1b0:	49 89 df             	mov    %rbx,%r15
ffff80000010a1b3:	b8 00 00 00 00       	mov    $0x0,%eax
ffff80000010a1b8:	49 ba 1b 53 ff ff ff 	movabs $0xffffffffffff531b,%r10
ffff80000010a1bf:	ff ff ff 
ffff80000010a1c2:	49 01 da             	add    %rbx,%r10
ffff80000010a1c5:	41 ff d2             	call   *%r10
ffff80000010a1c8:	48 83 c4 10          	add    $0x10,%rsp
ffff80000010a1cc:	48 8b 45 b0          	mov    -0x50(%rbp),%rax
ffff80000010a1d0:	83 e0 01             	and    $0x1,%eax
ffff80000010a1d3:	48 85 c0             	test   %rax,%rax
ffff80000010a1d6:	74 4e                	je     ffff80000010a226 <do_segment_not_present+0x108>
ffff80000010a1d8:	8b 4d ac             	mov    -0x54(%rbp),%ecx
ffff80000010a1db:	b1 00                	mov    $0x0,%cl
ffff80000010a1dd:	b8 00 00 00 00       	mov    $0x0,%eax
ffff80000010a1e2:	88 c5                	mov    %al,%ch
ffff80000010a1e4:	81 c9 00 00 ff 00    	or     $0xff0000,%ecx
ffff80000010a1ea:	89 c8                	mov    %ecx,%eax
ffff80000010a1ec:	25 ff ff ff 00       	and    $0xffffff,%eax
ffff80000010a1f1:	89 c2                	mov    %eax,%edx
ffff80000010a1f3:	48 b8 38 02 00 00 00 	movabs $0x238,%rax
ffff80000010a1fa:	00 00 00 
ffff80000010a1fd:	48 8d 04 03          	lea    (%rbx,%rax,1),%rax
ffff80000010a201:	48 89 c1             	mov    %rax,%rcx
ffff80000010a204:	be 10 00 00 00       	mov    $0x10,%esi
ffff80000010a209:	bf 00 00 00 00       	mov    $0x0,%edi
ffff80000010a20e:	49 89 df             	mov    %rbx,%r15
ffff80000010a211:	b8 00 00 00 00       	mov    $0x0,%eax
ffff80000010a216:	49 b8 1b 53 ff ff ff 	movabs $0xffffffffffff531b,%r8
ffff80000010a21d:	ff ff ff 
ffff80000010a220:	49 01 d8             	add    %rbx,%r8
ffff80000010a223:	41 ff d0             	call   *%r8
ffff80000010a226:	48 8b 45 b0          	mov    -0x50(%rbp),%rax
ffff80000010a22a:	83 e0 02             	and    $0x2,%eax
ffff80000010a22d:	48 85 c0             	test   %rax,%rax
ffff80000010a230:	74 50                	je     ffff80000010a282 <do_segment_not_present+0x164>
ffff80000010a232:	8b 4d a8             	mov    -0x58(%rbp),%ecx
ffff80000010a235:	b1 00                	mov    $0x0,%cl
ffff80000010a237:	b8 00 00 00 00       	mov    $0x0,%eax
ffff80000010a23c:	88 c5                	mov    %al,%ch
ffff80000010a23e:	81 c9 00 00 ff 00    	or     $0xff0000,%ecx
ffff80000010a244:	89 c8                	mov    %ecx,%eax
ffff80000010a246:	25 ff ff ff 00       	and    $0xffffff,%eax
ffff80000010a24b:	89 c2                	mov    %eax,%edx
ffff80000010a24d:	48 b8 b8 02 00 00 00 	movabs $0x2b8,%rax
ffff80000010a254:	00 00 00 
ffff80000010a257:	48 8d 04 03          	lea    (%rbx,%rax,1),%rax
ffff80000010a25b:	48 89 c1             	mov    %rax,%rcx
ffff80000010a25e:	be 10 00 00 00       	mov    $0x10,%esi
ffff80000010a263:	bf 00 00 00 00       	mov    $0x0,%edi
ffff80000010a268:	49 89 df             	mov    %rbx,%r15
ffff80000010a26b:	b8 00 00 00 00       	mov    $0x0,%eax
ffff80000010a270:	49 b8 1b 53 ff ff ff 	movabs $0xffffffffffff531b,%r8
ffff80000010a277:	ff ff ff 
ffff80000010a27a:	49 01 d8             	add    %rbx,%r8
ffff80000010a27d:	41 ff d0             	call   *%r8
ffff80000010a280:	eb 4e                	jmp    ffff80000010a2d0 <do_segment_not_present+0x1b2>
ffff80000010a282:	8b 55 a4             	mov    -0x5c(%rbp),%edx
ffff80000010a285:	b2 00                	mov    $0x0,%dl
ffff80000010a287:	b8 00 00 00 00       	mov    $0x0,%eax
ffff80000010a28c:	88 c6                	mov    %al,%dh
ffff80000010a28e:	81 ca 00 00 ff 00    	or     $0xff0000,%edx
ffff80000010a294:	89 d0                	mov    %edx,%eax
ffff80000010a296:	25 ff ff ff 00       	and    $0xffffff,%eax
ffff80000010a29b:	89 c2                	mov    %eax,%edx
ffff80000010a29d:	48 b8 e8 02 00 00 00 	movabs $0x2e8,%rax
ffff80000010a2a4:	00 00 00 
ffff80000010a2a7:	48 8d 04 03          	lea    (%rbx,%rax,1),%rax
ffff80000010a2ab:	48 89 c1             	mov    %rax,%rcx
ffff80000010a2ae:	be 10 00 00 00       	mov    $0x10,%esi
ffff80000010a2b3:	bf 00 00 00 00       	mov    $0x0,%edi
ffff80000010a2b8:	49 89 df             	mov    %rbx,%r15
ffff80000010a2bb:	b8 00 00 00 00       	mov    $0x0,%eax
ffff80000010a2c0:	49 b8 1b 53 ff ff ff 	movabs $0xffffffffffff531b,%r8
ffff80000010a2c7:	ff ff ff 
ffff80000010a2ca:	49 01 d8             	add    %rbx,%r8
ffff80000010a2cd:	41 ff d0             	call   *%r8
ffff80000010a2d0:	48 8b 45 b0          	mov    -0x50(%rbp),%rax
ffff80000010a2d4:	83 e0 02             	and    $0x2,%eax
ffff80000010a2d7:	48 85 c0             	test   %rax,%rax
ffff80000010a2da:	0f 85 c6 00 00 00    	jne    ffff80000010a3a6 <do_segment_not_present+0x288>
ffff80000010a2e0:	48 8b 45 b0          	mov    -0x50(%rbp),%rax
ffff80000010a2e4:	83 e0 04             	and    $0x4,%eax
ffff80000010a2e7:	48 85 c0             	test   %rax,%rax
ffff80000010a2ea:	74 5e                	je     ffff80000010a34a <do_segment_not_present+0x22c>
ffff80000010a2ec:	41 b6 00             	mov    $0x0,%r14b
ffff80000010a2ef:	b8 00 00 00 00       	mov    $0x0,%eax
ffff80000010a2f4:	44 89 f1             	mov    %r14d,%ecx
ffff80000010a2f7:	88 c5                	mov    %al,%ch
ffff80000010a2f9:	41 89 ce             	mov    %ecx,%r14d
ffff80000010a2fc:	44 89 f0             	mov    %r14d,%eax
ffff80000010a2ff:	0d 00 00 ff 00       	or     $0xff0000,%eax
ffff80000010a304:	41 89 c6             	mov    %eax,%r14d
ffff80000010a307:	44 89 f0             	mov    %r14d,%eax
ffff80000010a30a:	25 ff ff ff 00       	and    $0xffffff,%eax
ffff80000010a30f:	41 89 c6             	mov    %eax,%r14d
ffff80000010a312:	48 b8 20 03 00 00 00 	movabs $0x320,%rax
ffff80000010a319:	00 00 00 
ffff80000010a31c:	48 8d 04 03          	lea    (%rbx,%rax,1),%rax
ffff80000010a320:	48 89 c1             	mov    %rax,%rcx
ffff80000010a323:	44 89 f2             	mov    %r14d,%edx
ffff80000010a326:	be 10 00 00 00       	mov    $0x10,%esi
ffff80000010a32b:	bf 00 00 00 00       	mov    $0x0,%edi
ffff80000010a330:	49 89 df             	mov    %rbx,%r15
ffff80000010a333:	b8 00 00 00 00       	mov    $0x0,%eax
ffff80000010a338:	49 b8 1b 53 ff ff ff 	movabs $0xffffffffffff531b,%r8
ffff80000010a33f:	ff ff ff 
ffff80000010a342:	49 01 d8             	add    %rbx,%r8
ffff80000010a345:	41 ff d0             	call   *%r8
ffff80000010a348:	eb 5c                	jmp    ffff80000010a3a6 <do_segment_not_present+0x288>
ffff80000010a34a:	41 b5 00             	mov    $0x0,%r13b
ffff80000010a34d:	b8 00 00 00 00       	mov    $0x0,%eax
ffff80000010a352:	44 89 e9             	mov    %r13d,%ecx
ffff80000010a355:	88 c5                	mov    %al,%ch
ffff80000010a357:	41 89 cd             	mov    %ecx,%r13d
ffff80000010a35a:	44 89 e8             	mov    %r13d,%eax
ffff80000010a35d:	0d 00 00 ff 00       	or     $0xff0000,%eax
ffff80000010a362:	41 89 c5             	mov    %eax,%r13d
ffff80000010a365:	44 89 e8             	mov    %r13d,%eax
ffff80000010a368:	25 ff ff ff 00       	and    $0xffffff,%eax
ffff80000010a36d:	41 89 c5             	mov    %eax,%r13d
ffff80000010a370:	48 b8 58 03 00 00 00 	movabs $0x358,%rax
ffff80000010a377:	00 00 00 
ffff80000010a37a:	48 8d 04 03          	lea    (%rbx,%rax,1),%rax
ffff80000010a37e:	48 89 c1             	mov    %rax,%rcx
ffff80000010a381:	44 89 ea             	mov    %r13d,%edx
ffff80000010a384:	be 10 00 00 00       	mov    $0x10,%esi
ffff80000010a389:	bf 00 00 00 00       	mov    $0x0,%edi
ffff80000010a38e:	49 89 df             	mov    %rbx,%r15
ffff80000010a391:	b8 00 00 00 00       	mov    $0x0,%eax
ffff80000010a396:	49 b8 1b 53 ff ff ff 	movabs $0xffffffffffff531b,%r8
ffff80000010a39d:	ff ff ff 
ffff80000010a3a0:	49 01 d8             	add    %rbx,%r8
ffff80000010a3a3:	41 ff d0             	call   *%r8
ffff80000010a3a6:	48 8b 45 b0          	mov    -0x50(%rbp),%rax
ffff80000010a3aa:	25 f8 ff 00 00       	and    $0xfff8,%eax
ffff80000010a3af:	48 89 c2             	mov    %rax,%rdx
ffff80000010a3b2:	41 b4 00             	mov    $0x0,%r12b
ffff80000010a3b5:	b8 00 00 00 00       	mov    $0x0,%eax
ffff80000010a3ba:	44 89 e1             	mov    %r12d,%ecx
ffff80000010a3bd:	88 c5                	mov    %al,%ch
ffff80000010a3bf:	41 89 cc             	mov    %ecx,%r12d
ffff80000010a3c2:	44 89 e0             	mov    %r12d,%eax
ffff80000010a3c5:	0d 00 00 ff 00       	or     $0xff0000,%eax
ffff80000010a3ca:	41 89 c4             	mov    %eax,%r12d
ffff80000010a3cd:	44 89 e0             	mov    %r12d,%eax
ffff80000010a3d0:	25 ff ff ff 00       	and    $0xffffff,%eax
ffff80000010a3d5:	41 89 c4             	mov    %eax,%r12d
ffff80000010a3d8:	49 89 d0             	mov    %rdx,%r8
ffff80000010a3db:	48 b8 84 03 00 00 00 	movabs $0x384,%rax
ffff80000010a3e2:	00 00 00 
ffff80000010a3e5:	48 8d 04 03          	lea    (%rbx,%rax,1),%rax
ffff80000010a3e9:	48 89 c1             	mov    %rax,%rcx
ffff80000010a3ec:	44 89 e2             	mov    %r12d,%edx
ffff80000010a3ef:	be 20 00 00 00       	mov    $0x20,%esi
ffff80000010a3f4:	bf 00 00 00 00       	mov    $0x0,%edi
ffff80000010a3f9:	49 89 df             	mov    %rbx,%r15
ffff80000010a3fc:	b8 00 00 00 00       	mov    $0x0,%eax
ffff80000010a401:	49 b9 1b 53 ff ff ff 	movabs $0xffffffffffff531b,%r9
ffff80000010a408:	ff ff ff 
ffff80000010a40b:	49 01 d9             	add    %rbx,%r9
ffff80000010a40e:	41 ff d1             	call   *%r9
ffff80000010a411:	eb fe                	jmp    ffff80000010a411 <do_segment_not_present+0x2f3>

ffff80000010a413 <do_stack_segment_fault>:
ffff80000010a413:	f3 0f 1e fa          	endbr64 
ffff80000010a417:	55                   	push   %rbp
ffff80000010a418:	48 89 e5             	mov    %rsp,%rbp
ffff80000010a41b:	41 57                	push   %r15
ffff80000010a41d:	41 56                	push   %r14
ffff80000010a41f:	41 55                	push   %r13
ffff80000010a421:	41 54                	push   %r12
ffff80000010a423:	53                   	push   %rbx
ffff80000010a424:	48 83 ec 38          	sub    $0x38,%rsp
ffff80000010a428:	48 8d 1d f9 ff ff ff 	lea    -0x7(%rip),%rbx        # ffff80000010a428 <do_stack_segment_fault+0x15>
ffff80000010a42f:	49 bb 30 51 00 00 00 	movabs $0x5130,%r11
ffff80000010a436:	00 00 00 
ffff80000010a439:	4c 01 db             	add    %r11,%rbx
ffff80000010a43c:	48 89 7d b8          	mov    %rdi,-0x48(%rbp)
ffff80000010a440:	48 89 75 b0          	mov    %rsi,-0x50(%rbp)
ffff80000010a444:	48 c7 45 c8 00 00 00 	movq   $0x0,-0x38(%rbp)
ffff80000010a44b:	00 
ffff80000010a44c:	48 8b 55 b8          	mov    -0x48(%rbp),%rdx
ffff80000010a450:	48 81 c2 98 00 00 00 	add    $0x98,%rdx
ffff80000010a457:	48 89 55 c8          	mov    %rdx,-0x38(%rbp)
ffff80000010a45b:	48 8b 55 c8          	mov    -0x38(%rbp),%rdx
ffff80000010a45f:	48 8b 12             	mov    (%rdx),%rdx
ffff80000010a462:	b0 00                	mov    $0x0,%al
ffff80000010a464:	b9 00 00 00 00       	mov    $0x0,%ecx
ffff80000010a469:	88 cc                	mov    %cl,%ah
ffff80000010a46b:	0d 00 00 ff 00       	or     $0xff0000,%eax
ffff80000010a470:	25 ff ff ff 00       	and    $0xffffff,%eax
ffff80000010a475:	48 8b 75 b8          	mov    -0x48(%rbp),%rsi
ffff80000010a479:	48 8b 4d b0          	mov    -0x50(%rbp),%rcx
ffff80000010a47d:	48 83 ec 08          	sub    $0x8,%rsp
ffff80000010a481:	52                   	push   %rdx
ffff80000010a482:	49 89 f1             	mov    %rsi,%r9
ffff80000010a485:	49 89 c8             	mov    %rcx,%r8
ffff80000010a488:	48 ba d8 03 00 00 00 	movabs $0x3d8,%rdx
ffff80000010a48f:	00 00 00 
ffff80000010a492:	48 8d 14 13          	lea    (%rbx,%rdx,1),%rdx
ffff80000010a496:	48 89 d1             	mov    %rdx,%rcx
ffff80000010a499:	89 c2                	mov    %eax,%edx
ffff80000010a49b:	be 00 00 00 00       	mov    $0x0,%esi
ffff80000010a4a0:	bf 00 00 00 00       	mov    $0x0,%edi
ffff80000010a4a5:	49 89 df             	mov    %rbx,%r15
ffff80000010a4a8:	b8 00 00 00 00       	mov    $0x0,%eax
ffff80000010a4ad:	49 ba 1b 53 ff ff ff 	movabs $0xffffffffffff531b,%r10
ffff80000010a4b4:	ff ff ff 
ffff80000010a4b7:	49 01 da             	add    %rbx,%r10
ffff80000010a4ba:	41 ff d2             	call   *%r10
ffff80000010a4bd:	48 83 c4 10          	add    $0x10,%rsp
ffff80000010a4c1:	48 8b 45 b0          	mov    -0x50(%rbp),%rax
ffff80000010a4c5:	83 e0 01             	and    $0x1,%eax
ffff80000010a4c8:	48 85 c0             	test   %rax,%rax
ffff80000010a4cb:	74 4e                	je     ffff80000010a51b <do_stack_segment_fault+0x108>
ffff80000010a4cd:	8b 4d ac             	mov    -0x54(%rbp),%ecx
ffff80000010a4d0:	b1 00                	mov    $0x0,%cl
ffff80000010a4d2:	b8 00 00 00 00       	mov    $0x0,%eax
ffff80000010a4d7:	88 c5                	mov    %al,%ch
ffff80000010a4d9:	81 c9 00 00 ff 00    	or     $0xff0000,%ecx
ffff80000010a4df:	89 c8                	mov    %ecx,%eax
ffff80000010a4e1:	25 ff ff ff 00       	and    $0xffffff,%eax
ffff80000010a4e6:	89 c2                	mov    %eax,%edx
ffff80000010a4e8:	48 b8 38 02 00 00 00 	movabs $0x238,%rax
ffff80000010a4ef:	00 00 00 
ffff80000010a4f2:	48 8d 04 03          	lea    (%rbx,%rax,1),%rax
ffff80000010a4f6:	48 89 c1             	mov    %rax,%rcx
ffff80000010a4f9:	be 10 00 00 00       	mov    $0x10,%esi
ffff80000010a4fe:	bf 00 00 00 00       	mov    $0x0,%edi
ffff80000010a503:	49 89 df             	mov    %rbx,%r15
ffff80000010a506:	b8 00 00 00 00       	mov    $0x0,%eax
ffff80000010a50b:	49 b8 1b 53 ff ff ff 	movabs $0xffffffffffff531b,%r8
ffff80000010a512:	ff ff ff 
ffff80000010a515:	49 01 d8             	add    %rbx,%r8
ffff80000010a518:	41 ff d0             	call   *%r8
ffff80000010a51b:	48 8b 45 b0          	mov    -0x50(%rbp),%rax
ffff80000010a51f:	83 e0 02             	and    $0x2,%eax
ffff80000010a522:	48 85 c0             	test   %rax,%rax
ffff80000010a525:	74 50                	je     ffff80000010a577 <do_stack_segment_fault+0x164>
ffff80000010a527:	8b 4d a8             	mov    -0x58(%rbp),%ecx
ffff80000010a52a:	b1 00                	mov    $0x0,%cl
ffff80000010a52c:	b8 00 00 00 00       	mov    $0x0,%eax
ffff80000010a531:	88 c5                	mov    %al,%ch
ffff80000010a533:	81 c9 00 00 ff 00    	or     $0xff0000,%ecx
ffff80000010a539:	89 c8                	mov    %ecx,%eax
ffff80000010a53b:	25 ff ff ff 00       	and    $0xffffff,%eax
ffff80000010a540:	89 c2                	mov    %eax,%edx
ffff80000010a542:	48 b8 b8 02 00 00 00 	movabs $0x2b8,%rax
ffff80000010a549:	00 00 00 
ffff80000010a54c:	48 8d 04 03          	lea    (%rbx,%rax,1),%rax
ffff80000010a550:	48 89 c1             	mov    %rax,%rcx
ffff80000010a553:	be 10 00 00 00       	mov    $0x10,%esi
ffff80000010a558:	bf 00 00 00 00       	mov    $0x0,%edi
ffff80000010a55d:	49 89 df             	mov    %rbx,%r15
ffff80000010a560:	b8 00 00 00 00       	mov    $0x0,%eax
ffff80000010a565:	49 b8 1b 53 ff ff ff 	movabs $0xffffffffffff531b,%r8
ffff80000010a56c:	ff ff ff 
ffff80000010a56f:	49 01 d8             	add    %rbx,%r8
ffff80000010a572:	41 ff d0             	call   *%r8
ffff80000010a575:	eb 4e                	jmp    ffff80000010a5c5 <do_stack_segment_fault+0x1b2>
ffff80000010a577:	8b 55 a4             	mov    -0x5c(%rbp),%edx
ffff80000010a57a:	b2 00                	mov    $0x0,%dl
ffff80000010a57c:	b8 00 00 00 00       	mov    $0x0,%eax
ffff80000010a581:	88 c6                	mov    %al,%dh
ffff80000010a583:	81 ca 00 00 ff 00    	or     $0xff0000,%edx
ffff80000010a589:	89 d0                	mov    %edx,%eax
ffff80000010a58b:	25 ff ff ff 00       	and    $0xffffff,%eax
ffff80000010a590:	89 c2                	mov    %eax,%edx
ffff80000010a592:	48 b8 e8 02 00 00 00 	movabs $0x2e8,%rax
ffff80000010a599:	00 00 00 
ffff80000010a59c:	48 8d 04 03          	lea    (%rbx,%rax,1),%rax
ffff80000010a5a0:	48 89 c1             	mov    %rax,%rcx
ffff80000010a5a3:	be 10 00 00 00       	mov    $0x10,%esi
ffff80000010a5a8:	bf 00 00 00 00       	mov    $0x0,%edi
ffff80000010a5ad:	49 89 df             	mov    %rbx,%r15
ffff80000010a5b0:	b8 00 00 00 00       	mov    $0x0,%eax
ffff80000010a5b5:	49 b8 1b 53 ff ff ff 	movabs $0xffffffffffff531b,%r8
ffff80000010a5bc:	ff ff ff 
ffff80000010a5bf:	49 01 d8             	add    %rbx,%r8
ffff80000010a5c2:	41 ff d0             	call   *%r8
ffff80000010a5c5:	48 8b 45 b0          	mov    -0x50(%rbp),%rax
ffff80000010a5c9:	83 e0 02             	and    $0x2,%eax
ffff80000010a5cc:	48 85 c0             	test   %rax,%rax
ffff80000010a5cf:	0f 85 c6 00 00 00    	jne    ffff80000010a69b <do_stack_segment_fault+0x288>
ffff80000010a5d5:	48 8b 45 b0          	mov    -0x50(%rbp),%rax
ffff80000010a5d9:	83 e0 04             	and    $0x4,%eax
ffff80000010a5dc:	48 85 c0             	test   %rax,%rax
ffff80000010a5df:	74 5e                	je     ffff80000010a63f <do_stack_segment_fault+0x22c>
ffff80000010a5e1:	41 b6 00             	mov    $0x0,%r14b
ffff80000010a5e4:	b8 00 00 00 00       	mov    $0x0,%eax
ffff80000010a5e9:	44 89 f1             	mov    %r14d,%ecx
ffff80000010a5ec:	88 c5                	mov    %al,%ch
ffff80000010a5ee:	41 89 ce             	mov    %ecx,%r14d
ffff80000010a5f1:	44 89 f0             	mov    %r14d,%eax
ffff80000010a5f4:	0d 00 00 ff 00       	or     $0xff0000,%eax
ffff80000010a5f9:	41 89 c6             	mov    %eax,%r14d
ffff80000010a5fc:	44 89 f0             	mov    %r14d,%eax
ffff80000010a5ff:	25 ff ff ff 00       	and    $0xffffff,%eax
ffff80000010a604:	41 89 c6             	mov    %eax,%r14d
ffff80000010a607:	48 b8 20 03 00 00 00 	movabs $0x320,%rax
ffff80000010a60e:	00 00 00 
ffff80000010a611:	48 8d 04 03          	lea    (%rbx,%rax,1),%rax
ffff80000010a615:	48 89 c1             	mov    %rax,%rcx
ffff80000010a618:	44 89 f2             	mov    %r14d,%edx
ffff80000010a61b:	be 10 00 00 00       	mov    $0x10,%esi
ffff80000010a620:	bf 00 00 00 00       	mov    $0x0,%edi
ffff80000010a625:	49 89 df             	mov    %rbx,%r15
ffff80000010a628:	b8 00 00 00 00       	mov    $0x0,%eax
ffff80000010a62d:	49 b8 1b 53 ff ff ff 	movabs $0xffffffffffff531b,%r8
ffff80000010a634:	ff ff ff 
ffff80000010a637:	49 01 d8             	add    %rbx,%r8
ffff80000010a63a:	41 ff d0             	call   *%r8
ffff80000010a63d:	eb 5c                	jmp    ffff80000010a69b <do_stack_segment_fault+0x288>
ffff80000010a63f:	41 b5 00             	mov    $0x0,%r13b
ffff80000010a642:	b8 00 00 00 00       	mov    $0x0,%eax
ffff80000010a647:	44 89 e9             	mov    %r13d,%ecx
ffff80000010a64a:	88 c5                	mov    %al,%ch
ffff80000010a64c:	41 89 cd             	mov    %ecx,%r13d
ffff80000010a64f:	44 89 e8             	mov    %r13d,%eax
ffff80000010a652:	0d 00 00 ff 00       	or     $0xff0000,%eax
ffff80000010a657:	41 89 c5             	mov    %eax,%r13d
ffff80000010a65a:	44 89 e8             	mov    %r13d,%eax
ffff80000010a65d:	25 ff ff ff 00       	and    $0xffffff,%eax
ffff80000010a662:	41 89 c5             	mov    %eax,%r13d
ffff80000010a665:	48 b8 58 03 00 00 00 	movabs $0x358,%rax
ffff80000010a66c:	00 00 00 
ffff80000010a66f:	48 8d 04 03          	lea    (%rbx,%rax,1),%rax
ffff80000010a673:	48 89 c1             	mov    %rax,%rcx
ffff80000010a676:	44 89 ea             	mov    %r13d,%edx
ffff80000010a679:	be 10 00 00 00       	mov    $0x10,%esi
ffff80000010a67e:	bf 00 00 00 00       	mov    $0x0,%edi
ffff80000010a683:	49 89 df             	mov    %rbx,%r15
ffff80000010a686:	b8 00 00 00 00       	mov    $0x0,%eax
ffff80000010a68b:	49 b8 1b 53 ff ff ff 	movabs $0xffffffffffff531b,%r8
ffff80000010a692:	ff ff ff 
ffff80000010a695:	49 01 d8             	add    %rbx,%r8
ffff80000010a698:	41 ff d0             	call   *%r8
ffff80000010a69b:	48 8b 45 b0          	mov    -0x50(%rbp),%rax
ffff80000010a69f:	25 f8 ff 00 00       	and    $0xfff8,%eax
ffff80000010a6a4:	48 89 c2             	mov    %rax,%rdx
ffff80000010a6a7:	41 b4 00             	mov    $0x0,%r12b
ffff80000010a6aa:	b8 00 00 00 00       	mov    $0x0,%eax
ffff80000010a6af:	44 89 e1             	mov    %r12d,%ecx
ffff80000010a6b2:	88 c5                	mov    %al,%ch
ffff80000010a6b4:	41 89 cc             	mov    %ecx,%r12d
ffff80000010a6b7:	44 89 e0             	mov    %r12d,%eax
ffff80000010a6ba:	0d 00 00 ff 00       	or     $0xff0000,%eax
ffff80000010a6bf:	41 89 c4             	mov    %eax,%r12d
ffff80000010a6c2:	44 89 e0             	mov    %r12d,%eax
ffff80000010a6c5:	25 ff ff ff 00       	and    $0xffffff,%eax
ffff80000010a6ca:	41 89 c4             	mov    %eax,%r12d
ffff80000010a6cd:	49 89 d0             	mov    %rdx,%r8
ffff80000010a6d0:	48 b8 84 03 00 00 00 	movabs $0x384,%rax
ffff80000010a6d7:	00 00 00 
ffff80000010a6da:	48 8d 04 03          	lea    (%rbx,%rax,1),%rax
ffff80000010a6de:	48 89 c1             	mov    %rax,%rcx
ffff80000010a6e1:	44 89 e2             	mov    %r12d,%edx
ffff80000010a6e4:	be 20 00 00 00       	mov    $0x20,%esi
ffff80000010a6e9:	bf 00 00 00 00       	mov    $0x0,%edi
ffff80000010a6ee:	49 89 df             	mov    %rbx,%r15
ffff80000010a6f1:	b8 00 00 00 00       	mov    $0x0,%eax
ffff80000010a6f6:	49 b9 1b 53 ff ff ff 	movabs $0xffffffffffff531b,%r9
ffff80000010a6fd:	ff ff ff 
ffff80000010a700:	49 01 d9             	add    %rbx,%r9
ffff80000010a703:	41 ff d1             	call   *%r9
ffff80000010a706:	eb fe                	jmp    ffff80000010a706 <do_stack_segment_fault+0x2f3>

ffff80000010a708 <do_general_protection>:
ffff80000010a708:	f3 0f 1e fa          	endbr64 
ffff80000010a70c:	55                   	push   %rbp
ffff80000010a70d:	48 89 e5             	mov    %rsp,%rbp
ffff80000010a710:	41 57                	push   %r15
ffff80000010a712:	41 56                	push   %r14
ffff80000010a714:	41 55                	push   %r13
ffff80000010a716:	41 54                	push   %r12
ffff80000010a718:	53                   	push   %rbx
ffff80000010a719:	48 83 ec 38          	sub    $0x38,%rsp
ffff80000010a71d:	48 8d 1d f9 ff ff ff 	lea    -0x7(%rip),%rbx        # ffff80000010a71d <do_general_protection+0x15>
ffff80000010a724:	49 bb 3b 4e 00 00 00 	movabs $0x4e3b,%r11
ffff80000010a72b:	00 00 00 
ffff80000010a72e:	4c 01 db             	add    %r11,%rbx
ffff80000010a731:	48 89 7d b8          	mov    %rdi,-0x48(%rbp)
ffff80000010a735:	48 89 75 b0          	mov    %rsi,-0x50(%rbp)
ffff80000010a739:	48 c7 45 c8 00 00 00 	movq   $0x0,-0x38(%rbp)
ffff80000010a740:	00 
ffff80000010a741:	48 8b 55 b8          	mov    -0x48(%rbp),%rdx
ffff80000010a745:	48 81 c2 98 00 00 00 	add    $0x98,%rdx
ffff80000010a74c:	48 89 55 c8          	mov    %rdx,-0x38(%rbp)
ffff80000010a750:	48 8b 55 c8          	mov    -0x38(%rbp),%rdx
ffff80000010a754:	48 8b 12             	mov    (%rdx),%rdx
ffff80000010a757:	b0 00                	mov    $0x0,%al
ffff80000010a759:	b9 00 00 00 00       	mov    $0x0,%ecx
ffff80000010a75e:	88 cc                	mov    %cl,%ah
ffff80000010a760:	0d 00 00 ff 00       	or     $0xff0000,%eax
ffff80000010a765:	25 ff ff ff 00       	and    $0xffffff,%eax
ffff80000010a76a:	48 8b 75 b8          	mov    -0x48(%rbp),%rsi
ffff80000010a76e:	48 8b 4d b0          	mov    -0x50(%rbp),%rcx
ffff80000010a772:	48 83 ec 08          	sub    $0x8,%rsp
ffff80000010a776:	52                   	push   %rdx
ffff80000010a777:	49 89 f1             	mov    %rsi,%r9
ffff80000010a77a:	49 89 c8             	mov    %rcx,%r8
ffff80000010a77d:	48 ba 10 04 00 00 00 	movabs $0x410,%rdx
ffff80000010a784:	00 00 00 
ffff80000010a787:	48 8d 14 13          	lea    (%rbx,%rdx,1),%rdx
ffff80000010a78b:	48 89 d1             	mov    %rdx,%rcx
ffff80000010a78e:	89 c2                	mov    %eax,%edx
ffff80000010a790:	be 00 00 00 00       	mov    $0x0,%esi
ffff80000010a795:	bf 00 00 00 00       	mov    $0x0,%edi
ffff80000010a79a:	49 89 df             	mov    %rbx,%r15
ffff80000010a79d:	b8 00 00 00 00       	mov    $0x0,%eax
ffff80000010a7a2:	49 ba 1b 53 ff ff ff 	movabs $0xffffffffffff531b,%r10
ffff80000010a7a9:	ff ff ff 
ffff80000010a7ac:	49 01 da             	add    %rbx,%r10
ffff80000010a7af:	41 ff d2             	call   *%r10
ffff80000010a7b2:	48 83 c4 10          	add    $0x10,%rsp
ffff80000010a7b6:	48 8b 45 b0          	mov    -0x50(%rbp),%rax
ffff80000010a7ba:	83 e0 01             	and    $0x1,%eax
ffff80000010a7bd:	48 85 c0             	test   %rax,%rax
ffff80000010a7c0:	74 4e                	je     ffff80000010a810 <do_general_protection+0x108>
ffff80000010a7c2:	8b 4d ac             	mov    -0x54(%rbp),%ecx
ffff80000010a7c5:	b1 00                	mov    $0x0,%cl
ffff80000010a7c7:	b8 00 00 00 00       	mov    $0x0,%eax
ffff80000010a7cc:	88 c5                	mov    %al,%ch
ffff80000010a7ce:	81 c9 00 00 ff 00    	or     $0xff0000,%ecx
ffff80000010a7d4:	89 c8                	mov    %ecx,%eax
ffff80000010a7d6:	25 ff ff ff 00       	and    $0xffffff,%eax
ffff80000010a7db:	89 c2                	mov    %eax,%edx
ffff80000010a7dd:	48 b8 38 02 00 00 00 	movabs $0x238,%rax
ffff80000010a7e4:	00 00 00 
ffff80000010a7e7:	48 8d 04 03          	lea    (%rbx,%rax,1),%rax
ffff80000010a7eb:	48 89 c1             	mov    %rax,%rcx
ffff80000010a7ee:	be 10 00 00 00       	mov    $0x10,%esi
ffff80000010a7f3:	bf 00 00 00 00       	mov    $0x0,%edi
ffff80000010a7f8:	49 89 df             	mov    %rbx,%r15
ffff80000010a7fb:	b8 00 00 00 00       	mov    $0x0,%eax
ffff80000010a800:	49 b8 1b 53 ff ff ff 	movabs $0xffffffffffff531b,%r8
ffff80000010a807:	ff ff ff 
ffff80000010a80a:	49 01 d8             	add    %rbx,%r8
ffff80000010a80d:	41 ff d0             	call   *%r8
ffff80000010a810:	48 8b 45 b0          	mov    -0x50(%rbp),%rax
ffff80000010a814:	83 e0 02             	and    $0x2,%eax
ffff80000010a817:	48 85 c0             	test   %rax,%rax
ffff80000010a81a:	74 50                	je     ffff80000010a86c <do_general_protection+0x164>
ffff80000010a81c:	8b 4d a8             	mov    -0x58(%rbp),%ecx
ffff80000010a81f:	b1 00                	mov    $0x0,%cl
ffff80000010a821:	b8 00 00 00 00       	mov    $0x0,%eax
ffff80000010a826:	88 c5                	mov    %al,%ch
ffff80000010a828:	81 c9 00 00 ff 00    	or     $0xff0000,%ecx
ffff80000010a82e:	89 c8                	mov    %ecx,%eax
ffff80000010a830:	25 ff ff ff 00       	and    $0xffffff,%eax
ffff80000010a835:	89 c2                	mov    %eax,%edx
ffff80000010a837:	48 b8 b8 02 00 00 00 	movabs $0x2b8,%rax
ffff80000010a83e:	00 00 00 
ffff80000010a841:	48 8d 04 03          	lea    (%rbx,%rax,1),%rax
ffff80000010a845:	48 89 c1             	mov    %rax,%rcx
ffff80000010a848:	be 10 00 00 00       	mov    $0x10,%esi
ffff80000010a84d:	bf 00 00 00 00       	mov    $0x0,%edi
ffff80000010a852:	49 89 df             	mov    %rbx,%r15
ffff80000010a855:	b8 00 00 00 00       	mov    $0x0,%eax
ffff80000010a85a:	49 b8 1b 53 ff ff ff 	movabs $0xffffffffffff531b,%r8
ffff80000010a861:	ff ff ff 
ffff80000010a864:	49 01 d8             	add    %rbx,%r8
ffff80000010a867:	41 ff d0             	call   *%r8
ffff80000010a86a:	eb 4e                	jmp    ffff80000010a8ba <do_general_protection+0x1b2>
ffff80000010a86c:	8b 55 a4             	mov    -0x5c(%rbp),%edx
ffff80000010a86f:	b2 00                	mov    $0x0,%dl
ffff80000010a871:	b8 00 00 00 00       	mov    $0x0,%eax
ffff80000010a876:	88 c6                	mov    %al,%dh
ffff80000010a878:	81 ca 00 00 ff 00    	or     $0xff0000,%edx
ffff80000010a87e:	89 d0                	mov    %edx,%eax
ffff80000010a880:	25 ff ff ff 00       	and    $0xffffff,%eax
ffff80000010a885:	89 c2                	mov    %eax,%edx
ffff80000010a887:	48 b8 e8 02 00 00 00 	movabs $0x2e8,%rax
ffff80000010a88e:	00 00 00 
ffff80000010a891:	48 8d 04 03          	lea    (%rbx,%rax,1),%rax
ffff80000010a895:	48 89 c1             	mov    %rax,%rcx
ffff80000010a898:	be 10 00 00 00       	mov    $0x10,%esi
ffff80000010a89d:	bf 00 00 00 00       	mov    $0x0,%edi
ffff80000010a8a2:	49 89 df             	mov    %rbx,%r15
ffff80000010a8a5:	b8 00 00 00 00       	mov    $0x0,%eax
ffff80000010a8aa:	49 b8 1b 53 ff ff ff 	movabs $0xffffffffffff531b,%r8
ffff80000010a8b1:	ff ff ff 
ffff80000010a8b4:	49 01 d8             	add    %rbx,%r8
ffff80000010a8b7:	41 ff d0             	call   *%r8
ffff80000010a8ba:	48 8b 45 b0          	mov    -0x50(%rbp),%rax
ffff80000010a8be:	83 e0 02             	and    $0x2,%eax
ffff80000010a8c1:	48 85 c0             	test   %rax,%rax
ffff80000010a8c4:	0f 85 c6 00 00 00    	jne    ffff80000010a990 <do_general_protection+0x288>
ffff80000010a8ca:	48 8b 45 b0          	mov    -0x50(%rbp),%rax
ffff80000010a8ce:	83 e0 04             	and    $0x4,%eax
ffff80000010a8d1:	48 85 c0             	test   %rax,%rax
ffff80000010a8d4:	74 5e                	je     ffff80000010a934 <do_general_protection+0x22c>
ffff80000010a8d6:	41 b6 00             	mov    $0x0,%r14b
ffff80000010a8d9:	b8 00 00 00 00       	mov    $0x0,%eax
ffff80000010a8de:	44 89 f1             	mov    %r14d,%ecx
ffff80000010a8e1:	88 c5                	mov    %al,%ch
ffff80000010a8e3:	41 89 ce             	mov    %ecx,%r14d
ffff80000010a8e6:	44 89 f0             	mov    %r14d,%eax
ffff80000010a8e9:	0d 00 00 ff 00       	or     $0xff0000,%eax
ffff80000010a8ee:	41 89 c6             	mov    %eax,%r14d
ffff80000010a8f1:	44 89 f0             	mov    %r14d,%eax
ffff80000010a8f4:	25 ff ff ff 00       	and    $0xffffff,%eax
ffff80000010a8f9:	41 89 c6             	mov    %eax,%r14d
ffff80000010a8fc:	48 b8 20 03 00 00 00 	movabs $0x320,%rax
ffff80000010a903:	00 00 00 
ffff80000010a906:	48 8d 04 03          	lea    (%rbx,%rax,1),%rax
ffff80000010a90a:	48 89 c1             	mov    %rax,%rcx
ffff80000010a90d:	44 89 f2             	mov    %r14d,%edx
ffff80000010a910:	be 10 00 00 00       	mov    $0x10,%esi
ffff80000010a915:	bf 00 00 00 00       	mov    $0x0,%edi
ffff80000010a91a:	49 89 df             	mov    %rbx,%r15
ffff80000010a91d:	b8 00 00 00 00       	mov    $0x0,%eax
ffff80000010a922:	49 b8 1b 53 ff ff ff 	movabs $0xffffffffffff531b,%r8
ffff80000010a929:	ff ff ff 
ffff80000010a92c:	49 01 d8             	add    %rbx,%r8
ffff80000010a92f:	41 ff d0             	call   *%r8
ffff80000010a932:	eb 5c                	jmp    ffff80000010a990 <do_general_protection+0x288>
ffff80000010a934:	41 b5 00             	mov    $0x0,%r13b
ffff80000010a937:	b8 00 00 00 00       	mov    $0x0,%eax
ffff80000010a93c:	44 89 e9             	mov    %r13d,%ecx
ffff80000010a93f:	88 c5                	mov    %al,%ch
ffff80000010a941:	41 89 cd             	mov    %ecx,%r13d
ffff80000010a944:	44 89 e8             	mov    %r13d,%eax
ffff80000010a947:	0d 00 00 ff 00       	or     $0xff0000,%eax
ffff80000010a94c:	41 89 c5             	mov    %eax,%r13d
ffff80000010a94f:	44 89 e8             	mov    %r13d,%eax
ffff80000010a952:	25 ff ff ff 00       	and    $0xffffff,%eax
ffff80000010a957:	41 89 c5             	mov    %eax,%r13d
ffff80000010a95a:	48 b8 58 03 00 00 00 	movabs $0x358,%rax
ffff80000010a961:	00 00 00 
ffff80000010a964:	48 8d 04 03          	lea    (%rbx,%rax,1),%rax
ffff80000010a968:	48 89 c1             	mov    %rax,%rcx
ffff80000010a96b:	44 89 ea             	mov    %r13d,%edx
ffff80000010a96e:	be 10 00 00 00       	mov    $0x10,%esi
ffff80000010a973:	bf 00 00 00 00       	mov    $0x0,%edi
ffff80000010a978:	49 89 df             	mov    %rbx,%r15
ffff80000010a97b:	b8 00 00 00 00       	mov    $0x0,%eax
ffff80000010a980:	49 b8 1b 53 ff ff ff 	movabs $0xffffffffffff531b,%r8
ffff80000010a987:	ff ff ff 
ffff80000010a98a:	49 01 d8             	add    %rbx,%r8
ffff80000010a98d:	41 ff d0             	call   *%r8
ffff80000010a990:	48 8b 45 b0          	mov    -0x50(%rbp),%rax
ffff80000010a994:	25 f8 ff 00 00       	and    $0xfff8,%eax
ffff80000010a999:	48 89 c2             	mov    %rax,%rdx
ffff80000010a99c:	41 b4 00             	mov    $0x0,%r12b
ffff80000010a99f:	b8 00 00 00 00       	mov    $0x0,%eax
ffff80000010a9a4:	44 89 e1             	mov    %r12d,%ecx
ffff80000010a9a7:	88 c5                	mov    %al,%ch
ffff80000010a9a9:	41 89 cc             	mov    %ecx,%r12d
ffff80000010a9ac:	44 89 e0             	mov    %r12d,%eax
ffff80000010a9af:	0d 00 00 ff 00       	or     $0xff0000,%eax
ffff80000010a9b4:	41 89 c4             	mov    %eax,%r12d
ffff80000010a9b7:	44 89 e0             	mov    %r12d,%eax
ffff80000010a9ba:	25 ff ff ff 00       	and    $0xffffff,%eax
ffff80000010a9bf:	41 89 c4             	mov    %eax,%r12d
ffff80000010a9c2:	49 89 d0             	mov    %rdx,%r8
ffff80000010a9c5:	48 b8 84 03 00 00 00 	movabs $0x384,%rax
ffff80000010a9cc:	00 00 00 
ffff80000010a9cf:	48 8d 04 03          	lea    (%rbx,%rax,1),%rax
ffff80000010a9d3:	48 89 c1             	mov    %rax,%rcx
ffff80000010a9d6:	44 89 e2             	mov    %r12d,%edx
ffff80000010a9d9:	be 00 00 00 00       	mov    $0x0,%esi
ffff80000010a9de:	bf 00 00 00 00       	mov    $0x0,%edi
ffff80000010a9e3:	49 89 df             	mov    %rbx,%r15
ffff80000010a9e6:	b8 00 00 00 00       	mov    $0x0,%eax
ffff80000010a9eb:	49 b9 1b 53 ff ff ff 	movabs $0xffffffffffff531b,%r9
ffff80000010a9f2:	ff ff ff 
ffff80000010a9f5:	49 01 d9             	add    %rbx,%r9
ffff80000010a9f8:	41 ff d1             	call   *%r9
ffff80000010a9fb:	eb fe                	jmp    ffff80000010a9fb <do_general_protection+0x2f3>

ffff80000010a9fd <do_page_fault>:
ffff80000010a9fd:	f3 0f 1e fa          	endbr64 
ffff80000010aa01:	55                   	push   %rbp
ffff80000010aa02:	48 89 e5             	mov    %rsp,%rbp
ffff80000010aa05:	41 57                	push   %r15
ffff80000010aa07:	41 56                	push   %r14
ffff80000010aa09:	41 55                	push   %r13
ffff80000010aa0b:	41 54                	push   %r12
ffff80000010aa0d:	53                   	push   %rbx
ffff80000010aa0e:	48 83 ec 48          	sub    $0x48,%rsp
ffff80000010aa12:	48 8d 1d f9 ff ff ff 	lea    -0x7(%rip),%rbx        # ffff80000010aa12 <do_page_fault+0x15>
ffff80000010aa19:	49 bb 46 4b 00 00 00 	movabs $0x4b46,%r11
ffff80000010aa20:	00 00 00 
ffff80000010aa23:	4c 01 db             	add    %r11,%rbx
ffff80000010aa26:	48 89 7d b8          	mov    %rdi,-0x48(%rbp)
ffff80000010aa2a:	48 89 75 b0          	mov    %rsi,-0x50(%rbp)
ffff80000010aa2e:	48 c7 45 c8 00 00 00 	movq   $0x0,-0x38(%rbp)
ffff80000010aa35:	00 
ffff80000010aa36:	48 c7 45 c0 00 00 00 	movq   $0x0,-0x40(%rbp)
ffff80000010aa3d:	00 
ffff80000010aa3e:	0f 20 d2             	mov    %cr2,%rdx
ffff80000010aa41:	48 89 55 c0          	mov    %rdx,-0x40(%rbp)
ffff80000010aa45:	48 8b 55 b8          	mov    -0x48(%rbp),%rdx
ffff80000010aa49:	48 81 c2 98 00 00 00 	add    $0x98,%rdx
ffff80000010aa50:	48 89 55 c8          	mov    %rdx,-0x38(%rbp)
ffff80000010aa54:	48 8b 55 c8          	mov    -0x38(%rbp),%rdx
ffff80000010aa58:	48 8b 12             	mov    (%rdx),%rdx
ffff80000010aa5b:	b0 00                	mov    $0x0,%al
ffff80000010aa5d:	b9 00 00 00 00       	mov    $0x0,%ecx
ffff80000010aa62:	88 cc                	mov    %cl,%ah
ffff80000010aa64:	0d 00 00 ff 00       	or     $0xff0000,%eax
ffff80000010aa69:	25 ff ff ff 00       	and    $0xffffff,%eax
ffff80000010aa6e:	48 8b 75 b8          	mov    -0x48(%rbp),%rsi
ffff80000010aa72:	48 8b 4d b0          	mov    -0x50(%rbp),%rcx
ffff80000010aa76:	48 83 ec 08          	sub    $0x8,%rsp
ffff80000010aa7a:	52                   	push   %rdx
ffff80000010aa7b:	49 89 f1             	mov    %rsi,%r9
ffff80000010aa7e:	49 89 c8             	mov    %rcx,%r8
ffff80000010aa81:	48 ba 48 04 00 00 00 	movabs $0x448,%rdx
ffff80000010aa88:	00 00 00 
ffff80000010aa8b:	48 8d 14 13          	lea    (%rbx,%rdx,1),%rdx
ffff80000010aa8f:	48 89 d1             	mov    %rdx,%rcx
ffff80000010aa92:	89 c2                	mov    %eax,%edx
ffff80000010aa94:	be 00 00 00 00       	mov    $0x0,%esi
ffff80000010aa99:	bf 00 00 00 00       	mov    $0x0,%edi
ffff80000010aa9e:	49 89 df             	mov    %rbx,%r15
ffff80000010aaa1:	b8 00 00 00 00       	mov    $0x0,%eax
ffff80000010aaa6:	49 ba 1b 53 ff ff ff 	movabs $0xffffffffffff531b,%r10
ffff80000010aaad:	ff ff ff 
ffff80000010aab0:	49 01 da             	add    %rbx,%r10
ffff80000010aab3:	41 ff d2             	call   *%r10
ffff80000010aab6:	48 83 c4 10          	add    $0x10,%rsp
ffff80000010aaba:	48 8b 45 b0          	mov    -0x50(%rbp),%rax
ffff80000010aabe:	83 e0 01             	and    $0x1,%eax
ffff80000010aac1:	48 85 c0             	test   %rax,%rax
ffff80000010aac4:	75 5c                	jne    ffff80000010ab22 <do_page_fault+0x125>
ffff80000010aac6:	41 b4 00             	mov    $0x0,%r12b
ffff80000010aac9:	b8 00 00 00 00       	mov    $0x0,%eax
ffff80000010aace:	44 89 e1             	mov    %r12d,%ecx
ffff80000010aad1:	88 c5                	mov    %al,%ch
ffff80000010aad3:	41 89 cc             	mov    %ecx,%r12d
ffff80000010aad6:	44 89 e0             	mov    %r12d,%eax
ffff80000010aad9:	0d 00 00 ff 00       	or     $0xff0000,%eax
ffff80000010aade:	41 89 c4             	mov    %eax,%r12d
ffff80000010aae1:	44 89 e0             	mov    %r12d,%eax
ffff80000010aae4:	25 ff ff ff 00       	and    $0xffffff,%eax
ffff80000010aae9:	41 89 c4             	mov    %eax,%r12d
ffff80000010aaec:	48 b8 77 04 00 00 00 	movabs $0x477,%rax
ffff80000010aaf3:	00 00 00 
ffff80000010aaf6:	48 8d 04 03          	lea    (%rbx,%rax,1),%rax
ffff80000010aafa:	48 89 c1             	mov    %rax,%rcx
ffff80000010aafd:	44 89 e2             	mov    %r12d,%edx
ffff80000010ab00:	be 10 00 00 00       	mov    $0x10,%esi
ffff80000010ab05:	bf 00 00 00 00       	mov    $0x0,%edi
ffff80000010ab0a:	49 89 df             	mov    %rbx,%r15
ffff80000010ab0d:	b8 00 00 00 00       	mov    $0x0,%eax
ffff80000010ab12:	49 b8 1b 53 ff ff ff 	movabs $0xffffffffffff531b,%r8
ffff80000010ab19:	ff ff ff 
ffff80000010ab1c:	49 01 d8             	add    %rbx,%r8
ffff80000010ab1f:	41 ff d0             	call   *%r8
ffff80000010ab22:	48 8b 45 b0          	mov    -0x50(%rbp),%rax
ffff80000010ab26:	83 e0 02             	and    $0x2,%eax
ffff80000010ab29:	48 85 c0             	test   %rax,%rax
ffff80000010ab2c:	74 50                	je     ffff80000010ab7e <do_page_fault+0x181>
ffff80000010ab2e:	8b 4d ac             	mov    -0x54(%rbp),%ecx
ffff80000010ab31:	b1 00                	mov    $0x0,%cl
ffff80000010ab33:	b8 00 00 00 00       	mov    $0x0,%eax
ffff80000010ab38:	88 c5                	mov    %al,%ch
ffff80000010ab3a:	81 c9 00 00 ff 00    	or     $0xff0000,%ecx
ffff80000010ab40:	89 c8                	mov    %ecx,%eax
ffff80000010ab42:	25 ff ff ff 00       	and    $0xffffff,%eax
ffff80000010ab47:	89 c2                	mov    %eax,%edx
ffff80000010ab49:	48 b8 8a 04 00 00 00 	movabs $0x48a,%rax
ffff80000010ab50:	00 00 00 
ffff80000010ab53:	48 8d 04 03          	lea    (%rbx,%rax,1),%rax
ffff80000010ab57:	48 89 c1             	mov    %rax,%rcx
ffff80000010ab5a:	be 10 00 00 00       	mov    $0x10,%esi
ffff80000010ab5f:	bf 00 00 00 00       	mov    $0x0,%edi
ffff80000010ab64:	49 89 df             	mov    %rbx,%r15
ffff80000010ab67:	b8 00 00 00 00       	mov    $0x0,%eax
ffff80000010ab6c:	49 b8 1b 53 ff ff ff 	movabs $0xffffffffffff531b,%r8
ffff80000010ab73:	ff ff ff 
ffff80000010ab76:	49 01 d8             	add    %rbx,%r8
ffff80000010ab79:	41 ff d0             	call   *%r8
ffff80000010ab7c:	eb 4e                	jmp    ffff80000010abcc <do_page_fault+0x1cf>
ffff80000010ab7e:	8b 4d a8             	mov    -0x58(%rbp),%ecx
ffff80000010ab81:	b1 00                	mov    $0x0,%cl
ffff80000010ab83:	b8 00 00 00 00       	mov    $0x0,%eax
ffff80000010ab88:	88 c5                	mov    %al,%ch
ffff80000010ab8a:	81 c9 00 00 ff 00    	or     $0xff0000,%ecx
ffff80000010ab90:	89 c8                	mov    %ecx,%eax
ffff80000010ab92:	25 ff ff ff 00       	and    $0xffffff,%eax
ffff80000010ab97:	89 c2                	mov    %eax,%edx
ffff80000010ab99:	48 b8 9e 04 00 00 00 	movabs $0x49e,%rax
ffff80000010aba0:	00 00 00 
ffff80000010aba3:	48 8d 04 03          	lea    (%rbx,%rax,1),%rax
ffff80000010aba7:	48 89 c1             	mov    %rax,%rcx
ffff80000010abaa:	be 10 00 00 00       	mov    $0x10,%esi
ffff80000010abaf:	bf 00 00 00 00       	mov    $0x0,%edi
ffff80000010abb4:	49 89 df             	mov    %rbx,%r15
ffff80000010abb7:	b8 00 00 00 00       	mov    $0x0,%eax
ffff80000010abbc:	49 b8 1b 53 ff ff ff 	movabs $0xffffffffffff531b,%r8
ffff80000010abc3:	ff ff ff 
ffff80000010abc6:	49 01 d8             	add    %rbx,%r8
ffff80000010abc9:	41 ff d0             	call   *%r8
ffff80000010abcc:	48 8b 45 b0          	mov    -0x50(%rbp),%rax
ffff80000010abd0:	83 e0 04             	and    $0x4,%eax
ffff80000010abd3:	48 85 c0             	test   %rax,%rax
ffff80000010abd6:	74 50                	je     ffff80000010ac28 <do_page_fault+0x22b>
ffff80000010abd8:	8b 55 a4             	mov    -0x5c(%rbp),%edx
ffff80000010abdb:	b2 00                	mov    $0x0,%dl
ffff80000010abdd:	b8 00 00 00 00       	mov    $0x0,%eax
ffff80000010abe2:	88 c6                	mov    %al,%dh
ffff80000010abe4:	81 ca 00 00 ff 00    	or     $0xff0000,%edx
ffff80000010abea:	89 d0                	mov    %edx,%eax
ffff80000010abec:	25 ff ff ff 00       	and    $0xffffff,%eax
ffff80000010abf1:	89 c2                	mov    %eax,%edx
ffff80000010abf3:	48 b8 b1 04 00 00 00 	movabs $0x4b1,%rax
ffff80000010abfa:	00 00 00 
ffff80000010abfd:	48 8d 04 03          	lea    (%rbx,%rax,1),%rax
ffff80000010ac01:	48 89 c1             	mov    %rax,%rcx
ffff80000010ac04:	be 10 00 00 00       	mov    $0x10,%esi
ffff80000010ac09:	bf 00 00 00 00       	mov    $0x0,%edi
ffff80000010ac0e:	49 89 df             	mov    %rbx,%r15
ffff80000010ac11:	b8 00 00 00 00       	mov    $0x0,%eax
ffff80000010ac16:	49 b8 1b 53 ff ff ff 	movabs $0xffffffffffff531b,%r8
ffff80000010ac1d:	ff ff ff 
ffff80000010ac20:	49 01 d8             	add    %rbx,%r8
ffff80000010ac23:	41 ff d0             	call   *%r8
ffff80000010ac26:	eb 4e                	jmp    ffff80000010ac76 <do_page_fault+0x279>
ffff80000010ac28:	8b 4d a0             	mov    -0x60(%rbp),%ecx
ffff80000010ac2b:	b1 00                	mov    $0x0,%cl
ffff80000010ac2d:	b8 00 00 00 00       	mov    $0x0,%eax
ffff80000010ac32:	88 c5                	mov    %al,%ch
ffff80000010ac34:	81 c9 00 00 ff 00    	or     $0xff0000,%ecx
ffff80000010ac3a:	89 c8                	mov    %ecx,%eax
ffff80000010ac3c:	25 ff ff ff 00       	and    $0xffffff,%eax
ffff80000010ac41:	89 c2                	mov    %eax,%edx
ffff80000010ac43:	48 b8 c3 04 00 00 00 	movabs $0x4c3,%rax
ffff80000010ac4a:	00 00 00 
ffff80000010ac4d:	48 8d 04 03          	lea    (%rbx,%rax,1),%rax
ffff80000010ac51:	48 89 c1             	mov    %rax,%rcx
ffff80000010ac54:	be 10 00 00 00       	mov    $0x10,%esi
ffff80000010ac59:	bf 00 00 00 00       	mov    $0x0,%edi
ffff80000010ac5e:	49 89 df             	mov    %rbx,%r15
ffff80000010ac61:	b8 00 00 00 00       	mov    $0x0,%eax
ffff80000010ac66:	49 b8 1b 53 ff ff ff 	movabs $0xffffffffffff531b,%r8
ffff80000010ac6d:	ff ff ff 
ffff80000010ac70:	49 01 d8             	add    %rbx,%r8
ffff80000010ac73:	41 ff d0             	call   *%r8
ffff80000010ac76:	48 8b 45 b0          	mov    -0x50(%rbp),%rax
ffff80000010ac7a:	83 e0 08             	and    $0x8,%eax
ffff80000010ac7d:	48 85 c0             	test   %rax,%rax
ffff80000010ac80:	74 4e                	je     ffff80000010acd0 <do_page_fault+0x2d3>
ffff80000010ac82:	8b 55 9c             	mov    -0x64(%rbp),%edx
ffff80000010ac85:	b2 00                	mov    $0x0,%dl
ffff80000010ac87:	b8 00 00 00 00       	mov    $0x0,%eax
ffff80000010ac8c:	88 c6                	mov    %al,%dh
ffff80000010ac8e:	81 ca 00 00 ff 00    	or     $0xff0000,%edx
ffff80000010ac94:	89 d0                	mov    %edx,%eax
ffff80000010ac96:	25 ff ff ff 00       	and    $0xffffff,%eax
ffff80000010ac9b:	89 c2                	mov    %eax,%edx
ffff80000010ac9d:	48 b8 df 04 00 00 00 	movabs $0x4df,%rax
ffff80000010aca4:	00 00 00 
ffff80000010aca7:	48 8d 04 03          	lea    (%rbx,%rax,1),%rax
ffff80000010acab:	48 89 c1             	mov    %rax,%rcx
ffff80000010acae:	be 10 00 00 00       	mov    $0x10,%esi
ffff80000010acb3:	bf 00 00 00 00       	mov    $0x0,%edi
ffff80000010acb8:	49 89 df             	mov    %rbx,%r15
ffff80000010acbb:	b8 00 00 00 00       	mov    $0x0,%eax
ffff80000010acc0:	49 b8 1b 53 ff ff ff 	movabs $0xffffffffffff531b,%r8
ffff80000010acc7:	ff ff ff 
ffff80000010acca:	49 01 d8             	add    %rbx,%r8
ffff80000010accd:	41 ff d0             	call   *%r8
ffff80000010acd0:	48 8b 45 b0          	mov    -0x50(%rbp),%rax
ffff80000010acd4:	83 e0 10             	and    $0x10,%eax
ffff80000010acd7:	48 85 c0             	test   %rax,%rax
ffff80000010acda:	74 5c                	je     ffff80000010ad38 <do_page_fault+0x33b>
ffff80000010acdc:	41 b6 00             	mov    $0x0,%r14b
ffff80000010acdf:	b8 00 00 00 00       	mov    $0x0,%eax
ffff80000010ace4:	44 89 f1             	mov    %r14d,%ecx
ffff80000010ace7:	88 c5                	mov    %al,%ch
ffff80000010ace9:	41 89 ce             	mov    %ecx,%r14d
ffff80000010acec:	44 89 f0             	mov    %r14d,%eax
ffff80000010acef:	0d 00 00 ff 00       	or     $0xff0000,%eax
ffff80000010acf4:	41 89 c6             	mov    %eax,%r14d
ffff80000010acf7:	44 89 f0             	mov    %r14d,%eax
ffff80000010acfa:	25 ff ff ff 00       	and    $0xffffff,%eax
ffff80000010acff:	41 89 c6             	mov    %eax,%r14d
ffff80000010ad02:	48 b8 00 05 00 00 00 	movabs $0x500,%rax
ffff80000010ad09:	00 00 00 
ffff80000010ad0c:	48 8d 04 03          	lea    (%rbx,%rax,1),%rax
ffff80000010ad10:	48 89 c1             	mov    %rax,%rcx
ffff80000010ad13:	44 89 f2             	mov    %r14d,%edx
ffff80000010ad16:	be 10 00 00 00       	mov    $0x10,%esi
ffff80000010ad1b:	bf 00 00 00 00       	mov    $0x0,%edi
ffff80000010ad20:	49 89 df             	mov    %rbx,%r15
ffff80000010ad23:	b8 00 00 00 00       	mov    $0x0,%eax
ffff80000010ad28:	49 b8 1b 53 ff ff ff 	movabs $0xffffffffffff531b,%r8
ffff80000010ad2f:	ff ff ff 
ffff80000010ad32:	49 01 d8             	add    %rbx,%r8
ffff80000010ad35:	41 ff d0             	call   *%r8
ffff80000010ad38:	41 b5 00             	mov    $0x0,%r13b
ffff80000010ad3b:	b8 00 00 00 00       	mov    $0x0,%eax
ffff80000010ad40:	44 89 ea             	mov    %r13d,%edx
ffff80000010ad43:	88 c6                	mov    %al,%dh
ffff80000010ad45:	41 89 d5             	mov    %edx,%r13d
ffff80000010ad48:	44 89 e8             	mov    %r13d,%eax
ffff80000010ad4b:	0d 00 00 ff 00       	or     $0xff0000,%eax
ffff80000010ad50:	41 89 c5             	mov    %eax,%r13d
ffff80000010ad53:	44 89 e8             	mov    %r13d,%eax
ffff80000010ad56:	25 ff ff ff 00       	and    $0xffffff,%eax
ffff80000010ad5b:	41 89 c5             	mov    %eax,%r13d
ffff80000010ad5e:	48 8b 45 c0          	mov    -0x40(%rbp),%rax
ffff80000010ad62:	49 89 c0             	mov    %rax,%r8
ffff80000010ad65:	48 b8 1f 05 00 00 00 	movabs $0x51f,%rax
ffff80000010ad6c:	00 00 00 
ffff80000010ad6f:	48 8d 04 03          	lea    (%rbx,%rax,1),%rax
ffff80000010ad73:	48 89 c1             	mov    %rax,%rcx
ffff80000010ad76:	44 89 ea             	mov    %r13d,%edx
ffff80000010ad79:	be 20 00 00 00       	mov    $0x20,%esi
ffff80000010ad7e:	bf 00 00 00 00       	mov    $0x0,%edi
ffff80000010ad83:	49 89 df             	mov    %rbx,%r15
ffff80000010ad86:	b8 00 00 00 00       	mov    $0x0,%eax
ffff80000010ad8b:	49 b9 1b 53 ff ff ff 	movabs $0xffffffffffff531b,%r9
ffff80000010ad92:	ff ff ff 
ffff80000010ad95:	49 01 d9             	add    %rbx,%r9
ffff80000010ad98:	41 ff d1             	call   *%r9
ffff80000010ad9b:	eb fe                	jmp    ffff80000010ad9b <do_page_fault+0x39e>

ffff80000010ad9d <do_x87_FPU_error>:
ffff80000010ad9d:	f3 0f 1e fa          	endbr64 
ffff80000010ada1:	55                   	push   %rbp
ffff80000010ada2:	48 89 e5             	mov    %rsp,%rbp
ffff80000010ada5:	41 57                	push   %r15
ffff80000010ada7:	48 83 ec 28          	sub    $0x28,%rsp
ffff80000010adab:	4c 8d 15 f9 ff ff ff 	lea    -0x7(%rip),%r10        # ffff80000010adab <do_x87_FPU_error+0xe>
ffff80000010adb2:	49 bb ad 47 00 00 00 	movabs $0x47ad,%r11
ffff80000010adb9:	00 00 00 
ffff80000010adbc:	4d 01 da             	add    %r11,%r10
ffff80000010adbf:	48 89 7d d8          	mov    %rdi,-0x28(%rbp)
ffff80000010adc3:	48 89 75 d0          	mov    %rsi,-0x30(%rbp)
ffff80000010adc7:	48 c7 45 e8 00 00 00 	movq   $0x0,-0x18(%rbp)
ffff80000010adce:	00 
ffff80000010adcf:	48 8b 55 d8          	mov    -0x28(%rbp),%rdx
ffff80000010add3:	48 81 c2 98 00 00 00 	add    $0x98,%rdx
ffff80000010adda:	48 89 55 e8          	mov    %rdx,-0x18(%rbp)
ffff80000010adde:	48 8b 55 e8          	mov    -0x18(%rbp),%rdx
ffff80000010ade2:	48 8b 12             	mov    (%rdx),%rdx
ffff80000010ade5:	b0 00                	mov    $0x0,%al
ffff80000010ade7:	b9 00 00 00 00       	mov    $0x0,%ecx
ffff80000010adec:	88 cc                	mov    %cl,%ah
ffff80000010adee:	0d 00 00 ff 00       	or     $0xff0000,%eax
ffff80000010adf3:	25 ff ff ff 00       	and    $0xffffff,%eax
ffff80000010adf8:	48 8b 75 d8          	mov    -0x28(%rbp),%rsi
ffff80000010adfc:	48 8b 4d d0          	mov    -0x30(%rbp),%rcx
ffff80000010ae00:	48 83 ec 08          	sub    $0x8,%rsp
ffff80000010ae04:	52                   	push   %rdx
ffff80000010ae05:	49 89 f1             	mov    %rsi,%r9
ffff80000010ae08:	49 89 c8             	mov    %rcx,%r8
ffff80000010ae0b:	48 ba 28 05 00 00 00 	movabs $0x528,%rdx
ffff80000010ae12:	00 00 00 
ffff80000010ae15:	49 8d 14 12          	lea    (%r10,%rdx,1),%rdx
ffff80000010ae19:	48 89 d1             	mov    %rdx,%rcx
ffff80000010ae1c:	89 c2                	mov    %eax,%edx
ffff80000010ae1e:	be 00 00 00 00       	mov    $0x0,%esi
ffff80000010ae23:	bf 00 00 00 00       	mov    $0x0,%edi
ffff80000010ae28:	4d 89 d7             	mov    %r10,%r15
ffff80000010ae2b:	b8 00 00 00 00       	mov    $0x0,%eax
ffff80000010ae30:	49 bb 1b 53 ff ff ff 	movabs $0xffffffffffff531b,%r11
ffff80000010ae37:	ff ff ff 
ffff80000010ae3a:	4d 01 d3             	add    %r10,%r11
ffff80000010ae3d:	41 ff d3             	call   *%r11
ffff80000010ae40:	48 83 c4 10          	add    $0x10,%rsp
ffff80000010ae44:	eb fe                	jmp    ffff80000010ae44 <do_x87_FPU_error+0xa7>

ffff80000010ae46 <do_alignment_check>:
ffff80000010ae46:	f3 0f 1e fa          	endbr64 
ffff80000010ae4a:	55                   	push   %rbp
ffff80000010ae4b:	48 89 e5             	mov    %rsp,%rbp
ffff80000010ae4e:	41 57                	push   %r15
ffff80000010ae50:	48 83 ec 28          	sub    $0x28,%rsp
ffff80000010ae54:	4c 8d 15 f9 ff ff ff 	lea    -0x7(%rip),%r10        # ffff80000010ae54 <do_alignment_check+0xe>
ffff80000010ae5b:	49 bb 04 47 00 00 00 	movabs $0x4704,%r11
ffff80000010ae62:	00 00 00 
ffff80000010ae65:	4d 01 da             	add    %r11,%r10
ffff80000010ae68:	48 89 7d d8          	mov    %rdi,-0x28(%rbp)
ffff80000010ae6c:	48 89 75 d0          	mov    %rsi,-0x30(%rbp)
ffff80000010ae70:	48 c7 45 e8 00 00 00 	movq   $0x0,-0x18(%rbp)
ffff80000010ae77:	00 
ffff80000010ae78:	48 8b 55 d8          	mov    -0x28(%rbp),%rdx
ffff80000010ae7c:	48 81 c2 98 00 00 00 	add    $0x98,%rdx
ffff80000010ae83:	48 89 55 e8          	mov    %rdx,-0x18(%rbp)
ffff80000010ae87:	48 8b 55 e8          	mov    -0x18(%rbp),%rdx
ffff80000010ae8b:	48 8b 12             	mov    (%rdx),%rdx
ffff80000010ae8e:	b0 00                	mov    $0x0,%al
ffff80000010ae90:	b9 00 00 00 00       	mov    $0x0,%ecx
ffff80000010ae95:	88 cc                	mov    %cl,%ah
ffff80000010ae97:	0d 00 00 ff 00       	or     $0xff0000,%eax
ffff80000010ae9c:	25 ff ff ff 00       	and    $0xffffff,%eax
ffff80000010aea1:	48 8b 75 d8          	mov    -0x28(%rbp),%rsi
ffff80000010aea5:	48 8b 4d d0          	mov    -0x30(%rbp),%rcx
ffff80000010aea9:	48 83 ec 08          	sub    $0x8,%rsp
ffff80000010aead:	52                   	push   %rdx
ffff80000010aeae:	49 89 f1             	mov    %rsi,%r9
ffff80000010aeb1:	49 89 c8             	mov    %rcx,%r8
ffff80000010aeb4:	48 ba 60 05 00 00 00 	movabs $0x560,%rdx
ffff80000010aebb:	00 00 00 
ffff80000010aebe:	49 8d 14 12          	lea    (%r10,%rdx,1),%rdx
ffff80000010aec2:	48 89 d1             	mov    %rdx,%rcx
ffff80000010aec5:	89 c2                	mov    %eax,%edx
ffff80000010aec7:	be 00 00 00 00       	mov    $0x0,%esi
ffff80000010aecc:	bf 00 00 00 00       	mov    $0x0,%edi
ffff80000010aed1:	4d 89 d7             	mov    %r10,%r15
ffff80000010aed4:	b8 00 00 00 00       	mov    $0x0,%eax
ffff80000010aed9:	49 bb 1b 53 ff ff ff 	movabs $0xffffffffffff531b,%r11
ffff80000010aee0:	ff ff ff 
ffff80000010aee3:	4d 01 d3             	add    %r10,%r11
ffff80000010aee6:	41 ff d3             	call   *%r11
ffff80000010aee9:	48 83 c4 10          	add    $0x10,%rsp
ffff80000010aeed:	eb fe                	jmp    ffff80000010aeed <do_alignment_check+0xa7>

ffff80000010aeef <do_machine_check>:
ffff80000010aeef:	f3 0f 1e fa          	endbr64 
ffff80000010aef3:	55                   	push   %rbp
ffff80000010aef4:	48 89 e5             	mov    %rsp,%rbp
ffff80000010aef7:	41 57                	push   %r15
ffff80000010aef9:	48 83 ec 28          	sub    $0x28,%rsp
ffff80000010aefd:	4c 8d 15 f9 ff ff ff 	lea    -0x7(%rip),%r10        # ffff80000010aefd <do_machine_check+0xe>
ffff80000010af04:	49 bb 5b 46 00 00 00 	movabs $0x465b,%r11
ffff80000010af0b:	00 00 00 
ffff80000010af0e:	4d 01 da             	add    %r11,%r10
ffff80000010af11:	48 89 7d d8          	mov    %rdi,-0x28(%rbp)
ffff80000010af15:	48 89 75 d0          	mov    %rsi,-0x30(%rbp)
ffff80000010af19:	48 c7 45 e8 00 00 00 	movq   $0x0,-0x18(%rbp)
ffff80000010af20:	00 
ffff80000010af21:	48 8b 55 d8          	mov    -0x28(%rbp),%rdx
ffff80000010af25:	48 81 c2 98 00 00 00 	add    $0x98,%rdx
ffff80000010af2c:	48 89 55 e8          	mov    %rdx,-0x18(%rbp)
ffff80000010af30:	48 8b 55 e8          	mov    -0x18(%rbp),%rdx
ffff80000010af34:	48 8b 12             	mov    (%rdx),%rdx
ffff80000010af37:	b0 00                	mov    $0x0,%al
ffff80000010af39:	b9 00 00 00 00       	mov    $0x0,%ecx
ffff80000010af3e:	88 cc                	mov    %cl,%ah
ffff80000010af40:	0d 00 00 ff 00       	or     $0xff0000,%eax
ffff80000010af45:	25 ff ff ff 00       	and    $0xffffff,%eax
ffff80000010af4a:	48 8b 75 d8          	mov    -0x28(%rbp),%rsi
ffff80000010af4e:	48 8b 4d d0          	mov    -0x30(%rbp),%rcx
ffff80000010af52:	48 83 ec 08          	sub    $0x8,%rsp
ffff80000010af56:	52                   	push   %rdx
ffff80000010af57:	49 89 f1             	mov    %rsi,%r9
ffff80000010af5a:	49 89 c8             	mov    %rcx,%r8
ffff80000010af5d:	48 ba 98 05 00 00 00 	movabs $0x598,%rdx
ffff80000010af64:	00 00 00 
ffff80000010af67:	49 8d 14 12          	lea    (%r10,%rdx,1),%rdx
ffff80000010af6b:	48 89 d1             	mov    %rdx,%rcx
ffff80000010af6e:	89 c2                	mov    %eax,%edx
ffff80000010af70:	be 00 00 00 00       	mov    $0x0,%esi
ffff80000010af75:	bf 00 00 00 00       	mov    $0x0,%edi
ffff80000010af7a:	4d 89 d7             	mov    %r10,%r15
ffff80000010af7d:	b8 00 00 00 00       	mov    $0x0,%eax
ffff80000010af82:	49 bb 1b 53 ff ff ff 	movabs $0xffffffffffff531b,%r11
ffff80000010af89:	ff ff ff 
ffff80000010af8c:	4d 01 d3             	add    %r10,%r11
ffff80000010af8f:	41 ff d3             	call   *%r11
ffff80000010af92:	48 83 c4 10          	add    $0x10,%rsp
ffff80000010af96:	eb fe                	jmp    ffff80000010af96 <do_machine_check+0xa7>

ffff80000010af98 <do_SIMD_exception>:
ffff80000010af98:	f3 0f 1e fa          	endbr64 
ffff80000010af9c:	55                   	push   %rbp
ffff80000010af9d:	48 89 e5             	mov    %rsp,%rbp
ffff80000010afa0:	41 57                	push   %r15
ffff80000010afa2:	48 83 ec 28          	sub    $0x28,%rsp
ffff80000010afa6:	4c 8d 15 f9 ff ff ff 	lea    -0x7(%rip),%r10        # ffff80000010afa6 <do_SIMD_exception+0xe>
ffff80000010afad:	49 bb b2 45 00 00 00 	movabs $0x45b2,%r11
ffff80000010afb4:	00 00 00 
ffff80000010afb7:	4d 01 da             	add    %r11,%r10
ffff80000010afba:	48 89 7d d8          	mov    %rdi,-0x28(%rbp)
ffff80000010afbe:	48 89 75 d0          	mov    %rsi,-0x30(%rbp)
ffff80000010afc2:	48 c7 45 e8 00 00 00 	movq   $0x0,-0x18(%rbp)
ffff80000010afc9:	00 
ffff80000010afca:	48 8b 55 d8          	mov    -0x28(%rbp),%rdx
ffff80000010afce:	48 81 c2 98 00 00 00 	add    $0x98,%rdx
ffff80000010afd5:	48 89 55 e8          	mov    %rdx,-0x18(%rbp)
ffff80000010afd9:	48 8b 55 e8          	mov    -0x18(%rbp),%rdx
ffff80000010afdd:	48 8b 12             	mov    (%rdx),%rdx
ffff80000010afe0:	b0 00                	mov    $0x0,%al
ffff80000010afe2:	b9 00 00 00 00       	mov    $0x0,%ecx
ffff80000010afe7:	88 cc                	mov    %cl,%ah
ffff80000010afe9:	0d 00 00 ff 00       	or     $0xff0000,%eax
ffff80000010afee:	25 ff ff ff 00       	and    $0xffffff,%eax
ffff80000010aff3:	48 8b 75 d8          	mov    -0x28(%rbp),%rsi
ffff80000010aff7:	48 8b 4d d0          	mov    -0x30(%rbp),%rcx
ffff80000010affb:	48 83 ec 08          	sub    $0x8,%rsp
ffff80000010afff:	52                   	push   %rdx
ffff80000010b000:	49 89 f1             	mov    %rsi,%r9
ffff80000010b003:	49 89 c8             	mov    %rcx,%r8
ffff80000010b006:	48 ba d0 05 00 00 00 	movabs $0x5d0,%rdx
ffff80000010b00d:	00 00 00 
ffff80000010b010:	49 8d 14 12          	lea    (%r10,%rdx,1),%rdx
ffff80000010b014:	48 89 d1             	mov    %rdx,%rcx
ffff80000010b017:	89 c2                	mov    %eax,%edx
ffff80000010b019:	be 00 00 00 00       	mov    $0x0,%esi
ffff80000010b01e:	bf 00 00 00 00       	mov    $0x0,%edi
ffff80000010b023:	4d 89 d7             	mov    %r10,%r15
ffff80000010b026:	b8 00 00 00 00       	mov    $0x0,%eax
ffff80000010b02b:	49 bb 1b 53 ff ff ff 	movabs $0xffffffffffff531b,%r11
ffff80000010b032:	ff ff ff 
ffff80000010b035:	4d 01 d3             	add    %r10,%r11
ffff80000010b038:	41 ff d3             	call   *%r11
ffff80000010b03b:	48 83 c4 10          	add    $0x10,%rsp
ffff80000010b03f:	eb fe                	jmp    ffff80000010b03f <do_SIMD_exception+0xa7>

ffff80000010b041 <do_virtualization_exception>:
ffff80000010b041:	f3 0f 1e fa          	endbr64 
ffff80000010b045:	55                   	push   %rbp
ffff80000010b046:	48 89 e5             	mov    %rsp,%rbp
ffff80000010b049:	41 57                	push   %r15
ffff80000010b04b:	48 83 ec 28          	sub    $0x28,%rsp
ffff80000010b04f:	4c 8d 15 f9 ff ff ff 	lea    -0x7(%rip),%r10        # ffff80000010b04f <do_virtualization_exception+0xe>
ffff80000010b056:	49 bb 09 45 00 00 00 	movabs $0x4509,%r11
ffff80000010b05d:	00 00 00 
ffff80000010b060:	4d 01 da             	add    %r11,%r10
ffff80000010b063:	48 89 7d d8          	mov    %rdi,-0x28(%rbp)
ffff80000010b067:	48 89 75 d0          	mov    %rsi,-0x30(%rbp)
ffff80000010b06b:	48 c7 45 e8 00 00 00 	movq   $0x0,-0x18(%rbp)
ffff80000010b072:	00 
ffff80000010b073:	48 8b 55 d8          	mov    -0x28(%rbp),%rdx
ffff80000010b077:	48 81 c2 98 00 00 00 	add    $0x98,%rdx
ffff80000010b07e:	48 89 55 e8          	mov    %rdx,-0x18(%rbp)
ffff80000010b082:	48 8b 55 e8          	mov    -0x18(%rbp),%rdx
ffff80000010b086:	48 8b 12             	mov    (%rdx),%rdx
ffff80000010b089:	b0 00                	mov    $0x0,%al
ffff80000010b08b:	b9 00 00 00 00       	mov    $0x0,%ecx
ffff80000010b090:	88 cc                	mov    %cl,%ah
ffff80000010b092:	0d 00 00 ff 00       	or     $0xff0000,%eax
ffff80000010b097:	25 ff ff ff 00       	and    $0xffffff,%eax
ffff80000010b09c:	48 8b 75 d8          	mov    -0x28(%rbp),%rsi
ffff80000010b0a0:	48 8b 4d d0          	mov    -0x30(%rbp),%rcx
ffff80000010b0a4:	48 83 ec 08          	sub    $0x8,%rsp
ffff80000010b0a8:	52                   	push   %rdx
ffff80000010b0a9:	49 89 f1             	mov    %rsi,%r9
ffff80000010b0ac:	49 89 c8             	mov    %rcx,%r8
ffff80000010b0af:	48 ba 08 06 00 00 00 	movabs $0x608,%rdx
ffff80000010b0b6:	00 00 00 
ffff80000010b0b9:	49 8d 14 12          	lea    (%r10,%rdx,1),%rdx
ffff80000010b0bd:	48 89 d1             	mov    %rdx,%rcx
ffff80000010b0c0:	89 c2                	mov    %eax,%edx
ffff80000010b0c2:	be 00 00 00 00       	mov    $0x0,%esi
ffff80000010b0c7:	bf 00 00 00 00       	mov    $0x0,%edi
ffff80000010b0cc:	4d 89 d7             	mov    %r10,%r15
ffff80000010b0cf:	b8 00 00 00 00       	mov    $0x0,%eax
ffff80000010b0d4:	49 bb 1b 53 ff ff ff 	movabs $0xffffffffffff531b,%r11
ffff80000010b0db:	ff ff ff 
ffff80000010b0de:	4d 01 d3             	add    %r10,%r11
ffff80000010b0e1:	41 ff d3             	call   *%r11
ffff80000010b0e4:	48 83 c4 10          	add    $0x10,%rsp
ffff80000010b0e8:	eb fe                	jmp    ffff80000010b0e8 <do_virtualization_exception+0xa7>

ffff80000010b0ea <sys_trap_init>:
ffff80000010b0ea:	f3 0f 1e fa          	endbr64 
ffff80000010b0ee:	55                   	push   %rbp
ffff80000010b0ef:	48 89 e5             	mov    %rsp,%rbp
ffff80000010b0f2:	48 81 ec 08 02 00 00 	sub    $0x208,%rsp
ffff80000010b0f9:	48 8d 35 f9 ff ff ff 	lea    -0x7(%rip),%rsi        # ffff80000010b0f9 <sys_trap_init+0xf>
ffff80000010b100:	49 bb 5f 44 00 00 00 	movabs $0x445f,%r11
ffff80000010b107:	00 00 00 
ffff80000010b10a:	4c 01 de             	add    %r11,%rsi
ffff80000010b10d:	c7 85 9c fd ff ff 00 	movl   $0x0,-0x264(%rbp)
ffff80000010b114:	00 00 00 
ffff80000010b117:	c6 85 9b fd ff ff 01 	movb   $0x1,-0x265(%rbp)
ffff80000010b11e:	48 b8 48 ff ff ff ff 	movabs $0xffffffffffffff48,%rax
ffff80000010b125:	ff ff ff 
ffff80000010b128:	48 8b 04 06          	mov    (%rsi,%rax,1),%rax
ffff80000010b12c:	48 89 85 90 fd ff ff 	mov    %rax,-0x270(%rbp)
ffff80000010b133:	8b 85 9c fd ff ff    	mov    -0x264(%rbp),%eax
ffff80000010b139:	48 c1 e0 04          	shl    $0x4,%rax
ffff80000010b13d:	48 89 c2             	mov    %rax,%rdx
ffff80000010b140:	48 b8 88 ff ff ff ff 	movabs $0xffffffffffffff88,%rax
ffff80000010b147:	ff ff ff 
ffff80000010b14a:	48 8b 04 06          	mov    (%rsi,%rax,1),%rax
ffff80000010b14e:	48 8d 3c 02          	lea    (%rdx,%rax,1),%rdi
ffff80000010b152:	8b 85 9c fd ff ff    	mov    -0x264(%rbp),%eax
ffff80000010b158:	48 c1 e0 04          	shl    $0x4,%rax
ffff80000010b15c:	48 8d 50 08          	lea    0x8(%rax),%rdx
ffff80000010b160:	48 b8 88 ff ff ff ff 	movabs $0xffffffffffffff88,%rax
ffff80000010b167:	ff ff ff 
ffff80000010b16a:	48 8b 04 06          	mov    (%rsi,%rax,1),%rax
ffff80000010b16e:	4c 8d 04 02          	lea    (%rdx,%rax,1),%r8
ffff80000010b172:	48 8b 85 90 fd ff ff 	mov    -0x270(%rbp),%rax
ffff80000010b179:	41 b9 00 00 08 00    	mov    $0x80000,%r9d
ffff80000010b17f:	0f b6 8d 9b fd ff ff 	movzbl -0x265(%rbp),%ecx
ffff80000010b186:	48 89 c2             	mov    %rax,%rdx
ffff80000010b189:	44 89 c8             	mov    %r9d,%eax
ffff80000010b18c:	66 89 d0             	mov    %dx,%ax
ffff80000010b18f:	48 83 e1 07          	and    $0x7,%rcx
ffff80000010b193:	48 81 c1 00 8f 00 00 	add    $0x8f00,%rcx
ffff80000010b19a:	48 c1 e1 20          	shl    $0x20,%rcx
ffff80000010b19e:	48 01 c8             	add    %rcx,%rax
ffff80000010b1a1:	48 31 c9             	xor    %rcx,%rcx
ffff80000010b1a4:	89 d1                	mov    %edx,%ecx
ffff80000010b1a6:	48 c1 e9 10          	shr    $0x10,%rcx
ffff80000010b1aa:	48 c1 e1 30          	shl    $0x30,%rcx
ffff80000010b1ae:	48 01 c8             	add    %rcx,%rax
ffff80000010b1b1:	48 89 07             	mov    %rax,(%rdi)
ffff80000010b1b4:	48 c1 ea 20          	shr    $0x20,%rdx
ffff80000010b1b8:	49 89 10             	mov    %rdx,(%r8)
ffff80000010b1bb:	48 89 85 88 fd ff ff 	mov    %rax,-0x278(%rbp)
ffff80000010b1c2:	48 89 95 80 fd ff ff 	mov    %rdx,-0x280(%rbp)
ffff80000010b1c9:	90                   	nop
ffff80000010b1ca:	c7 85 bc fd ff ff 01 	movl   $0x1,-0x244(%rbp)
ffff80000010b1d1:	00 00 00 
ffff80000010b1d4:	c6 85 bb fd ff ff 01 	movb   $0x1,-0x245(%rbp)
ffff80000010b1db:	48 b8 60 ff ff ff ff 	movabs $0xffffffffffffff60,%rax
ffff80000010b1e2:	ff ff ff 
ffff80000010b1e5:	48 8b 04 06          	mov    (%rsi,%rax,1),%rax
ffff80000010b1e9:	48 89 85 b0 fd ff ff 	mov    %rax,-0x250(%rbp)
ffff80000010b1f0:	8b 85 bc fd ff ff    	mov    -0x244(%rbp),%eax
ffff80000010b1f6:	48 c1 e0 04          	shl    $0x4,%rax
ffff80000010b1fa:	48 89 c2             	mov    %rax,%rdx
ffff80000010b1fd:	48 b8 88 ff ff ff ff 	movabs $0xffffffffffffff88,%rax
ffff80000010b204:	ff ff ff 
ffff80000010b207:	48 8b 04 06          	mov    (%rsi,%rax,1),%rax
ffff80000010b20b:	48 8d 3c 02          	lea    (%rdx,%rax,1),%rdi
ffff80000010b20f:	8b 85 bc fd ff ff    	mov    -0x244(%rbp),%eax
ffff80000010b215:	48 c1 e0 04          	shl    $0x4,%rax
ffff80000010b219:	48 8d 50 08          	lea    0x8(%rax),%rdx
ffff80000010b21d:	48 b8 88 ff ff ff ff 	movabs $0xffffffffffffff88,%rax
ffff80000010b224:	ff ff ff 
ffff80000010b227:	48 8b 04 06          	mov    (%rsi,%rax,1),%rax
ffff80000010b22b:	4c 8d 04 02          	lea    (%rdx,%rax,1),%r8
ffff80000010b22f:	48 8b 85 b0 fd ff ff 	mov    -0x250(%rbp),%rax
ffff80000010b236:	41 b9 00 00 08 00    	mov    $0x80000,%r9d
ffff80000010b23c:	0f b6 8d bb fd ff ff 	movzbl -0x245(%rbp),%ecx
ffff80000010b243:	48 89 c2             	mov    %rax,%rdx
ffff80000010b246:	44 89 c8             	mov    %r9d,%eax
ffff80000010b249:	66 89 d0             	mov    %dx,%ax
ffff80000010b24c:	48 83 e1 07          	and    $0x7,%rcx
ffff80000010b250:	48 81 c1 00 8f 00 00 	add    $0x8f00,%rcx
ffff80000010b257:	48 c1 e1 20          	shl    $0x20,%rcx
ffff80000010b25b:	48 01 c8             	add    %rcx,%rax
ffff80000010b25e:	48 31 c9             	xor    %rcx,%rcx
ffff80000010b261:	89 d1                	mov    %edx,%ecx
ffff80000010b263:	48 c1 e9 10          	shr    $0x10,%rcx
ffff80000010b267:	48 c1 e1 30          	shl    $0x30,%rcx
ffff80000010b26b:	48 01 c8             	add    %rcx,%rax
ffff80000010b26e:	48 89 07             	mov    %rax,(%rdi)
ffff80000010b271:	48 c1 ea 20          	shr    $0x20,%rdx
ffff80000010b275:	49 89 10             	mov    %rdx,(%r8)
ffff80000010b278:	48 89 85 a8 fd ff ff 	mov    %rax,-0x258(%rbp)
ffff80000010b27f:	48 89 95 a0 fd ff ff 	mov    %rdx,-0x260(%rbp)
ffff80000010b286:	90                   	nop
ffff80000010b287:	c7 85 dc fd ff ff 02 	movl   $0x2,-0x224(%rbp)
ffff80000010b28e:	00 00 00 
ffff80000010b291:	c6 85 db fd ff ff 01 	movb   $0x1,-0x225(%rbp)
ffff80000010b298:	48 b8 e8 ff ff ff ff 	movabs $0xffffffffffffffe8,%rax
ffff80000010b29f:	ff ff ff 
ffff80000010b2a2:	48 8b 04 06          	mov    (%rsi,%rax,1),%rax
ffff80000010b2a6:	48 89 85 d0 fd ff ff 	mov    %rax,-0x230(%rbp)
ffff80000010b2ad:	8b 85 dc fd ff ff    	mov    -0x224(%rbp),%eax
ffff80000010b2b3:	48 c1 e0 04          	shl    $0x4,%rax
ffff80000010b2b7:	48 89 c2             	mov    %rax,%rdx
ffff80000010b2ba:	48 b8 88 ff ff ff ff 	movabs $0xffffffffffffff88,%rax
ffff80000010b2c1:	ff ff ff 
ffff80000010b2c4:	48 8b 04 06          	mov    (%rsi,%rax,1),%rax
ffff80000010b2c8:	48 8d 3c 02          	lea    (%rdx,%rax,1),%rdi
ffff80000010b2cc:	8b 85 dc fd ff ff    	mov    -0x224(%rbp),%eax
ffff80000010b2d2:	48 c1 e0 04          	shl    $0x4,%rax
ffff80000010b2d6:	48 8d 50 08          	lea    0x8(%rax),%rdx
ffff80000010b2da:	48 b8 88 ff ff ff ff 	movabs $0xffffffffffffff88,%rax
ffff80000010b2e1:	ff ff ff 
ffff80000010b2e4:	48 8b 04 06          	mov    (%rsi,%rax,1),%rax
ffff80000010b2e8:	4c 8d 04 02          	lea    (%rdx,%rax,1),%r8
ffff80000010b2ec:	48 8b 85 d0 fd ff ff 	mov    -0x230(%rbp),%rax
ffff80000010b2f3:	41 b9 00 00 08 00    	mov    $0x80000,%r9d
ffff80000010b2f9:	0f b6 8d db fd ff ff 	movzbl -0x225(%rbp),%ecx
ffff80000010b300:	48 89 c2             	mov    %rax,%rdx
ffff80000010b303:	44 89 c8             	mov    %r9d,%eax
ffff80000010b306:	66 89 d0             	mov    %dx,%ax
ffff80000010b309:	48 83 e1 07          	and    $0x7,%rcx
ffff80000010b30d:	48 81 c1 00 8e 00 00 	add    $0x8e00,%rcx
ffff80000010b314:	48 c1 e1 20          	shl    $0x20,%rcx
ffff80000010b318:	48 01 c8             	add    %rcx,%rax
ffff80000010b31b:	48 31 c9             	xor    %rcx,%rcx
ffff80000010b31e:	89 d1                	mov    %edx,%ecx
ffff80000010b320:	48 c1 e9 10          	shr    $0x10,%rcx
ffff80000010b324:	48 c1 e1 30          	shl    $0x30,%rcx
ffff80000010b328:	48 01 c8             	add    %rcx,%rax
ffff80000010b32b:	48 89 07             	mov    %rax,(%rdi)
ffff80000010b32e:	48 c1 ea 20          	shr    $0x20,%rdx
ffff80000010b332:	49 89 10             	mov    %rdx,(%r8)
ffff80000010b335:	48 89 85 c8 fd ff ff 	mov    %rax,-0x238(%rbp)
ffff80000010b33c:	48 89 95 c0 fd ff ff 	mov    %rdx,-0x240(%rbp)
ffff80000010b343:	90                   	nop
ffff80000010b344:	c7 85 fc fd ff ff 03 	movl   $0x3,-0x204(%rbp)
ffff80000010b34b:	00 00 00 
ffff80000010b34e:	c6 85 fb fd ff ff 01 	movb   $0x1,-0x205(%rbp)
ffff80000010b355:	48 b8 f8 ff ff ff ff 	movabs $0xfffffffffffffff8,%rax
ffff80000010b35c:	ff ff ff 
ffff80000010b35f:	48 8b 04 06          	mov    (%rsi,%rax,1),%rax
ffff80000010b363:	48 89 85 f0 fd ff ff 	mov    %rax,-0x210(%rbp)
ffff80000010b36a:	8b 85 fc fd ff ff    	mov    -0x204(%rbp),%eax
ffff80000010b370:	48 c1 e0 04          	shl    $0x4,%rax
ffff80000010b374:	48 89 c2             	mov    %rax,%rdx
ffff80000010b377:	48 b8 88 ff ff ff ff 	movabs $0xffffffffffffff88,%rax
ffff80000010b37e:	ff ff ff 
ffff80000010b381:	48 8b 04 06          	mov    (%rsi,%rax,1),%rax
ffff80000010b385:	48 8d 3c 02          	lea    (%rdx,%rax,1),%rdi
ffff80000010b389:	8b 85 fc fd ff ff    	mov    -0x204(%rbp),%eax
ffff80000010b38f:	48 c1 e0 04          	shl    $0x4,%rax
ffff80000010b393:	48 8d 50 08          	lea    0x8(%rax),%rdx
ffff80000010b397:	48 b8 88 ff ff ff ff 	movabs $0xffffffffffffff88,%rax
ffff80000010b39e:	ff ff ff 
ffff80000010b3a1:	48 8b 04 06          	mov    (%rsi,%rax,1),%rax
ffff80000010b3a5:	4c 8d 04 02          	lea    (%rdx,%rax,1),%r8
ffff80000010b3a9:	48 8b 85 f0 fd ff ff 	mov    -0x210(%rbp),%rax
ffff80000010b3b0:	41 b9 00 00 08 00    	mov    $0x80000,%r9d
ffff80000010b3b6:	0f b6 8d fb fd ff ff 	movzbl -0x205(%rbp),%ecx
ffff80000010b3bd:	48 89 c2             	mov    %rax,%rdx
ffff80000010b3c0:	44 89 c8             	mov    %r9d,%eax
ffff80000010b3c3:	66 89 d0             	mov    %dx,%ax
ffff80000010b3c6:	48 83 e1 07          	and    $0x7,%rcx
ffff80000010b3ca:	48 81 c1 00 ef 00 00 	add    $0xef00,%rcx
ffff80000010b3d1:	48 c1 e1 20          	shl    $0x20,%rcx
ffff80000010b3d5:	48 01 c8             	add    %rcx,%rax
ffff80000010b3d8:	48 31 c9             	xor    %rcx,%rcx
ffff80000010b3db:	89 d1                	mov    %edx,%ecx
ffff80000010b3dd:	48 c1 e9 10          	shr    $0x10,%rcx
ffff80000010b3e1:	48 c1 e1 30          	shl    $0x30,%rcx
ffff80000010b3e5:	48 01 c8             	add    %rcx,%rax
ffff80000010b3e8:	48 89 07             	mov    %rax,(%rdi)
ffff80000010b3eb:	48 c1 ea 20          	shr    $0x20,%rdx
ffff80000010b3ef:	49 89 10             	mov    %rdx,(%r8)
ffff80000010b3f2:	48 89 85 e8 fd ff ff 	mov    %rax,-0x218(%rbp)
ffff80000010b3f9:	48 89 95 e0 fd ff ff 	mov    %rdx,-0x220(%rbp)
ffff80000010b400:	90                   	nop
ffff80000010b401:	c7 85 1c fe ff ff 04 	movl   $0x4,-0x1e4(%rbp)
ffff80000010b408:	00 00 00 
ffff80000010b40b:	c6 85 1b fe ff ff 01 	movb   $0x1,-0x1e5(%rbp)
ffff80000010b412:	48 b8 58 ff ff ff ff 	movabs $0xffffffffffffff58,%rax
ffff80000010b419:	ff ff ff 
ffff80000010b41c:	48 8b 04 06          	mov    (%rsi,%rax,1),%rax
ffff80000010b420:	48 89 85 10 fe ff ff 	mov    %rax,-0x1f0(%rbp)
ffff80000010b427:	8b 85 1c fe ff ff    	mov    -0x1e4(%rbp),%eax
ffff80000010b42d:	48 c1 e0 04          	shl    $0x4,%rax
ffff80000010b431:	48 89 c2             	mov    %rax,%rdx
ffff80000010b434:	48 b8 88 ff ff ff ff 	movabs $0xffffffffffffff88,%rax
ffff80000010b43b:	ff ff ff 
ffff80000010b43e:	48 8b 04 06          	mov    (%rsi,%rax,1),%rax
ffff80000010b442:	48 8d 3c 02          	lea    (%rdx,%rax,1),%rdi
ffff80000010b446:	8b 85 1c fe ff ff    	mov    -0x1e4(%rbp),%eax
ffff80000010b44c:	48 c1 e0 04          	shl    $0x4,%rax
ffff80000010b450:	48 8d 50 08          	lea    0x8(%rax),%rdx
ffff80000010b454:	48 b8 88 ff ff ff ff 	movabs $0xffffffffffffff88,%rax
ffff80000010b45b:	ff ff ff 
ffff80000010b45e:	48 8b 04 06          	mov    (%rsi,%rax,1),%rax
ffff80000010b462:	4c 8d 04 02          	lea    (%rdx,%rax,1),%r8
ffff80000010b466:	48 8b 85 10 fe ff ff 	mov    -0x1f0(%rbp),%rax
ffff80000010b46d:	41 b9 00 00 08 00    	mov    $0x80000,%r9d
ffff80000010b473:	0f b6 8d 1b fe ff ff 	movzbl -0x1e5(%rbp),%ecx
ffff80000010b47a:	48 89 c2             	mov    %rax,%rdx
ffff80000010b47d:	44 89 c8             	mov    %r9d,%eax
ffff80000010b480:	66 89 d0             	mov    %dx,%ax
ffff80000010b483:	48 83 e1 07          	and    $0x7,%rcx
ffff80000010b487:	48 81 c1 00 ef 00 00 	add    $0xef00,%rcx
ffff80000010b48e:	48 c1 e1 20          	shl    $0x20,%rcx
ffff80000010b492:	48 01 c8             	add    %rcx,%rax
ffff80000010b495:	48 31 c9             	xor    %rcx,%rcx
ffff80000010b498:	89 d1                	mov    %edx,%ecx
ffff80000010b49a:	48 c1 e9 10          	shr    $0x10,%rcx
ffff80000010b49e:	48 c1 e1 30          	shl    $0x30,%rcx
ffff80000010b4a2:	48 01 c8             	add    %rcx,%rax
ffff80000010b4a5:	48 89 07             	mov    %rax,(%rdi)
ffff80000010b4a8:	48 c1 ea 20          	shr    $0x20,%rdx
ffff80000010b4ac:	49 89 10             	mov    %rdx,(%r8)
ffff80000010b4af:	48 89 85 08 fe ff ff 	mov    %rax,-0x1f8(%rbp)
ffff80000010b4b6:	48 89 95 00 fe ff ff 	mov    %rdx,-0x200(%rbp)
ffff80000010b4bd:	90                   	nop
ffff80000010b4be:	c7 85 3c fe ff ff 05 	movl   $0x5,-0x1c4(%rbp)
ffff80000010b4c5:	00 00 00 
ffff80000010b4c8:	c6 85 3b fe ff ff 01 	movb   $0x1,-0x1c5(%rbp)
ffff80000010b4cf:	48 b8 68 ff ff ff ff 	movabs $0xffffffffffffff68,%rax
ffff80000010b4d6:	ff ff ff 
ffff80000010b4d9:	48 8b 04 06          	mov    (%rsi,%rax,1),%rax
ffff80000010b4dd:	48 89 85 30 fe ff ff 	mov    %rax,-0x1d0(%rbp)
ffff80000010b4e4:	8b 85 3c fe ff ff    	mov    -0x1c4(%rbp),%eax
ffff80000010b4ea:	48 c1 e0 04          	shl    $0x4,%rax
ffff80000010b4ee:	48 89 c2             	mov    %rax,%rdx
ffff80000010b4f1:	48 b8 88 ff ff ff ff 	movabs $0xffffffffffffff88,%rax
ffff80000010b4f8:	ff ff ff 
ffff80000010b4fb:	48 8b 04 06          	mov    (%rsi,%rax,1),%rax
ffff80000010b4ff:	48 8d 3c 02          	lea    (%rdx,%rax,1),%rdi
ffff80000010b503:	8b 85 3c fe ff ff    	mov    -0x1c4(%rbp),%eax
ffff80000010b509:	48 c1 e0 04          	shl    $0x4,%rax
ffff80000010b50d:	48 8d 50 08          	lea    0x8(%rax),%rdx
ffff80000010b511:	48 b8 88 ff ff ff ff 	movabs $0xffffffffffffff88,%rax
ffff80000010b518:	ff ff ff 
ffff80000010b51b:	48 8b 04 06          	mov    (%rsi,%rax,1),%rax
ffff80000010b51f:	4c 8d 04 02          	lea    (%rdx,%rax,1),%r8
ffff80000010b523:	48 8b 85 30 fe ff ff 	mov    -0x1d0(%rbp),%rax
ffff80000010b52a:	41 b9 00 00 08 00    	mov    $0x80000,%r9d
ffff80000010b530:	0f b6 8d 3b fe ff ff 	movzbl -0x1c5(%rbp),%ecx
ffff80000010b537:	48 89 c2             	mov    %rax,%rdx
ffff80000010b53a:	44 89 c8             	mov    %r9d,%eax
ffff80000010b53d:	66 89 d0             	mov    %dx,%ax
ffff80000010b540:	48 83 e1 07          	and    $0x7,%rcx
ffff80000010b544:	48 81 c1 00 ef 00 00 	add    $0xef00,%rcx
ffff80000010b54b:	48 c1 e1 20          	shl    $0x20,%rcx
ffff80000010b54f:	48 01 c8             	add    %rcx,%rax
ffff80000010b552:	48 31 c9             	xor    %rcx,%rcx
ffff80000010b555:	89 d1                	mov    %edx,%ecx
ffff80000010b557:	48 c1 e9 10          	shr    $0x10,%rcx
ffff80000010b55b:	48 c1 e1 30          	shl    $0x30,%rcx
ffff80000010b55f:	48 01 c8             	add    %rcx,%rax
ffff80000010b562:	48 89 07             	mov    %rax,(%rdi)
ffff80000010b565:	48 c1 ea 20          	shr    $0x20,%rdx
ffff80000010b569:	49 89 10             	mov    %rdx,(%r8)
ffff80000010b56c:	48 89 85 28 fe ff ff 	mov    %rax,-0x1d8(%rbp)
ffff80000010b573:	48 89 95 20 fe ff ff 	mov    %rdx,-0x1e0(%rbp)
ffff80000010b57a:	90                   	nop
ffff80000010b57b:	c7 85 5c fe ff ff 06 	movl   $0x6,-0x1a4(%rbp)
ffff80000010b582:	00 00 00 
ffff80000010b585:	c6 85 5b fe ff ff 01 	movb   $0x1,-0x1a5(%rbp)
ffff80000010b58c:	48 b8 90 ff ff ff ff 	movabs $0xffffffffffffff90,%rax
ffff80000010b593:	ff ff ff 
ffff80000010b596:	48 8b 04 06          	mov    (%rsi,%rax,1),%rax
ffff80000010b59a:	48 89 85 50 fe ff ff 	mov    %rax,-0x1b0(%rbp)
ffff80000010b5a1:	8b 85 5c fe ff ff    	mov    -0x1a4(%rbp),%eax
ffff80000010b5a7:	48 c1 e0 04          	shl    $0x4,%rax
ffff80000010b5ab:	48 89 c2             	mov    %rax,%rdx
ffff80000010b5ae:	48 b8 88 ff ff ff ff 	movabs $0xffffffffffffff88,%rax
ffff80000010b5b5:	ff ff ff 
ffff80000010b5b8:	48 8b 04 06          	mov    (%rsi,%rax,1),%rax
ffff80000010b5bc:	48 8d 3c 02          	lea    (%rdx,%rax,1),%rdi
ffff80000010b5c0:	8b 85 5c fe ff ff    	mov    -0x1a4(%rbp),%eax
ffff80000010b5c6:	48 c1 e0 04          	shl    $0x4,%rax
ffff80000010b5ca:	48 8d 50 08          	lea    0x8(%rax),%rdx
ffff80000010b5ce:	48 b8 88 ff ff ff ff 	movabs $0xffffffffffffff88,%rax
ffff80000010b5d5:	ff ff ff 
ffff80000010b5d8:	48 8b 04 06          	mov    (%rsi,%rax,1),%rax
ffff80000010b5dc:	4c 8d 04 02          	lea    (%rdx,%rax,1),%r8
ffff80000010b5e0:	48 8b 85 50 fe ff ff 	mov    -0x1b0(%rbp),%rax
ffff80000010b5e7:	41 b9 00 00 08 00    	mov    $0x80000,%r9d
ffff80000010b5ed:	0f b6 8d 5b fe ff ff 	movzbl -0x1a5(%rbp),%ecx
ffff80000010b5f4:	48 89 c2             	mov    %rax,%rdx
ffff80000010b5f7:	44 89 c8             	mov    %r9d,%eax
ffff80000010b5fa:	66 89 d0             	mov    %dx,%ax
ffff80000010b5fd:	48 83 e1 07          	and    $0x7,%rcx
ffff80000010b601:	48 81 c1 00 8f 00 00 	add    $0x8f00,%rcx
ffff80000010b608:	48 c1 e1 20          	shl    $0x20,%rcx
ffff80000010b60c:	48 01 c8             	add    %rcx,%rax
ffff80000010b60f:	48 31 c9             	xor    %rcx,%rcx
ffff80000010b612:	89 d1                	mov    %edx,%ecx
ffff80000010b614:	48 c1 e9 10          	shr    $0x10,%rcx
ffff80000010b618:	48 c1 e1 30          	shl    $0x30,%rcx
ffff80000010b61c:	48 01 c8             	add    %rcx,%rax
ffff80000010b61f:	48 89 07             	mov    %rax,(%rdi)
ffff80000010b622:	48 c1 ea 20          	shr    $0x20,%rdx
ffff80000010b626:	49 89 10             	mov    %rdx,(%r8)
ffff80000010b629:	48 89 85 48 fe ff ff 	mov    %rax,-0x1b8(%rbp)
ffff80000010b630:	48 89 95 40 fe ff ff 	mov    %rdx,-0x1c0(%rbp)
ffff80000010b637:	90                   	nop
ffff80000010b638:	c7 85 7c fe ff ff 07 	movl   $0x7,-0x184(%rbp)
ffff80000010b63f:	00 00 00 
ffff80000010b642:	c6 85 7b fe ff ff 01 	movb   $0x1,-0x185(%rbp)
ffff80000010b649:	48 b8 f0 ff ff ff ff 	movabs $0xfffffffffffffff0,%rax
ffff80000010b650:	ff ff ff 
ffff80000010b653:	48 8b 04 06          	mov    (%rsi,%rax,1),%rax
ffff80000010b657:	48 89 85 70 fe ff ff 	mov    %rax,-0x190(%rbp)
ffff80000010b65e:	8b 85 7c fe ff ff    	mov    -0x184(%rbp),%eax
ffff80000010b664:	48 c1 e0 04          	shl    $0x4,%rax
ffff80000010b668:	48 89 c2             	mov    %rax,%rdx
ffff80000010b66b:	48 b8 88 ff ff ff ff 	movabs $0xffffffffffffff88,%rax
ffff80000010b672:	ff ff ff 
ffff80000010b675:	48 8b 04 06          	mov    (%rsi,%rax,1),%rax
ffff80000010b679:	48 8d 3c 02          	lea    (%rdx,%rax,1),%rdi
ffff80000010b67d:	8b 85 7c fe ff ff    	mov    -0x184(%rbp),%eax
ffff80000010b683:	48 c1 e0 04          	shl    $0x4,%rax
ffff80000010b687:	48 8d 50 08          	lea    0x8(%rax),%rdx
ffff80000010b68b:	48 b8 88 ff ff ff ff 	movabs $0xffffffffffffff88,%rax
ffff80000010b692:	ff ff ff 
ffff80000010b695:	48 8b 04 06          	mov    (%rsi,%rax,1),%rax
ffff80000010b699:	4c 8d 04 02          	lea    (%rdx,%rax,1),%r8
ffff80000010b69d:	48 8b 85 70 fe ff ff 	mov    -0x190(%rbp),%rax
ffff80000010b6a4:	41 b9 00 00 08 00    	mov    $0x80000,%r9d
ffff80000010b6aa:	0f b6 8d 7b fe ff ff 	movzbl -0x185(%rbp),%ecx
ffff80000010b6b1:	48 89 c2             	mov    %rax,%rdx
ffff80000010b6b4:	44 89 c8             	mov    %r9d,%eax
ffff80000010b6b7:	66 89 d0             	mov    %dx,%ax
ffff80000010b6ba:	48 83 e1 07          	and    $0x7,%rcx
ffff80000010b6be:	48 81 c1 00 8f 00 00 	add    $0x8f00,%rcx
ffff80000010b6c5:	48 c1 e1 20          	shl    $0x20,%rcx
ffff80000010b6c9:	48 01 c8             	add    %rcx,%rax
ffff80000010b6cc:	48 31 c9             	xor    %rcx,%rcx
ffff80000010b6cf:	89 d1                	mov    %edx,%ecx
ffff80000010b6d1:	48 c1 e9 10          	shr    $0x10,%rcx
ffff80000010b6d5:	48 c1 e1 30          	shl    $0x30,%rcx
ffff80000010b6d9:	48 01 c8             	add    %rcx,%rax
ffff80000010b6dc:	48 89 07             	mov    %rax,(%rdi)
ffff80000010b6df:	48 c1 ea 20          	shr    $0x20,%rdx
ffff80000010b6e3:	49 89 10             	mov    %rdx,(%r8)
ffff80000010b6e6:	48 89 85 68 fe ff ff 	mov    %rax,-0x198(%rbp)
ffff80000010b6ed:	48 89 95 60 fe ff ff 	mov    %rdx,-0x1a0(%rbp)
ffff80000010b6f4:	90                   	nop
ffff80000010b6f5:	c7 85 9c fe ff ff 08 	movl   $0x8,-0x164(%rbp)
ffff80000010b6fc:	00 00 00 
ffff80000010b6ff:	c6 85 9b fe ff ff 01 	movb   $0x1,-0x165(%rbp)
ffff80000010b706:	48 b8 b0 ff ff ff ff 	movabs $0xffffffffffffffb0,%rax
ffff80000010b70d:	ff ff ff 
ffff80000010b710:	48 8b 04 06          	mov    (%rsi,%rax,1),%rax
ffff80000010b714:	48 89 85 90 fe ff ff 	mov    %rax,-0x170(%rbp)
ffff80000010b71b:	8b 85 9c fe ff ff    	mov    -0x164(%rbp),%eax
ffff80000010b721:	48 c1 e0 04          	shl    $0x4,%rax
ffff80000010b725:	48 89 c2             	mov    %rax,%rdx
ffff80000010b728:	48 b8 88 ff ff ff ff 	movabs $0xffffffffffffff88,%rax
ffff80000010b72f:	ff ff ff 
ffff80000010b732:	48 8b 04 06          	mov    (%rsi,%rax,1),%rax
ffff80000010b736:	48 8d 3c 02          	lea    (%rdx,%rax,1),%rdi
ffff80000010b73a:	8b 85 9c fe ff ff    	mov    -0x164(%rbp),%eax
ffff80000010b740:	48 c1 e0 04          	shl    $0x4,%rax
ffff80000010b744:	48 8d 50 08          	lea    0x8(%rax),%rdx
ffff80000010b748:	48 b8 88 ff ff ff ff 	movabs $0xffffffffffffff88,%rax
ffff80000010b74f:	ff ff ff 
ffff80000010b752:	48 8b 04 06          	mov    (%rsi,%rax,1),%rax
ffff80000010b756:	4c 8d 04 02          	lea    (%rdx,%rax,1),%r8
ffff80000010b75a:	48 8b 85 90 fe ff ff 	mov    -0x170(%rbp),%rax
ffff80000010b761:	41 b9 00 00 08 00    	mov    $0x80000,%r9d
ffff80000010b767:	0f b6 8d 9b fe ff ff 	movzbl -0x165(%rbp),%ecx
ffff80000010b76e:	48 89 c2             	mov    %rax,%rdx
ffff80000010b771:	44 89 c8             	mov    %r9d,%eax
ffff80000010b774:	66 89 d0             	mov    %dx,%ax
ffff80000010b777:	48 83 e1 07          	and    $0x7,%rcx
ffff80000010b77b:	48 81 c1 00 8f 00 00 	add    $0x8f00,%rcx
ffff80000010b782:	48 c1 e1 20          	shl    $0x20,%rcx
ffff80000010b786:	48 01 c8             	add    %rcx,%rax
ffff80000010b789:	48 31 c9             	xor    %rcx,%rcx
ffff80000010b78c:	89 d1                	mov    %edx,%ecx
ffff80000010b78e:	48 c1 e9 10          	shr    $0x10,%rcx
ffff80000010b792:	48 c1 e1 30          	shl    $0x30,%rcx
ffff80000010b796:	48 01 c8             	add    %rcx,%rax
ffff80000010b799:	48 89 07             	mov    %rax,(%rdi)
ffff80000010b79c:	48 c1 ea 20          	shr    $0x20,%rdx
ffff80000010b7a0:	49 89 10             	mov    %rdx,(%r8)
ffff80000010b7a3:	48 89 85 88 fe ff ff 	mov    %rax,-0x178(%rbp)
ffff80000010b7aa:	48 89 95 80 fe ff ff 	mov    %rdx,-0x180(%rbp)
ffff80000010b7b1:	90                   	nop
ffff80000010b7b2:	c7 85 bc fe ff ff 09 	movl   $0x9,-0x144(%rbp)
ffff80000010b7b9:	00 00 00 
ffff80000010b7bc:	c6 85 bb fe ff ff 01 	movb   $0x1,-0x145(%rbp)
ffff80000010b7c3:	48 b8 c8 ff ff ff ff 	movabs $0xffffffffffffffc8,%rax
ffff80000010b7ca:	ff ff ff 
ffff80000010b7cd:	48 8b 04 06          	mov    (%rsi,%rax,1),%rax
ffff80000010b7d1:	48 89 85 b0 fe ff ff 	mov    %rax,-0x150(%rbp)
ffff80000010b7d8:	8b 85 bc fe ff ff    	mov    -0x144(%rbp),%eax
ffff80000010b7de:	48 c1 e0 04          	shl    $0x4,%rax
ffff80000010b7e2:	48 89 c2             	mov    %rax,%rdx
ffff80000010b7e5:	48 b8 88 ff ff ff ff 	movabs $0xffffffffffffff88,%rax
ffff80000010b7ec:	ff ff ff 
ffff80000010b7ef:	48 8b 04 06          	mov    (%rsi,%rax,1),%rax
ffff80000010b7f3:	48 8d 3c 02          	lea    (%rdx,%rax,1),%rdi
ffff80000010b7f7:	8b 85 bc fe ff ff    	mov    -0x144(%rbp),%eax
ffff80000010b7fd:	48 c1 e0 04          	shl    $0x4,%rax
ffff80000010b801:	48 8d 50 08          	lea    0x8(%rax),%rdx
ffff80000010b805:	48 b8 88 ff ff ff ff 	movabs $0xffffffffffffff88,%rax
ffff80000010b80c:	ff ff ff 
ffff80000010b80f:	48 8b 04 06          	mov    (%rsi,%rax,1),%rax
ffff80000010b813:	4c 8d 04 02          	lea    (%rdx,%rax,1),%r8
ffff80000010b817:	48 8b 85 b0 fe ff ff 	mov    -0x150(%rbp),%rax
ffff80000010b81e:	41 b9 00 00 08 00    	mov    $0x80000,%r9d
ffff80000010b824:	0f b6 8d bb fe ff ff 	movzbl -0x145(%rbp),%ecx
ffff80000010b82b:	48 89 c2             	mov    %rax,%rdx
ffff80000010b82e:	44 89 c8             	mov    %r9d,%eax
ffff80000010b831:	66 89 d0             	mov    %dx,%ax
ffff80000010b834:	48 83 e1 07          	and    $0x7,%rcx
ffff80000010b838:	48 81 c1 00 8f 00 00 	add    $0x8f00,%rcx
ffff80000010b83f:	48 c1 e1 20          	shl    $0x20,%rcx
ffff80000010b843:	48 01 c8             	add    %rcx,%rax
ffff80000010b846:	48 31 c9             	xor    %rcx,%rcx
ffff80000010b849:	89 d1                	mov    %edx,%ecx
ffff80000010b84b:	48 c1 e9 10          	shr    $0x10,%rcx
ffff80000010b84f:	48 c1 e1 30          	shl    $0x30,%rcx
ffff80000010b853:	48 01 c8             	add    %rcx,%rax
ffff80000010b856:	48 89 07             	mov    %rax,(%rdi)
ffff80000010b859:	48 c1 ea 20          	shr    $0x20,%rdx
ffff80000010b85d:	49 89 10             	mov    %rdx,(%r8)
ffff80000010b860:	48 89 85 a8 fe ff ff 	mov    %rax,-0x158(%rbp)
ffff80000010b867:	48 89 95 a0 fe ff ff 	mov    %rdx,-0x160(%rbp)
ffff80000010b86e:	90                   	nop
ffff80000010b86f:	c7 85 dc fe ff ff 0a 	movl   $0xa,-0x124(%rbp)
ffff80000010b876:	00 00 00 
ffff80000010b879:	c6 85 db fe ff ff 01 	movb   $0x1,-0x125(%rbp)
ffff80000010b880:	48 b8 70 ff ff ff ff 	movabs $0xffffffffffffff70,%rax
ffff80000010b887:	ff ff ff 
ffff80000010b88a:	48 8b 04 06          	mov    (%rsi,%rax,1),%rax
ffff80000010b88e:	48 89 85 d0 fe ff ff 	mov    %rax,-0x130(%rbp)
ffff80000010b895:	8b 85 dc fe ff ff    	mov    -0x124(%rbp),%eax
ffff80000010b89b:	48 c1 e0 04          	shl    $0x4,%rax
ffff80000010b89f:	48 89 c2             	mov    %rax,%rdx
ffff80000010b8a2:	48 b8 88 ff ff ff ff 	movabs $0xffffffffffffff88,%rax
ffff80000010b8a9:	ff ff ff 
ffff80000010b8ac:	48 8b 04 06          	mov    (%rsi,%rax,1),%rax
ffff80000010b8b0:	48 8d 3c 02          	lea    (%rdx,%rax,1),%rdi
ffff80000010b8b4:	8b 85 dc fe ff ff    	mov    -0x124(%rbp),%eax
ffff80000010b8ba:	48 c1 e0 04          	shl    $0x4,%rax
ffff80000010b8be:	48 8d 50 08          	lea    0x8(%rax),%rdx
ffff80000010b8c2:	48 b8 88 ff ff ff ff 	movabs $0xffffffffffffff88,%rax
ffff80000010b8c9:	ff ff ff 
ffff80000010b8cc:	48 8b 04 06          	mov    (%rsi,%rax,1),%rax
ffff80000010b8d0:	4c 8d 04 02          	lea    (%rdx,%rax,1),%r8
ffff80000010b8d4:	48 8b 85 d0 fe ff ff 	mov    -0x130(%rbp),%rax
ffff80000010b8db:	41 b9 00 00 08 00    	mov    $0x80000,%r9d
ffff80000010b8e1:	0f b6 8d db fe ff ff 	movzbl -0x125(%rbp),%ecx
ffff80000010b8e8:	48 89 c2             	mov    %rax,%rdx
ffff80000010b8eb:	44 89 c8             	mov    %r9d,%eax
ffff80000010b8ee:	66 89 d0             	mov    %dx,%ax
ffff80000010b8f1:	48 83 e1 07          	and    $0x7,%rcx
ffff80000010b8f5:	48 81 c1 00 8f 00 00 	add    $0x8f00,%rcx
ffff80000010b8fc:	48 c1 e1 20          	shl    $0x20,%rcx
ffff80000010b900:	48 01 c8             	add    %rcx,%rax
ffff80000010b903:	48 31 c9             	xor    %rcx,%rcx
ffff80000010b906:	89 d1                	mov    %edx,%ecx
ffff80000010b908:	48 c1 e9 10          	shr    $0x10,%rcx
ffff80000010b90c:	48 c1 e1 30          	shl    $0x30,%rcx
ffff80000010b910:	48 01 c8             	add    %rcx,%rax
ffff80000010b913:	48 89 07             	mov    %rax,(%rdi)
ffff80000010b916:	48 c1 ea 20          	shr    $0x20,%rdx
ffff80000010b91a:	49 89 10             	mov    %rdx,(%r8)
ffff80000010b91d:	48 89 85 c8 fe ff ff 	mov    %rax,-0x138(%rbp)
ffff80000010b924:	48 89 95 c0 fe ff ff 	mov    %rdx,-0x140(%rbp)
ffff80000010b92b:	90                   	nop
ffff80000010b92c:	c7 85 fc fe ff ff 0b 	movl   $0xb,-0x104(%rbp)
ffff80000010b933:	00 00 00 
ffff80000010b936:	c6 85 fb fe ff ff 01 	movb   $0x1,-0x105(%rbp)
ffff80000010b93d:	48 b8 78 ff ff ff ff 	movabs $0xffffffffffffff78,%rax
ffff80000010b944:	ff ff ff 
ffff80000010b947:	48 8b 04 06          	mov    (%rsi,%rax,1),%rax
ffff80000010b94b:	48 89 85 f0 fe ff ff 	mov    %rax,-0x110(%rbp)
ffff80000010b952:	8b 85 fc fe ff ff    	mov    -0x104(%rbp),%eax
ffff80000010b958:	48 c1 e0 04          	shl    $0x4,%rax
ffff80000010b95c:	48 89 c2             	mov    %rax,%rdx
ffff80000010b95f:	48 b8 88 ff ff ff ff 	movabs $0xffffffffffffff88,%rax
ffff80000010b966:	ff ff ff 
ffff80000010b969:	48 8b 04 06          	mov    (%rsi,%rax,1),%rax
ffff80000010b96d:	48 8d 3c 02          	lea    (%rdx,%rax,1),%rdi
ffff80000010b971:	8b 85 fc fe ff ff    	mov    -0x104(%rbp),%eax
ffff80000010b977:	48 c1 e0 04          	shl    $0x4,%rax
ffff80000010b97b:	48 8d 50 08          	lea    0x8(%rax),%rdx
ffff80000010b97f:	48 b8 88 ff ff ff ff 	movabs $0xffffffffffffff88,%rax
ffff80000010b986:	ff ff ff 
ffff80000010b989:	48 8b 04 06          	mov    (%rsi,%rax,1),%rax
ffff80000010b98d:	4c 8d 04 02          	lea    (%rdx,%rax,1),%r8
ffff80000010b991:	48 8b 85 f0 fe ff ff 	mov    -0x110(%rbp),%rax
ffff80000010b998:	41 b9 00 00 08 00    	mov    $0x80000,%r9d
ffff80000010b99e:	0f b6 8d fb fe ff ff 	movzbl -0x105(%rbp),%ecx
ffff80000010b9a5:	48 89 c2             	mov    %rax,%rdx
ffff80000010b9a8:	44 89 c8             	mov    %r9d,%eax
ffff80000010b9ab:	66 89 d0             	mov    %dx,%ax
ffff80000010b9ae:	48 83 e1 07          	and    $0x7,%rcx
ffff80000010b9b2:	48 81 c1 00 8f 00 00 	add    $0x8f00,%rcx
ffff80000010b9b9:	48 c1 e1 20          	shl    $0x20,%rcx
ffff80000010b9bd:	48 01 c8             	add    %rcx,%rax
ffff80000010b9c0:	48 31 c9             	xor    %rcx,%rcx
ffff80000010b9c3:	89 d1                	mov    %edx,%ecx
ffff80000010b9c5:	48 c1 e9 10          	shr    $0x10,%rcx
ffff80000010b9c9:	48 c1 e1 30          	shl    $0x30,%rcx
ffff80000010b9cd:	48 01 c8             	add    %rcx,%rax
ffff80000010b9d0:	48 89 07             	mov    %rax,(%rdi)
ffff80000010b9d3:	48 c1 ea 20          	shr    $0x20,%rdx
ffff80000010b9d7:	49 89 10             	mov    %rdx,(%r8)
ffff80000010b9da:	48 89 85 e8 fe ff ff 	mov    %rax,-0x118(%rbp)
ffff80000010b9e1:	48 89 95 e0 fe ff ff 	mov    %rdx,-0x120(%rbp)
ffff80000010b9e8:	90                   	nop
ffff80000010b9e9:	c7 85 1c ff ff ff 0c 	movl   $0xc,-0xe4(%rbp)
ffff80000010b9f0:	00 00 00 
ffff80000010b9f3:	c6 85 1b ff ff ff 01 	movb   $0x1,-0xe5(%rbp)
ffff80000010b9fa:	48 b8 80 ff ff ff ff 	movabs $0xffffffffffffff80,%rax
ffff80000010ba01:	ff ff ff 
ffff80000010ba04:	48 8b 04 06          	mov    (%rsi,%rax,1),%rax
ffff80000010ba08:	48 89 85 10 ff ff ff 	mov    %rax,-0xf0(%rbp)
ffff80000010ba0f:	8b 85 1c ff ff ff    	mov    -0xe4(%rbp),%eax
ffff80000010ba15:	48 c1 e0 04          	shl    $0x4,%rax
ffff80000010ba19:	48 89 c2             	mov    %rax,%rdx
ffff80000010ba1c:	48 b8 88 ff ff ff ff 	movabs $0xffffffffffffff88,%rax
ffff80000010ba23:	ff ff ff 
ffff80000010ba26:	48 8b 04 06          	mov    (%rsi,%rax,1),%rax
ffff80000010ba2a:	48 8d 3c 02          	lea    (%rdx,%rax,1),%rdi
ffff80000010ba2e:	8b 85 1c ff ff ff    	mov    -0xe4(%rbp),%eax
ffff80000010ba34:	48 c1 e0 04          	shl    $0x4,%rax
ffff80000010ba38:	48 8d 50 08          	lea    0x8(%rax),%rdx
ffff80000010ba3c:	48 b8 88 ff ff ff ff 	movabs $0xffffffffffffff88,%rax
ffff80000010ba43:	ff ff ff 
ffff80000010ba46:	48 8b 04 06          	mov    (%rsi,%rax,1),%rax
ffff80000010ba4a:	4c 8d 04 02          	lea    (%rdx,%rax,1),%r8
ffff80000010ba4e:	48 8b 85 10 ff ff ff 	mov    -0xf0(%rbp),%rax
ffff80000010ba55:	41 b9 00 00 08 00    	mov    $0x80000,%r9d
ffff80000010ba5b:	0f b6 8d 1b ff ff ff 	movzbl -0xe5(%rbp),%ecx
ffff80000010ba62:	48 89 c2             	mov    %rax,%rdx
ffff80000010ba65:	44 89 c8             	mov    %r9d,%eax
ffff80000010ba68:	66 89 d0             	mov    %dx,%ax
ffff80000010ba6b:	48 83 e1 07          	and    $0x7,%rcx
ffff80000010ba6f:	48 81 c1 00 8f 00 00 	add    $0x8f00,%rcx
ffff80000010ba76:	48 c1 e1 20          	shl    $0x20,%rcx
ffff80000010ba7a:	48 01 c8             	add    %rcx,%rax
ffff80000010ba7d:	48 31 c9             	xor    %rcx,%rcx
ffff80000010ba80:	89 d1                	mov    %edx,%ecx
ffff80000010ba82:	48 c1 e9 10          	shr    $0x10,%rcx
ffff80000010ba86:	48 c1 e1 30          	shl    $0x30,%rcx
ffff80000010ba8a:	48 01 c8             	add    %rcx,%rax
ffff80000010ba8d:	48 89 07             	mov    %rax,(%rdi)
ffff80000010ba90:	48 c1 ea 20          	shr    $0x20,%rdx
ffff80000010ba94:	49 89 10             	mov    %rdx,(%r8)
ffff80000010ba97:	48 89 85 08 ff ff ff 	mov    %rax,-0xf8(%rbp)
ffff80000010ba9e:	48 89 95 00 ff ff ff 	mov    %rdx,-0x100(%rbp)
ffff80000010baa5:	90                   	nop
ffff80000010baa6:	c7 85 3c ff ff ff 0d 	movl   $0xd,-0xc4(%rbp)
ffff80000010baad:	00 00 00 
ffff80000010bab0:	c6 85 3b ff ff ff 01 	movb   $0x1,-0xc5(%rbp)
ffff80000010bab7:	48 b8 50 ff ff ff ff 	movabs $0xffffffffffffff50,%rax
ffff80000010babe:	ff ff ff 
ffff80000010bac1:	48 8b 04 06          	mov    (%rsi,%rax,1),%rax
ffff80000010bac5:	48 89 85 30 ff ff ff 	mov    %rax,-0xd0(%rbp)
ffff80000010bacc:	8b 85 3c ff ff ff    	mov    -0xc4(%rbp),%eax
ffff80000010bad2:	48 c1 e0 04          	shl    $0x4,%rax
ffff80000010bad6:	48 89 c2             	mov    %rax,%rdx
ffff80000010bad9:	48 b8 88 ff ff ff ff 	movabs $0xffffffffffffff88,%rax
ffff80000010bae0:	ff ff ff 
ffff80000010bae3:	48 8b 04 06          	mov    (%rsi,%rax,1),%rax
ffff80000010bae7:	48 8d 3c 02          	lea    (%rdx,%rax,1),%rdi
ffff80000010baeb:	8b 85 3c ff ff ff    	mov    -0xc4(%rbp),%eax
ffff80000010baf1:	48 c1 e0 04          	shl    $0x4,%rax
ffff80000010baf5:	48 8d 50 08          	lea    0x8(%rax),%rdx
ffff80000010baf9:	48 b8 88 ff ff ff ff 	movabs $0xffffffffffffff88,%rax
ffff80000010bb00:	ff ff ff 
ffff80000010bb03:	48 8b 04 06          	mov    (%rsi,%rax,1),%rax
ffff80000010bb07:	4c 8d 04 02          	lea    (%rdx,%rax,1),%r8
ffff80000010bb0b:	48 8b 85 30 ff ff ff 	mov    -0xd0(%rbp),%rax
ffff80000010bb12:	41 b9 00 00 08 00    	mov    $0x80000,%r9d
ffff80000010bb18:	0f b6 8d 3b ff ff ff 	movzbl -0xc5(%rbp),%ecx
ffff80000010bb1f:	48 89 c2             	mov    %rax,%rdx
ffff80000010bb22:	44 89 c8             	mov    %r9d,%eax
ffff80000010bb25:	66 89 d0             	mov    %dx,%ax
ffff80000010bb28:	48 83 e1 07          	and    $0x7,%rcx
ffff80000010bb2c:	48 81 c1 00 8f 00 00 	add    $0x8f00,%rcx
ffff80000010bb33:	48 c1 e1 20          	shl    $0x20,%rcx
ffff80000010bb37:	48 01 c8             	add    %rcx,%rax
ffff80000010bb3a:	48 31 c9             	xor    %rcx,%rcx
ffff80000010bb3d:	89 d1                	mov    %edx,%ecx
ffff80000010bb3f:	48 c1 e9 10          	shr    $0x10,%rcx
ffff80000010bb43:	48 c1 e1 30          	shl    $0x30,%rcx
ffff80000010bb47:	48 01 c8             	add    %rcx,%rax
ffff80000010bb4a:	48 89 07             	mov    %rax,(%rdi)
ffff80000010bb4d:	48 c1 ea 20          	shr    $0x20,%rdx
ffff80000010bb51:	49 89 10             	mov    %rdx,(%r8)
ffff80000010bb54:	48 89 85 28 ff ff ff 	mov    %rax,-0xd8(%rbp)
ffff80000010bb5b:	48 89 95 20 ff ff ff 	mov    %rdx,-0xe0(%rbp)
ffff80000010bb62:	90                   	nop
ffff80000010bb63:	c7 85 5c ff ff ff 0e 	movl   $0xe,-0xa4(%rbp)
ffff80000010bb6a:	00 00 00 
ffff80000010bb6d:	c6 85 5b ff ff ff 01 	movb   $0x1,-0xa5(%rbp)
ffff80000010bb74:	48 b8 d0 ff ff ff ff 	movabs $0xffffffffffffffd0,%rax
ffff80000010bb7b:	ff ff ff 
ffff80000010bb7e:	48 8b 04 06          	mov    (%rsi,%rax,1),%rax
ffff80000010bb82:	48 89 85 50 ff ff ff 	mov    %rax,-0xb0(%rbp)
ffff80000010bb89:	8b 85 5c ff ff ff    	mov    -0xa4(%rbp),%eax
ffff80000010bb8f:	48 c1 e0 04          	shl    $0x4,%rax
ffff80000010bb93:	48 89 c2             	mov    %rax,%rdx
ffff80000010bb96:	48 b8 88 ff ff ff ff 	movabs $0xffffffffffffff88,%rax
ffff80000010bb9d:	ff ff ff 
ffff80000010bba0:	48 8b 04 06          	mov    (%rsi,%rax,1),%rax
ffff80000010bba4:	48 8d 3c 02          	lea    (%rdx,%rax,1),%rdi
ffff80000010bba8:	8b 85 5c ff ff ff    	mov    -0xa4(%rbp),%eax
ffff80000010bbae:	48 c1 e0 04          	shl    $0x4,%rax
ffff80000010bbb2:	48 8d 50 08          	lea    0x8(%rax),%rdx
ffff80000010bbb6:	48 b8 88 ff ff ff ff 	movabs $0xffffffffffffff88,%rax
ffff80000010bbbd:	ff ff ff 
ffff80000010bbc0:	48 8b 04 06          	mov    (%rsi,%rax,1),%rax
ffff80000010bbc4:	4c 8d 04 02          	lea    (%rdx,%rax,1),%r8
ffff80000010bbc8:	48 8b 85 50 ff ff ff 	mov    -0xb0(%rbp),%rax
ffff80000010bbcf:	41 b9 00 00 08 00    	mov    $0x80000,%r9d
ffff80000010bbd5:	0f b6 8d 5b ff ff ff 	movzbl -0xa5(%rbp),%ecx
ffff80000010bbdc:	48 89 c2             	mov    %rax,%rdx
ffff80000010bbdf:	44 89 c8             	mov    %r9d,%eax
ffff80000010bbe2:	66 89 d0             	mov    %dx,%ax
ffff80000010bbe5:	48 83 e1 07          	and    $0x7,%rcx
ffff80000010bbe9:	48 81 c1 00 8f 00 00 	add    $0x8f00,%rcx
ffff80000010bbf0:	48 c1 e1 20          	shl    $0x20,%rcx
ffff80000010bbf4:	48 01 c8             	add    %rcx,%rax
ffff80000010bbf7:	48 31 c9             	xor    %rcx,%rcx
ffff80000010bbfa:	89 d1                	mov    %edx,%ecx
ffff80000010bbfc:	48 c1 e9 10          	shr    $0x10,%rcx
ffff80000010bc00:	48 c1 e1 30          	shl    $0x30,%rcx
ffff80000010bc04:	48 01 c8             	add    %rcx,%rax
ffff80000010bc07:	48 89 07             	mov    %rax,(%rdi)
ffff80000010bc0a:	48 c1 ea 20          	shr    $0x20,%rdx
ffff80000010bc0e:	49 89 10             	mov    %rdx,(%r8)
ffff80000010bc11:	48 89 85 48 ff ff ff 	mov    %rax,-0xb8(%rbp)
ffff80000010bc18:	48 89 95 40 ff ff ff 	mov    %rdx,-0xc0(%rbp)
ffff80000010bc1f:	90                   	nop
ffff80000010bc20:	c7 85 7c ff ff ff 10 	movl   $0x10,-0x84(%rbp)
ffff80000010bc27:	00 00 00 
ffff80000010bc2a:	c6 85 7b ff ff ff 01 	movb   $0x1,-0x85(%rbp)
ffff80000010bc31:	48 b8 a8 ff ff ff ff 	movabs $0xffffffffffffffa8,%rax
ffff80000010bc38:	ff ff ff 
ffff80000010bc3b:	48 8b 04 06          	mov    (%rsi,%rax,1),%rax
ffff80000010bc3f:	48 89 85 70 ff ff ff 	mov    %rax,-0x90(%rbp)
ffff80000010bc46:	8b 85 7c ff ff ff    	mov    -0x84(%rbp),%eax
ffff80000010bc4c:	48 c1 e0 04          	shl    $0x4,%rax
ffff80000010bc50:	48 89 c2             	mov    %rax,%rdx
ffff80000010bc53:	48 b8 88 ff ff ff ff 	movabs $0xffffffffffffff88,%rax
ffff80000010bc5a:	ff ff ff 
ffff80000010bc5d:	48 8b 04 06          	mov    (%rsi,%rax,1),%rax
ffff80000010bc61:	48 8d 3c 02          	lea    (%rdx,%rax,1),%rdi
ffff80000010bc65:	8b 85 7c ff ff ff    	mov    -0x84(%rbp),%eax
ffff80000010bc6b:	48 c1 e0 04          	shl    $0x4,%rax
ffff80000010bc6f:	48 8d 50 08          	lea    0x8(%rax),%rdx
ffff80000010bc73:	48 b8 88 ff ff ff ff 	movabs $0xffffffffffffff88,%rax
ffff80000010bc7a:	ff ff ff 
ffff80000010bc7d:	48 8b 04 06          	mov    (%rsi,%rax,1),%rax
ffff80000010bc81:	4c 8d 04 02          	lea    (%rdx,%rax,1),%r8
ffff80000010bc85:	48 8b 85 70 ff ff ff 	mov    -0x90(%rbp),%rax
ffff80000010bc8c:	41 b9 00 00 08 00    	mov    $0x80000,%r9d
ffff80000010bc92:	0f b6 8d 7b ff ff ff 	movzbl -0x85(%rbp),%ecx
ffff80000010bc99:	48 89 c2             	mov    %rax,%rdx
ffff80000010bc9c:	44 89 c8             	mov    %r9d,%eax
ffff80000010bc9f:	66 89 d0             	mov    %dx,%ax
ffff80000010bca2:	48 83 e1 07          	and    $0x7,%rcx
ffff80000010bca6:	48 81 c1 00 8f 00 00 	add    $0x8f00,%rcx
ffff80000010bcad:	48 c1 e1 20          	shl    $0x20,%rcx
ffff80000010bcb1:	48 01 c8             	add    %rcx,%rax
ffff80000010bcb4:	48 31 c9             	xor    %rcx,%rcx
ffff80000010bcb7:	89 d1                	mov    %edx,%ecx
ffff80000010bcb9:	48 c1 e9 10          	shr    $0x10,%rcx
ffff80000010bcbd:	48 c1 e1 30          	shl    $0x30,%rcx
ffff80000010bcc1:	48 01 c8             	add    %rcx,%rax
ffff80000010bcc4:	48 89 07             	mov    %rax,(%rdi)
ffff80000010bcc7:	48 c1 ea 20          	shr    $0x20,%rdx
ffff80000010bccb:	49 89 10             	mov    %rdx,(%r8)
ffff80000010bcce:	48 89 85 68 ff ff ff 	mov    %rax,-0x98(%rbp)
ffff80000010bcd5:	48 89 95 60 ff ff ff 	mov    %rdx,-0xa0(%rbp)
ffff80000010bcdc:	90                   	nop
ffff80000010bcdd:	c7 45 9c 11 00 00 00 	movl   $0x11,-0x64(%rbp)
ffff80000010bce4:	c6 45 9b 01          	movb   $0x1,-0x65(%rbp)
ffff80000010bce8:	48 b8 a0 ff ff ff ff 	movabs $0xffffffffffffffa0,%rax
ffff80000010bcef:	ff ff ff 
ffff80000010bcf2:	48 8b 04 06          	mov    (%rsi,%rax,1),%rax
ffff80000010bcf6:	48 89 45 90          	mov    %rax,-0x70(%rbp)
ffff80000010bcfa:	8b 45 9c             	mov    -0x64(%rbp),%eax
ffff80000010bcfd:	48 c1 e0 04          	shl    $0x4,%rax
ffff80000010bd01:	48 89 c2             	mov    %rax,%rdx
ffff80000010bd04:	48 b8 88 ff ff ff ff 	movabs $0xffffffffffffff88,%rax
ffff80000010bd0b:	ff ff ff 
ffff80000010bd0e:	48 8b 04 06          	mov    (%rsi,%rax,1),%rax
ffff80000010bd12:	48 8d 3c 02          	lea    (%rdx,%rax,1),%rdi
ffff80000010bd16:	8b 45 9c             	mov    -0x64(%rbp),%eax
ffff80000010bd19:	48 c1 e0 04          	shl    $0x4,%rax
ffff80000010bd1d:	48 8d 50 08          	lea    0x8(%rax),%rdx
ffff80000010bd21:	48 b8 88 ff ff ff ff 	movabs $0xffffffffffffff88,%rax
ffff80000010bd28:	ff ff ff 
ffff80000010bd2b:	48 8b 04 06          	mov    (%rsi,%rax,1),%rax
ffff80000010bd2f:	4c 8d 04 02          	lea    (%rdx,%rax,1),%r8
ffff80000010bd33:	48 8b 45 90          	mov    -0x70(%rbp),%rax
ffff80000010bd37:	41 b9 00 00 08 00    	mov    $0x80000,%r9d
ffff80000010bd3d:	0f b6 4d 9b          	movzbl -0x65(%rbp),%ecx
ffff80000010bd41:	48 89 c2             	mov    %rax,%rdx
ffff80000010bd44:	44 89 c8             	mov    %r9d,%eax
ffff80000010bd47:	66 89 d0             	mov    %dx,%ax
ffff80000010bd4a:	48 83 e1 07          	and    $0x7,%rcx
ffff80000010bd4e:	48 81 c1 00 8f 00 00 	add    $0x8f00,%rcx
ffff80000010bd55:	48 c1 e1 20          	shl    $0x20,%rcx
ffff80000010bd59:	48 01 c8             	add    %rcx,%rax
ffff80000010bd5c:	48 31 c9             	xor    %rcx,%rcx
ffff80000010bd5f:	89 d1                	mov    %edx,%ecx
ffff80000010bd61:	48 c1 e9 10          	shr    $0x10,%rcx
ffff80000010bd65:	48 c1 e1 30          	shl    $0x30,%rcx
ffff80000010bd69:	48 01 c8             	add    %rcx,%rax
ffff80000010bd6c:	48 89 07             	mov    %rax,(%rdi)
ffff80000010bd6f:	48 c1 ea 20          	shr    $0x20,%rdx
ffff80000010bd73:	49 89 10             	mov    %rdx,(%r8)
ffff80000010bd76:	48 89 45 88          	mov    %rax,-0x78(%rbp)
ffff80000010bd7a:	48 89 55 80          	mov    %rdx,-0x80(%rbp)
ffff80000010bd7e:	90                   	nop
ffff80000010bd7f:	c7 45 bc 12 00 00 00 	movl   $0x12,-0x44(%rbp)
ffff80000010bd86:	c6 45 bb 01          	movb   $0x1,-0x45(%rbp)
ffff80000010bd8a:	48 b8 d8 ff ff ff ff 	movabs $0xffffffffffffffd8,%rax
ffff80000010bd91:	ff ff ff 
ffff80000010bd94:	48 8b 04 06          	mov    (%rsi,%rax,1),%rax
ffff80000010bd98:	48 89 45 b0          	mov    %rax,-0x50(%rbp)
ffff80000010bd9c:	8b 45 bc             	mov    -0x44(%rbp),%eax
ffff80000010bd9f:	48 c1 e0 04          	shl    $0x4,%rax
ffff80000010bda3:	48 89 c2             	mov    %rax,%rdx
ffff80000010bda6:	48 b8 88 ff ff ff ff 	movabs $0xffffffffffffff88,%rax
ffff80000010bdad:	ff ff ff 
ffff80000010bdb0:	48 8b 04 06          	mov    (%rsi,%rax,1),%rax
ffff80000010bdb4:	48 8d 3c 02          	lea    (%rdx,%rax,1),%rdi
ffff80000010bdb8:	8b 45 bc             	mov    -0x44(%rbp),%eax
ffff80000010bdbb:	48 c1 e0 04          	shl    $0x4,%rax
ffff80000010bdbf:	48 8d 50 08          	lea    0x8(%rax),%rdx
ffff80000010bdc3:	48 b8 88 ff ff ff ff 	movabs $0xffffffffffffff88,%rax
ffff80000010bdca:	ff ff ff 
ffff80000010bdcd:	48 8b 04 06          	mov    (%rsi,%rax,1),%rax
ffff80000010bdd1:	4c 8d 04 02          	lea    (%rdx,%rax,1),%r8
ffff80000010bdd5:	48 8b 45 b0          	mov    -0x50(%rbp),%rax
ffff80000010bdd9:	41 b9 00 00 08 00    	mov    $0x80000,%r9d
ffff80000010bddf:	0f b6 4d bb          	movzbl -0x45(%rbp),%ecx
ffff80000010bde3:	48 89 c2             	mov    %rax,%rdx
ffff80000010bde6:	44 89 c8             	mov    %r9d,%eax
ffff80000010bde9:	66 89 d0             	mov    %dx,%ax
ffff80000010bdec:	48 83 e1 07          	and    $0x7,%rcx
ffff80000010bdf0:	48 81 c1 00 8f 00 00 	add    $0x8f00,%rcx
ffff80000010bdf7:	48 c1 e1 20          	shl    $0x20,%rcx
ffff80000010bdfb:	48 01 c8             	add    %rcx,%rax
ffff80000010bdfe:	48 31 c9             	xor    %rcx,%rcx
ffff80000010be01:	89 d1                	mov    %edx,%ecx
ffff80000010be03:	48 c1 e9 10          	shr    $0x10,%rcx
ffff80000010be07:	48 c1 e1 30          	shl    $0x30,%rcx
ffff80000010be0b:	48 01 c8             	add    %rcx,%rax
ffff80000010be0e:	48 89 07             	mov    %rax,(%rdi)
ffff80000010be11:	48 c1 ea 20          	shr    $0x20,%rdx
ffff80000010be15:	49 89 10             	mov    %rdx,(%r8)
ffff80000010be18:	48 89 45 a8          	mov    %rax,-0x58(%rbp)
ffff80000010be1c:	48 89 55 a0          	mov    %rdx,-0x60(%rbp)
ffff80000010be20:	90                   	nop
ffff80000010be21:	c7 45 dc 13 00 00 00 	movl   $0x13,-0x24(%rbp)
ffff80000010be28:	c6 45 db 01          	movb   $0x1,-0x25(%rbp)
ffff80000010be2c:	48 b8 e0 ff ff ff ff 	movabs $0xffffffffffffffe0,%rax
ffff80000010be33:	ff ff ff 
ffff80000010be36:	48 8b 04 06          	mov    (%rsi,%rax,1),%rax
ffff80000010be3a:	48 89 45 d0          	mov    %rax,-0x30(%rbp)
ffff80000010be3e:	8b 45 dc             	mov    -0x24(%rbp),%eax
ffff80000010be41:	48 c1 e0 04          	shl    $0x4,%rax
ffff80000010be45:	48 89 c2             	mov    %rax,%rdx
ffff80000010be48:	48 b8 88 ff ff ff ff 	movabs $0xffffffffffffff88,%rax
ffff80000010be4f:	ff ff ff 
ffff80000010be52:	48 8b 04 06          	mov    (%rsi,%rax,1),%rax
ffff80000010be56:	48 8d 3c 02          	lea    (%rdx,%rax,1),%rdi
ffff80000010be5a:	8b 45 dc             	mov    -0x24(%rbp),%eax
ffff80000010be5d:	48 c1 e0 04          	shl    $0x4,%rax
ffff80000010be61:	48 8d 50 08          	lea    0x8(%rax),%rdx
ffff80000010be65:	48 b8 88 ff ff ff ff 	movabs $0xffffffffffffff88,%rax
ffff80000010be6c:	ff ff ff 
ffff80000010be6f:	48 8b 04 06          	mov    (%rsi,%rax,1),%rax
ffff80000010be73:	4c 8d 04 02          	lea    (%rdx,%rax,1),%r8
ffff80000010be77:	48 8b 45 d0          	mov    -0x30(%rbp),%rax
ffff80000010be7b:	41 b9 00 00 08 00    	mov    $0x80000,%r9d
ffff80000010be81:	0f b6 4d db          	movzbl -0x25(%rbp),%ecx
ffff80000010be85:	48 89 c2             	mov    %rax,%rdx
ffff80000010be88:	44 89 c8             	mov    %r9d,%eax
ffff80000010be8b:	66 89 d0             	mov    %dx,%ax
ffff80000010be8e:	48 83 e1 07          	and    $0x7,%rcx
ffff80000010be92:	48 81 c1 00 8f 00 00 	add    $0x8f00,%rcx
ffff80000010be99:	48 c1 e1 20          	shl    $0x20,%rcx
ffff80000010be9d:	48 01 c8             	add    %rcx,%rax
ffff80000010bea0:	48 31 c9             	xor    %rcx,%rcx
ffff80000010bea3:	89 d1                	mov    %edx,%ecx
ffff80000010bea5:	48 c1 e9 10          	shr    $0x10,%rcx
ffff80000010bea9:	48 c1 e1 30          	shl    $0x30,%rcx
ffff80000010bead:	48 01 c8             	add    %rcx,%rax
ffff80000010beb0:	48 89 07             	mov    %rax,(%rdi)
ffff80000010beb3:	48 c1 ea 20          	shr    $0x20,%rdx
ffff80000010beb7:	49 89 10             	mov    %rdx,(%r8)
ffff80000010beba:	48 89 45 c8          	mov    %rax,-0x38(%rbp)
ffff80000010bebe:	48 89 55 c0          	mov    %rdx,-0x40(%rbp)
ffff80000010bec2:	90                   	nop
ffff80000010bec3:	c7 45 fc 14 00 00 00 	movl   $0x14,-0x4(%rbp)
ffff80000010beca:	c6 45 fb 01          	movb   $0x1,-0x5(%rbp)
ffff80000010bece:	48 b8 c0 ff ff ff ff 	movabs $0xffffffffffffffc0,%rax
ffff80000010bed5:	ff ff ff 
ffff80000010bed8:	48 8b 04 06          	mov    (%rsi,%rax,1),%rax
ffff80000010bedc:	48 89 45 f0          	mov    %rax,-0x10(%rbp)
ffff80000010bee0:	8b 45 fc             	mov    -0x4(%rbp),%eax
ffff80000010bee3:	48 c1 e0 04          	shl    $0x4,%rax
ffff80000010bee7:	48 89 c2             	mov    %rax,%rdx
ffff80000010beea:	48 b8 88 ff ff ff ff 	movabs $0xffffffffffffff88,%rax
ffff80000010bef1:	ff ff ff 
ffff80000010bef4:	48 8b 04 06          	mov    (%rsi,%rax,1),%rax
ffff80000010bef8:	48 8d 3c 02          	lea    (%rdx,%rax,1),%rdi
ffff80000010befc:	8b 45 fc             	mov    -0x4(%rbp),%eax
ffff80000010beff:	48 c1 e0 04          	shl    $0x4,%rax
ffff80000010bf03:	48 8d 50 08          	lea    0x8(%rax),%rdx
ffff80000010bf07:	48 b8 88 ff ff ff ff 	movabs $0xffffffffffffff88,%rax
ffff80000010bf0e:	ff ff ff 
ffff80000010bf11:	48 8b 04 06          	mov    (%rsi,%rax,1),%rax
ffff80000010bf15:	48 8d 34 02          	lea    (%rdx,%rax,1),%rsi
ffff80000010bf19:	48 8b 45 f0          	mov    -0x10(%rbp),%rax
ffff80000010bf1d:	41 b8 00 00 08 00    	mov    $0x80000,%r8d
ffff80000010bf23:	0f b6 4d fb          	movzbl -0x5(%rbp),%ecx
ffff80000010bf27:	48 89 c2             	mov    %rax,%rdx
ffff80000010bf2a:	44 89 c0             	mov    %r8d,%eax
ffff80000010bf2d:	66 89 d0             	mov    %dx,%ax
ffff80000010bf30:	48 83 e1 07          	and    $0x7,%rcx
ffff80000010bf34:	48 81 c1 00 8f 00 00 	add    $0x8f00,%rcx
ffff80000010bf3b:	48 c1 e1 20          	shl    $0x20,%rcx
ffff80000010bf3f:	48 01 c8             	add    %rcx,%rax
ffff80000010bf42:	48 31 c9             	xor    %rcx,%rcx
ffff80000010bf45:	89 d1                	mov    %edx,%ecx
ffff80000010bf47:	48 c1 e9 10          	shr    $0x10,%rcx
ffff80000010bf4b:	48 c1 e1 30          	shl    $0x30,%rcx
ffff80000010bf4f:	48 01 c8             	add    %rcx,%rax
ffff80000010bf52:	48 89 07             	mov    %rax,(%rdi)
ffff80000010bf55:	48 c1 ea 20          	shr    $0x20,%rdx
ffff80000010bf59:	48 89 16             	mov    %rdx,(%rsi)
ffff80000010bf5c:	48 89 45 e8          	mov    %rax,-0x18(%rbp)
ffff80000010bf60:	48 89 55 e0          	mov    %rdx,-0x20(%rbp)
ffff80000010bf64:	90                   	nop
ffff80000010bf65:	90                   	nop
ffff80000010bf66:	c9                   	leave  
ffff80000010bf67:	c3                   	ret    

ffff80000010bf68 <RESTORE_ALL>:
ffff80000010bf68:	41 5f                	pop    %r15
ffff80000010bf6a:	41 5e                	pop    %r14
ffff80000010bf6c:	41 5d                	pop    %r13
ffff80000010bf6e:	41 5c                	pop    %r12
ffff80000010bf70:	41 5b                	pop    %r11
ffff80000010bf72:	41 5a                	pop    %r10
ffff80000010bf74:	41 59                	pop    %r9
ffff80000010bf76:	41 58                	pop    %r8
ffff80000010bf78:	5b                   	pop    %rbx
ffff80000010bf79:	59                   	pop    %rcx
ffff80000010bf7a:	5a                   	pop    %rdx
ffff80000010bf7b:	5e                   	pop    %rsi
ffff80000010bf7c:	5f                   	pop    %rdi
ffff80000010bf7d:	5d                   	pop    %rbp
ffff80000010bf7e:	58                   	pop    %rax
ffff80000010bf7f:	48 8e d8             	mov    %rax,%ds
ffff80000010bf82:	58                   	pop    %rax
ffff80000010bf83:	48 8e c0             	mov    %rax,%es
ffff80000010bf86:	58                   	pop    %rax
ffff80000010bf87:	48 83 c4 10          	add    $0x10,%rsp
ffff80000010bf8b:	48 cf                	iretq  

ffff80000010bf8d <ret_from_intr>:
ffff80000010bf8d:	eb d9                	jmp    ffff80000010bf68 <RESTORE_ALL>

ffff80000010bf8f <divide_error>:
ffff80000010bf8f:	6a 00                	push   $0x0
ffff80000010bf91:	50                   	push   %rax
ffff80000010bf92:	48 8d 05 f6 d7 ff ff 	lea    -0x280a(%rip),%rax        # ffff80000010978f <do_divide_error>
ffff80000010bf99:	48 87 04 24          	xchg   %rax,(%rsp)

ffff80000010bf9d <error_code>:
ffff80000010bf9d:	50                   	push   %rax
ffff80000010bf9e:	48 8c c0             	mov    %es,%rax
ffff80000010bfa1:	50                   	push   %rax
ffff80000010bfa2:	48 8c d8             	mov    %ds,%rax
ffff80000010bfa5:	50                   	push   %rax
ffff80000010bfa6:	48 31 c0             	xor    %rax,%rax
ffff80000010bfa9:	55                   	push   %rbp
ffff80000010bfaa:	57                   	push   %rdi
ffff80000010bfab:	56                   	push   %rsi
ffff80000010bfac:	52                   	push   %rdx
ffff80000010bfad:	51                   	push   %rcx
ffff80000010bfae:	53                   	push   %rbx
ffff80000010bfaf:	41 50                	push   %r8
ffff80000010bfb1:	41 51                	push   %r9
ffff80000010bfb3:	41 52                	push   %r10
ffff80000010bfb5:	41 53                	push   %r11
ffff80000010bfb7:	41 54                	push   %r12
ffff80000010bfb9:	41 55                	push   %r13
ffff80000010bfbb:	41 56                	push   %r14
ffff80000010bfbd:	41 57                	push   %r15
ffff80000010bfbf:	fc                   	cld    
ffff80000010bfc0:	48 8b b4 24 90 00 00 	mov    0x90(%rsp),%rsi
ffff80000010bfc7:	00 
ffff80000010bfc8:	48 8b 94 24 88 00 00 	mov    0x88(%rsp),%rdx
ffff80000010bfcf:	00 
ffff80000010bfd0:	48 c7 c7 10 00 00 00 	mov    $0x10,%rdi
ffff80000010bfd7:	48 8e df             	mov    %rdi,%ds
ffff80000010bfda:	48 8e c7             	mov    %rdi,%es
ffff80000010bfdd:	48 89 e7             	mov    %rsp,%rdi
ffff80000010bfe0:	ff d2                	call   *%rdx
ffff80000010bfe2:	eb a9                	jmp    ffff80000010bf8d <ret_from_intr>

ffff80000010bfe4 <debug>:
ffff80000010bfe4:	6a 00                	push   $0x0
ffff80000010bfe6:	50                   	push   %rax
ffff80000010bfe7:	48 8d 05 4a d8 ff ff 	lea    -0x27b6(%rip),%rax        # ffff800000109838 <do_debug>
ffff80000010bfee:	48 87 04 24          	xchg   %rax,(%rsp)
ffff80000010bff2:	eb a9                	jmp    ffff80000010bf9d <error_code>

ffff80000010bff4 <nmi>:
ffff80000010bff4:	50                   	push   %rax
ffff80000010bff5:	fc                   	cld    
ffff80000010bff6:	50                   	push   %rax
ffff80000010bff7:	50                   	push   %rax
ffff80000010bff8:	48 8c c0             	mov    %es,%rax
ffff80000010bffb:	50                   	push   %rax
ffff80000010bffc:	48 8c d8             	mov    %ds,%rax
ffff80000010bfff:	50                   	push   %rax
ffff80000010c000:	48 31 c0             	xor    %rax,%rax
ffff80000010c003:	55                   	push   %rbp
ffff80000010c004:	57                   	push   %rdi
ffff80000010c005:	56                   	push   %rsi
ffff80000010c006:	52                   	push   %rdx
ffff80000010c007:	51                   	push   %rcx
ffff80000010c008:	53                   	push   %rbx
ffff80000010c009:	41 50                	push   %r8
ffff80000010c00b:	41 51                	push   %r9
ffff80000010c00d:	41 52                	push   %r10
ffff80000010c00f:	41 53                	push   %r11
ffff80000010c011:	41 54                	push   %r12
ffff80000010c013:	41 55                	push   %r13
ffff80000010c015:	41 56                	push   %r14
ffff80000010c017:	41 57                	push   %r15
ffff80000010c019:	48 c7 c2 10 00 00 00 	mov    $0x10,%rdx
ffff80000010c020:	48 8e da             	mov    %rdx,%ds
ffff80000010c023:	48 8e c2             	mov    %rdx,%es
ffff80000010c026:	48 c7 c6 00 00 00 00 	mov    $0x0,%rsi
ffff80000010c02d:	48 89 e7             	mov    %rsp,%rdi
ffff80000010c030:	e8 ac d8 ff ff       	call   ffff8000001098e1 <do_nmi>
ffff80000010c035:	e9 2e ff ff ff       	jmp    ffff80000010bf68 <RESTORE_ALL>

ffff80000010c03a <int3>:
ffff80000010c03a:	6a 00                	push   $0x0
ffff80000010c03c:	50                   	push   %rax
ffff80000010c03d:	48 8d 05 46 d9 ff ff 	lea    -0x26ba(%rip),%rax        # ffff80000010998a <do_int3>
ffff80000010c044:	48 87 04 24          	xchg   %rax,(%rsp)
ffff80000010c048:	e9 50 ff ff ff       	jmp    ffff80000010bf9d <error_code>

ffff80000010c04d <overflow>:
ffff80000010c04d:	6a 00                	push   $0x0
ffff80000010c04f:	50                   	push   %rax
ffff80000010c050:	48 8d 05 dc d9 ff ff 	lea    -0x2624(%rip),%rax        # ffff800000109a33 <do_overflow>
ffff80000010c057:	48 87 04 24          	xchg   %rax,(%rsp)
ffff80000010c05b:	e9 3d ff ff ff       	jmp    ffff80000010bf9d <error_code>

ffff80000010c060 <bounds>:
ffff80000010c060:	6a 00                	push   $0x0
ffff80000010c062:	50                   	push   %rax
ffff80000010c063:	48 8d 05 72 da ff ff 	lea    -0x258e(%rip),%rax        # ffff800000109adc <do_bounds>
ffff80000010c06a:	48 87 04 24          	xchg   %rax,(%rsp)
ffff80000010c06e:	e9 2a ff ff ff       	jmp    ffff80000010bf9d <error_code>

ffff80000010c073 <undefined_opcode>:
ffff80000010c073:	6a 00                	push   $0x0
ffff80000010c075:	50                   	push   %rax
ffff80000010c076:	48 8d 05 08 db ff ff 	lea    -0x24f8(%rip),%rax        # ffff800000109b85 <do_undefined_opcode>
ffff80000010c07d:	48 87 04 24          	xchg   %rax,(%rsp)
ffff80000010c081:	e9 17 ff ff ff       	jmp    ffff80000010bf9d <error_code>

ffff80000010c086 <dev_not_available>:
ffff80000010c086:	6a 00                	push   $0x0
ffff80000010c088:	50                   	push   %rax
ffff80000010c089:	48 8d 05 9e db ff ff 	lea    -0x2462(%rip),%rax        # ffff800000109c2e <do_dev_not_available>
ffff80000010c090:	48 87 04 24          	xchg   %rax,(%rsp)
ffff80000010c094:	e9 04 ff ff ff       	jmp    ffff80000010bf9d <error_code>

ffff80000010c099 <double_fault>:
ffff80000010c099:	50                   	push   %rax
ffff80000010c09a:	48 8d 05 36 dc ff ff 	lea    -0x23ca(%rip),%rax        # ffff800000109cd7 <do_double_fault>
ffff80000010c0a1:	48 87 04 24          	xchg   %rax,(%rsp)
ffff80000010c0a5:	e9 f3 fe ff ff       	jmp    ffff80000010bf9d <error_code>

ffff80000010c0aa <coprocessor_segment_overrun>:
ffff80000010c0aa:	6a 00                	push   $0x0
ffff80000010c0ac:	50                   	push   %rax
ffff80000010c0ad:	48 8d 05 cc dc ff ff 	lea    -0x2334(%rip),%rax        # ffff800000109d80 <do_coprocessor_segment_overrun>
ffff80000010c0b4:	48 87 04 24          	xchg   %rax,(%rsp)
ffff80000010c0b8:	e9 e0 fe ff ff       	jmp    ffff80000010bf9d <error_code>

ffff80000010c0bd <invalid_TSS>:
ffff80000010c0bd:	50                   	push   %rax
ffff80000010c0be:	48 8d 05 64 dd ff ff 	lea    -0x229c(%rip),%rax        # ffff800000109e29 <do_invalid_TSS>
ffff80000010c0c5:	48 87 04 24          	xchg   %rax,(%rsp)
ffff80000010c0c9:	e9 cf fe ff ff       	jmp    ffff80000010bf9d <error_code>

ffff80000010c0ce <segment_not_present>:
ffff80000010c0ce:	50                   	push   %rax
ffff80000010c0cf:	48 8d 05 48 e0 ff ff 	lea    -0x1fb8(%rip),%rax        # ffff80000010a11e <do_segment_not_present>
ffff80000010c0d6:	48 87 04 24          	xchg   %rax,(%rsp)
ffff80000010c0da:	e9 be fe ff ff       	jmp    ffff80000010bf9d <error_code>

ffff80000010c0df <stack_segment_fault>:
ffff80000010c0df:	50                   	push   %rax
ffff80000010c0e0:	48 8d 05 2c e3 ff ff 	lea    -0x1cd4(%rip),%rax        # ffff80000010a413 <do_stack_segment_fault>
ffff80000010c0e7:	48 87 04 24          	xchg   %rax,(%rsp)
ffff80000010c0eb:	e9 ad fe ff ff       	jmp    ffff80000010bf9d <error_code>

ffff80000010c0f0 <general_protection>:
ffff80000010c0f0:	50                   	push   %rax
ffff80000010c0f1:	48 8d 05 10 e6 ff ff 	lea    -0x19f0(%rip),%rax        # ffff80000010a708 <do_general_protection>
ffff80000010c0f8:	48 87 04 24          	xchg   %rax,(%rsp)
ffff80000010c0fc:	e9 9c fe ff ff       	jmp    ffff80000010bf9d <error_code>

ffff80000010c101 <page_fault>:
ffff80000010c101:	50                   	push   %rax
ffff80000010c102:	48 8d 05 f4 e8 ff ff 	lea    -0x170c(%rip),%rax        # ffff80000010a9fd <do_page_fault>
ffff80000010c109:	48 87 04 24          	xchg   %rax,(%rsp)
ffff80000010c10d:	e9 8b fe ff ff       	jmp    ffff80000010bf9d <error_code>

ffff80000010c112 <x87_FPU_error>:
ffff80000010c112:	6a 00                	push   $0x0
ffff80000010c114:	50                   	push   %rax
ffff80000010c115:	48 8d 05 81 ec ff ff 	lea    -0x137f(%rip),%rax        # ffff80000010ad9d <do_x87_FPU_error>
ffff80000010c11c:	48 87 04 24          	xchg   %rax,(%rsp)
ffff80000010c120:	e9 78 fe ff ff       	jmp    ffff80000010bf9d <error_code>

ffff80000010c125 <alignment_check>:
ffff80000010c125:	50                   	push   %rax
ffff80000010c126:	48 8d 05 19 ed ff ff 	lea    -0x12e7(%rip),%rax        # ffff80000010ae46 <do_alignment_check>
ffff80000010c12d:	48 87 04 24          	xchg   %rax,(%rsp)
ffff80000010c131:	e9 67 fe ff ff       	jmp    ffff80000010bf9d <error_code>

ffff80000010c136 <machine_check>:
ffff80000010c136:	6a 00                	push   $0x0
ffff80000010c138:	50                   	push   %rax
ffff80000010c139:	48 8d 05 af ed ff ff 	lea    -0x1251(%rip),%rax        # ffff80000010aeef <do_machine_check>
ffff80000010c140:	48 87 04 24          	xchg   %rax,(%rsp)
ffff80000010c144:	e9 54 fe ff ff       	jmp    ffff80000010bf9d <error_code>

ffff80000010c149 <SIMD_exception>:
ffff80000010c149:	6a 00                	push   $0x0
ffff80000010c14b:	50                   	push   %rax
ffff80000010c14c:	48 8d 05 45 ee ff ff 	lea    -0x11bb(%rip),%rax        # ffff80000010af98 <do_SIMD_exception>
ffff80000010c153:	48 87 04 24          	xchg   %rax,(%rsp)
ffff80000010c157:	e9 41 fe ff ff       	jmp    ffff80000010bf9d <error_code>

ffff80000010c15c <virtualization_exception>:
ffff80000010c15c:	6a 00                	push   $0x0
ffff80000010c15e:	50                   	push   %rax
ffff80000010c15f:	48 8d 05 db ee ff ff 	lea    -0x1125(%rip),%rax        # ffff80000010b041 <do_virtualization_exception>
ffff80000010c166:	48 87 04 24          	xchg   %rax,(%rsp)
ffff80000010c16a:	e9 2e fe ff ff       	jmp    ffff80000010bf9d <error_code>

Disassembly of section .data:

ffff80000010c180 <g_font_ascii>:
	...
ffff80000010c390:	00 10                	add    %dl,(%rax)
ffff80000010c392:	10 10                	adc    %dl,(%rax)
ffff80000010c394:	10 10                	adc    %dl,(%rax)
ffff80000010c396:	10 10                	adc    %dl,(%rax)
ffff80000010c398:	10 10                	adc    %dl,(%rax)
ffff80000010c39a:	00 00                	add    %al,(%rax)
ffff80000010c39c:	10 10                	adc    %dl,(%rax)
ffff80000010c39e:	00 00                	add    %al,(%rax)
ffff80000010c3a0:	28 28                	sub    %ch,(%rax)
ffff80000010c3a2:	28 00                	sub    %al,(%rax)
	...
ffff80000010c3b0:	00 44 44 44          	add    %al,0x44(%rsp,%rax,2)
ffff80000010c3b4:	fe 44 44 44          	incb   0x44(%rsp,%rax,2)
ffff80000010c3b8:	44                   	rex.R
ffff80000010c3b9:	44 fe 44 44 44       	rex.R incb 0x44(%rsp,%rax,2)
ffff80000010c3be:	00 00                	add    %al,(%rax)
ffff80000010c3c0:	10 3a                	adc    %bh,(%rdx)
ffff80000010c3c2:	56                   	push   %rsi
ffff80000010c3c3:	92                   	xchg   %eax,%edx
ffff80000010c3c4:	92                   	xchg   %eax,%edx
ffff80000010c3c5:	90                   	nop
ffff80000010c3c6:	50                   	push   %rax
ffff80000010c3c7:	38 14 12             	cmp    %dl,(%rdx,%rdx,1)
ffff80000010c3ca:	92                   	xchg   %eax,%edx
ffff80000010c3cb:	92                   	xchg   %eax,%edx
ffff80000010c3cc:	d4                   	(bad)  
ffff80000010c3cd:	b8 10 10 62 92       	mov    $0x92621010,%eax
ffff80000010c3d2:	94                   	xchg   %eax,%esp
ffff80000010c3d3:	94                   	xchg   %eax,%esp
ffff80000010c3d4:	68 08 10 10 20       	push   $0x20101008
ffff80000010c3d9:	2c 52                	sub    $0x52,%al
ffff80000010c3db:	52                   	push   %rdx
ffff80000010c3dc:	92                   	xchg   %eax,%edx
ffff80000010c3dd:	8c 00                	mov    %es,(%rax)
ffff80000010c3df:	00 00                	add    %al,(%rax)
ffff80000010c3e1:	70 88                	jo     ffff80000010c36b <g_font_ascii+0x1eb>
ffff80000010c3e3:	88 88 90 60 47 a2    	mov    %cl,-0x5db89f70(%rax)
ffff80000010c3e9:	92                   	xchg   %eax,%edx
ffff80000010c3ea:	8a 84 46 39 00 00 04 	mov    0x4000039(%rsi,%rax,2),%al
ffff80000010c3f1:	08 10                	or     %dl,(%rax)
	...
ffff80000010c3ff:	00 02                	add    %al,(%rdx)
ffff80000010c401:	04 08                	add    $0x8,%al
ffff80000010c403:	08 10                	or     %dl,(%rax)
ffff80000010c405:	10 10                	adc    %dl,(%rax)
ffff80000010c407:	10 10                	adc    %dl,(%rax)
ffff80000010c409:	10 10                	adc    %dl,(%rax)
ffff80000010c40b:	08 08                	or     %cl,(%rax)
ffff80000010c40d:	04 02                	add    $0x2,%al
ffff80000010c40f:	00 80 40 20 20 10    	add    %al,0x10202040(%rax)
ffff80000010c415:	10 10                	adc    %dl,(%rax)
ffff80000010c417:	10 10                	adc    %dl,(%rax)
ffff80000010c419:	10 10                	adc    %dl,(%rax)
ffff80000010c41b:	20 20                	and    %ah,(%rax)
ffff80000010c41d:	40 80 00 00          	rex addb $0x0,(%rax)
ffff80000010c421:	00 00                	add    %al,(%rax)
ffff80000010c423:	00 00                	add    %al,(%rax)
ffff80000010c425:	10 92 54 38 54 92    	adc    %dl,-0x6dabc7ac(%rdx)
ffff80000010c42b:	10 00                	adc    %al,(%rax)
	...
ffff80000010c435:	10 10                	adc    %dl,(%rax)
ffff80000010c437:	10 fe                	adc    %bh,%dh
ffff80000010c439:	10 10                	adc    %dl,(%rax)
ffff80000010c43b:	10 00                	adc    %al,(%rax)
	...
ffff80000010c449:	00 00                	add    %al,(%rax)
ffff80000010c44b:	18 18                	sbb    %bl,(%rax)
ffff80000010c44d:	08 08                	or     %cl,(%rax)
ffff80000010c44f:	10 00                	adc    %al,(%rax)
ffff80000010c451:	00 00                	add    %al,(%rax)
ffff80000010c453:	00 00                	add    %al,(%rax)
ffff80000010c455:	00 00                	add    %al,(%rax)
ffff80000010c457:	00 fe                	add    %bh,%dh
	...
ffff80000010c469:	00 00                	add    %al,(%rax)
ffff80000010c46b:	00 18                	add    %bl,(%rax)
ffff80000010c46d:	18 00                	sbb    %al,(%rax)
ffff80000010c46f:	00 02                	add    %al,(%rdx)
ffff80000010c471:	02 04 04             	add    (%rsp,%rax,1),%al
ffff80000010c474:	08 08                	or     %cl,(%rax)
ffff80000010c476:	08 10                	or     %dl,(%rax)
ffff80000010c478:	10 20                	adc    %ah,(%rax)
ffff80000010c47a:	20 40 40             	and    %al,0x40(%rax)
ffff80000010c47d:	40 80 80 00 18 24 24 	rex addb $0x42,0x24241800(%rax)
ffff80000010c484:	42 
ffff80000010c485:	42                   	rex.X
ffff80000010c486:	42                   	rex.X
ffff80000010c487:	42                   	rex.X
ffff80000010c488:	42                   	rex.X
ffff80000010c489:	42                   	rex.X
ffff80000010c48a:	42 24 24             	rex.X and $0x24,%al
ffff80000010c48d:	18 00                	sbb    %al,(%rax)
ffff80000010c48f:	00 00                	add    %al,(%rax)
ffff80000010c491:	08 18                	or     %bl,(%rax)
ffff80000010c493:	28 08                	sub    %cl,(%rax)
ffff80000010c495:	08 08                	or     %cl,(%rax)
ffff80000010c497:	08 08                	or     %cl,(%rax)
ffff80000010c499:	08 08                	or     %cl,(%rax)
ffff80000010c49b:	08 08                	or     %cl,(%rax)
ffff80000010c49d:	3e 00 00             	ds add %al,(%rax)
ffff80000010c4a0:	00 18                	add    %bl,(%rax)
ffff80000010c4a2:	24 42                	and    $0x42,%al
ffff80000010c4a4:	42 02 04 08          	add    (%rax,%r9,1),%al
ffff80000010c4a8:	10 20                	adc    %ah,(%rax)
ffff80000010c4aa:	20 40 40             	and    %al,0x40(%rax)
ffff80000010c4ad:	7e 00                	jle    ffff80000010c4af <g_font_ascii+0x32f>
ffff80000010c4af:	00 00                	add    %al,(%rax)
ffff80000010c4b1:	18 24 42             	sbb    %ah,(%rdx,%rax,2)
ffff80000010c4b4:	02 02                	add    (%rdx),%al
ffff80000010c4b6:	04 18                	add    $0x18,%al
ffff80000010c4b8:	04 02                	add    $0x2,%al
ffff80000010c4ba:	02 42 24             	add    0x24(%rdx),%al
ffff80000010c4bd:	18 00                	sbb    %al,(%rax)
ffff80000010c4bf:	00 00                	add    %al,(%rax)
ffff80000010c4c1:	0c 0c                	or     $0xc,%al
ffff80000010c4c3:	0c 14                	or     $0x14,%al
ffff80000010c4c5:	14 14                	adc    $0x14,%al
ffff80000010c4c7:	24 24                	and    $0x24,%al
ffff80000010c4c9:	44 7e 04             	rex.R jle ffff80000010c4d0 <g_font_ascii+0x350>
ffff80000010c4cc:	04 1e                	add    $0x1e,%al
ffff80000010c4ce:	00 00                	add    %al,(%rax)
ffff80000010c4d0:	00 7c 40 40          	add    %bh,0x40(%rax,%rax,2)
ffff80000010c4d4:	40 58                	rex pop %rax
ffff80000010c4d6:	64 02 02             	add    %fs:(%rdx),%al
ffff80000010c4d9:	02 02                	add    (%rdx),%al
ffff80000010c4db:	42 24 18             	rex.X and $0x18,%al
ffff80000010c4de:	00 00                	add    %al,(%rax)
ffff80000010c4e0:	00 18                	add    %bl,(%rax)
ffff80000010c4e2:	24 42                	and    $0x42,%al
ffff80000010c4e4:	40 58                	rex pop %rax
ffff80000010c4e6:	64 42                	fs rex.X
ffff80000010c4e8:	42                   	rex.X
ffff80000010c4e9:	42                   	rex.X
ffff80000010c4ea:	42                   	rex.X
ffff80000010c4eb:	42 24 18             	rex.X and $0x18,%al
ffff80000010c4ee:	00 00                	add    %al,(%rax)
ffff80000010c4f0:	00 7e 42             	add    %bh,0x42(%rsi)
ffff80000010c4f3:	42 04 04             	rex.X add $0x4,%al
ffff80000010c4f6:	08 08                	or     %cl,(%rax)
ffff80000010c4f8:	08 10                	or     %dl,(%rax)
ffff80000010c4fa:	10 10                	adc    %dl,(%rax)
ffff80000010c4fc:	10 38                	adc    %bh,(%rax)
ffff80000010c4fe:	00 00                	add    %al,(%rax)
ffff80000010c500:	00 18                	add    %bl,(%rax)
ffff80000010c502:	24 42                	and    $0x42,%al
ffff80000010c504:	42                   	rex.X
ffff80000010c505:	42 24 18             	rex.X and $0x18,%al
ffff80000010c508:	24 42                	and    $0x42,%al
ffff80000010c50a:	42                   	rex.X
ffff80000010c50b:	42 24 18             	rex.X and $0x18,%al
ffff80000010c50e:	00 00                	add    %al,(%rax)
ffff80000010c510:	00 18                	add    %bl,(%rax)
ffff80000010c512:	24 42                	and    $0x42,%al
ffff80000010c514:	42                   	rex.X
ffff80000010c515:	42                   	rex.X
ffff80000010c516:	42                   	rex.X
ffff80000010c517:	42                   	rex.X
ffff80000010c518:	26 1a 02             	es sbb (%rdx),%al
ffff80000010c51b:	42 24 18             	rex.X and $0x18,%al
ffff80000010c51e:	00 00                	add    %al,(%rax)
ffff80000010c520:	00 00                	add    %al,(%rax)
ffff80000010c522:	00 00                	add    %al,(%rax)
ffff80000010c524:	00 18                	add    %bl,(%rax)
ffff80000010c526:	18 00                	sbb    %al,(%rax)
ffff80000010c528:	00 00                	add    %al,(%rax)
ffff80000010c52a:	00 00                	add    %al,(%rax)
ffff80000010c52c:	18 18                	sbb    %bl,(%rax)
ffff80000010c52e:	00 00                	add    %al,(%rax)
ffff80000010c530:	00 00                	add    %al,(%rax)
ffff80000010c532:	00 00                	add    %al,(%rax)
ffff80000010c534:	00 18                	add    %bl,(%rax)
ffff80000010c536:	18 00                	sbb    %al,(%rax)
ffff80000010c538:	00 00                	add    %al,(%rax)
ffff80000010c53a:	00 18                	add    %bl,(%rax)
ffff80000010c53c:	18 08                	sbb    %cl,(%rax)
ffff80000010c53e:	08 10                	or     %dl,(%rax)
ffff80000010c540:	00 02                	add    %al,(%rdx)
ffff80000010c542:	04 08                	add    $0x8,%al
ffff80000010c544:	10 20                	adc    %ah,(%rax)
ffff80000010c546:	40 80 80 40 20 10 08 	rex addb $0x4,0x8102040(%rax)
ffff80000010c54d:	04 
ffff80000010c54e:	02 00                	add    (%rax),%al
ffff80000010c550:	00 00                	add    %al,(%rax)
ffff80000010c552:	00 00                	add    %al,(%rax)
ffff80000010c554:	00 00                	add    %al,(%rax)
ffff80000010c556:	fe 00                	incb   (%rax)
ffff80000010c558:	00 fe                	add    %bh,%dh
ffff80000010c55a:	00 00                	add    %al,(%rax)
ffff80000010c55c:	00 00                	add    %al,(%rax)
ffff80000010c55e:	00 00                	add    %al,(%rax)
ffff80000010c560:	00 80 40 20 10 08    	add    %al,0x8102040(%rax)
ffff80000010c566:	04 02                	add    $0x2,%al
ffff80000010c568:	02 04 08             	add    (%rax,%rcx,1),%al
ffff80000010c56b:	10 20                	adc    %ah,(%rax)
ffff80000010c56d:	40 80 00 00          	rex addb $0x0,(%rax)
ffff80000010c571:	38 44 82 82          	cmp    %al,-0x7e(%rdx,%rax,4)
ffff80000010c575:	82                   	(bad)  
ffff80000010c576:	04 08                	add    $0x8,%al
ffff80000010c578:	10 10                	adc    %dl,(%rax)
ffff80000010c57a:	00 00                	add    %al,(%rax)
ffff80000010c57c:	18 18                	sbb    %bl,(%rax)
ffff80000010c57e:	00 00                	add    %al,(%rax)
ffff80000010c580:	00 38                	add    %bh,(%rax)
ffff80000010c582:	44 82                	rex.R (bad) 
ffff80000010c584:	9a                   	(bad)  
ffff80000010c585:	aa                   	stos   %al,%es:(%rdi)
ffff80000010c586:	aa                   	stos   %al,%es:(%rdi)
ffff80000010c587:	aa                   	stos   %al,%es:(%rdi)
ffff80000010c588:	aa                   	stos   %al,%es:(%rdi)
ffff80000010c589:	aa                   	stos   %al,%es:(%rdi)
ffff80000010c58a:	9c                   	pushf  
ffff80000010c58b:	80 46 38 00          	addb   $0x0,0x38(%rsi)
ffff80000010c58f:	00 00                	add    %al,(%rax)
ffff80000010c591:	18 18                	sbb    %bl,(%rax)
ffff80000010c593:	18 18                	sbb    %bl,(%rax)
ffff80000010c595:	24 24                	and    $0x24,%al
ffff80000010c597:	24 24                	and    $0x24,%al
ffff80000010c599:	7e 42                	jle    ffff80000010c5dd <g_font_ascii+0x45d>
ffff80000010c59b:	42                   	rex.X
ffff80000010c59c:	42 e7 00             	rex.X out %eax,$0x0
ffff80000010c59f:	00 00                	add    %al,(%rax)
ffff80000010c5a1:	f0 48                	lock rex.W
ffff80000010c5a3:	44                   	rex.R
ffff80000010c5a4:	44                   	rex.R
ffff80000010c5a5:	44                   	rex.R
ffff80000010c5a6:	48 78 44             	rex.W js ffff80000010c5ed <g_font_ascii+0x46d>
ffff80000010c5a9:	42                   	rex.X
ffff80000010c5aa:	42                   	rex.X
ffff80000010c5ab:	42                   	rex.X
ffff80000010c5ac:	44 f8                	rex.R clc 
ffff80000010c5ae:	00 00                	add    %al,(%rax)
ffff80000010c5b0:	00 3a                	add    %bh,(%rdx)
ffff80000010c5b2:	46                   	rex.RX
ffff80000010c5b3:	42 82                	rex.X (bad) 
ffff80000010c5b5:	80 80 80 80 80 82 42 	addb   $0x42,-0x7d7f7f80(%rax)
ffff80000010c5bc:	44 38 00             	cmp    %r8b,(%rax)
ffff80000010c5bf:	00 00                	add    %al,(%rax)
ffff80000010c5c1:	f8                   	clc    
ffff80000010c5c2:	44                   	rex.R
ffff80000010c5c3:	44                   	rex.R
ffff80000010c5c4:	42                   	rex.X
ffff80000010c5c5:	42                   	rex.X
ffff80000010c5c6:	42                   	rex.X
ffff80000010c5c7:	42                   	rex.X
ffff80000010c5c8:	42                   	rex.X
ffff80000010c5c9:	42                   	rex.X
ffff80000010c5ca:	42                   	rex.X
ffff80000010c5cb:	44                   	rex.R
ffff80000010c5cc:	44 f8                	rex.R clc 
ffff80000010c5ce:	00 00                	add    %al,(%rax)
ffff80000010c5d0:	00 fe                	add    %bh,%dh
ffff80000010c5d2:	42                   	rex.X
ffff80000010c5d3:	42                   	rex.X
ffff80000010c5d4:	40                   	rex
ffff80000010c5d5:	40                   	rex
ffff80000010c5d6:	44 7c 44             	rex.R jl ffff80000010c61d <g_font_ascii+0x49d>
ffff80000010c5d9:	40                   	rex
ffff80000010c5da:	40                   	rex
ffff80000010c5db:	42                   	rex.X
ffff80000010c5dc:	42 fe 00             	rex.X incb (%rax)
ffff80000010c5df:	00 00                	add    %al,(%rax)
ffff80000010c5e1:	fe 42 42             	incb   0x42(%rdx)
ffff80000010c5e4:	40                   	rex
ffff80000010c5e5:	40                   	rex
ffff80000010c5e6:	44 7c 44             	rex.R jl ffff80000010c62d <g_font_ascii+0x4ad>
ffff80000010c5e9:	44                   	rex.R
ffff80000010c5ea:	40                   	rex
ffff80000010c5eb:	40                   	rex
ffff80000010c5ec:	40                   	rex
ffff80000010c5ed:	f0 00 00             	lock add %al,(%rax)
ffff80000010c5f0:	00 3a                	add    %bh,(%rdx)
ffff80000010c5f2:	46                   	rex.RX
ffff80000010c5f3:	42 82                	rex.X (bad) 
ffff80000010c5f5:	80 80 9e 82 82 82 42 	addb   $0x42,-0x7d7d7d62(%rax)
ffff80000010c5fc:	46 38 00             	rex.RX cmp %r8b,(%rax)
ffff80000010c5ff:	00 00                	add    %al,(%rax)
ffff80000010c601:	e7 42                	out    %eax,$0x42
ffff80000010c603:	42                   	rex.X
ffff80000010c604:	42                   	rex.X
ffff80000010c605:	42                   	rex.X
ffff80000010c606:	42 7e 42             	rex.X jle ffff80000010c64b <g_font_ascii+0x4cb>
ffff80000010c609:	42                   	rex.X
ffff80000010c60a:	42                   	rex.X
ffff80000010c60b:	42                   	rex.X
ffff80000010c60c:	42 e7 00             	rex.X out %eax,$0x0
ffff80000010c60f:	00 00                	add    %al,(%rax)
ffff80000010c611:	7c 10                	jl     ffff80000010c623 <g_font_ascii+0x4a3>
ffff80000010c613:	10 10                	adc    %dl,(%rax)
ffff80000010c615:	10 10                	adc    %dl,(%rax)
ffff80000010c617:	10 10                	adc    %dl,(%rax)
ffff80000010c619:	10 10                	adc    %dl,(%rax)
ffff80000010c61b:	10 10                	adc    %dl,(%rax)
ffff80000010c61d:	7c 00                	jl     ffff80000010c61f <g_font_ascii+0x49f>
ffff80000010c61f:	00 00                	add    %al,(%rax)
ffff80000010c621:	1f                   	(bad)  
ffff80000010c622:	04 04                	add    $0x4,%al
ffff80000010c624:	04 04                	add    $0x4,%al
ffff80000010c626:	04 04                	add    $0x4,%al
ffff80000010c628:	04 04                	add    $0x4,%al
ffff80000010c62a:	04 04                	add    $0x4,%al
ffff80000010c62c:	84 48 30             	test   %cl,0x30(%rax)
ffff80000010c62f:	00 00                	add    %al,(%rax)
ffff80000010c631:	e7 42                	out    %eax,$0x42
ffff80000010c633:	44                   	rex.R
ffff80000010c634:	48 50                	rex.W push %rax
ffff80000010c636:	50                   	push   %rax
ffff80000010c637:	60                   	(bad)  
ffff80000010c638:	50                   	push   %rax
ffff80000010c639:	50                   	push   %rax
ffff80000010c63a:	48                   	rex.W
ffff80000010c63b:	44                   	rex.R
ffff80000010c63c:	42 e7 00             	rex.X out %eax,$0x0
ffff80000010c63f:	00 00                	add    %al,(%rax)
ffff80000010c641:	f0 40                	lock rex
ffff80000010c643:	40                   	rex
ffff80000010c644:	40                   	rex
ffff80000010c645:	40                   	rex
ffff80000010c646:	40                   	rex
ffff80000010c647:	40                   	rex
ffff80000010c648:	40                   	rex
ffff80000010c649:	40                   	rex
ffff80000010c64a:	40                   	rex
ffff80000010c64b:	42                   	rex.X
ffff80000010c64c:	42 fe 00             	rex.X incb (%rax)
ffff80000010c64f:	00 00                	add    %al,(%rax)
ffff80000010c651:	c3                   	ret    
ffff80000010c652:	42                   	rex.X
ffff80000010c653:	66 66 66 5a          	data16 data16 pop %dx
ffff80000010c657:	5a                   	pop    %rdx
ffff80000010c658:	5a                   	pop    %rdx
ffff80000010c659:	42                   	rex.X
ffff80000010c65a:	42                   	rex.X
ffff80000010c65b:	42                   	rex.X
ffff80000010c65c:	42 e7 00             	rex.X out %eax,$0x0
ffff80000010c65f:	00 00                	add    %al,(%rax)
ffff80000010c661:	c7 42 62 62 52 52 52 	movl   $0x52525262,0x62(%rdx)
ffff80000010c668:	4a                   	rex.WX
ffff80000010c669:	4a                   	rex.WX
ffff80000010c66a:	4a                   	rex.WX
ffff80000010c66b:	46                   	rex.RX
ffff80000010c66c:	46 e2 00             	rex.RX loop ffff80000010c66f <g_font_ascii+0x4ef>
ffff80000010c66f:	00 00                	add    %al,(%rax)
ffff80000010c671:	38 44 82 82          	cmp    %al,-0x7e(%rdx,%rax,4)
ffff80000010c675:	82                   	(bad)  
ffff80000010c676:	82                   	(bad)  
ffff80000010c677:	82                   	(bad)  
ffff80000010c678:	82                   	(bad)  
ffff80000010c679:	82                   	(bad)  
ffff80000010c67a:	82                   	(bad)  
ffff80000010c67b:	82                   	(bad)  
ffff80000010c67c:	44 38 00             	cmp    %r8b,(%rax)
ffff80000010c67f:	00 00                	add    %al,(%rax)
ffff80000010c681:	f8                   	clc    
ffff80000010c682:	44                   	rex.R
ffff80000010c683:	42                   	rex.X
ffff80000010c684:	42                   	rex.X
ffff80000010c685:	42                   	rex.X
ffff80000010c686:	44 78 40             	rex.R js ffff80000010c6c9 <g_font_ascii+0x549>
ffff80000010c689:	40                   	rex
ffff80000010c68a:	40                   	rex
ffff80000010c68b:	40                   	rex
ffff80000010c68c:	40                   	rex
ffff80000010c68d:	f0 00 00             	lock add %al,(%rax)
ffff80000010c690:	00 38                	add    %bh,(%rax)
ffff80000010c692:	44 82                	rex.R (bad) 
ffff80000010c694:	82                   	(bad)  
ffff80000010c695:	82                   	(bad)  
ffff80000010c696:	82                   	(bad)  
ffff80000010c697:	82                   	(bad)  
ffff80000010c698:	82                   	(bad)  
ffff80000010c699:	82                   	(bad)  
ffff80000010c69a:	92                   	xchg   %eax,%edx
ffff80000010c69b:	8a 44 3a 00          	mov    0x0(%rdx,%rdi,1),%al
ffff80000010c69f:	00 00                	add    %al,(%rax)
ffff80000010c6a1:	fc                   	cld    
ffff80000010c6a2:	42                   	rex.X
ffff80000010c6a3:	42                   	rex.X
ffff80000010c6a4:	42                   	rex.X
ffff80000010c6a5:	42 7c 44             	rex.X jl ffff80000010c6ec <g_font_ascii+0x56c>
ffff80000010c6a8:	42                   	rex.X
ffff80000010c6a9:	42                   	rex.X
ffff80000010c6aa:	42                   	rex.X
ffff80000010c6ab:	42                   	rex.X
ffff80000010c6ac:	42 e7 00             	rex.X out %eax,$0x0
ffff80000010c6af:	00 00                	add    %al,(%rax)
ffff80000010c6b1:	3a 46 82             	cmp    -0x7e(%rsi),%al
ffff80000010c6b4:	82                   	(bad)  
ffff80000010c6b5:	80 40 38 04          	addb   $0x4,0x38(%rax)
ffff80000010c6b9:	02 82 82 c4 b8 00    	add    0xb8c482(%rdx),%al
ffff80000010c6bf:	00 00                	add    %al,(%rax)
ffff80000010c6c1:	fe                   	(bad)  
ffff80000010c6c2:	92                   	xchg   %eax,%edx
ffff80000010c6c3:	92                   	xchg   %eax,%edx
ffff80000010c6c4:	10 10                	adc    %dl,(%rax)
ffff80000010c6c6:	10 10                	adc    %dl,(%rax)
ffff80000010c6c8:	10 10                	adc    %dl,(%rax)
ffff80000010c6ca:	10 10                	adc    %dl,(%rax)
ffff80000010c6cc:	10 7c 00 00          	adc    %bh,0x0(%rax,%rax,1)
ffff80000010c6d0:	00 e7                	add    %ah,%bh
ffff80000010c6d2:	42                   	rex.X
ffff80000010c6d3:	42                   	rex.X
ffff80000010c6d4:	42                   	rex.X
ffff80000010c6d5:	42                   	rex.X
ffff80000010c6d6:	42                   	rex.X
ffff80000010c6d7:	42                   	rex.X
ffff80000010c6d8:	42                   	rex.X
ffff80000010c6d9:	42                   	rex.X
ffff80000010c6da:	42                   	rex.X
ffff80000010c6db:	42 24 3c             	rex.X and $0x3c,%al
ffff80000010c6de:	00 00                	add    %al,(%rax)
ffff80000010c6e0:	00 e7                	add    %ah,%bh
ffff80000010c6e2:	42                   	rex.X
ffff80000010c6e3:	42                   	rex.X
ffff80000010c6e4:	42                   	rex.X
ffff80000010c6e5:	42 24 24             	rex.X and $0x24,%al
ffff80000010c6e8:	24 24                	and    $0x24,%al
ffff80000010c6ea:	18 18                	sbb    %bl,(%rax)
ffff80000010c6ec:	18 18                	sbb    %bl,(%rax)
ffff80000010c6ee:	00 00                	add    %al,(%rax)
ffff80000010c6f0:	00 e7                	add    %ah,%bh
ffff80000010c6f2:	42                   	rex.X
ffff80000010c6f3:	42                   	rex.X
ffff80000010c6f4:	42 5a                	rex.X pop %rdx
ffff80000010c6f6:	5a                   	pop    %rdx
ffff80000010c6f7:	5a                   	pop    %rdx
ffff80000010c6f8:	5a                   	pop    %rdx
ffff80000010c6f9:	24 24                	and    $0x24,%al
ffff80000010c6fb:	24 24                	and    $0x24,%al
ffff80000010c6fd:	24 00                	and    $0x0,%al
ffff80000010c6ff:	00 00                	add    %al,(%rax)
ffff80000010c701:	e7 42                	out    %eax,$0x42
ffff80000010c703:	42 24 24             	rex.X and $0x24,%al
ffff80000010c706:	24 18                	and    $0x18,%al
ffff80000010c708:	24 24                	and    $0x24,%al
ffff80000010c70a:	24 42                	and    $0x42,%al
ffff80000010c70c:	42 e7 00             	rex.X out %eax,$0x0
ffff80000010c70f:	00 00                	add    %al,(%rax)
ffff80000010c711:	ee                   	out    %al,(%dx)
ffff80000010c712:	44                   	rex.R
ffff80000010c713:	44                   	rex.R
ffff80000010c714:	44 28 28             	sub    %r13b,(%rax)
ffff80000010c717:	28 10                	sub    %dl,(%rax)
ffff80000010c719:	10 10                	adc    %dl,(%rax)
ffff80000010c71b:	10 10                	adc    %dl,(%rax)
ffff80000010c71d:	7c 00                	jl     ffff80000010c71f <g_font_ascii+0x59f>
ffff80000010c71f:	00 00                	add    %al,(%rax)
ffff80000010c721:	fe 84 84 08 08 10 10 	incb   0x10100808(%rsp,%rax,4)
ffff80000010c728:	20 20                	and    %ah,(%rax)
ffff80000010c72a:	40                   	rex
ffff80000010c72b:	42 82                	rex.X (bad) 
ffff80000010c72d:	fe 00                	incb   (%rax)
ffff80000010c72f:	00 00                	add    %al,(%rax)
ffff80000010c731:	3e 20 20             	ds and %ah,(%rax)
ffff80000010c734:	20 20                	and    %ah,(%rax)
ffff80000010c736:	20 20                	and    %ah,(%rax)
ffff80000010c738:	20 20                	and    %ah,(%rax)
ffff80000010c73a:	20 20                	and    %ah,(%rax)
ffff80000010c73c:	20 20                	and    %ah,(%rax)
ffff80000010c73e:	3e 00 80 80 40 40 20 	ds add %al,0x20404080(%rax)
ffff80000010c745:	20 20                	and    %ah,(%rax)
ffff80000010c747:	10 10                	adc    %dl,(%rax)
ffff80000010c749:	08 08                	or     %cl,(%rax)
ffff80000010c74b:	04 04                	add    $0x4,%al
ffff80000010c74d:	04 02                	add    $0x2,%al
ffff80000010c74f:	02 00                	add    (%rax),%al
ffff80000010c751:	7c 04                	jl     ffff80000010c757 <g_font_ascii+0x5d7>
ffff80000010c753:	04 04                	add    $0x4,%al
ffff80000010c755:	04 04                	add    $0x4,%al
ffff80000010c757:	04 04                	add    $0x4,%al
ffff80000010c759:	04 04                	add    $0x4,%al
ffff80000010c75b:	04 04                	add    $0x4,%al
ffff80000010c75d:	04 7c                	add    $0x7c,%al
ffff80000010c75f:	00 00                	add    %al,(%rax)
ffff80000010c761:	10 28                	adc    %ch,(%rax)
ffff80000010c763:	44 82                	rex.R (bad) 
	...
ffff80000010c77d:	00 fe                	add    %bh,%dh
ffff80000010c77f:	00 10                	add    %dl,(%rax)
ffff80000010c781:	08 04 00             	or     %al,(%rax,%rax,1)
	...
ffff80000010c794:	00 70 08             	add    %dh,0x8(%rax)
ffff80000010c797:	04 3c                	add    $0x3c,%al
ffff80000010c799:	44 84 84 8c 76 00 00 	test   %r8b,-0x3fffff8a(%rsp,%rcx,4)
ffff80000010c7a0:	c0 
ffff80000010c7a1:	40                   	rex
ffff80000010c7a2:	40                   	rex
ffff80000010c7a3:	40                   	rex
ffff80000010c7a4:	40 58                	rex pop %rax
ffff80000010c7a6:	64 42                	fs rex.X
ffff80000010c7a8:	42                   	rex.X
ffff80000010c7a9:	42                   	rex.X
ffff80000010c7aa:	42                   	rex.X
ffff80000010c7ab:	42                   	rex.X
ffff80000010c7ac:	64 58                	fs pop %rax
ffff80000010c7ae:	00 00                	add    %al,(%rax)
ffff80000010c7b0:	00 00                	add    %al,(%rax)
ffff80000010c7b2:	00 00                	add    %al,(%rax)
ffff80000010c7b4:	00 30                	add    %dh,(%rax)
ffff80000010c7b6:	4c 84 84 80 80 82 44 	rex.WR test %r8b,0x38448280(%rax,%rax,4)
ffff80000010c7bd:	38 
ffff80000010c7be:	00 00                	add    %al,(%rax)
ffff80000010c7c0:	0c 04                	or     $0x4,%al
ffff80000010c7c2:	04 04                	add    $0x4,%al
ffff80000010c7c4:	04 34                	add    $0x34,%al
ffff80000010c7c6:	4c 84 84 84 84 84 4c 	rex.WR test %r8b,0x364c8484(%rsp,%rax,4)
ffff80000010c7cd:	36 
ffff80000010c7ce:	00 00                	add    %al,(%rax)
ffff80000010c7d0:	00 00                	add    %al,(%rax)
ffff80000010c7d2:	00 00                	add    %al,(%rax)
ffff80000010c7d4:	00 38                	add    %bh,(%rax)
ffff80000010c7d6:	44 82                	rex.R (bad) 
ffff80000010c7d8:	82                   	(bad)  
ffff80000010c7d9:	fc                   	cld    
ffff80000010c7da:	80 82 42 3c 00 00 0e 	addb   $0xe,0x3c42(%rdx)
ffff80000010c7e1:	10 10                	adc    %dl,(%rax)
ffff80000010c7e3:	10 10                	adc    %dl,(%rax)
ffff80000010c7e5:	7c 10                	jl     ffff80000010c7f7 <g_font_ascii+0x677>
ffff80000010c7e7:	10 10                	adc    %dl,(%rax)
ffff80000010c7e9:	10 10                	adc    %dl,(%rax)
ffff80000010c7eb:	10 10                	adc    %dl,(%rax)
ffff80000010c7ed:	7c 00                	jl     ffff80000010c7ef <g_font_ascii+0x66f>
ffff80000010c7ef:	00 00                	add    %al,(%rax)
ffff80000010c7f1:	00 00                	add    %al,(%rax)
ffff80000010c7f3:	00 00                	add    %al,(%rax)
ffff80000010c7f5:	36 4c 84 84 84 84 4c 	ss rex.WR test %r8b,0x4344c84(%rsp,%rax,4)
ffff80000010c7fc:	34 04 
ffff80000010c7fe:	04 38                	add    $0x38,%al
ffff80000010c800:	c0 40 40 40          	rolb   $0x40,0x40(%rax)
ffff80000010c804:	40 58                	rex pop %rax
ffff80000010c806:	64 42                	fs rex.X
ffff80000010c808:	42                   	rex.X
ffff80000010c809:	42                   	rex.X
ffff80000010c80a:	42                   	rex.X
ffff80000010c80b:	42                   	rex.X
ffff80000010c80c:	42 e3 00             	rex.X jrcxz ffff80000010c80f <g_font_ascii+0x68f>
ffff80000010c80f:	00 00                	add    %al,(%rax)
ffff80000010c811:	10 10                	adc    %dl,(%rax)
ffff80000010c813:	00 00                	add    %al,(%rax)
ffff80000010c815:	30 10                	xor    %dl,(%rax)
ffff80000010c817:	10 10                	adc    %dl,(%rax)
ffff80000010c819:	10 10                	adc    %dl,(%rax)
ffff80000010c81b:	10 10                	adc    %dl,(%rax)
ffff80000010c81d:	38 00                	cmp    %al,(%rax)
ffff80000010c81f:	00 00                	add    %al,(%rax)
ffff80000010c821:	04 04                	add    $0x4,%al
ffff80000010c823:	00 00                	add    %al,(%rax)
ffff80000010c825:	0c 04                	or     $0x4,%al
ffff80000010c827:	04 04                	add    $0x4,%al
ffff80000010c829:	04 04                	add    $0x4,%al
ffff80000010c82b:	04 04                	add    $0x4,%al
ffff80000010c82d:	08 08                	or     %cl,(%rax)
ffff80000010c82f:	30 c0                	xor    %al,%al
ffff80000010c831:	40                   	rex
ffff80000010c832:	40                   	rex
ffff80000010c833:	40                   	rex
ffff80000010c834:	40                   	rex
ffff80000010c835:	4e                   	rex.WRX
ffff80000010c836:	44                   	rex.R
ffff80000010c837:	48 50                	rex.W push %rax
ffff80000010c839:	60                   	(bad)  
ffff80000010c83a:	50                   	push   %rax
ffff80000010c83b:	48                   	rex.W
ffff80000010c83c:	44 e6 00             	rex.R out %al,$0x0
ffff80000010c83f:	00 30                	add    %dh,(%rax)
ffff80000010c841:	10 10                	adc    %dl,(%rax)
ffff80000010c843:	10 10                	adc    %dl,(%rax)
ffff80000010c845:	10 10                	adc    %dl,(%rax)
ffff80000010c847:	10 10                	adc    %dl,(%rax)
ffff80000010c849:	10 10                	adc    %dl,(%rax)
ffff80000010c84b:	10 10                	adc    %dl,(%rax)
ffff80000010c84d:	38 00                	cmp    %al,(%rax)
ffff80000010c84f:	00 00                	add    %al,(%rax)
ffff80000010c851:	00 00                	add    %al,(%rax)
ffff80000010c853:	00 00                	add    %al,(%rax)
ffff80000010c855:	f6 49 49 49          	testb  $0x49,0x49(%rcx)
ffff80000010c859:	49                   	rex.WB
ffff80000010c85a:	49                   	rex.WB
ffff80000010c85b:	49                   	rex.WB
ffff80000010c85c:	49 db 00             	rex.WB fildl (%r8)
ffff80000010c85f:	00 00                	add    %al,(%rax)
ffff80000010c861:	00 00                	add    %al,(%rax)
ffff80000010c863:	00 00                	add    %al,(%rax)
ffff80000010c865:	d8 64 42 42          	fsubs  0x42(%rdx,%rax,2)
ffff80000010c869:	42                   	rex.X
ffff80000010c86a:	42                   	rex.X
ffff80000010c86b:	42                   	rex.X
ffff80000010c86c:	42 e3 00             	rex.X jrcxz ffff80000010c86f <g_font_ascii+0x6ef>
ffff80000010c86f:	00 00                	add    %al,(%rax)
ffff80000010c871:	00 00                	add    %al,(%rax)
ffff80000010c873:	00 00                	add    %al,(%rax)
ffff80000010c875:	38 44 82 82          	cmp    %al,-0x7e(%rdx,%rax,4)
ffff80000010c879:	82                   	(bad)  
ffff80000010c87a:	82                   	(bad)  
ffff80000010c87b:	82                   	(bad)  
ffff80000010c87c:	44 38 00             	cmp    %r8b,(%rax)
ffff80000010c87f:	00 00                	add    %al,(%rax)
ffff80000010c881:	00 00                	add    %al,(%rax)
ffff80000010c883:	00 d8                	add    %bl,%al
ffff80000010c885:	64 42                	fs rex.X
ffff80000010c887:	42                   	rex.X
ffff80000010c888:	42                   	rex.X
ffff80000010c889:	42                   	rex.X
ffff80000010c88a:	42                   	rex.X
ffff80000010c88b:	64 58                	fs pop %rax
ffff80000010c88d:	40                   	rex
ffff80000010c88e:	40 e0 00             	rex loopne ffff80000010c891 <g_font_ascii+0x711>
ffff80000010c891:	00 00                	add    %al,(%rax)
ffff80000010c893:	00 34 4c             	add    %dh,(%rsp,%rcx,2)
ffff80000010c896:	84 84 84 84 84 4c 34 	test   %al,0x344c8484(%rsp,%rax,4)
ffff80000010c89d:	04 04                	add    $0x4,%al
ffff80000010c89f:	0e                   	(bad)  
ffff80000010c8a0:	00 00                	add    %al,(%rax)
ffff80000010c8a2:	00 00                	add    %al,(%rax)
ffff80000010c8a4:	00 dc                	add    %bl,%ah
ffff80000010c8a6:	62 42                	(bad)  
ffff80000010c8a8:	40                   	rex
ffff80000010c8a9:	40                   	rex
ffff80000010c8aa:	40                   	rex
ffff80000010c8ab:	40                   	rex
ffff80000010c8ac:	40 e0 00             	rex loopne ffff80000010c8af <g_font_ascii+0x72f>
ffff80000010c8af:	00 00                	add    %al,(%rax)
ffff80000010c8b1:	00 00                	add    %al,(%rax)
ffff80000010c8b3:	00 00                	add    %al,(%rax)
ffff80000010c8b5:	7a 86                	jp     ffff80000010c83d <g_font_ascii+0x6bd>
ffff80000010c8b7:	82                   	(bad)  
ffff80000010c8b8:	c0 38 06             	sarb   $0x6,(%rax)
ffff80000010c8bb:	82                   	(bad)  
ffff80000010c8bc:	c2 bc 00             	ret    $0xbc
ffff80000010c8bf:	00 00                	add    %al,(%rax)
ffff80000010c8c1:	00 10                	add    %dl,(%rax)
ffff80000010c8c3:	10 10                	adc    %dl,(%rax)
ffff80000010c8c5:	7c 10                	jl     ffff80000010c8d7 <g_font_ascii+0x757>
ffff80000010c8c7:	10 10                	adc    %dl,(%rax)
ffff80000010c8c9:	10 10                	adc    %dl,(%rax)
ffff80000010c8cb:	10 10                	adc    %dl,(%rax)
ffff80000010c8cd:	0e                   	(bad)  
ffff80000010c8ce:	00 00                	add    %al,(%rax)
ffff80000010c8d0:	00 00                	add    %al,(%rax)
ffff80000010c8d2:	00 00                	add    %al,(%rax)
ffff80000010c8d4:	00 c6                	add    %al,%dh
ffff80000010c8d6:	42                   	rex.X
ffff80000010c8d7:	42                   	rex.X
ffff80000010c8d8:	42                   	rex.X
ffff80000010c8d9:	42                   	rex.X
ffff80000010c8da:	42                   	rex.X
ffff80000010c8db:	42                   	rex.X
ffff80000010c8dc:	46 3b 00             	rex.RX cmp (%rax),%r8d
ffff80000010c8df:	00 00                	add    %al,(%rax)
ffff80000010c8e1:	00 00                	add    %al,(%rax)
ffff80000010c8e3:	00 00                	add    %al,(%rax)
ffff80000010c8e5:	e7 42                	out    %eax,$0x42
ffff80000010c8e7:	42                   	rex.X
ffff80000010c8e8:	42 24 24             	rex.X and $0x24,%al
ffff80000010c8eb:	24 18                	and    $0x18,%al
ffff80000010c8ed:	18 00                	sbb    %al,(%rax)
ffff80000010c8ef:	00 00                	add    %al,(%rax)
ffff80000010c8f1:	00 00                	add    %al,(%rax)
ffff80000010c8f3:	00 00                	add    %al,(%rax)
ffff80000010c8f5:	e7 42                	out    %eax,$0x42
ffff80000010c8f7:	42 5a                	rex.X pop %rdx
ffff80000010c8f9:	5a                   	pop    %rdx
ffff80000010c8fa:	5a                   	pop    %rdx
ffff80000010c8fb:	24 24                	and    $0x24,%al
ffff80000010c8fd:	24 00                	and    $0x0,%al
ffff80000010c8ff:	00 00                	add    %al,(%rax)
ffff80000010c901:	00 00                	add    %al,(%rax)
ffff80000010c903:	00 00                	add    %al,(%rax)
ffff80000010c905:	c6 44 28 28 10       	movb   $0x10,0x28(%rax,%rbp,1)
ffff80000010c90a:	28 28                	sub    %ch,(%rax)
ffff80000010c90c:	44 c6 00 00          	rex.R movb $0x0,(%rax)
ffff80000010c910:	00 00                	add    %al,(%rax)
ffff80000010c912:	00 00                	add    %al,(%rax)
ffff80000010c914:	00 e7                	add    %ah,%bh
ffff80000010c916:	42                   	rex.X
ffff80000010c917:	42 24 24             	rex.X and $0x24,%al
ffff80000010c91a:	24 18                	and    $0x18,%al
ffff80000010c91c:	18 10                	sbb    %dl,(%rax)
ffff80000010c91e:	10 60 00             	adc    %ah,0x0(%rax)
ffff80000010c921:	00 00                	add    %al,(%rax)
ffff80000010c923:	00 00                	add    %al,(%rax)
ffff80000010c925:	fe 82 84 08 10 20    	incb   0x20100884(%rdx)
ffff80000010c92b:	42 82                	rex.X (bad) 
ffff80000010c92d:	fe 00                	incb   (%rax)
ffff80000010c92f:	00 00                	add    %al,(%rax)
ffff80000010c931:	06                   	(bad)  
ffff80000010c932:	08 10                	or     %dl,(%rax)
ffff80000010c934:	10 10                	adc    %dl,(%rax)
ffff80000010c936:	10 60 10             	adc    %ah,0x10(%rax)
ffff80000010c939:	10 10                	adc    %dl,(%rax)
ffff80000010c93b:	10 08                	adc    %cl,(%rax)
ffff80000010c93d:	06                   	(bad)  
ffff80000010c93e:	00 00                	add    %al,(%rax)
ffff80000010c940:	10 10                	adc    %dl,(%rax)
ffff80000010c942:	10 10                	adc    %dl,(%rax)
ffff80000010c944:	10 10                	adc    %dl,(%rax)
ffff80000010c946:	10 10                	adc    %dl,(%rax)
ffff80000010c948:	10 10                	adc    %dl,(%rax)
ffff80000010c94a:	10 10                	adc    %dl,(%rax)
ffff80000010c94c:	10 10                	adc    %dl,(%rax)
ffff80000010c94e:	10 10                	adc    %dl,(%rax)
ffff80000010c950:	00 60 10             	add    %ah,0x10(%rax)
ffff80000010c953:	08 08                	or     %cl,(%rax)
ffff80000010c955:	08 08                	or     %cl,(%rax)
ffff80000010c957:	06                   	(bad)  
ffff80000010c958:	08 08                	or     %cl,(%rax)
ffff80000010c95a:	08 08                	or     %cl,(%rax)
ffff80000010c95c:	10 60 00             	adc    %ah,0x0(%rax)
ffff80000010c95f:	00 00                	add    %al,(%rax)
ffff80000010c961:	72 8c                	jb     ffff80000010c8ef <g_font_ascii+0x76f>
	...

ffff80000010d180 <cursor.0>:
ffff80000010d180:	2a 2a                	sub    (%rdx),%ch
ffff80000010d182:	2a 2a                	sub    (%rdx),%ch
ffff80000010d184:	2a 2a                	sub    (%rdx),%ch
ffff80000010d186:	2a 2a                	sub    (%rdx),%ch
ffff80000010d188:	2a 2a                	sub    (%rdx),%ch
ffff80000010d18a:	2a 2a                	sub    (%rdx),%ch
ffff80000010d18c:	2a 2a                	sub    (%rdx),%ch
ffff80000010d18e:	2e 2e 2a 4f 4f       	cs cs sub 0x4f(%rdi),%cl
ffff80000010d193:	4f                   	rex.WRXB
ffff80000010d194:	4f                   	rex.WRXB
ffff80000010d195:	4f                   	rex.WRXB
ffff80000010d196:	4f                   	rex.WRXB
ffff80000010d197:	4f                   	rex.WRXB
ffff80000010d198:	4f                   	rex.WRXB
ffff80000010d199:	4f                   	rex.WRXB
ffff80000010d19a:	4f                   	rex.WRXB
ffff80000010d19b:	4f 2a 2e             	rex.WRXB sub (%r14),%r13b
ffff80000010d19e:	2e 2e 2a 4f 4f       	cs cs sub 0x4f(%rdi),%cl
ffff80000010d1a3:	4f                   	rex.WRXB
ffff80000010d1a4:	4f                   	rex.WRXB
ffff80000010d1a5:	4f                   	rex.WRXB
ffff80000010d1a6:	4f                   	rex.WRXB
ffff80000010d1a7:	4f                   	rex.WRXB
ffff80000010d1a8:	4f                   	rex.WRXB
ffff80000010d1a9:	4f                   	rex.WRXB
ffff80000010d1aa:	4f 2a 2e             	rex.WRXB sub (%r14),%r13b
ffff80000010d1ad:	2e 2e 2e 2a 4f 4f    	cs cs cs sub 0x4f(%rdi),%cl
ffff80000010d1b3:	4f                   	rex.WRXB
ffff80000010d1b4:	4f                   	rex.WRXB
ffff80000010d1b5:	4f                   	rex.WRXB
ffff80000010d1b6:	4f                   	rex.WRXB
ffff80000010d1b7:	4f                   	rex.WRXB
ffff80000010d1b8:	4f                   	rex.WRXB
ffff80000010d1b9:	4f 2a 2e             	rex.WRXB sub (%r14),%r13b
ffff80000010d1bc:	2e 2e 2e 2e 2a 4f 4f 	cs cs cs cs sub 0x4f(%rdi),%cl
ffff80000010d1c3:	4f                   	rex.WRXB
ffff80000010d1c4:	4f                   	rex.WRXB
ffff80000010d1c5:	4f                   	rex.WRXB
ffff80000010d1c6:	4f                   	rex.WRXB
ffff80000010d1c7:	4f                   	rex.WRXB
ffff80000010d1c8:	4f 2a 2e             	rex.WRXB sub (%r14),%r13b
ffff80000010d1cb:	2e 2e 2e 2e 2e 2a 4f 	cs cs cs cs cs sub 0x4f(%rdi),%cl
ffff80000010d1d2:	4f 
ffff80000010d1d3:	4f                   	rex.WRXB
ffff80000010d1d4:	4f                   	rex.WRXB
ffff80000010d1d5:	4f                   	rex.WRXB
ffff80000010d1d6:	4f                   	rex.WRXB
ffff80000010d1d7:	4f 2a 2e             	rex.WRXB sub (%r14),%r13b
ffff80000010d1da:	2e 2e 2e 2e 2e 2e 2a 	cs cs cs cs cs cs sub 0x4f(%rdi),%cl
ffff80000010d1e1:	4f 4f 
ffff80000010d1e3:	4f                   	rex.WRXB
ffff80000010d1e4:	4f                   	rex.WRXB
ffff80000010d1e5:	4f                   	rex.WRXB
ffff80000010d1e6:	4f                   	rex.WRXB
ffff80000010d1e7:	4f 2a 2e             	rex.WRXB sub (%r14),%r13b
ffff80000010d1ea:	2e 2e 2e 2e 2e 2e 2a 	cs cs cs cs cs cs sub 0x4f(%rdi),%cl
ffff80000010d1f1:	4f 4f 
ffff80000010d1f3:	4f                   	rex.WRXB
ffff80000010d1f4:	4f                   	rex.WRXB
ffff80000010d1f5:	4f                   	rex.WRXB
ffff80000010d1f6:	4f                   	rex.WRXB
ffff80000010d1f7:	4f                   	rex.WRXB
ffff80000010d1f8:	4f 2a 2e             	rex.WRXB sub (%r14),%r13b
ffff80000010d1fb:	2e 2e 2e 2e 2e 2a 4f 	cs cs cs cs cs sub 0x4f(%rdi),%cl
ffff80000010d202:	4f 
ffff80000010d203:	4f                   	rex.WRXB
ffff80000010d204:	4f 2a 2a             	rex.WRXB sub (%r10),%r13b
ffff80000010d207:	4f                   	rex.WRXB
ffff80000010d208:	4f                   	rex.WRXB
ffff80000010d209:	4f 2a 2e             	rex.WRXB sub (%r14),%r13b
ffff80000010d20c:	2e 2e 2e 2e 2a 4f 4f 	cs cs cs cs sub 0x4f(%rdi),%cl
ffff80000010d213:	4f 2a 2e             	rex.WRXB sub (%r14),%r13b
ffff80000010d216:	2e 2a 4f 4f          	cs sub 0x4f(%rdi),%cl
ffff80000010d21a:	4f 2a 2e             	rex.WRXB sub (%r14),%r13b
ffff80000010d21d:	2e 2e 2e 2a 4f 4f    	cs cs cs sub 0x4f(%rdi),%cl
ffff80000010d223:	2a 2e                	sub    (%rsi),%ch
ffff80000010d225:	2e 2e 2e 2a 4f 4f    	cs cs cs sub 0x4f(%rdi),%cl
ffff80000010d22b:	4f 2a 2e             	rex.WRXB sub (%r14),%r13b
ffff80000010d22e:	2e 2e 2a 4f 2a       	cs cs sub 0x2a(%rdi),%cl
ffff80000010d233:	2e 2e 2e 2e 2e 2e 2a 	cs cs cs cs cs cs sub 0x4f(%rdi),%cl
ffff80000010d23a:	4f 4f 
ffff80000010d23c:	4f 2a 2e             	rex.WRXB sub (%r14),%r13b
ffff80000010d23f:	2e 2a 2a             	cs sub (%rdx),%ch
ffff80000010d242:	2e 2e 2e 2e 2e 2e 2e 	cs cs cs cs cs cs cs cs sub 0x4f(%rdi),%cl
ffff80000010d249:	2e 2a 4f 4f 
ffff80000010d24d:	4f 2a 2e             	rex.WRXB sub (%r14),%r13b
ffff80000010d250:	2a 2e                	sub    (%rsi),%ch
ffff80000010d252:	2e 2e 2e 2e 2e 2e 2e 	cs cs cs cs cs cs cs cs cs sub 0x4f(%rdi),%cl
ffff80000010d259:	2e 2e 2a 4f 4f 
ffff80000010d25e:	4f 2a 2e             	rex.WRXB sub (%r14),%r13b
ffff80000010d261:	2e 2e 2e 2e 2e 2e 2e 	cs cs cs cs cs cs cs cs cs cs cs sub 0x4f(%rdi),%cl
ffff80000010d268:	2e 2e 2e 2e 2a 4f 4f 
ffff80000010d26f:	2a 2e                	sub    (%rsi),%ch
ffff80000010d271:	2e 2e 2e 2e 2e 2e 2e 	cs cs cs cs cs cs cs cs cs cs cs cs sub (%rdx),%ch
ffff80000010d278:	2e 2e 2e 2e 2e 2a 2a 
ffff80000010d27f:	2a                 	sub    (%rax),%al

ffff80000010d280 <GDT_Table>:
	...
ffff80000010d28c:	00 98 20 00 00 00    	add    %bl,0x20(%rax)
ffff80000010d292:	00 00                	add    %al,(%rax)
ffff80000010d294:	00 92 00 00 00 00    	add    %dl,0x0(%rdx)
ffff80000010d29a:	00 00                	add    %al,(%rax)
ffff80000010d29c:	00 f8                	add    %bh,%al
ffff80000010d29e:	20 00                	and    %al,(%rax)
ffff80000010d2a0:	00 00                	add    %al,(%rax)
ffff80000010d2a2:	00 00                	add    %al,(%rax)
ffff80000010d2a4:	00 f2                	add    %dh,%dl
ffff80000010d2a6:	00 00                	add    %al,(%rax)
ffff80000010d2a8:	ff                   	(bad)  
ffff80000010d2a9:	ff 00                	incl   (%rax)
ffff80000010d2ab:	00 00                	add    %al,(%rax)
ffff80000010d2ad:	9a                   	(bad)  
ffff80000010d2ae:	cf                   	iret   
ffff80000010d2af:	00 ff                	add    %bh,%bh
ffff80000010d2b1:	ff 00                	incl   (%rax)
ffff80000010d2b3:	00 00                	add    %al,(%rax)
ffff80000010d2b5:	92                   	xchg   %eax,%edx
ffff80000010d2b6:	cf                   	iret   
	...

ffff80000010d308 <GDT_END>:
ffff80000010d308:	87 00                	xchg   %eax,(%rax)

ffff80000010d30a <GDT_BASE>:
ffff80000010d30a:	80 d2 10             	adc    $0x10,%dl
ffff80000010d30d:	00 00                	add    %al,(%rax)
ffff80000010d30f:	80 ff ff             	cmp    $0xff,%bh

ffff80000010d312 <IDT_Table>:
	...

ffff80000010e312 <IDT_END>:
ffff80000010e312:	ff 0f                	decl   (%rdi)

ffff80000010e314 <IDT_BASE>:
ffff80000010e314:	12 d3                	adc    %bl,%dl
ffff80000010e316:	10 00                	adc    %al,(%rax)
ffff80000010e318:	00 80 ff ff      	add    %al,0xffff(%rax)

ffff80000010e31c <TSS64_Table>:
	...

ffff80000010e384 <TSS64_END>:
ffff80000010e384:	67 00            	add    %bl,(%ebx,%eiz,8)

ffff80000010e386 <TSS64_BASE>:
ffff80000010e386:	1c e3                	sbb    $0xe3,%al
ffff80000010e388:	10 00                	adc    %al,(%rax)
ffff80000010e38a:	00 80 ff ff 00 00    	add    %al,0xffff(%rax)
	...
ffff80000010e398:	00 00                	add    %al,(%rax)
ffff80000010e39a:	00 98 20 00 00 00    	add    %bl,0x20(%rax)
ffff80000010e3a0:	00 00                	add    %al,(%rax)
ffff80000010e3a2:	00 92 00 00 00 00    	add    %dl,0x0(%rdx)
ffff80000010e3a8:	00 00                	add    %al,(%rax)
ffff80000010e3aa:	00 f8                	add    %bh,%al
ffff80000010e3ac:	20 00                	and    %al,(%rax)
ffff80000010e3ae:	00 00                	add    %al,(%rax)
ffff80000010e3b0:	00 00                	add    %al,(%rax)
ffff80000010e3b2:	00 f2                	add    %dh,%dl
ffff80000010e3b4:	00 00                	add    %al,(%rax)
ffff80000010e3b6:	ff                   	(bad)  
ffff80000010e3b7:	ff 00                	incl   (%rax)
ffff80000010e3b9:	00 00                	add    %al,(%rax)
ffff80000010e3bb:	9a                   	(bad)  
ffff80000010e3bc:	cf                   	iret   
ffff80000010e3bd:	00 ff                	add    %bh,%bh
ffff80000010e3bf:	ff 00                	incl   (%rax)
ffff80000010e3c1:	00 00                	add    %al,(%rax)
ffff80000010e3c3:	92                   	xchg   %eax,%edx
ffff80000010e3c4:	cf                   	iret   
	...

ffff80000010e416 <GDT_END>:
ffff80000010e416:	87 00                	xchg   %eax,(%rax)

ffff80000010e418 <GDT_BASE>:
ffff80000010e418:	80 d2 10             	adc    $0x10,%dl
ffff80000010e41b:	00 00                	add    %al,(%rax)
ffff80000010e41d:	80 ff ff             	cmp    $0xff,%bh
	...

ffff80000010f420 <IDT_END>:
ffff80000010f420:	ff 0f                	decl   (%rdi)

ffff80000010f422 <IDT_BASE>:
ffff80000010f422:	12 d3                	adc    %bl,%dl
ffff80000010f424:	10 00                	adc    %al,(%rax)
ffff80000010f426:	00 80 ff ff 00 00    	add    %al,0xffff(%rax)
	...

ffff80000010f492 <TSS64_END>:
ffff80000010f492:	67 00            	add    %bl,(%ebx,%eiz,8)

ffff80000010f494 <TSS64_BASE>:
ffff80000010f494:	1c e3                	sbb    $0xe3,%al
ffff80000010f496:	10 00                	adc    %al,(%rax)
ffff80000010f498:	00                   	.byte 0x0
ffff80000010f499:	80 ff ff             	cmp    $0xff,%bh

Disassembly of section .got:

ffff80000010f4a0 <.got>:
ffff80000010f4a0:	8f                   	(bad)  
ffff80000010f4a1:	bf 10 00 00 80       	mov    $0x80000010,%edi
ffff80000010f4a6:	ff                   	(bad)  
ffff80000010f4a7:	ff f0                	push   %rax
ffff80000010f4a9:	c0 10 00             	rclb   $0x0,(%rax)
ffff80000010f4ac:	00 80 ff ff 4d c0    	add    %al,-0x3fb20001(%rax)
ffff80000010f4b2:	10 00                	adc    %al,(%rax)
ffff80000010f4b4:	00 80 ff ff e4 bf    	add    %al,-0x401b0001(%rax)
ffff80000010f4ba:	10 00                	adc    %al,(%rax)
ffff80000010f4bc:	00 80 ff ff 60 c0    	add    %al,-0x3f9f0001(%rax)
ffff80000010f4c2:	10 00                	adc    %al,(%rax)
ffff80000010f4c4:	00 80 ff ff bd c0    	add    %al,-0x3f420001(%rax)
ffff80000010f4ca:	10 00                	adc    %al,(%rax)
ffff80000010f4cc:	00 80 ff ff ce c0    	add    %al,-0x3f310001(%rax)
ffff80000010f4d2:	10 00                	adc    %al,(%rax)
ffff80000010f4d4:	00 80 ff ff df c0    	add    %al,-0x3f200001(%rax)
ffff80000010f4da:	10 00                	adc    %al,(%rax)
ffff80000010f4dc:	00 80 ff ff 12 d3    	add    %al,-0x2ced0001(%rax)
ffff80000010f4e2:	10 00                	adc    %al,(%rax)
ffff80000010f4e4:	00 80 ff ff 73 c0    	add    %al,-0x3f8c0001(%rax)
ffff80000010f4ea:	10 00                	adc    %al,(%rax)
ffff80000010f4ec:	00 80 ff ff 1c e3    	add    %al,-0x1ce30001(%rax)
ffff80000010f4f2:	10 00                	adc    %al,(%rax)
ffff80000010f4f4:	00 80 ff ff 25 c1    	add    %al,-0x3eda0001(%rax)
ffff80000010f4fa:	10 00                	adc    %al,(%rax)
ffff80000010f4fc:	00 80 ff ff 12 c1    	add    %al,-0x3eed0001(%rax)
ffff80000010f502:	10 00                	adc    %al,(%rax)
ffff80000010f504:	00 80 ff ff 99 c0    	add    %al,-0x3f660001(%rax)
ffff80000010f50a:	10 00                	adc    %al,(%rax)
ffff80000010f50c:	00 80 ff ff 00 03    	add    %al,0x300ffff(%rax)
ffff80000010f512:	11 00                	adc    %eax,(%rax)
ffff80000010f514:	00 80 ff ff 5c c1    	add    %al,-0x3ea30001(%rax)
ffff80000010f51a:	10 00                	adc    %al,(%rax)
ffff80000010f51c:	00 80 ff ff aa c0    	add    %al,-0x3f550001(%rax)
ffff80000010f522:	10 00                	adc    %al,(%rax)
ffff80000010f524:	00 80 ff ff 01 c1    	add    %al,-0x3efe0001(%rax)
ffff80000010f52a:	10 00                	adc    %al,(%rax)
ffff80000010f52c:	00 80 ff ff 36 c1    	add    %al,-0x3ec90001(%rax)
ffff80000010f532:	10 00                	adc    %al,(%rax)
ffff80000010f534:	00 80 ff ff 49 c1    	add    %al,-0x3eb60001(%rax)
ffff80000010f53a:	10 00                	adc    %al,(%rax)
ffff80000010f53c:	00 80 ff ff f4 bf    	add    %al,-0x400b0001(%rax)
ffff80000010f542:	10 00                	adc    %al,(%rax)
ffff80000010f544:	00 80 ff ff 86 c0    	add    %al,-0x3f790001(%rax)
ffff80000010f54a:	10 00                	adc    %al,(%rax)
ffff80000010f54c:	00 80 ff ff 3a c0    	add    %al,-0x3fc50001(%rax)
ffff80000010f552:	10 00                	adc    %al,(%rax)
ffff80000010f554:	00                   	.byte 0x0
ffff80000010f555:	80 ff ff             	cmp    $0xff,%bh

Disassembly of section .got.plt:

ffff80000010f558 <_GLOBAL_OFFSET_TABLE_>:
	...

Disassembly of section .rodata:

ffff80000010f570 <_rodata>:
ffff80000010f570:	64 6f                	outsl  %fs:(%rsi),(%dx)
ffff80000010f572:	5f                   	pop    %rdi
ffff80000010f573:	64 69 76 69 64 65 5f 	imul   $0x655f6564,%fs:0x69(%rsi),%esi
ffff80000010f57a:	65 
ffff80000010f57b:	72 72                	jb     ffff80000010f5ef <.LC2+0x1f>
ffff80000010f57d:	6f                   	outsl  %ds:(%rsi),(%dx)
ffff80000010f57e:	72 28                	jb     ffff80000010f5a8 <.LC1+0x8>
ffff80000010f580:	30 29                	xor    %ch,(%rcx)
ffff80000010f582:	2c 45                	sub    $0x45,%al
ffff80000010f584:	52                   	push   %rdx
ffff80000010f585:	52                   	push   %rdx
ffff80000010f586:	4f 52                	rex.WRXB push %r10
ffff80000010f588:	5f                   	pop    %rdi
ffff80000010f589:	43                   	rex.XB
ffff80000010f58a:	4f                   	rex.WRXB
ffff80000010f58b:	44                   	rex.R
ffff80000010f58c:	45 3a 25 78 2c 52 53 	cmp    0x53522c78(%rip),%r12b        # ffff80005363220b <_ebss+0x5351feab>
ffff80000010f593:	50                   	push   %rax
ffff80000010f594:	3a 25 78 2c 52 49    	cmp    0x49522c78(%rip),%ah        # ffff800049632212 <_ebss+0x4951feb2>
ffff80000010f59a:	50                   	push   %rax
ffff80000010f59b:	3a 25 78 0a 00     	cmp    0x64000a78(%rip),%ah        # ffff800064110019 <_ebss+0x63ffdcb9>

ffff80000010f5a0 <.LC1>:
ffff80000010f5a0:	64 6f                	outsl  %fs:(%rsi),(%dx)
ffff80000010f5a2:	5f                   	pop    %rdi
ffff80000010f5a3:	64 65 62 75 67 28 31 	(bad)
ffff80000010f5aa:	29 2c 45 52 52 4f 52 	sub    %ebp,0x524f5252(,%rax,2)
ffff80000010f5b1:	5f                   	pop    %rdi
ffff80000010f5b2:	43                   	rex.XB
ffff80000010f5b3:	4f                   	rex.WRXB
ffff80000010f5b4:	44                   	rex.R
ffff80000010f5b5:	45 3a 25 78 2c 52 53 	cmp    0x53522c78(%rip),%r12b        # ffff800053632234 <_ebss+0x5351fed4>
ffff80000010f5bc:	50                   	push   %rax
ffff80000010f5bd:	3a 25 78 2c 52 49    	cmp    0x49522c78(%rip),%ah        # ffff80004963223b <_ebss+0x4951fedb>
ffff80000010f5c3:	50                   	push   %rax
ffff80000010f5c4:	3a 25 78 0a 00 00    	cmp    0xa78(%rip),%ah        # ffff800000110042 <_erodata+0x4a5>
ffff80000010f5ca:	00 00                	add    %al,(%rax)
ffff80000010f5cc:	00 00                	add    %al,(%rax)
	...

ffff80000010f5d0 <.LC2>:
ffff80000010f5d0:	64 6f                	outsl  %fs:(%rsi),(%dx)
ffff80000010f5d2:	5f                   	pop    %rdi
ffff80000010f5d3:	6e                   	outsb  %ds:(%rsi),(%dx)
ffff80000010f5d4:	6d                   	insl   (%dx),%es:(%rdi)
ffff80000010f5d5:	69 28 32 29 2c 45    	imul   $0x452c2932,(%rax),%ebp
ffff80000010f5db:	52                   	push   %rdx
ffff80000010f5dc:	52                   	push   %rdx
ffff80000010f5dd:	4f 52                	rex.WRXB push %r10
ffff80000010f5df:	5f                   	pop    %rdi
ffff80000010f5e0:	43                   	rex.XB
ffff80000010f5e1:	4f                   	rex.WRXB
ffff80000010f5e2:	44                   	rex.R
ffff80000010f5e3:	45 3a 25 78 2c 52 53 	cmp    0x53522c78(%rip),%r12b        # ffff800053632262 <_ebss+0x5351ff02>
ffff80000010f5ea:	50                   	push   %rax
ffff80000010f5eb:	3a 25 78 2c 52 49    	cmp    0x49522c78(%rip),%ah        # ffff800049632269 <_ebss+0x4951ff09>
ffff80000010f5f1:	50                   	push   %rax
ffff80000010f5f2:	3a 25 78 0a 00 00    	cmp    0xa78(%rip),%ah        # ffff800000110070 <_erodata+0x4d3>

ffff80000010f5f8 <.LC3>:
ffff80000010f5f8:	64 6f                	outsl  %fs:(%rsi),(%dx)
ffff80000010f5fa:	5f                   	pop    %rdi
ffff80000010f5fb:	69 6e 74 33 28 33 29 	imul   $0x29332833,0x74(%rsi),%ebp
ffff80000010f602:	2c 45                	sub    $0x45,%al
ffff80000010f604:	52                   	push   %rdx
ffff80000010f605:	52                   	push   %rdx
ffff80000010f606:	4f 52                	rex.WRXB push %r10
ffff80000010f608:	5f                   	pop    %rdi
ffff80000010f609:	43                   	rex.XB
ffff80000010f60a:	4f                   	rex.WRXB
ffff80000010f60b:	44                   	rex.R
ffff80000010f60c:	45 3a 25 78 2c 52 53 	cmp    0x53522c78(%rip),%r12b        # ffff80005363228b <_ebss+0x5351ff2b>
ffff80000010f613:	50                   	push   %rax
ffff80000010f614:	3a 25 78 2c 52 49    	cmp    0x49522c78(%rip),%ah        # ffff800049632292 <_ebss+0x4951ff32>
ffff80000010f61a:	50                   	push   %rax
ffff80000010f61b:	3a 25 78 0a 00     	cmp    0x64000a78(%rip),%ah        # ffff800064110099 <_ebss+0x63ffdd39>

ffff80000010f620 <.LC4>:
ffff80000010f620:	64 6f                	outsl  %fs:(%rsi),(%dx)
ffff80000010f622:	5f                   	pop    %rdi
ffff80000010f623:	6f                   	outsl  %ds:(%rsi),(%dx)
ffff80000010f624:	76 65                	jbe    ffff80000010f68b <.LC6+0xb>
ffff80000010f626:	72 66                	jb     ffff80000010f68e <.LC6+0xe>
ffff80000010f628:	6c                   	insb   (%dx),%es:(%rdi)
ffff80000010f629:	6f                   	outsl  %ds:(%rsi),(%dx)
ffff80000010f62a:	77 28                	ja     ffff80000010f654 <.LC5+0x4>
ffff80000010f62c:	34 29                	xor    $0x29,%al
ffff80000010f62e:	2c 45                	sub    $0x45,%al
ffff80000010f630:	52                   	push   %rdx
ffff80000010f631:	52                   	push   %rdx
ffff80000010f632:	4f 52                	rex.WRXB push %r10
ffff80000010f634:	5f                   	pop    %rdi
ffff80000010f635:	43                   	rex.XB
ffff80000010f636:	4f                   	rex.WRXB
ffff80000010f637:	44                   	rex.R
ffff80000010f638:	45 3a 25 78 2c 52 53 	cmp    0x53522c78(%rip),%r12b        # ffff8000536322b7 <_ebss+0x5351ff57>
ffff80000010f63f:	50                   	push   %rax
ffff80000010f640:	3a 25 78 2c 52 49    	cmp    0x49522c78(%rip),%ah        # ffff8000496322be <_ebss+0x4951ff5e>
ffff80000010f646:	50                   	push   %rax
ffff80000010f647:	3a 25 78 0a 00 00    	cmp    0xa78(%rip),%ah        # ffff8000001100c5 <_erodata+0x528>
ffff80000010f64d:	00 00                	add    %al,(%rax)
	...

ffff80000010f650 <.LC5>:
ffff80000010f650:	64 6f                	outsl  %fs:(%rsi),(%dx)
ffff80000010f652:	5f                   	pop    %rdi
ffff80000010f653:	62                   	(bad)  
ffff80000010f654:	6f                   	outsl  %ds:(%rsi),(%dx)
ffff80000010f655:	75 6e                	jne    ffff80000010f6c5 <.LC7+0xd>
ffff80000010f657:	64 73 28             	fs jae ffff80000010f682 <.LC6+0x2>
ffff80000010f65a:	35 29 2c 45 52       	xor    $0x52452c29,%eax
ffff80000010f65f:	52                   	push   %rdx
ffff80000010f660:	4f 52                	rex.WRXB push %r10
ffff80000010f662:	5f                   	pop    %rdi
ffff80000010f663:	43                   	rex.XB
ffff80000010f664:	4f                   	rex.WRXB
ffff80000010f665:	44                   	rex.R
ffff80000010f666:	45 3a 25 78 2c 52 53 	cmp    0x53522c78(%rip),%r12b        # ffff8000536322e5 <_ebss+0x5351ff85>
ffff80000010f66d:	50                   	push   %rax
ffff80000010f66e:	3a 25 78 2c 52 49    	cmp    0x49522c78(%rip),%ah        # ffff8000496322ec <_ebss+0x4951ff8c>
ffff80000010f674:	50                   	push   %rax
ffff80000010f675:	3a 25 78 0a 00 00    	cmp    0xa78(%rip),%ah        # ffff8000001100f3 <_erodata+0x556>
ffff80000010f67b:	00 00                	add    %al,(%rax)
ffff80000010f67d:	00 00                	add    %al,(%rax)
	...

ffff80000010f680 <.LC6>:
ffff80000010f680:	64 6f                	outsl  %fs:(%rsi),(%dx)
ffff80000010f682:	5f                   	pop    %rdi
ffff80000010f683:	75 6e                	jne    ffff80000010f6f3 <.LC8+0x3>
ffff80000010f685:	64 65 66 69 6e 65 64 	fs imul $0x5f64,%gs:0x65(%rsi),%bp
ffff80000010f68c:	5f 
ffff80000010f68d:	6f                   	outsl  %ds:(%rsi),(%dx)
ffff80000010f68e:	70 63                	jo     ffff80000010f6f3 <.LC8+0x3>
ffff80000010f690:	6f                   	outsl  %ds:(%rsi),(%dx)
ffff80000010f691:	64 65 28 36          	fs sub %dh,%gs:(%rsi)
ffff80000010f695:	29 2c 45 52 52 4f 52 	sub    %ebp,0x524f5252(,%rax,2)
ffff80000010f69c:	5f                   	pop    %rdi
ffff80000010f69d:	43                   	rex.XB
ffff80000010f69e:	4f                   	rex.WRXB
ffff80000010f69f:	44                   	rex.R
ffff80000010f6a0:	45 3a 25 78 2c 52 53 	cmp    0x53522c78(%rip),%r12b        # ffff80005363231f <_ebss+0x5351ffbf>
ffff80000010f6a7:	50                   	push   %rax
ffff80000010f6a8:	3a 25 78 2c 52 49    	cmp    0x49522c78(%rip),%ah        # ffff800049632326 <_ebss+0x4951ffc6>
ffff80000010f6ae:	50                   	push   %rax
ffff80000010f6af:	3a 25 78 0a 00 00    	cmp    0xa78(%rip),%ah        # ffff80000011012d <_erodata+0x590>
ffff80000010f6b5:	00 00                	add    %al,(%rax)
	...

ffff80000010f6b8 <.LC7>:
ffff80000010f6b8:	64 6f                	outsl  %fs:(%rsi),(%dx)
ffff80000010f6ba:	5f                   	pop    %rdi
ffff80000010f6bb:	64 65 76 5f          	fs gs jbe ffff80000010f71e <.LC8+0x2e>
ffff80000010f6bf:	6e                   	outsb  %ds:(%rsi),(%dx)
ffff80000010f6c0:	6f                   	outsl  %ds:(%rsi),(%dx)
ffff80000010f6c1:	74 5f                	je     ffff80000010f722 <.LC9+0x2>
ffff80000010f6c3:	61                   	(bad)  
ffff80000010f6c4:	76 61                	jbe    ffff80000010f727 <.LC9+0x7>
ffff80000010f6c6:	69 6c 61 62 6c 65 28 	imul   $0x3728656c,0x62(%rcx,%riz,2),%ebp
ffff80000010f6cd:	37 
ffff80000010f6ce:	29 2c 45 52 52 4f 52 	sub    %ebp,0x524f5252(,%rax,2)
ffff80000010f6d5:	5f                   	pop    %rdi
ffff80000010f6d6:	43                   	rex.XB
ffff80000010f6d7:	4f                   	rex.WRXB
ffff80000010f6d8:	44                   	rex.R
ffff80000010f6d9:	45 3a 25 78 2c 52 53 	cmp    0x53522c78(%rip),%r12b        # ffff800053632358 <_ebss+0x5351fff8>
ffff80000010f6e0:	50                   	push   %rax
ffff80000010f6e1:	3a 25 78 2c 52 49    	cmp    0x49522c78(%rip),%ah        # ffff80004963235f <_ebss+0x4951ffff>
ffff80000010f6e7:	50                   	push   %rax
ffff80000010f6e8:	3a 25 78 0a 00 00    	cmp    0xa78(%rip),%ah        # ffff800000110166 <_erodata+0x5c9>
	...

ffff80000010f6f0 <.LC8>:
ffff80000010f6f0:	64 6f                	outsl  %fs:(%rsi),(%dx)
ffff80000010f6f2:	5f                   	pop    %rdi
ffff80000010f6f3:	64 6f                	outsl  %fs:(%rsi),(%dx)
ffff80000010f6f5:	75 62                	jne    ffff80000010f759 <.LC9+0x39>
ffff80000010f6f7:	6c                   	insb   (%dx),%es:(%rdi)
ffff80000010f6f8:	65 5f                	gs pop %rdi
ffff80000010f6fa:	66 61                	data16 (bad) 
ffff80000010f6fc:	75 6c                	jne    ffff80000010f76a <.LC10+0xa>
ffff80000010f6fe:	74 28                	je     ffff80000010f728 <.LC9+0x8>
ffff80000010f700:	38 29                	cmp    %ch,(%rcx)
ffff80000010f702:	2c 45                	sub    $0x45,%al
ffff80000010f704:	52                   	push   %rdx
ffff80000010f705:	52                   	push   %rdx
ffff80000010f706:	4f 52                	rex.WRXB push %r10
ffff80000010f708:	5f                   	pop    %rdi
ffff80000010f709:	43                   	rex.XB
ffff80000010f70a:	4f                   	rex.WRXB
ffff80000010f70b:	44                   	rex.R
ffff80000010f70c:	45 3a 25 78 2c 52 53 	cmp    0x53522c78(%rip),%r12b        # ffff80005363238b <_ebss+0x5352002b>
ffff80000010f713:	50                   	push   %rax
ffff80000010f714:	3a 25 78 2c 52 49    	cmp    0x49522c78(%rip),%ah        # ffff800049632392 <_ebss+0x49520032>
ffff80000010f71a:	50                   	push   %rax
ffff80000010f71b:	3a 25 78 0a 00     	cmp    0x64000a78(%rip),%ah        # ffff800064110199 <_ebss+0x63ffde39>

ffff80000010f720 <.LC9>:
ffff80000010f720:	64 6f                	outsl  %fs:(%rsi),(%dx)
ffff80000010f722:	5f                   	pop    %rdi
ffff80000010f723:	63 6f 70             	movsxd 0x70(%rdi),%ebp
ffff80000010f726:	72 6f                	jb     ffff80000010f797 <.LC11+0x7>
ffff80000010f728:	63 65 73             	movsxd 0x73(%rbp),%esp
ffff80000010f72b:	73 6f                	jae    ffff80000010f79c <.LC11+0xc>
ffff80000010f72d:	72 5f                	jb     ffff80000010f78e <.LC10+0x2e>
ffff80000010f72f:	73 65                	jae    ffff80000010f796 <.LC11+0x6>
ffff80000010f731:	67 6d                	insl   (%dx),%es:(%edi)
ffff80000010f733:	65 6e                	outsb  %gs:(%rsi),(%dx)
ffff80000010f735:	74 5f                	je     ffff80000010f796 <.LC11+0x6>
ffff80000010f737:	6f                   	outsl  %ds:(%rsi),(%dx)
ffff80000010f738:	76 65                	jbe    ffff80000010f79f <.LC11+0xf>
ffff80000010f73a:	72 72                	jb     ffff80000010f7ae <.LC11+0x1e>
ffff80000010f73c:	75 6e                	jne    ffff80000010f7ac <.LC11+0x1c>
ffff80000010f73e:	28 39                	sub    %bh,(%rcx)
ffff80000010f740:	29 2c 45 52 52 4f 52 	sub    %ebp,0x524f5252(,%rax,2)
ffff80000010f747:	5f                   	pop    %rdi
ffff80000010f748:	43                   	rex.XB
ffff80000010f749:	4f                   	rex.WRXB
ffff80000010f74a:	44                   	rex.R
ffff80000010f74b:	45 3a 25 78 2c 52 53 	cmp    0x53522c78(%rip),%r12b        # ffff8000536323ca <_ebss+0x5352006a>
ffff80000010f752:	50                   	push   %rax
ffff80000010f753:	3a 25 78 2c 52 49    	cmp    0x49522c78(%rip),%ah        # ffff8000496323d1 <_ebss+0x49520071>
ffff80000010f759:	50                   	push   %rax
ffff80000010f75a:	3a 25 78 0a 00 00    	cmp    0xa78(%rip),%ah        # ffff8000001101d8 <_erodata+0x63b>

ffff80000010f760 <.LC10>:
ffff80000010f760:	64 6f                	outsl  %fs:(%rsi),(%dx)
ffff80000010f762:	5f                   	pop    %rdi
ffff80000010f763:	69 6e 76 61 6c 69 64 	imul   $0x64696c61,0x76(%rsi),%ebp
ffff80000010f76a:	5f                   	pop    %rdi
ffff80000010f76b:	54                   	push   %rsp
ffff80000010f76c:	53                   	push   %rbx
ffff80000010f76d:	53                   	push   %rbx
ffff80000010f76e:	28 31                	sub    %dh,(%rcx)
ffff80000010f770:	30 29                	xor    %ch,(%rcx)
ffff80000010f772:	2c 45                	sub    $0x45,%al
ffff80000010f774:	52                   	push   %rdx
ffff80000010f775:	52                   	push   %rdx
ffff80000010f776:	4f 52                	rex.WRXB push %r10
ffff80000010f778:	5f                   	pop    %rdi
ffff80000010f779:	43                   	rex.XB
ffff80000010f77a:	4f                   	rex.WRXB
ffff80000010f77b:	44                   	rex.R
ffff80000010f77c:	45 3a 25 78 2c 52 53 	cmp    0x53522c78(%rip),%r12b        # ffff8000536323fb <_ebss+0x5352009b>
ffff80000010f783:	50                   	push   %rax
ffff80000010f784:	3a 25 78 2c 52 49    	cmp    0x49522c78(%rip),%ah        # ffff800049632402 <_ebss+0x495200a2>
ffff80000010f78a:	50                   	push   %rax
ffff80000010f78b:	3a 25 78 0a 00     	cmp    0x54000a78(%rip),%ah        # ffff800054110209 <_ebss+0x53ffdea9>

ffff80000010f790 <.LC11>:
ffff80000010f790:	54                   	push   %rsp
ffff80000010f791:	68 65 20 65 78       	push   $0x78652065
ffff80000010f796:	63 65 70             	movsxd 0x70(%rbp),%esp
ffff80000010f799:	74 69                	je     ffff80000010f804 <.LC11+0x74>
ffff80000010f79b:	6f                   	outsl  %ds:(%rsi),(%dx)
ffff80000010f79c:	6e                   	outsb  %ds:(%rsi),(%dx)
ffff80000010f79d:	20 6f 63             	and    %ch,0x63(%rdi)
ffff80000010f7a0:	63 75 72             	movsxd 0x72(%rbp),%esi
ffff80000010f7a3:	72 65                	jb     ffff80000010f80a <.LC11+0x7a>
ffff80000010f7a5:	64 20 64 75 72       	and    %ah,%fs:0x72(%rbp,%rsi,2)
ffff80000010f7aa:	69 6e 67 20 64 65 6c 	imul   $0x6c656420,0x67(%rsi),%ebp
ffff80000010f7b1:	69 76 65 72 79 20 6f 	imul   $0x6f207972,0x65(%rsi),%esi
ffff80000010f7b8:	66 20 61 6e          	data16 and %ah,0x6e(%rcx)
ffff80000010f7bc:	20 65 76             	and    %ah,0x76(%rbp)
ffff80000010f7bf:	65 6e                	outsb  %gs:(%rsi),(%dx)
ffff80000010f7c1:	74 20                	je     ffff80000010f7e3 <.LC11+0x53>
ffff80000010f7c3:	65 78 74             	gs js  ffff80000010f83a <.LC12+0x2a>
ffff80000010f7c6:	65 72 6e             	gs jb  ffff80000010f837 <.LC12+0x27>
ffff80000010f7c9:	61                   	(bad)  
ffff80000010f7ca:	6c                   	insb   (%dx),%es:(%rdi)
ffff80000010f7cb:	20 74 6f 20          	and    %dh,0x20(%rdi,%rbp,2)
ffff80000010f7cf:	74 68                	je     ffff80000010f839 <.LC12+0x29>
ffff80000010f7d1:	65 20 70 72          	and    %dh,%gs:0x72(%rax)
ffff80000010f7d5:	6f                   	outsl  %ds:(%rsi),(%dx)
ffff80000010f7d6:	67 72 61             	addr32 jb ffff80000010f83a <.LC12+0x2a>
ffff80000010f7d9:	6d                   	insl   (%dx),%es:(%rdi)
ffff80000010f7da:	2c 73                	sub    $0x73,%al
ffff80000010f7dc:	75 63                	jne    ffff80000010f841 <.LC13+0x1>
ffff80000010f7de:	68 20 61 73 20       	push   $0x20736120
ffff80000010f7e3:	61                   	(bad)  
ffff80000010f7e4:	6e                   	outsb  %ds:(%rsi),(%dx)
ffff80000010f7e5:	20 69 6e             	and    %ch,0x6e(%rcx)
ffff80000010f7e8:	74 65                	je     ffff80000010f84f <.LC13+0xf>
ffff80000010f7ea:	72 72                	jb     ffff80000010f85e <.LC13+0x1e>
ffff80000010f7ec:	75 70                	jne    ffff80000010f85e <.LC13+0x1e>
ffff80000010f7ee:	74 20                	je     ffff80000010f810 <.LC12>
ffff80000010f7f0:	6f                   	outsl  %ds:(%rsi),(%dx)
ffff80000010f7f1:	72 20                	jb     ffff80000010f813 <.LC12+0x3>
ffff80000010f7f3:	61                   	(bad)  
ffff80000010f7f4:	6e                   	outsb  %ds:(%rsi),(%dx)
ffff80000010f7f5:	20 65 61             	and    %ah,0x61(%rbp)
ffff80000010f7f8:	72 6c                	jb     ffff80000010f866 <.LC13+0x26>
ffff80000010f7fa:	69 65 72 20 65 78 63 	imul   $0x63786520,0x72(%rbp),%esp
ffff80000010f801:	65 70 74             	gs jo  ffff80000010f878 <.LC14>
ffff80000010f804:	69 6f 6e 2e 0a 00 00 	imul   $0xa2e,0x6e(%rdi),%ebp
ffff80000010f80b:	00 00                	add    %al,(%rax)
ffff80000010f80d:	00 00                	add    %al,(%rax)
	...

ffff80000010f810 <.LC12>:
ffff80000010f810:	52                   	push   %rdx
ffff80000010f811:	65 66 65 72 73       	gs data16 gs jb ffff80000010f889 <.LC14+0x11>
ffff80000010f816:	20 74 6f 20          	and    %dh,0x20(%rdi,%rbp,2)
ffff80000010f81a:	61                   	(bad)  
ffff80000010f81b:	20 67 61             	and    %ah,0x61(%rdi)
ffff80000010f81e:	74 65                	je     ffff80000010f885 <.LC14+0xd>
ffff80000010f820:	20 64 65 73          	and    %ah,0x73(%rbp,%riz,2)
ffff80000010f824:	63 72 69             	movsxd 0x69(%rdx),%esi
ffff80000010f827:	70 74                	jo     ffff80000010f89d <.LC14+0x25>
ffff80000010f829:	6f                   	outsl  %ds:(%rsi),(%dx)
ffff80000010f82a:	72 20                	jb     ffff80000010f84c <.LC13+0xc>
ffff80000010f82c:	69 6e 20 74 68 65 20 	imul   $0x20656874,0x20(%rsi),%ebp
ffff80000010f833:	49                   	rex.WB
ffff80000010f834:	44 54                	rex.R push %rsp
ffff80000010f836:	3b 0a                	cmp    (%rdx),%ecx
	...

ffff80000010f840 <.LC13>:
ffff80000010f840:	52                   	push   %rdx
ffff80000010f841:	65 66 65 72 73       	gs data16 gs jb ffff80000010f8b9 <.LC15+0x9>
ffff80000010f846:	20 74 6f 20          	and    %dh,0x20(%rdi,%rbp,2)
ffff80000010f84a:	61                   	(bad)  
ffff80000010f84b:	20 64 65 73          	and    %ah,0x73(%rbp,%riz,2)
ffff80000010f84f:	63 72 69             	movsxd 0x69(%rdx),%esi
ffff80000010f852:	70 74                	jo     ffff80000010f8c8 <.LC15+0x18>
ffff80000010f854:	6f                   	outsl  %ds:(%rsi),(%dx)
ffff80000010f855:	72 20                	jb     ffff80000010f877 <.LC13+0x37>
ffff80000010f857:	69 6e 20 74 68 65 20 	imul   $0x20656874,0x20(%rsi),%ebp
ffff80000010f85e:	47                   	rex.RXB
ffff80000010f85f:	44 54                	rex.R push %rsp
ffff80000010f861:	20 6f 72             	and    %ch,0x72(%rdi)
ffff80000010f864:	20 74 68 65          	and    %dh,0x65(%rax,%rbp,2)
ffff80000010f868:	20 63 75             	and    %ah,0x75(%rbx)
ffff80000010f86b:	72 72                	jb     ffff80000010f8df <.LC16+0x3>
ffff80000010f86d:	65 6e                	outsb  %gs:(%rsi),(%dx)
ffff80000010f86f:	74 20                	je     ffff80000010f891 <.LC14+0x19>
ffff80000010f871:	4c                   	rex.WR
ffff80000010f872:	44 54                	rex.R push %rsp
ffff80000010f874:	3b 0a                	cmp    (%rdx),%ecx
	...

ffff80000010f878 <.LC14>:
ffff80000010f878:	52                   	push   %rdx
ffff80000010f879:	65 66 65 72 73       	gs data16 gs jb ffff80000010f8f1 <.LC16+0x15>
ffff80000010f87e:	20 74 6f 20          	and    %dh,0x20(%rdi,%rbp,2)
ffff80000010f882:	61                   	(bad)  
ffff80000010f883:	20 73 65             	and    %dh,0x65(%rbx)
ffff80000010f886:	67 6d                	insl   (%dx),%es:(%edi)
ffff80000010f888:	65 6e                	outsb  %gs:(%rsi),(%dx)
ffff80000010f88a:	74 20                	je     ffff80000010f8ac <.LC14+0x34>
ffff80000010f88c:	6f                   	outsl  %ds:(%rsi),(%dx)
ffff80000010f88d:	72 20                	jb     ffff80000010f8af <.LC14+0x37>
ffff80000010f88f:	67 61                	addr32 (bad) 
ffff80000010f891:	74 65                	je     ffff80000010f8f8 <.LC17>
ffff80000010f893:	20 64 65 73          	and    %ah,0x73(%rbp,%riz,2)
ffff80000010f897:	63 72 69             	movsxd 0x69(%rdx),%esi
ffff80000010f89a:	70 74                	jo     ffff80000010f910 <.LC17+0x18>
ffff80000010f89c:	6f                   	outsl  %ds:(%rsi),(%dx)
ffff80000010f89d:	72 20                	jb     ffff80000010f8bf <.LC15+0xf>
ffff80000010f89f:	69 6e 20 74 68 65 20 	imul   $0x20656874,0x20(%rsi),%ebp
ffff80000010f8a6:	4c                   	rex.WR
ffff80000010f8a7:	44 54                	rex.R push %rsp
ffff80000010f8a9:	3b 0a                	cmp    (%rdx),%ecx
ffff80000010f8ab:	00 00                	add    %al,(%rax)
ffff80000010f8ad:	00 00                	add    %al,(%rax)
	...

ffff80000010f8b0 <.LC15>:
ffff80000010f8b0:	52                   	push   %rdx
ffff80000010f8b1:	65 66 65 72 73       	gs data16 gs jb ffff80000010f929 <.LC17+0x31>
ffff80000010f8b6:	20 74 6f 20          	and    %dh,0x20(%rdi,%rbp,2)
ffff80000010f8ba:	61                   	(bad)  
ffff80000010f8bb:	20 64 65 73          	and    %ah,0x73(%rbp,%riz,2)
ffff80000010f8bf:	63 72 69             	movsxd 0x69(%rdx),%esi
ffff80000010f8c2:	70 74                	jo     ffff80000010f938 <.LC18+0x8>
ffff80000010f8c4:	6f                   	outsl  %ds:(%rsi),(%dx)
ffff80000010f8c5:	72 20                	jb     ffff80000010f8e7 <.LC16+0xb>
ffff80000010f8c7:	69 6e 20 74 68 65 20 	imul   $0x20656874,0x20(%rsi),%ebp
ffff80000010f8ce:	63 75 72             	movsxd 0x72(%rbp),%esi
ffff80000010f8d1:	72 65                	jb     ffff80000010f938 <.LC18+0x8>
ffff80000010f8d3:	6e                   	outsb  %ds:(%rsi),(%dx)
ffff80000010f8d4:	74 20                	je     ffff80000010f8f6 <.LC16+0x1a>
ffff80000010f8d6:	47                   	rex.RXB
ffff80000010f8d7:	44 54                	rex.R push %rsp
ffff80000010f8d9:	3b 0a                	cmp    (%rdx),%ecx
	...

ffff80000010f8dc <.LC16>:
ffff80000010f8dc:	53                   	push   %rbx
ffff80000010f8dd:	65 67 6d             	gs insl (%dx),%es:(%edi)
ffff80000010f8e0:	65 6e                	outsb  %gs:(%rsi),(%dx)
ffff80000010f8e2:	74 20                	je     ffff80000010f904 <.LC17+0xc>
ffff80000010f8e4:	53                   	push   %rbx
ffff80000010f8e5:	65 6c                	gs insb (%dx),%es:(%rdi)
ffff80000010f8e7:	65 63 74 6f 72       	movsxd %gs:0x72(%rdi,%rbp,2),%esi
ffff80000010f8ec:	20 49 6e             	and    %cl,0x6e(%rcx)
ffff80000010f8ef:	64 65 78 3a          	fs gs js ffff80000010f92d <.LC17+0x35>
ffff80000010f8f3:	25 78 0a 00 00       	and    $0xa78,%eax

ffff80000010f8f8 <.LC17>:
ffff80000010f8f8:	64 6f                	outsl  %fs:(%rsi),(%dx)
ffff80000010f8fa:	5f                   	pop    %rdi
ffff80000010f8fb:	73 65                	jae    ffff80000010f962 <.LC18+0x32>
ffff80000010f8fd:	67 6d                	insl   (%dx),%es:(%edi)
ffff80000010f8ff:	65 6e                	outsb  %gs:(%rsi),(%dx)
ffff80000010f901:	74 5f                	je     ffff80000010f962 <.LC18+0x32>
ffff80000010f903:	6e                   	outsb  %ds:(%rsi),(%dx)
ffff80000010f904:	6f                   	outsl  %ds:(%rsi),(%dx)
ffff80000010f905:	74 5f                	je     ffff80000010f966 <.LC18+0x36>
ffff80000010f907:	70 72                	jo     ffff80000010f97b <.LC19+0x13>
ffff80000010f909:	65 73 65             	gs jae ffff80000010f971 <.LC19+0x9>
ffff80000010f90c:	6e                   	outsb  %ds:(%rsi),(%dx)
ffff80000010f90d:	74 28                	je     ffff80000010f937 <.LC18+0x7>
ffff80000010f90f:	31 31                	xor    %esi,(%rcx)
ffff80000010f911:	29 2c 45 52 52 4f 52 	sub    %ebp,0x524f5252(,%rax,2)
ffff80000010f918:	5f                   	pop    %rdi
ffff80000010f919:	43                   	rex.XB
ffff80000010f91a:	4f                   	rex.WRXB
ffff80000010f91b:	44                   	rex.R
ffff80000010f91c:	45 3a 25 78 2c 52 53 	cmp    0x53522c78(%rip),%r12b        # ffff80005363259b <_ebss+0x5352023b>
ffff80000010f923:	50                   	push   %rax
ffff80000010f924:	3a 25 78 2c 52 49    	cmp    0x49522c78(%rip),%ah        # ffff8000496325a2 <_ebss+0x49520242>
ffff80000010f92a:	50                   	push   %rax
ffff80000010f92b:	3a 25 78 0a 00     	cmp    0x64000a78(%rip),%ah        # ffff8000641103a9 <_ebss+0x63ffe049>

ffff80000010f930 <.LC18>:
ffff80000010f930:	64 6f                	outsl  %fs:(%rsi),(%dx)
ffff80000010f932:	5f                   	pop    %rdi
ffff80000010f933:	73 74                	jae    ffff80000010f9a9 <.LC20+0x9>
ffff80000010f935:	61                   	(bad)  
ffff80000010f936:	63 6b 5f             	movsxd 0x5f(%rbx),%ebp
ffff80000010f939:	73 65                	jae    ffff80000010f9a0 <.LC20>
ffff80000010f93b:	67 6d                	insl   (%dx),%es:(%edi)
ffff80000010f93d:	65 6e                	outsb  %gs:(%rsi),(%dx)
ffff80000010f93f:	74 5f                	je     ffff80000010f9a0 <.LC20>
ffff80000010f941:	66 61                	data16 (bad) 
ffff80000010f943:	75 6c                	jne    ffff80000010f9b1 <.LC20+0x11>
ffff80000010f945:	74 28                	je     ffff80000010f96f <.LC19+0x7>
ffff80000010f947:	31 32                	xor    %esi,(%rdx)
ffff80000010f949:	29 2c 45 52 52 4f 52 	sub    %ebp,0x524f5252(,%rax,2)
ffff80000010f950:	5f                   	pop    %rdi
ffff80000010f951:	43                   	rex.XB
ffff80000010f952:	4f                   	rex.WRXB
ffff80000010f953:	44                   	rex.R
ffff80000010f954:	45 3a 25 78 2c 52 53 	cmp    0x53522c78(%rip),%r12b        # ffff8000536325d3 <_ebss+0x53520273>
ffff80000010f95b:	50                   	push   %rax
ffff80000010f95c:	3a 25 78 2c 52 49    	cmp    0x49522c78(%rip),%ah        # ffff8000496325da <_ebss+0x4952027a>
ffff80000010f962:	50                   	push   %rax
ffff80000010f963:	3a 25 78 0a 00     	cmp    0x64000a78(%rip),%ah        # ffff8000641103e1 <_ebss+0x63ffe081>

ffff80000010f968 <.LC19>:
ffff80000010f968:	64 6f                	outsl  %fs:(%rsi),(%dx)
ffff80000010f96a:	5f                   	pop    %rdi
ffff80000010f96b:	67 65 6e             	outsb  %gs:(%esi),(%dx)
ffff80000010f96e:	65 72 61             	gs jb  ffff80000010f9d2 <.LC21+0x3>
ffff80000010f971:	6c                   	insb   (%dx),%es:(%rdi)
ffff80000010f972:	5f                   	pop    %rdi
ffff80000010f973:	70 72                	jo     ffff80000010f9e7 <.LC22+0x5>
ffff80000010f975:	6f                   	outsl  %ds:(%rsi),(%dx)
ffff80000010f976:	74 65                	je     ffff80000010f9dd <.LC21+0xe>
ffff80000010f978:	63 74 69 6f          	movsxd 0x6f(%rcx,%rbp,2),%esi
ffff80000010f97c:	6e                   	outsb  %ds:(%rsi),(%dx)
ffff80000010f97d:	28 31                	sub    %dh,(%rcx)
ffff80000010f97f:	33 29                	xor    (%rcx),%ebp
ffff80000010f981:	2c 45                	sub    $0x45,%al
ffff80000010f983:	52                   	push   %rdx
ffff80000010f984:	52                   	push   %rdx
ffff80000010f985:	4f 52                	rex.WRXB push %r10
ffff80000010f987:	5f                   	pop    %rdi
ffff80000010f988:	43                   	rex.XB
ffff80000010f989:	4f                   	rex.WRXB
ffff80000010f98a:	44                   	rex.R
ffff80000010f98b:	45 3a 25 78 2c 52 53 	cmp    0x53522c78(%rip),%r12b        # ffff80005363260a <_ebss+0x535202aa>
ffff80000010f992:	50                   	push   %rax
ffff80000010f993:	3a 25 78 2c 52 49    	cmp    0x49522c78(%rip),%ah        # ffff800049632611 <_ebss+0x495202b1>
ffff80000010f999:	50                   	push   %rax
ffff80000010f99a:	3a 25 78 0a 00 00    	cmp    0xa78(%rip),%ah        # ffff800000110418 <g_buffer+0xd8>

ffff80000010f9a0 <.LC20>:
ffff80000010f9a0:	64 6f                	outsl  %fs:(%rsi),(%dx)
ffff80000010f9a2:	5f                   	pop    %rdi
ffff80000010f9a3:	70 61                	jo     ffff80000010fa06 <.LC23+0x10>
ffff80000010f9a5:	67 65 5f             	addr32 gs pop %rdi
ffff80000010f9a8:	66 61                	data16 (bad) 
ffff80000010f9aa:	75 6c                	jne    ffff80000010fa18 <.LC24+0xf>
ffff80000010f9ac:	74 28                	je     ffff80000010f9d6 <.LC21+0x7>
ffff80000010f9ae:	31 34 29             	xor    %esi,(%rcx,%rbp,1)
ffff80000010f9b1:	2c 45                	sub    $0x45,%al
ffff80000010f9b3:	52                   	push   %rdx
ffff80000010f9b4:	52                   	push   %rdx
ffff80000010f9b5:	4f 52                	rex.WRXB push %r10
ffff80000010f9b7:	5f                   	pop    %rdi
ffff80000010f9b8:	43                   	rex.XB
ffff80000010f9b9:	4f                   	rex.WRXB
ffff80000010f9ba:	44                   	rex.R
ffff80000010f9bb:	45 3a 25 78 2c 52 53 	cmp    0x53522c78(%rip),%r12b        # ffff80005363263a <_ebss+0x535202da>
ffff80000010f9c2:	50                   	push   %rax
ffff80000010f9c3:	3a 25 78 2c 52 49    	cmp    0x49522c78(%rip),%ah        # ffff800049632641 <_ebss+0x495202e1>
ffff80000010f9c9:	50                   	push   %rax
ffff80000010f9ca:	3a 25 78 0a 00     	cmp    0x50000a78(%rip),%ah        # ffff800050110448 <_ebss+0x4fffe0e8>

ffff80000010f9cf <.LC21>:
ffff80000010f9cf:	50                   	push   %rax
ffff80000010f9d0:	61                   	(bad)  
ffff80000010f9d1:	67 65 20 4e 6f       	and    %cl,%gs:0x6f(%esi)
ffff80000010f9d6:	74 2d                	je     ffff80000010fa05 <.LC23+0xf>
ffff80000010f9d8:	50                   	push   %rax
ffff80000010f9d9:	72 65                	jb     ffff80000010fa40 <.LC26+0x9>
ffff80000010f9db:	73 65                	jae    ffff80000010fa42 <.LC26+0xb>
ffff80000010f9dd:	6e                   	outsb  %ds:(%rsi),(%dx)
ffff80000010f9de:	74 2c                	je     ffff80000010fa0c <.LC24+0x3>
ffff80000010f9e0:	09 00                	or     %eax,(%rax)

ffff80000010f9e2 <.LC22>:
ffff80000010f9e2:	57                   	push   %rdi
ffff80000010f9e3:	72 69                	jb     ffff80000010fa4e <.LC26+0x17>
ffff80000010f9e5:	74 65                	je     ffff80000010fa4c <.LC26+0x15>
ffff80000010f9e7:	20 43 61             	and    %al,0x61(%rbx)
ffff80000010f9ea:	75 73                	jne    ffff80000010fa5f <.LC27+0x7>
ffff80000010f9ec:	65 20 46 61          	and    %al,%gs:0x61(%rsi)
ffff80000010f9f0:	75 6c                	jne    ffff80000010fa5e <.LC27+0x6>
ffff80000010f9f2:	74 2c                	je     ffff80000010fa20 <.LC25+0x5>
ffff80000010f9f4:	09 00                	or     %eax,(%rax)

ffff80000010f9f6 <.LC23>:
ffff80000010f9f6:	52                   	push   %rdx
ffff80000010f9f7:	65 61                	gs (bad) 
ffff80000010f9f9:	64 20 43 61          	and    %al,%fs:0x61(%rbx)
ffff80000010f9fd:	75 73                	jne    ffff80000010fa72 <.LC27+0x1a>
ffff80000010f9ff:	65 20 46 61          	and    %al,%gs:0x61(%rsi)
ffff80000010fa03:	75 6c                	jne    ffff80000010fa71 <.LC27+0x19>
ffff80000010fa05:	74 2c                	je     ffff80000010fa33 <.LC25+0x18>
ffff80000010fa07:	09 00                	or     %eax,(%rax)

ffff80000010fa09 <.LC24>:
ffff80000010fa09:	46 61                	rex.RX (bad) 
ffff80000010fa0b:	75 6c                	jne    ffff80000010fa79 <.LC28+0x2>
ffff80000010fa0d:	74 20                	je     ffff80000010fa2f <.LC25+0x14>
ffff80000010fa0f:	69 6e 20 75 73 65 72 	imul   $0x72657375,0x20(%rsi),%ebp
ffff80000010fa16:	28 33                	sub    %dh,(%rbx)
ffff80000010fa18:	29 09                	sub    %ecx,(%rcx)
	...

ffff80000010fa1b <.LC25>:
ffff80000010fa1b:	46 61                	rex.RX (bad) 
ffff80000010fa1d:	75 6c                	jne    ffff80000010fa8b <.LC29+0xb>
ffff80000010fa1f:	74 20                	je     ffff80000010fa41 <.LC26+0xa>
ffff80000010fa21:	69 6e 20 73 75 70 65 	imul   $0x65707573,0x20(%rsi),%ebp
ffff80000010fa28:	72 76                	jb     ffff80000010faa0 <.LC29+0x20>
ffff80000010fa2a:	69 73 6f 72 28 30 2c 	imul   $0x2c302872,0x6f(%rbx),%esi
ffff80000010fa31:	31 2c 32             	xor    %ebp,(%rdx,%rsi,1)
ffff80000010fa34:	29 09                	sub    %ecx,(%rcx)
	...

ffff80000010fa37 <.LC26>:
ffff80000010fa37:	2c 52                	sub    $0x52,%al
ffff80000010fa39:	65 73 65             	gs jae ffff80000010faa1 <.LC29+0x21>
ffff80000010fa3c:	72 76                	jb     ffff80000010fab4 <.LC29+0x34>
ffff80000010fa3e:	65 64 20 42 69       	gs and %al,%fs:0x69(%rdx)
ffff80000010fa43:	74 20                	je     ffff80000010fa65 <.LC27+0xd>
ffff80000010fa45:	43 61                	rex.XB (bad) 
ffff80000010fa47:	75 73                	jne    ffff80000010fabc <.LC30+0x4>
ffff80000010fa49:	65 20 46 61          	and    %al,%gs:0x61(%rsi)
ffff80000010fa4d:	75 6c                	jne    ffff80000010fabb <.LC30+0x3>
ffff80000010fa4f:	74 09                	je     ffff80000010fa5a <.LC27+0x2>
ffff80000010fa51:	00 00                	add    %al,(%rax)
ffff80000010fa53:	00 00                	add    %al,(%rax)
ffff80000010fa55:	00 00                	add    %al,(%rax)
	...

ffff80000010fa58 <.LC27>:
ffff80000010fa58:	2c 49                	sub    $0x49,%al
ffff80000010fa5a:	6e                   	outsb  %ds:(%rsi),(%dx)
ffff80000010fa5b:	73 74                	jae    ffff80000010fad1 <.LC30+0x19>
ffff80000010fa5d:	72 75                	jb     ffff80000010fad4 <.LC30+0x1c>
ffff80000010fa5f:	63 74 69 6f          	movsxd 0x6f(%rcx,%rbp,2),%esi
ffff80000010fa63:	6e                   	outsb  %ds:(%rsi),(%dx)
ffff80000010fa64:	20 66 65             	and    %ah,0x65(%rsi)
ffff80000010fa67:	74 63                	je     ffff80000010facc <.LC30+0x14>
ffff80000010fa69:	68 20 43 61 75       	push   $0x75614320
ffff80000010fa6e:	73 65                	jae    ffff80000010fad5 <.LC30+0x1d>
ffff80000010fa70:	20 46 61             	and    %al,0x61(%rsi)
ffff80000010fa73:	75 6c                	jne    ffff80000010fae1 <.LC30+0x29>
ffff80000010fa75:	74 00                	je     ffff80000010fa77 <.LC28>

ffff80000010fa77 <.LC28>:
ffff80000010fa77:	43 52                	rex.XB push %r10
ffff80000010fa79:	32 3a                	xor    (%rdx),%bh
ffff80000010fa7b:	25 78 0a 00 00       	and    $0xa78,%eax

ffff80000010fa80 <.LC29>:
ffff80000010fa80:	64 6f                	outsl  %fs:(%rsi),(%dx)
ffff80000010fa82:	5f                   	pop    %rdi
ffff80000010fa83:	78 38                	js     ffff80000010fabd <.LC30+0x5>
ffff80000010fa85:	37                   	(bad)  
ffff80000010fa86:	5f                   	pop    %rdi
ffff80000010fa87:	46 50                	rex.RX push %rax
ffff80000010fa89:	55                   	push   %rbp
ffff80000010fa8a:	5f                   	pop    %rdi
ffff80000010fa8b:	65 72 72             	gs jb  ffff80000010fb00 <.LC31+0x10>
ffff80000010fa8e:	6f                   	outsl  %ds:(%rsi),(%dx)
ffff80000010fa8f:	72 28                	jb     ffff80000010fab9 <.LC30+0x1>
ffff80000010fa91:	31 36                	xor    %esi,(%rsi)
ffff80000010fa93:	29 2c 45 52 52 4f 52 	sub    %ebp,0x524f5252(,%rax,2)
ffff80000010fa9a:	5f                   	pop    %rdi
ffff80000010fa9b:	43                   	rex.XB
ffff80000010fa9c:	4f                   	rex.WRXB
ffff80000010fa9d:	44                   	rex.R
ffff80000010fa9e:	45 3a 25 78 2c 52 53 	cmp    0x53522c78(%rip),%r12b        # ffff80005363271d <_ebss+0x535203bd>
ffff80000010faa5:	50                   	push   %rax
ffff80000010faa6:	3a 25 78 2c 52 49    	cmp    0x49522c78(%rip),%ah        # ffff800049632724 <_ebss+0x495203c4>
ffff80000010faac:	50                   	push   %rax
ffff80000010faad:	3a 25 78 0a 00 00    	cmp    0xa78(%rip),%ah        # ffff80000011052b <g_buffer+0x1eb>
ffff80000010fab3:	00 00                	add    %al,(%rax)
ffff80000010fab5:	00 00                	add    %al,(%rax)
	...

ffff80000010fab8 <.LC30>:
ffff80000010fab8:	64 6f                	outsl  %fs:(%rsi),(%dx)
ffff80000010faba:	5f                   	pop    %rdi
ffff80000010fabb:	61                   	(bad)  
ffff80000010fabc:	6c                   	insb   (%dx),%es:(%rdi)
ffff80000010fabd:	69 67 6e 6d 65 6e 74 	imul   $0x746e656d,0x6e(%rdi),%esp
ffff80000010fac4:	5f                   	pop    %rdi
ffff80000010fac5:	63 68 65             	movsxd 0x65(%rax),%ebp
ffff80000010fac8:	63 6b 28             	movsxd 0x28(%rbx),%ebp
ffff80000010facb:	31 37                	xor    %esi,(%rdi)
ffff80000010facd:	29 2c 45 52 52 4f 52 	sub    %ebp,0x524f5252(,%rax,2)
ffff80000010fad4:	5f                   	pop    %rdi
ffff80000010fad5:	43                   	rex.XB
ffff80000010fad6:	4f                   	rex.WRXB
ffff80000010fad7:	44                   	rex.R
ffff80000010fad8:	45 3a 25 78 2c 52 53 	cmp    0x53522c78(%rip),%r12b        # ffff800053632757 <_ebss+0x535203f7>
ffff80000010fadf:	50                   	push   %rax
ffff80000010fae0:	3a 25 78 2c 52 49    	cmp    0x49522c78(%rip),%ah        # ffff80004963275e <_ebss+0x495203fe>
ffff80000010fae6:	50                   	push   %rax
ffff80000010fae7:	3a 25 78 0a 00 00    	cmp    0xa78(%rip),%ah        # ffff800000110565 <g_buffer+0x225>
ffff80000010faed:	00 00                	add    %al,(%rax)
	...

ffff80000010faf0 <.LC31>:
ffff80000010faf0:	64 6f                	outsl  %fs:(%rsi),(%dx)
ffff80000010faf2:	5f                   	pop    %rdi
ffff80000010faf3:	6d                   	insl   (%dx),%es:(%rdi)
ffff80000010faf4:	61                   	(bad)  
ffff80000010faf5:	63 68 69             	movsxd 0x69(%rax),%ebp
ffff80000010faf8:	6e                   	outsb  %ds:(%rsi),(%dx)
ffff80000010faf9:	65 5f                	gs pop %rdi
ffff80000010fafb:	63 68 65             	movsxd 0x65(%rax),%ebp
ffff80000010fafe:	63 6b 28             	movsxd 0x28(%rbx),%ebp
ffff80000010fb01:	31 38                	xor    %edi,(%rax)
ffff80000010fb03:	29 2c 45 52 52 4f 52 	sub    %ebp,0x524f5252(,%rax,2)
ffff80000010fb0a:	5f                   	pop    %rdi
ffff80000010fb0b:	43                   	rex.XB
ffff80000010fb0c:	4f                   	rex.WRXB
ffff80000010fb0d:	44                   	rex.R
ffff80000010fb0e:	45 3a 25 78 2c 52 53 	cmp    0x53522c78(%rip),%r12b        # ffff80005363278d <_ebss+0x5352042d>
ffff80000010fb15:	50                   	push   %rax
ffff80000010fb16:	3a 25 78 2c 52 49    	cmp    0x49522c78(%rip),%ah        # ffff800049632794 <_ebss+0x49520434>
ffff80000010fb1c:	50                   	push   %rax
ffff80000010fb1d:	3a 25 78 0a 00 00    	cmp    0xa78(%rip),%ah        # ffff80000011059b <g_buffer+0x25b>
ffff80000010fb23:	00 00                	add    %al,(%rax)
ffff80000010fb25:	00 00                	add    %al,(%rax)
	...

ffff80000010fb28 <.LC32>:
ffff80000010fb28:	64 6f                	outsl  %fs:(%rsi),(%dx)
ffff80000010fb2a:	5f                   	pop    %rdi
ffff80000010fb2b:	53                   	push   %rbx
ffff80000010fb2c:	49                   	rex.WB
ffff80000010fb2d:	4d                   	rex.WRB
ffff80000010fb2e:	44 5f                	rex.R pop %rdi
ffff80000010fb30:	65 78 63             	gs js  ffff80000010fb96 <.LC33+0x36>
ffff80000010fb33:	65 70 74             	gs jo  ffff80000010fbaa <_erodata+0xd>
ffff80000010fb36:	69 6f 6e 28 31 39 29 	imul   $0x29393128,0x6e(%rdi),%ebp
ffff80000010fb3d:	2c 45                	sub    $0x45,%al
ffff80000010fb3f:	52                   	push   %rdx
ffff80000010fb40:	52                   	push   %rdx
ffff80000010fb41:	4f 52                	rex.WRXB push %r10
ffff80000010fb43:	5f                   	pop    %rdi
ffff80000010fb44:	43                   	rex.XB
ffff80000010fb45:	4f                   	rex.WRXB
ffff80000010fb46:	44                   	rex.R
ffff80000010fb47:	45 3a 25 78 2c 52 53 	cmp    0x53522c78(%rip),%r12b        # ffff8000536327c6 <_ebss+0x53520466>
ffff80000010fb4e:	50                   	push   %rax
ffff80000010fb4f:	3a 25 78 2c 52 49    	cmp    0x49522c78(%rip),%ah        # ffff8000496327cd <_ebss+0x4952046d>
ffff80000010fb55:	50                   	push   %rax
ffff80000010fb56:	3a 25 78 0a 00 00    	cmp    0xa78(%rip),%ah        # ffff8000001105d4 <g_buffer+0x294>
ffff80000010fb5c:	00 00                	add    %al,(%rax)
	...

ffff80000010fb60 <.LC33>:
ffff80000010fb60:	64 6f                	outsl  %fs:(%rsi),(%dx)
ffff80000010fb62:	5f                   	pop    %rdi
ffff80000010fb63:	76 69                	jbe    ffff80000010fbce <_erodata+0x31>
ffff80000010fb65:	72 74                	jb     ffff80000010fbdb <_erodata+0x3e>
ffff80000010fb67:	75 61                	jne    ffff80000010fbca <_erodata+0x2d>
ffff80000010fb69:	6c                   	insb   (%dx),%es:(%rdi)
ffff80000010fb6a:	69 7a 61 74 69 6f 6e 	imul   $0x6e6f6974,0x61(%rdx),%edi
ffff80000010fb71:	5f                   	pop    %rdi
ffff80000010fb72:	65 78 63             	gs js  ffff80000010fbd8 <_erodata+0x3b>
ffff80000010fb75:	65 70 74             	gs jo  ffff80000010fbec <_erodata+0x4f>
ffff80000010fb78:	69 6f 6e 28 32 30 29 	imul   $0x29303228,0x6e(%rdi),%ebp
ffff80000010fb7f:	2c 45                	sub    $0x45,%al
ffff80000010fb81:	52                   	push   %rdx
ffff80000010fb82:	52                   	push   %rdx
ffff80000010fb83:	4f 52                	rex.WRXB push %r10
ffff80000010fb85:	5f                   	pop    %rdi
ffff80000010fb86:	43                   	rex.XB
ffff80000010fb87:	4f                   	rex.WRXB
ffff80000010fb88:	44                   	rex.R
ffff80000010fb89:	45 3a 25 78 2c 52 53 	cmp    0x53522c78(%rip),%r12b        # ffff800053632808 <_ebss+0x535204a8>
ffff80000010fb90:	50                   	push   %rax
ffff80000010fb91:	3a 25 78 2c 52 49    	cmp    0x49522c78(%rip),%ah        # ffff80004963280f <_ebss+0x495204af>
ffff80000010fb97:	50                   	push   %rax
ffff80000010fb98:	3a                   	.byte 0x3a
ffff80000010fb99:	25                   	.byte 0x25
ffff80000010fb9a:	78 0a                	js     ffff80000010fba6 <_erodata+0x9>
	...

Disassembly of section .eh_frame:

ffff80000010fba0 <.eh_frame>:
ffff80000010fba0:	14 00                	adc    $0x0,%al
ffff80000010fba2:	00 00                	add    %al,(%rax)
ffff80000010fba4:	00 00                	add    %al,(%rax)
ffff80000010fba6:	00 00                	add    %al,(%rax)
ffff80000010fba8:	01 7a 52             	add    %edi,0x52(%rdx)
ffff80000010fbab:	00 01                	add    %al,(%rcx)
ffff80000010fbad:	78 10                	js     ffff80000010fbbf <_erodata+0x22>
ffff80000010fbaf:	01 1b                	add    %ebx,(%rbx)
ffff80000010fbb1:	0c 07                	or     $0x7,%al
ffff80000010fbb3:	08 90 01 00 00 18    	or     %dl,0x18000001(%rax)
ffff80000010fbb9:	00 00                	add    %al,(%rax)
ffff80000010fbbb:	00 1c 00             	add    %bl,(%rax,%rax,1)
ffff80000010fbbe:	00 00                	add    %al,(%rax)
ffff80000010fbc0:	40                   	rex
ffff80000010fbc1:	44 ff                	rex.R (bad) 
ffff80000010fbc3:	ff 47 00             	incl   0x0(%rdi)
ffff80000010fbc6:	00 00                	add    %al,(%rax)
ffff80000010fbc8:	00 45 0e             	add    %al,0xe(%rbp)
ffff80000010fbcb:	10 86 02 43 0d 06    	adc    %al,0x60d4302(%rsi)
ffff80000010fbd1:	00 00                	add    %al,(%rax)
ffff80000010fbd3:	00 20                	add    %ah,(%rax)
ffff80000010fbd5:	00 00                	add    %al,(%rax)
ffff80000010fbd7:	00 38                	add    %bh,(%rax)
ffff80000010fbd9:	00 00                	add    %al,(%rax)
ffff80000010fbdb:	00 6b 44             	add    %ch,0x44(%rbx)
ffff80000010fbde:	ff                   	(bad)  
ffff80000010fbdf:	ff 17                	call   *(%rdi)
ffff80000010fbe1:	01 00                	add    %eax,(%rax)
ffff80000010fbe3:	00 00                	add    %al,(%rax)
ffff80000010fbe5:	45 0e                	rex.RB (bad) 
ffff80000010fbe7:	10 86 02 43 0d 06    	adc    %al,0x60d4302(%rsi)
ffff80000010fbed:	43 8f 03             	rex.XB pop (%r11)
ffff80000010fbf0:	83 04 03 0b          	addl   $0xb,(%rbx,%rax,1)
ffff80000010fbf4:	01 0c 07             	add    %ecx,(%rdi,%rax,1)
ffff80000010fbf7:	08 1c 00             	or     %bl,(%rax,%rax,1)
ffff80000010fbfa:	00 00                	add    %al,(%rax)
ffff80000010fbfc:	5c                   	pop    %rsp
ffff80000010fbfd:	00 00                	add    %al,(%rax)
ffff80000010fbff:	00 5e 45             	add    %bl,0x45(%rsi)
ffff80000010fc02:	ff                   	(bad)  
ffff80000010fc03:	ff 40 00             	incl   0x0(%rax)
ffff80000010fc06:	00 00                	add    %al,(%rax)
ffff80000010fc08:	00 45 0e             	add    %al,0xe(%rbp)
ffff80000010fc0b:	10 86 02 43 0d 06    	adc    %al,0x60d4302(%rsi)
ffff80000010fc11:	46 8f 03             	rex.RX pop (%rbx)
ffff80000010fc14:	71 0c                	jno    ffff80000010fc22 <_erodata+0x85>
ffff80000010fc16:	07                   	(bad)  
ffff80000010fc17:	08 24 00             	or     %ah,(%rax,%rax,1)
ffff80000010fc1a:	00 00                	add    %al,(%rax)
ffff80000010fc1c:	7c 00                	jl     ffff80000010fc1e <_erodata+0x81>
ffff80000010fc1e:	00 00                	add    %al,(%rax)
ffff80000010fc20:	7e 45                	jle    ffff80000010fc67 <_erodata+0xca>
ffff80000010fc22:	ff                   	(bad)  
ffff80000010fc23:	ff                   	(bad)  
ffff80000010fc24:	7b 00                	jnp    ffff80000010fc26 <_erodata+0x89>
ffff80000010fc26:	00 00                	add    %al,(%rax)
ffff80000010fc28:	00 45 0e             	add    %al,0xe(%rbp)
ffff80000010fc2b:	10 86 02 43 0d 06    	adc    %al,0x60d4302(%rsi)
ffff80000010fc31:	41 83 03 02          	addl   $0x2,(%r11)
ffff80000010fc35:	71 0c                	jno    ffff80000010fc43 <_erodata+0xa6>
ffff80000010fc37:	07                   	(bad)  
ffff80000010fc38:	08 00                	or     %al,(%rax)
ffff80000010fc3a:	00 00                	add    %al,(%rax)
ffff80000010fc3c:	00 00                	add    %al,(%rax)
ffff80000010fc3e:	00 00                	add    %al,(%rax)
ffff80000010fc40:	1c 00                	sbb    $0x0,%al
ffff80000010fc42:	00 00                	add    %al,(%rax)
ffff80000010fc44:	a4                   	movsb  %ds:(%rsi),%es:(%rdi)
ffff80000010fc45:	00 00                	add    %al,(%rax)
ffff80000010fc47:	00 d1                	add    %dl,%cl
ffff80000010fc49:	45 ff                	rex.RB (bad) 
ffff80000010fc4b:	ff                   	(bad)  
ffff80000010fc4c:	7d 00                	jge    ffff80000010fc4e <_erodata+0xb1>
ffff80000010fc4e:	00 00                	add    %al,(%rax)
ffff80000010fc50:	00 45 0e             	add    %al,0xe(%rbp)
ffff80000010fc53:	10 86 02 43 0d 06    	adc    %al,0x60d4302(%rsi)
ffff80000010fc59:	02 74 0c 07          	add    0x7(%rsp,%rcx,1),%dh
ffff80000010fc5d:	08 00                	or     %al,(%rax)
ffff80000010fc5f:	00 20                	add    %ah,(%rax)
ffff80000010fc61:	00 00                	add    %al,(%rax)
ffff80000010fc63:	00 c4                	add    %al,%ah
ffff80000010fc65:	00 00                	add    %al,(%rax)
ffff80000010fc67:	00 2e                	add    %ch,(%rsi)
ffff80000010fc69:	46 ff                	rex.RX (bad) 
ffff80000010fc6b:	ff 15 01 00 00 00    	call   *0x1(%rip)        # ffff80000010fc72 <_erodata+0xd5>
ffff80000010fc71:	45 0e                	rex.RB (bad) 
ffff80000010fc73:	10 86 02 43 0d 06    	adc    %al,0x60d4302(%rsi)
ffff80000010fc79:	47 8f 03             	rex.RXB pop (%r11)
ffff80000010fc7c:	83 04 03 05          	addl   $0x5,(%rbx,%rax,1)
ffff80000010fc80:	01 0c 07             	add    %ecx,(%rdi,%rax,1)
ffff80000010fc83:	08 20                	or     %ah,(%rax)
ffff80000010fc85:	00 00                	add    %al,(%rax)
ffff80000010fc87:	00 e8                	add    %ch,%al
ffff80000010fc89:	00 00                	add    %al,(%rax)
ffff80000010fc8b:	00 1f                	add    %bl,(%rdi)
ffff80000010fc8d:	47 ff                	rex.RXB (bad) 
ffff80000010fc8f:	ff                   	(bad)  
ffff80000010fc90:	f9                   	stc    
ffff80000010fc91:	00 00                	add    %al,(%rax)
ffff80000010fc93:	00 00                	add    %al,(%rax)
ffff80000010fc95:	45 0e                	rex.RB (bad) 
ffff80000010fc97:	10 86 02 43 0d 06    	adc    %al,0x60d4302(%rsi)
ffff80000010fc9d:	45 83 03 02          	rex.RB addl $0x2,(%r11)
ffff80000010fca1:	eb 0c                	jmp    ffff80000010fcaf <_erodata+0x112>
ffff80000010fca3:	07                   	(bad)  
ffff80000010fca4:	08 00                	or     %al,(%rax)
ffff80000010fca6:	00 00                	add    %al,(%rax)
ffff80000010fca8:	20 00                	and    %al,(%rax)
ffff80000010fcaa:	00 00                	add    %al,(%rax)
ffff80000010fcac:	0c 01                	or     $0x1,%al
ffff80000010fcae:	00 00                	add    %al,(%rax)
ffff80000010fcb0:	f4                   	hlt    
ffff80000010fcb1:	47 ff                	rex.RXB (bad) 
ffff80000010fcb3:	ff                   	(bad)  
ffff80000010fcb4:	7a 00                	jp     ffff80000010fcb6 <_erodata+0x119>
ffff80000010fcb6:	00 00                	add    %al,(%rax)
ffff80000010fcb8:	00 45 0e             	add    %al,0xe(%rbp)
ffff80000010fcbb:	10 86 02 43 0d 06    	adc    %al,0x60d4302(%rsi)
ffff80000010fcc1:	45 83 03 02          	rex.RB addl $0x2,(%r11)
ffff80000010fcc5:	6c                   	insb   (%dx),%es:(%rdi)
ffff80000010fcc6:	0c 07                	or     $0x7,%al
ffff80000010fcc8:	08 00                	or     %al,(%rax)
ffff80000010fcca:	00 00                	add    %al,(%rax)
ffff80000010fccc:	20 00                	and    %al,(%rax)
ffff80000010fcce:	00 00                	add    %al,(%rax)
ffff80000010fcd0:	30 01                	xor    %al,(%rcx)
ffff80000010fcd2:	00 00                	add    %al,(%rax)
ffff80000010fcd4:	4a                   	rex.WX
ffff80000010fcd5:	48 ff                	rex.W (bad) 
ffff80000010fcd7:	ff d1                	call   *%rcx
ffff80000010fcd9:	00 00                	add    %al,(%rax)
ffff80000010fcdb:	00 00                	add    %al,(%rax)
ffff80000010fcdd:	45 0e                	rex.RB (bad) 
ffff80000010fcdf:	10 86 02 43 0d 06    	adc    %al,0x60d4302(%rsi)
ffff80000010fce5:	46 8f 03             	rex.RX pop (%rbx)
ffff80000010fce8:	02 c2                	add    %dl,%al
ffff80000010fcea:	0c 07                	or     $0x7,%al
ffff80000010fcec:	08 00                	or     %al,(%rax)
ffff80000010fcee:	00 00                	add    %al,(%rax)
ffff80000010fcf0:	20 00                	and    %al,(%rax)
ffff80000010fcf2:	00 00                	add    %al,(%rax)
ffff80000010fcf4:	54                   	push   %rsp
ffff80000010fcf5:	01 00                	add    %eax,(%rax)
ffff80000010fcf7:	00 f7                	add    %dh,%bh
ffff80000010fcf9:	48 ff                	rex.W (bad) 
ffff80000010fcfb:	ff                   	(bad)  
ffff80000010fcfc:	f8                   	clc    
ffff80000010fcfd:	01 00                	add    %eax,(%rax)
ffff80000010fcff:	00 00                	add    %al,(%rax)
ffff80000010fd01:	45 0e                	rex.RB (bad) 
ffff80000010fd03:	10 86 02 43 0d 06    	adc    %al,0x60d4302(%rsi)
ffff80000010fd09:	45 83 03 03          	rex.RB addl $0x3,(%r11)
ffff80000010fd0d:	ea                   	(bad)  
ffff80000010fd0e:	01 0c 07             	add    %ecx,(%rdi,%rax,1)
ffff80000010fd11:	08 00                	or     %al,(%rax)
ffff80000010fd13:	00 20                	add    %ah,(%rax)
ffff80000010fd15:	00 00                	add    %al,(%rax)
ffff80000010fd17:	00 78 01             	add    %bh,0x1(%rax)
ffff80000010fd1a:	00 00                	add    %al,(%rax)
ffff80000010fd1c:	cb                   	lret   
ffff80000010fd1d:	4a ff                	rex.WX (bad) 
ffff80000010fd1f:	ff 8c 00 00 00 00 45 	decl   0x45000000(%rax,%rax,1)
ffff80000010fd26:	0e                   	(bad)  
ffff80000010fd27:	10 86 02 43 0d 06    	adc    %al,0x60d4302(%rsi)
ffff80000010fd2d:	45 83 03 02          	rex.RB addl $0x2,(%r11)
ffff80000010fd31:	7e 0c                	jle    ffff80000010fd3f <_erodata+0x1a2>
ffff80000010fd33:	07                   	(bad)  
ffff80000010fd34:	08 00                	or     %al,(%rax)
ffff80000010fd36:	00 00                	add    %al,(%rax)
ffff80000010fd38:	20 00                	and    %al,(%rax)
ffff80000010fd3a:	00 00                	add    %al,(%rax)
ffff80000010fd3c:	9c                   	pushf  
ffff80000010fd3d:	01 00                	add    %eax,(%rax)
ffff80000010fd3f:	00 33                	add    %dh,(%rbx)
ffff80000010fd41:	4b ff                	rex.WXB (bad) 
ffff80000010fd43:	ff 1f                	lcall  *(%rdi)
ffff80000010fd45:	01 00                	add    %eax,(%rax)
ffff80000010fd47:	00 00                	add    %al,(%rax)
ffff80000010fd49:	45 0e                	rex.RB (bad) 
ffff80000010fd4b:	10 86 02 43 0d 06    	adc    %al,0x60d4302(%rsi)
ffff80000010fd51:	4a 8f 03             	rex.WX pop (%rbx)
ffff80000010fd54:	83 04 03 0c          	addl   $0xc,(%rbx,%rax,1)
ffff80000010fd58:	01 0c 07             	add    %ecx,(%rdi,%rax,1)
ffff80000010fd5b:	08 1c 00             	or     %bl,(%rax,%rax,1)
ffff80000010fd5e:	00 00                	add    %al,(%rax)
ffff80000010fd60:	c0 01 00             	rolb   $0x0,(%rcx)
ffff80000010fd63:	00 2e                	add    %ch,(%rsi)
ffff80000010fd65:	4c ff                	rex.WR (bad) 
ffff80000010fd67:	ff 65 00             	jmp    *0x0(%rbp)
ffff80000010fd6a:	00 00                	add    %al,(%rax)
ffff80000010fd6c:	00 45 0e             	add    %al,0xe(%rbp)
ffff80000010fd6f:	10 86 02 43 0d 06    	adc    %al,0x60d4302(%rsi)
ffff80000010fd75:	02 5c 0c 07          	add    0x7(%rsp,%rcx,1),%bl
ffff80000010fd79:	08 00                	or     %al,(%rax)
ffff80000010fd7b:	00 20                	add    %ah,(%rax)
ffff80000010fd7d:	00 00                	add    %al,(%rax)
ffff80000010fd7f:	00 e0                	add    %ah,%al
ffff80000010fd81:	01 00                	add    %eax,(%rax)
ffff80000010fd83:	00 73 4c             	add    %dh,0x4c(%rbx)
ffff80000010fd86:	ff                   	(bad)  
ffff80000010fd87:	ff 1f                	lcall  *(%rdi)
ffff80000010fd89:	00 00                	add    %al,(%rax)
ffff80000010fd8b:	00 00                	add    %al,(%rax)
ffff80000010fd8d:	45 0e                	rex.RB (bad) 
ffff80000010fd8f:	10 86 02 43 0d 06    	adc    %al,0x60d4302(%rsi)
ffff80000010fd95:	56                   	push   %rsi
ffff80000010fd96:	0c 07                	or     $0x7,%al
ffff80000010fd98:	08 00                	or     %al,(%rax)
ffff80000010fd9a:	00 00                	add    %al,(%rax)
ffff80000010fd9c:	00 00                	add    %al,(%rax)
ffff80000010fd9e:	00 00                	add    %al,(%rax)
ffff80000010fda0:	1c 00                	sbb    $0x0,%al
ffff80000010fda2:	00 00                	add    %al,(%rax)
ffff80000010fda4:	04 02                	add    $0x2,%al
ffff80000010fda6:	00 00                	add    %al,(%rax)
ffff80000010fda8:	6e                   	outsb  %ds:(%rsi),(%dx)
ffff80000010fda9:	4c ff                	rex.WR (bad) 
ffff80000010fdab:	ff 55 00             	call   *0x0(%rbp)
ffff80000010fdae:	00 00                	add    %al,(%rax)
ffff80000010fdb0:	00 45 0e             	add    %al,0xe(%rbp)
ffff80000010fdb3:	10 86 02 43 0d 06    	adc    %al,0x60d4302(%rsi)
ffff80000010fdb9:	02 4c 0c 07          	add    0x7(%rsp,%rcx,1),%cl
ffff80000010fdbd:	08 00                	or     %al,(%rax)
ffff80000010fdbf:	00 1c 00             	add    %bl,(%rax,%rax,1)
ffff80000010fdc2:	00 00                	add    %al,(%rax)
ffff80000010fdc4:	24 02                	and    $0x2,%al
ffff80000010fdc6:	00 00                	add    %al,(%rax)
ffff80000010fdc8:	a3 4c ff ff b4 00 00 	movabs %eax,0xb4ffff4c
ffff80000010fdcf:	00 00 
ffff80000010fdd1:	45 0e                	rex.RB (bad) 
ffff80000010fdd3:	10 86 02 43 0d 06    	adc    %al,0x60d4302(%rsi)
ffff80000010fdd9:	02 ab 0c 07 08 00    	add    0x8070c(%rbx),%ch
ffff80000010fddf:	00 20                	add    %ah,(%rax)
ffff80000010fde1:	00 00                	add    %al,(%rax)
ffff80000010fde3:	00 44 02 00          	add    %al,0x0(%rdx,%rax,1)
ffff80000010fde7:	00 37                	add    %dh,(%rdi)
ffff80000010fde9:	4d ff                	rex.WRB (bad) 
ffff80000010fdeb:	ff 08                	decl   (%rax)
ffff80000010fded:	03 00                	add    (%rax),%eax
ffff80000010fdef:	00 00                	add    %al,(%rax)
ffff80000010fdf1:	45 0e                	rex.RB (bad) 
ffff80000010fdf3:	10 86 02 43 0d 06    	adc    %al,0x60d4302(%rsi)
ffff80000010fdf9:	47 8f 03             	rex.RXB pop (%r11)
ffff80000010fdfc:	83 04 03 f8          	addl   $0xfffffff8,(%rbx,%rax,1)
ffff80000010fe00:	02 0c 07             	add    (%rdi,%rax,1),%cl
ffff80000010fe03:	08 20                	or     %ah,(%rax)
ffff80000010fe05:	00 00                	add    %al,(%rax)
ffff80000010fe07:	00 68 02             	add    %ch,0x2(%rax)
ffff80000010fe0a:	00 00                	add    %al,(%rax)
ffff80000010fe0c:	1b 50 ff             	sbb    -0x1(%rax),%edx
ffff80000010fe0f:	ff d7                	call   *%rdi
ffff80000010fe11:	00 00                	add    %al,(%rax)
ffff80000010fe13:	00 00                	add    %al,(%rax)
ffff80000010fe15:	45 0e                	rex.RB (bad) 
ffff80000010fe17:	10 86 02 43 0d 06    	adc    %al,0x60d4302(%rsi)
ffff80000010fe1d:	02 ce                	add    %dh,%cl
ffff80000010fe1f:	0c 07                	or     $0x7,%al
ffff80000010fe21:	08 00                	or     %al,(%rax)
ffff80000010fe23:	00 00                	add    %al,(%rax)
ffff80000010fe25:	00 00                	add    %al,(%rax)
ffff80000010fe27:	00 1c 00             	add    %bl,(%rax,%rax,1)
ffff80000010fe2a:	00 00                	add    %al,(%rax)
ffff80000010fe2c:	8c 02                	mov    %es,(%rdx)
ffff80000010fe2e:	00 00                	add    %al,(%rax)
ffff80000010fe30:	ce                   	(bad)  
ffff80000010fe31:	50                   	push   %rax
ffff80000010fe32:	ff                   	(bad)  
ffff80000010fe33:	ff 55 00             	call   *0x0(%rbp)
ffff80000010fe36:	00 00                	add    %al,(%rax)
ffff80000010fe38:	00 45 0e             	add    %al,0xe(%rbp)
ffff80000010fe3b:	10 86 02 43 0d 06    	adc    %al,0x60d4302(%rsi)
ffff80000010fe41:	02 4c 0c 07          	add    0x7(%rsp,%rcx,1),%cl
ffff80000010fe45:	08 00                	or     %al,(%rax)
ffff80000010fe47:	00 1c 00             	add    %bl,(%rax,%rax,1)
ffff80000010fe4a:	00 00                	add    %al,(%rax)
ffff80000010fe4c:	ac                   	lods   %ds:(%rsi),%al
ffff80000010fe4d:	02 00                	add    (%rax),%al
ffff80000010fe4f:	00 03                	add    %al,(%rbx)
ffff80000010fe51:	51                   	push   %rcx
ffff80000010fe52:	ff                   	(bad)  
ffff80000010fe53:	ff 67 00             	jmp    *0x0(%rdi)
ffff80000010fe56:	00 00                	add    %al,(%rax)
ffff80000010fe58:	00 45 0e             	add    %al,0xe(%rbp)
ffff80000010fe5b:	10 86 02 43 0d 06    	adc    %al,0x60d4302(%rsi)
ffff80000010fe61:	02 5e 0c             	add    0xc(%rsi),%bl
ffff80000010fe64:	07                   	(bad)  
ffff80000010fe65:	08 00                	or     %al,(%rax)
ffff80000010fe67:	00 1c 00             	add    %bl,(%rax,%rax,1)
ffff80000010fe6a:	00 00                	add    %al,(%rax)
ffff80000010fe6c:	cc                   	int3   
ffff80000010fe6d:	02 00                	add    (%rax),%al
ffff80000010fe6f:	00 4a 51             	add    %cl,0x51(%rdx)
ffff80000010fe72:	ff                   	(bad)  
ffff80000010fe73:	ff 89 00 00 00 00    	decl   0x0(%rcx)
ffff80000010fe79:	45 0e                	rex.RB (bad) 
ffff80000010fe7b:	10 86 02 43 0d 06    	adc    %al,0x60d4302(%rsi)
ffff80000010fe81:	02 80 0c 07 08 00    	add    0x8070c(%rax),%al
ffff80000010fe87:	00 1c 00             	add    %bl,(%rax,%rax,1)
ffff80000010fe8a:	00 00                	add    %al,(%rax)
ffff80000010fe8c:	ec                   	in     (%dx),%al
ffff80000010fe8d:	02 00                	add    (%rax),%al
ffff80000010fe8f:	00 b3 51 ff ff 57    	add    %dh,0x57ffff51(%rbx)
ffff80000010fe95:	00 00                	add    %al,(%rax)
ffff80000010fe97:	00 00                	add    %al,(%rax)
ffff80000010fe99:	45 0e                	rex.RB (bad) 
ffff80000010fe9b:	10 86 02 43 0d 06    	adc    %al,0x60d4302(%rsi)
ffff80000010fea1:	02 4e 0c             	add    0xc(%rsi),%cl
ffff80000010fea4:	07                   	(bad)  
ffff80000010fea5:	08 00                	or     %al,(%rax)
ffff80000010fea7:	00 1c 00             	add    %bl,(%rax,%rax,1)
ffff80000010feaa:	00 00                	add    %al,(%rax)
ffff80000010feac:	0c 03                	or     $0x3,%al
ffff80000010feae:	00 00                	add    %al,(%rax)
ffff80000010feb0:	ea                   	(bad)  
ffff80000010feb1:	51                   	push   %rcx
ffff80000010feb2:	ff                   	(bad)  
ffff80000010feb3:	ff 49 00             	decl   0x0(%rcx)
ffff80000010feb6:	00 00                	add    %al,(%rax)
ffff80000010feb8:	00 45 0e             	add    %al,0xe(%rbp)
ffff80000010febb:	10 86 02 43 0d 06    	adc    %al,0x60d4302(%rsi)
ffff80000010fec1:	02 40 0c             	add    0xc(%rax),%al
ffff80000010fec4:	07                   	(bad)  
ffff80000010fec5:	08 00                	or     %al,(%rax)
ffff80000010fec7:	00 1c 00             	add    %bl,(%rax,%rax,1)
ffff80000010feca:	00 00                	add    %al,(%rax)
ffff80000010fecc:	2c 03                	sub    $0x3,%al
ffff80000010fece:	00 00                	add    %al,(%rax)
ffff80000010fed0:	13 52 ff             	adc    -0x1(%rdx),%edx
ffff80000010fed3:	ff                   	(bad)  
ffff80000010fed4:	7b 00                	jnp    ffff80000010fed6 <_erodata+0x339>
ffff80000010fed6:	00 00                	add    %al,(%rax)
ffff80000010fed8:	00 45 0e             	add    %al,0xe(%rbp)
ffff80000010fedb:	10 86 02 43 0d 06    	adc    %al,0x60d4302(%rsi)
ffff80000010fee1:	02 72 0c             	add    0xc(%rdx),%dh
ffff80000010fee4:	07                   	(bad)  
ffff80000010fee5:	08 00                	or     %al,(%rax)
ffff80000010fee7:	00 1c 00             	add    %bl,(%rax,%rax,1)
ffff80000010feea:	00 00                	add    %al,(%rax)
ffff80000010feec:	4c 03 00             	add    (%rax),%r8
ffff80000010feef:	00 6e 52             	add    %ch,0x52(%rsi)
ffff80000010fef2:	ff                   	(bad)  
ffff80000010fef3:	ff 56 00             	call   *0x0(%rsi)
ffff80000010fef6:	00 00                	add    %al,(%rax)
ffff80000010fef8:	00 45 0e             	add    %al,0xe(%rbp)
ffff80000010fefb:	10 86 02 43 0d 06    	adc    %al,0x60d4302(%rsi)
ffff80000010ff01:	02 4d 0c             	add    0xc(%rbp),%cl
ffff80000010ff04:	07                   	(bad)  
ffff80000010ff05:	08 00                	or     %al,(%rax)
ffff80000010ff07:	00 1c 00             	add    %bl,(%rax,%rax,1)
ffff80000010ff0a:	00 00                	add    %al,(%rax)
ffff80000010ff0c:	6c                   	insb   (%dx),%es:(%rdi)
ffff80000010ff0d:	03 00                	add    (%rax),%eax
ffff80000010ff0f:	00 a4 52 ff ff 5f 00 	add    %ah,0x5fffff(%rdx,%rdx,2)
ffff80000010ff16:	00 00                	add    %al,(%rax)
ffff80000010ff18:	00 45 0e             	add    %al,0xe(%rbp)
ffff80000010ff1b:	10 86 02 43 0d 06    	adc    %al,0x60d4302(%rsi)
ffff80000010ff21:	02 56 0c             	add    0xc(%rsi),%dl
ffff80000010ff24:	07                   	(bad)  
ffff80000010ff25:	08 00                	or     %al,(%rax)
ffff80000010ff27:	00 1c 00             	add    %bl,(%rax,%rax,1)
ffff80000010ff2a:	00 00                	add    %al,(%rax)
ffff80000010ff2c:	8c 03                	mov    %es,(%rbx)
ffff80000010ff2e:	00 00                	add    %al,(%rax)
ffff80000010ff30:	e3 52                	jrcxz  ffff80000010ff84 <_erodata+0x3e7>
ffff80000010ff32:	ff                   	(bad)  
ffff80000010ff33:	ff 70 00             	push   0x0(%rax)
ffff80000010ff36:	00 00                	add    %al,(%rax)
ffff80000010ff38:	00 45 0e             	add    %al,0xe(%rbp)
ffff80000010ff3b:	10 86 02 43 0d 06    	adc    %al,0x60d4302(%rsi)
ffff80000010ff41:	02 67 0c             	add    0xc(%rdi),%ah
ffff80000010ff44:	07                   	(bad)  
ffff80000010ff45:	08 00                	or     %al,(%rax)
ffff80000010ff47:	00 1c 00             	add    %bl,(%rax,%rax,1)
ffff80000010ff4a:	00 00                	add    %al,(%rax)
ffff80000010ff4c:	ac                   	lods   %ds:(%rsi),%al
ffff80000010ff4d:	03 00                	add    (%rax),%eax
ffff80000010ff4f:	00 33                	add    %dh,(%rbx)
ffff80000010ff51:	53                   	push   %rbx
ffff80000010ff52:	ff                   	(bad)  
ffff80000010ff53:	ff 61 00             	jmp    *0x0(%rcx)
ffff80000010ff56:	00 00                	add    %al,(%rax)
ffff80000010ff58:	00 45 0e             	add    %al,0xe(%rbp)
ffff80000010ff5b:	10 86 02 43 0d 06    	adc    %al,0x60d4302(%rsi)
ffff80000010ff61:	02 58 0c             	add    0xc(%rax),%bl
ffff80000010ff64:	07                   	(bad)  
ffff80000010ff65:	08 00                	or     %al,(%rax)
ffff80000010ff67:	00 1c 00             	add    %bl,(%rax,%rax,1)
ffff80000010ff6a:	00 00                	add    %al,(%rax)
ffff80000010ff6c:	cc                   	int3   
ffff80000010ff6d:	03 00                	add    (%rax),%eax
ffff80000010ff6f:	00 74 53 ff          	add    %dh,-0x1(%rbx,%rdx,2)
ffff80000010ff73:	ff 77 00             	push   0x0(%rdi)
ffff80000010ff76:	00 00                	add    %al,(%rax)
ffff80000010ff78:	00 45 0e             	add    %al,0xe(%rbp)
ffff80000010ff7b:	10 86 02 43 0d 06    	adc    %al,0x60d4302(%rsi)
ffff80000010ff81:	02 6e 0c             	add    0xc(%rsi),%ch
ffff80000010ff84:	07                   	(bad)  
ffff80000010ff85:	08 00                	or     %al,(%rax)
ffff80000010ff87:	00 24 00             	add    %ah,(%rax,%rax,1)
ffff80000010ff8a:	00 00                	add    %al,(%rax)
ffff80000010ff8c:	ec                   	in     (%dx),%al
ffff80000010ff8d:	03 00                	add    (%rax),%eax
ffff80000010ff8f:	00 cb                	add    %cl,%bl
ffff80000010ff91:	53                   	push   %rbx
ffff80000010ff92:	ff                   	(bad)  
ffff80000010ff93:	ff                   	(bad)  
ffff80000010ff94:	ef                   	out    %eax,(%dx)
ffff80000010ff95:	01 00                	add    %eax,(%rax)
ffff80000010ff97:	00 00                	add    %al,(%rax)
ffff80000010ff99:	45 0e                	rex.RB (bad) 
ffff80000010ff9b:	10 86 02 43 0d 06    	adc    %al,0x60d4302(%rsi)
ffff80000010ffa1:	47 8f 03             	rex.RXB pop (%r11)
ffff80000010ffa4:	83 04 03 df          	addl   $0xffffffdf,(%rbx,%rax,1)
ffff80000010ffa8:	01 0c 07             	add    %ecx,(%rdi,%rax,1)
ffff80000010ffab:	08 00                	or     %al,(%rax)
ffff80000010ffad:	00 00                	add    %al,(%rax)
ffff80000010ffaf:	00 1c 00             	add    %bl,(%rax,%rax,1)
ffff80000010ffb2:	00 00                	add    %al,(%rax)
ffff80000010ffb4:	14 04                	adc    $0x4,%al
ffff80000010ffb6:	00 00                	add    %al,(%rax)
ffff80000010ffb8:	98                   	cwtl   
ffff80000010ffb9:	95                   	xchg   %eax,%ebp
ffff80000010ffba:	ff                   	(bad)  
ffff80000010ffbb:	ff 1f                	lcall  *(%rdi)
ffff80000010ffbd:	00 00                	add    %al,(%rax)
ffff80000010ffbf:	00 00                	add    %al,(%rax)
ffff80000010ffc1:	45 0e                	rex.RB (bad) 
ffff80000010ffc3:	10 86 02 43 0d 06    	adc    %al,0x60d4302(%rsi)
ffff80000010ffc9:	56                   	push   %rsi
ffff80000010ffca:	0c 07                	or     $0x7,%al
ffff80000010ffcc:	08 00                	or     %al,(%rax)
ffff80000010ffce:	00 00                	add    %al,(%rax)
ffff80000010ffd0:	1c 00                	sbb    $0x0,%al
ffff80000010ffd2:	00 00                	add    %al,(%rax)
ffff80000010ffd4:	34 04                	xor    $0x4,%al
ffff80000010ffd6:	00 00                	add    %al,(%rax)
ffff80000010ffd8:	97                   	xchg   %eax,%edi
ffff80000010ffd9:	95                   	xchg   %eax,%ebp
ffff80000010ffda:	ff                   	(bad)  
ffff80000010ffdb:	ff b1 00 00 00 00    	push   0x0(%rcx)
ffff80000010ffe1:	45 0e                	rex.RB (bad) 
ffff80000010ffe3:	10 86 02 43 0d 06    	adc    %al,0x60d4302(%rsi)
ffff80000010ffe9:	02 a8 0c 07 08 00    	add    0x8070c(%rax),%ch
ffff80000010ffef:	00 1c 00             	add    %bl,(%rax,%rax,1)
ffff80000010fff2:	00 00                	add    %al,(%rax)
ffff80000010fff4:	54                   	push   %rsp
ffff80000010fff5:	04 00                	add    $0x0,%al
ffff80000010fff7:	00 28                	add    %ch,(%rax)
ffff80000010fff9:	96                   	xchg   %eax,%esi
ffff80000010fffa:	ff                   	(bad)  
ffff80000010fffb:	ff 1f                	lcall  *(%rdi)
ffff80000010fffd:	00 00                	add    %al,(%rax)
ffff80000010ffff:	00 00                	add    %al,(%rax)
ffff800000110001:	45 0e                	rex.RB (bad) 
ffff800000110003:	10 86 02 43 0d 06    	adc    %al,0x60d4302(%rsi)
ffff800000110009:	56                   	push   %rsi
ffff80000011000a:	0c 07                	or     $0x7,%al
ffff80000011000c:	08 00                	or     %al,(%rax)
ffff80000011000e:	00 00                	add    %al,(%rax)
ffff800000110010:	1c 00                	sbb    $0x0,%al
ffff800000110012:	00 00                	add    %al,(%rax)
ffff800000110014:	74 04                	je     ffff80000011001a <_erodata+0x47d>
ffff800000110016:	00 00                	add    %al,(%rax)
ffff800000110018:	27                   	(bad)  
ffff800000110019:	96                   	xchg   %eax,%esi
ffff80000011001a:	ff                   	(bad)  
ffff80000011001b:	ff 1f                	lcall  *(%rdi)
ffff80000011001d:	00 00                	add    %al,(%rax)
ffff80000011001f:	00 00                	add    %al,(%rax)
ffff800000110021:	45 0e                	rex.RB (bad) 
ffff800000110023:	10 86 02 43 0d 06    	adc    %al,0x60d4302(%rsi)
ffff800000110029:	56                   	push   %rsi
ffff80000011002a:	0c 07                	or     $0x7,%al
ffff80000011002c:	08 00                	or     %al,(%rax)
ffff80000011002e:	00 00                	add    %al,(%rax)
ffff800000110030:	1c 00                	sbb    $0x0,%al
ffff800000110032:	00 00                	add    %al,(%rax)
ffff800000110034:	94                   	xchg   %eax,%esp
ffff800000110035:	04 00                	add    $0x0,%al
ffff800000110037:	00 26                	add    %ah,(%rsi)
ffff800000110039:	96                   	xchg   %eax,%esi
ffff80000011003a:	ff                   	(bad)  
ffff80000011003b:	ff 31                	push   (%rcx)
ffff80000011003d:	01 00                	add    %eax,(%rax)
ffff80000011003f:	00 00                	add    %al,(%rax)
ffff800000110041:	45 0e                	rex.RB (bad) 
ffff800000110043:	10 86 02 43 0d 06    	adc    %al,0x60d4302(%rsi)
ffff800000110049:	03 28                	add    (%rax),%ebp
ffff80000011004b:	01 0c 07             	add    %ecx,(%rdi,%rax,1)
ffff80000011004e:	08 00                	or     %al,(%rax)
ffff800000110050:	18 00                	sbb    %al,(%rax)
ffff800000110052:	00 00                	add    %al,(%rax)
ffff800000110054:	b4 04                	mov    $0x4,%ah
ffff800000110056:	00 00                	add    %al,(%rax)
ffff800000110058:	37                   	(bad)  
ffff800000110059:	97                   	xchg   %eax,%edi
ffff80000011005a:	ff                   	(bad)  
ffff80000011005b:	ff a9 00 00 00 00    	ljmp   *0x0(%rcx)
ffff800000110061:	45 0e                	rex.RB (bad) 
ffff800000110063:	10 86 02 43 0d 06    	adc    %al,0x60d4302(%rsi)
ffff800000110069:	46 8f 03             	rex.RX pop (%rbx)
ffff80000011006c:	18 00                	sbb    %al,(%rax)
ffff80000011006e:	00 00                	add    %al,(%rax)
ffff800000110070:	d0 04 00             	rolb   (%rax,%rax,1)
ffff800000110073:	00 c4                	add    %al,%ah
ffff800000110075:	97                   	xchg   %eax,%edi
ffff800000110076:	ff                   	(bad)  
ffff800000110077:	ff a9 00 00 00 00    	ljmp   *0x0(%rcx)
ffff80000011007d:	45 0e                	rex.RB (bad) 
ffff80000011007f:	10 86 02 43 0d 06    	adc    %al,0x60d4302(%rsi)
ffff800000110085:	46 8f 03             	rex.RX pop (%rbx)
ffff800000110088:	18 00                	sbb    %al,(%rax)
ffff80000011008a:	00 00                	add    %al,(%rax)
ffff80000011008c:	ec                   	in     (%dx),%al
ffff80000011008d:	04 00                	add    $0x0,%al
ffff80000011008f:	00 51 98             	add    %dl,-0x68(%rcx)
ffff800000110092:	ff                   	(bad)  
ffff800000110093:	ff a9 00 00 00 00    	ljmp   *0x0(%rcx)
ffff800000110099:	45 0e                	rex.RB (bad) 
ffff80000011009b:	10 86 02 43 0d 06    	adc    %al,0x60d4302(%rsi)
ffff8000001100a1:	46 8f 03             	rex.RX pop (%rbx)
ffff8000001100a4:	18 00                	sbb    %al,(%rax)
ffff8000001100a6:	00 00                	add    %al,(%rax)
ffff8000001100a8:	08 05 00 00 de 98    	or     %al,-0x67220000(%rip)        # ffff7fff98ef00ae <OLDSS+0xffff7fff98eefff6>
ffff8000001100ae:	ff                   	(bad)  
ffff8000001100af:	ff a9 00 00 00 00    	ljmp   *0x0(%rcx)
ffff8000001100b5:	45 0e                	rex.RB (bad) 
ffff8000001100b7:	10 86 02 43 0d 06    	adc    %al,0x60d4302(%rsi)
ffff8000001100bd:	46 8f 03             	rex.RX pop (%rbx)
ffff8000001100c0:	18 00                	sbb    %al,(%rax)
ffff8000001100c2:	00 00                	add    %al,(%rax)
ffff8000001100c4:	24 05                	and    $0x5,%al
ffff8000001100c6:	00 00                	add    %al,(%rax)
ffff8000001100c8:	6b 99 ff ff a9 00 00 	imul   $0x0,0xa9ffff(%rcx),%ebx
ffff8000001100cf:	00 00                	add    %al,(%rax)
ffff8000001100d1:	45 0e                	rex.RB (bad) 
ffff8000001100d3:	10 86 02 43 0d 06    	adc    %al,0x60d4302(%rsi)
ffff8000001100d9:	46 8f 03             	rex.RX pop (%rbx)
ffff8000001100dc:	18 00                	sbb    %al,(%rax)
ffff8000001100de:	00 00                	add    %al,(%rax)
ffff8000001100e0:	40 05 00 00 f8 99    	rex add $0x99f80000,%eax
ffff8000001100e6:	ff                   	(bad)  
ffff8000001100e7:	ff a9 00 00 00 00    	ljmp   *0x0(%rcx)
ffff8000001100ed:	45 0e                	rex.RB (bad) 
ffff8000001100ef:	10 86 02 43 0d 06    	adc    %al,0x60d4302(%rsi)
ffff8000001100f5:	46 8f 03             	rex.RX pop (%rbx)
ffff8000001100f8:	18 00                	sbb    %al,(%rax)
ffff8000001100fa:	00 00                	add    %al,(%rax)
ffff8000001100fc:	5c                   	pop    %rsp
ffff8000001100fd:	05 00 00 85 9a       	add    $0x9a850000,%eax
ffff800000110102:	ff                   	(bad)  
ffff800000110103:	ff a9 00 00 00 00    	ljmp   *0x0(%rcx)
ffff800000110109:	45 0e                	rex.RB (bad) 
ffff80000011010b:	10 86 02 43 0d 06    	adc    %al,0x60d4302(%rsi)
ffff800000110111:	46 8f 03             	rex.RX pop (%rbx)
ffff800000110114:	18 00                	sbb    %al,(%rax)
ffff800000110116:	00 00                	add    %al,(%rax)
ffff800000110118:	78 05                	js     ffff80000011011f <_erodata+0x582>
ffff80000011011a:	00 00                	add    %al,(%rax)
ffff80000011011c:	12 9b ff ff a9 00    	adc    0xa9ffff(%rbx),%bl
ffff800000110122:	00 00                	add    %al,(%rax)
ffff800000110124:	00 45 0e             	add    %al,0xe(%rbp)
ffff800000110127:	10 86 02 43 0d 06    	adc    %al,0x60d4302(%rsi)
ffff80000011012d:	46 8f 03             	rex.RX pop (%rbx)
ffff800000110130:	18 00                	sbb    %al,(%rax)
ffff800000110132:	00 00                	add    %al,(%rax)
ffff800000110134:	94                   	xchg   %eax,%esp
ffff800000110135:	05 00 00 9f 9b       	add    $0x9b9f0000,%eax
ffff80000011013a:	ff                   	(bad)  
ffff80000011013b:	ff a9 00 00 00 00    	ljmp   *0x0(%rcx)
ffff800000110141:	45 0e                	rex.RB (bad) 
ffff800000110143:	10 86 02 43 0d 06    	adc    %al,0x60d4302(%rsi)
ffff800000110149:	46 8f 03             	rex.RX pop (%rbx)
ffff80000011014c:	18 00                	sbb    %al,(%rax)
ffff80000011014e:	00 00                	add    %al,(%rax)
ffff800000110150:	b0 05                	mov    $0x5,%al
ffff800000110152:	00 00                	add    %al,(%rax)
ffff800000110154:	2c 9c                	sub    $0x9c,%al
ffff800000110156:	ff                   	(bad)  
ffff800000110157:	ff a9 00 00 00 00    	ljmp   *0x0(%rcx)
ffff80000011015d:	45 0e                	rex.RB (bad) 
ffff80000011015f:	10 86 02 43 0d 06    	adc    %al,0x60d4302(%rsi)
ffff800000110165:	46 8f 03             	rex.RX pop (%rbx)
ffff800000110168:	20 00                	and    %al,(%rax)
ffff80000011016a:	00 00                	add    %al,(%rax)
ffff80000011016c:	cc                   	int3   
ffff80000011016d:	05 00 00 b9 9c       	add    $0x9cb90000,%eax
ffff800000110172:	ff                   	(bad)  
ffff800000110173:	ff f5                	push   %rbp
ffff800000110175:	02 00                	add    (%rax),%al
ffff800000110177:	00 00                	add    %al,(%rax)
ffff800000110179:	45 0e                	rex.RB (bad) 
ffff80000011017b:	10 86 02 43 0d 06    	adc    %al,0x60d4302(%rsi)
ffff800000110181:	4d 8f 03             	rex.WRB pop (%r11)
ffff800000110184:	8e 04 8d 05 8c 06 83 	mov    -0x7cf973fb(,%rcx,4),%es
ffff80000011018b:	07                   	(bad)  
ffff80000011018c:	20 00                	and    %al,(%rax)
ffff80000011018e:	00 00                	add    %al,(%rax)
ffff800000110190:	f0 05 00 00 8a 9f    	lock add $0x9f8a0000,%eax
ffff800000110196:	ff                   	(bad)  
ffff800000110197:	ff f5                	push   %rbp
ffff800000110199:	02 00                	add    (%rax),%al
ffff80000011019b:	00 00                	add    %al,(%rax)
ffff80000011019d:	45 0e                	rex.RB (bad) 
ffff80000011019f:	10 86 02 43 0d 06    	adc    %al,0x60d4302(%rsi)
ffff8000001101a5:	4d 8f 03             	rex.WRB pop (%r11)
ffff8000001101a8:	8e 04 8d 05 8c 06 83 	mov    -0x7cf973fb(,%rcx,4),%es
ffff8000001101af:	07                   	(bad)  
ffff8000001101b0:	20 00                	and    %al,(%rax)
ffff8000001101b2:	00 00                	add    %al,(%rax)
ffff8000001101b4:	14 06                	adc    $0x6,%al
ffff8000001101b6:	00 00                	add    %al,(%rax)
ffff8000001101b8:	5b                   	pop    %rbx
ffff8000001101b9:	a2 ff ff f5 02 00 00 	movabs %al,0x4500000002f5ffff
ffff8000001101c0:	00 45 
ffff8000001101c2:	0e                   	(bad)  
ffff8000001101c3:	10 86 02 43 0d 06    	adc    %al,0x60d4302(%rsi)
ffff8000001101c9:	4d 8f 03             	rex.WRB pop (%r11)
ffff8000001101cc:	8e 04 8d 05 8c 06 83 	mov    -0x7cf973fb(,%rcx,4),%es
ffff8000001101d3:	07                   	(bad)  
ffff8000001101d4:	20 00                	and    %al,(%rax)
ffff8000001101d6:	00 00                	add    %al,(%rax)
ffff8000001101d8:	38 06                	cmp    %al,(%rsi)
ffff8000001101da:	00 00                	add    %al,(%rax)
ffff8000001101dc:	2c a5                	sub    $0xa5,%al
ffff8000001101de:	ff                   	(bad)  
ffff8000001101df:	ff f5                	push   %rbp
ffff8000001101e1:	02 00                	add    (%rax),%al
ffff8000001101e3:	00 00                	add    %al,(%rax)
ffff8000001101e5:	45 0e                	rex.RB (bad) 
ffff8000001101e7:	10 86 02 43 0d 06    	adc    %al,0x60d4302(%rsi)
ffff8000001101ed:	4d 8f 03             	rex.WRB pop (%r11)
ffff8000001101f0:	8e 04 8d 05 8c 06 83 	mov    -0x7cf973fb(,%rcx,4),%es
ffff8000001101f7:	07                   	(bad)  
ffff8000001101f8:	20 00                	and    %al,(%rax)
ffff8000001101fa:	00 00                	add    %al,(%rax)
ffff8000001101fc:	5c                   	pop    %rsp
ffff8000001101fd:	06                   	(bad)  
ffff8000001101fe:	00 00                	add    %al,(%rax)
ffff800000110200:	fd                   	std    
ffff800000110201:	a7                   	cmpsl  %es:(%rdi),%ds:(%rsi)
ffff800000110202:	ff                   	(bad)  
ffff800000110203:	ff a0 03 00 00 00    	jmp    *0x3(%rax)
ffff800000110209:	45 0e                	rex.RB (bad) 
ffff80000011020b:	10 86 02 43 0d 06    	adc    %al,0x60d4302(%rsi)
ffff800000110211:	4d 8f 03             	rex.WRB pop (%r11)
ffff800000110214:	8e 04 8d 05 8c 06 83 	mov    -0x7cf973fb(,%rcx,4),%es
ffff80000011021b:	07                   	(bad)  
ffff80000011021c:	18 00                	sbb    %al,(%rax)
ffff80000011021e:	00 00                	add    %al,(%rax)
ffff800000110220:	80 06 00             	addb   $0x0,(%rsi)
ffff800000110223:	00 79 ab             	add    %bh,-0x55(%rcx)
ffff800000110226:	ff                   	(bad)  
ffff800000110227:	ff a9 00 00 00 00    	ljmp   *0x0(%rcx)
ffff80000011022d:	45 0e                	rex.RB (bad) 
ffff80000011022f:	10 86 02 43 0d 06    	adc    %al,0x60d4302(%rsi)
ffff800000110235:	46 8f 03             	rex.RX pop (%rbx)
ffff800000110238:	18 00                	sbb    %al,(%rax)
ffff80000011023a:	00 00                	add    %al,(%rax)
ffff80000011023c:	9c                   	pushf  
ffff80000011023d:	06                   	(bad)  
ffff80000011023e:	00 00                	add    %al,(%rax)
ffff800000110240:	06                   	(bad)  
ffff800000110241:	ac                   	lods   %ds:(%rsi),%al
ffff800000110242:	ff                   	(bad)  
ffff800000110243:	ff a9 00 00 00 00    	ljmp   *0x0(%rcx)
ffff800000110249:	45 0e                	rex.RB (bad) 
ffff80000011024b:	10 86 02 43 0d 06    	adc    %al,0x60d4302(%rsi)
ffff800000110251:	46 8f 03             	rex.RX pop (%rbx)
ffff800000110254:	18 00                	sbb    %al,(%rax)
ffff800000110256:	00 00                	add    %al,(%rax)
ffff800000110258:	b8 06 00 00 93       	mov    $0x93000006,%eax
ffff80000011025d:	ac                   	lods   %ds:(%rsi),%al
ffff80000011025e:	ff                   	(bad)  
ffff80000011025f:	ff a9 00 00 00 00    	ljmp   *0x0(%rcx)
ffff800000110265:	45 0e                	rex.RB (bad) 
ffff800000110267:	10 86 02 43 0d 06    	adc    %al,0x60d4302(%rsi)
ffff80000011026d:	46 8f 03             	rex.RX pop (%rbx)
ffff800000110270:	18 00                	sbb    %al,(%rax)
ffff800000110272:	00 00                	add    %al,(%rax)
ffff800000110274:	d4                   	(bad)  
ffff800000110275:	06                   	(bad)  
ffff800000110276:	00 00                	add    %al,(%rax)
ffff800000110278:	20 ad ff ff a9 00    	and    %ch,0xa9ffff(%rbp)
ffff80000011027e:	00 00                	add    %al,(%rax)
ffff800000110280:	00 45 0e             	add    %al,0xe(%rbp)
ffff800000110283:	10 86 02 43 0d 06    	adc    %al,0x60d4302(%rsi)
ffff800000110289:	46 8f 03             	rex.RX pop (%rbx)
ffff80000011028c:	18 00                	sbb    %al,(%rax)
ffff80000011028e:	00 00                	add    %al,(%rax)
ffff800000110290:	f0 06                	lock (bad) 
ffff800000110292:	00 00                	add    %al,(%rax)
ffff800000110294:	ad                   	lods   %ds:(%rsi),%eax
ffff800000110295:	ad                   	lods   %ds:(%rsi),%eax
ffff800000110296:	ff                   	(bad)  
ffff800000110297:	ff a9 00 00 00 00    	ljmp   *0x0(%rcx)
ffff80000011029d:	45 0e                	rex.RB (bad) 
ffff80000011029f:	10 86 02 43 0d 06    	adc    %al,0x60d4302(%rsi)
ffff8000001102a5:	46 8f 03             	rex.RX pop (%rbx)
ffff8000001102a8:	1c 00                	sbb    $0x0,%al
ffff8000001102aa:	00 00                	add    %al,(%rax)
ffff8000001102ac:	0c 07                	or     $0x7,%al
ffff8000001102ae:	00 00                	add    %al,(%rax)
ffff8000001102b0:	3a ae ff ff 7e 0e    	cmp    0xe7effff(%rsi),%ch
ffff8000001102b6:	00 00                	add    %al,(%rax)
ffff8000001102b8:	00 45 0e             	add    %al,0xe(%rbp)
ffff8000001102bb:	10 86 02 43 0d 06    	adc    %al,0x60d4302(%rsi)
ffff8000001102c1:	03 75 0e             	add    0xe(%rbp),%esi
ffff8000001102c4:	0c 07                	or     $0x7,%al
ffff8000001102c6:	08 00                	or     %al,(%rax)

Disassembly of section .bss:

ffff8000001102e0 <g_graphicInfo>:
	...

ffff8000001102e8 <g_mouse_x>:
ffff8000001102e8:	00 00                	add    %al,(%rax)
	...

ffff8000001102ec <g_mouse_y>:
	...

ffff800000110300 <g_bootInfo>:
	...

ffff800000110340 <g_buffer>:
	...

Disassembly of section .debug_info:

0000000000000000 <.debug_info>:
       0:	4a 02 00             	rex.WX add (%rax),%al
       3:	00 05 00 01 08 00    	add    %al,0x80100(%rip)        # 80109 <OLDSS+0x80051>
       9:	00 00                	add    %al,(%rax)
       b:	00 0a                	add    %cl,(%rdx)
       d:	45 00 00             	add    %r8b,(%r8)
      10:	00 1d 28 00 00 00    	add    %bl,0x28(%rip)        # 3e <R8+0x6>
      16:	00 00                	add    %al,(%rax)
      18:	00 00                	add    %al,(%rax)
      1a:	00 40 10             	add    %al,0x10(%rax)
      1d:	00 00                	add    %al,(%rax)
      1f:	80 ff ff             	cmp    $0xff,%bh
      22:	9e                   	sahf   
      23:	01 00                	add    %eax,(%rax)
	...
      2d:	00 0b                	add    %cl,(%rbx)
      2f:	20 02                	and    %al,(%rdx)
      31:	04 09                	add    $0x9,%al
      33:	74 00                	je     35 <R9+0x5>
      35:	00 00                	add    %al,(%rax)
      37:	04 1a                	add    $0x1a,%al
      39:	01 00                	add    %eax,(%rax)
      3b:	00 06                	add    %al,(%rsi)
      3d:	0f 74 00             	pcmpeqb (%rax),%mm0
      40:	00 00                	add    %al,(%rax)
      42:	00 04 5c             	add    %al,(%rsp,%rbx,2)
      45:	01 00                	add    %eax,(%rax)
      47:	00 07                	add    %al,(%rdi)
      49:	0f 74 00             	pcmpeqb (%rax),%mm0
      4c:	00 00                	add    %al,(%rax)
      4e:	04 04                	add    $0x4,%al
      50:	c8 01 00 00          	enter  $0x1,$0x0
      54:	08 0f                	or     %cl,(%rdi)
      56:	74 00                	je     58 <RSI>
      58:	00 00                	add    %al,(%rax)
      5a:	08 04 4c             	or     %al,(%rsp,%rcx,2)
      5d:	01 00                	add    %eax,(%rax)
      5f:	00 09                	add    %cl,(%rcx)
      61:	10 7b 00             	adc    %bh,0x0(%rbx)
      64:	00 00                	add    %al,(%rax)
      66:	10 04 6f             	adc    %al,(%rdi,%rbp,2)
      69:	01 00                	add    %eax,(%rax)
      6b:	00 0a                	add    %cl,(%rdx)
      6d:	10 7b 00             	adc    %bh,0x0(%rbx)
      70:	00 00                	add    %al,(%rax)
      72:	18 00                	sbb    %al,(%rax)
      74:	02 04 07             	add    (%rdi,%rax,1),%al
      77:	03 01                	add    (%rcx),%eax
      79:	00 00                	add    %al,(%rax)
      7b:	02 08                	add    (%rax),%cl
      7d:	07                   	(bad)  
      7e:	fe 00                	incb   (%rax)
      80:	00 00                	add    %al,(%rax)
      82:	08 88 01 00 00 02    	or     %cl,0x2000001(%rax)
      88:	0b 02                	or     (%rdx),%eax
      8a:	2e 00 00             	cs add %al,(%rax)
      8d:	00 02                	add    %al,(%rdx)
      8f:	01 06                	add    %eax,(%rsi)
      91:	f2 00 00             	repnz add %al,(%rax)
      94:	00 02                	add    %al,(%rdx)
      96:	02 05 94 01 00 00    	add    0x194(%rip),%al        # 230 <OLDSS+0x178>
      9c:	0c 04                	or     $0x4,%al
      9e:	05 69 6e 74 00       	add    $0x746e69,%eax
      a3:	02 08                	add    (%rax),%cl
      a5:	05 b5 01 00 00       	add    $0x1b5,%eax
      aa:	02 01                	add    (%rcx),%al
      ac:	08 f0                	or     %dh,%al
      ae:	00 00                	add    %al,(%rax)
      b0:	00 02                	add    %al,(%rdx)
      b2:	02 07                	add    (%rdi),%al
      b4:	24 00                	and    $0x0,%al
      b6:	00 00                	add    %al,(%rax)
      b8:	08 ac 01 00 00 03 08 	or     %ch,0x8030000(%rcx,%rax,1)
      bf:	16                   	(bad)  
      c0:	74 00                	je     c2 <OLDSS+0xa>
      c2:	00 00                	add    %al,(%rax)
      c4:	07                   	(bad)  
      c5:	37                   	(bad)  
      c6:	00 00                	add    %al,(%rax)
      c8:	00 04 1b             	add    %al,(%rbx,%rbx,1)
      cb:	0e                   	(bad)  
      cc:	da 00                	fiaddl (%rax)
      ce:	00 00                	add    %al,(%rax)
      d0:	09 03                	or     %eax,(%rbx)
      d2:	e0 02                	loopne d6 <OLDSS+0x1e>
      d4:	11 00                	adc    %eax,(%rax)
      d6:	00 80 ff ff 0d 08    	add    %al,0x80dffff(%rax)
      dc:	82                   	(bad)  
      dd:	00 00                	add    %al,(%rax)
      df:	00 07                	add    %al,(%rdi)
      e1:	0b 00                	or     (%rax),%eax
      e3:	00 00                	add    %al,(%rax)
      e5:	05 08 0a b8 00       	add    $0xb80a08,%eax
      ea:	00 00                	add    %al,(%rax)
      ec:	09 03                	or     %eax,(%rbx)
      ee:	e8 02 11 00 00       	call   11f5 <OLDSS+0x113d>
      f3:	80 ff ff             	cmp    $0xff,%bh
      f6:	07                   	(bad)  
      f7:	10 01                	adc    %al,(%rcx)
      f9:	00 00                	add    %al,(%rax)
      fb:	05 09 0a b8 00       	add    $0xb80a09,%eax
     100:	00 00                	add    %al,(%rax)
     102:	09 03                	or     %eax,(%rbx)
     104:	ec                   	in     (%dx),%al
     105:	02 11                	add    (%rcx),%dl
     107:	00 00                	add    %al,(%rax)
     109:	80 ff ff             	cmp    $0xff,%bh
     10c:	05 42 01 00 00       	add    $0x142,%eax
     111:	04 2e                	add    $0x2e,%al
     113:	19 01                	sbb    %eax,(%rcx)
     115:	00 00                	add    %al,(%rax)
     117:	06                   	(bad)  
     118:	00 05 00 00 00 00    	add    %al,0x0(%rip)        # 11e <OLDSS+0x66>
     11e:	05 0b 26 01 00       	add    $0x1260b,%eax
     123:	00 06                	add    %al,(%rsi)
     125:	00 05 38 01 00 00    	add    %al,0x138(%rip)        # 263 <OLDSS+0x1ab>
     12b:	04 2d                	add    $0x2d,%al
     12d:	33 01                	xor    (%rcx),%eax
     12f:	00 00                	add    %al,(%rax)
     131:	06                   	(bad)  
     132:	00 05 9e 01 00 00    	add    %al,0x19e(%rip)        # 2d6 <OLDSS+0x21e>
     138:	06                   	(bad)  
     139:	18 40 01             	sbb    %al,0x1(%rax)
     13c:	00 00                	add    %al,(%rax)
     13e:	06                   	(bad)  
     13f:	00 0e                	add    %cl,(%rsi)
     141:	be 01 00 00 07       	mov    $0x7000001,%esi
     146:	60                   	(bad)  
     147:	06                   	(bad)  
     148:	7f 01                	jg     14b <OLDSS+0x93>
     14a:	00 00                	add    %al,(%rax)
     14c:	01 7b 00             	add    %edi,0x0(%rbx)
     14f:	00 00                	add    %al,(%rax)
     151:	01 7b 00             	add    %edi,0x0(%rbx)
     154:	00 00                	add    %al,(%rax)
     156:	01 7b 00             	add    %edi,0x0(%rbx)
     159:	00 00                	add    %al,(%rax)
     15b:	01 7b 00             	add    %edi,0x0(%rbx)
     15e:	00 00                	add    %al,(%rax)
     160:	01 7b 00             	add    %edi,0x0(%rbx)
     163:	00 00                	add    %al,(%rax)
     165:	01 7b 00             	add    %edi,0x0(%rbx)
     168:	00 00                	add    %al,(%rax)
     16a:	01 7b 00             	add    %edi,0x0(%rbx)
     16d:	00 00                	add    %al,(%rax)
     16f:	01 7b 00             	add    %edi,0x0(%rbx)
     172:	00 00                	add    %al,(%rax)
     174:	01 7b 00             	add    %edi,0x0(%rbx)
     177:	00 00                	add    %al,(%rax)
     179:	01 7b 00             	add    %edi,0x0(%rbx)
     17c:	00 00                	add    %al,(%rax)
     17e:	00 05 15 00 00 00    	add    %al,0x15(%rip)        # 199 <OLDSS+0xe1>
     184:	02 16                	add    (%rsi),%dl
     186:	8c 01                	mov    %es,(%rcx)
     188:	00 00                	add    %al,(%rax)
     18a:	06                   	(bad)  
     18b:	00 09                	add    %cl,(%rcx)
     18d:	7f 01                	jg     190 <OLDSS+0xd8>
     18f:	00 00                	add    %al,(%rax)
     191:	20 5e 41             	and    %bl,0x41(%rsi)
     194:	10 00                	adc    %al,(%rax)
     196:	00 80 ff ff 40 00    	add    %al,0x40ffff(%rax)
     19c:	00 00                	add    %al,(%rax)
     19e:	00 00                	add    %al,(%rax)
     1a0:	00 00                	add    %al,(%rax)
     1a2:	01 9c b6 01 00 00 03 	add    %ebx,0x3000001(%rsi,%rsi,4)
     1a9:	97                   	xchg   %eax,%edi
     1aa:	41 10 00             	adc    %al,(%r8)
     1ad:	00 80 ff ff 0c 01    	add    %al,0x10cffff(%rax)
     1b3:	00 00                	add    %al,(%rax)
     1b5:	00 09                	add    %cl,(%rcx)
     1b7:	2f                   	(bad)  
     1b8:	01 00                	add    %eax,(%rax)
     1ba:	00 17                	add    %dl,(%rdi)
     1bc:	47                   	rex.RXB
     1bd:	40 10 00             	rex adc %al,(%rax)
     1c0:	00 80 ff ff 17 01    	add    %al,0x117ffff(%rax)
     1c6:	00 00                	add    %al,(%rax)
     1c8:	00 00                	add    %al,(%rax)
     1ca:	00 00                	add    %al,(%rax)
     1cc:	01 9c 14 02 00 00 03 	add    %ebx,0x3000002(%rsp,%rdx,1)
     1d3:	7d 40                	jge    215 <OLDSS+0x15d>
     1d5:	10 00                	adc    %al,(%rax)
     1d7:	00 80 ff ff 7f 01    	add    %al,0x17fffff(%rax)
     1dd:	00 00                	add    %al,(%rax)
     1df:	03 0b                	add    (%rbx),%ecx
     1e1:	41 10 00             	adc    %al,(%r8)
     1e4:	00 80 ff ff 40 01    	add    %al,0x140ffff(%rax)
     1ea:	00 00                	add    %al,(%rax)
     1ec:	03 26                	add    (%rsi),%esp
     1ee:	41 10 00             	adc    %al,(%r8)
     1f1:	00 80 ff ff 33 01    	add    %al,0x133ffff(%rax)
     1f7:	00 00                	add    %al,(%rax)
     1f9:	03 3d 41 10 00 00    	add    0x1041(%rip),%edi        # 1240 <OLDSS+0x1188>
     1ff:	80 ff ff             	cmp    $0xff,%bh
     202:	26 01 00             	es add %eax,(%rax)
     205:	00 03                	add    %al,(%rbx)
     207:	54                   	push   %rsp
     208:	41 10 00             	adc    %al,(%r8)
     20b:	00 80 ff ff 19 01    	add    %al,0x119ffff(%rax)
     211:	00 00                	add    %al,(%rax)
     213:	00 0f                	add    %cl,(%rdi)
     215:	da 01                	fiaddl (%rcx)
     217:	00 00                	add    %al,(%rax)
     219:	01 08                	add    %ecx,(%rax)
     21b:	05 9c 00 00 00       	add    $0x9c,%eax
     220:	00 40 10             	add    %al,0x10(%rax)
     223:	00 00                	add    %al,(%rax)
     225:	80 ff ff             	cmp    $0xff,%bh
     228:	47 00 00             	rex.RXB add %r8b,(%r8)
     22b:	00 00                	add    %al,(%rax)
     22d:	00 00                	add    %al,(%rax)
     22f:	00 01                	add    %al,(%rcx)
     231:	9c                   	pushf  
     232:	10 63 00             	adc    %ah,0x0(%rbx)
     235:	01 0e                	add    %ecx,(%rsi)
     237:	09 9c 00 00 00 02 91 	or     %ebx,-0x6efe0000(%rax,%rax,1)
     23e:	6c                   	insb   (%dx),%es:(%rdi)
     23f:	03 35 40 10 00 00    	add    0x1040(%rip),%esi        # 1285 <OLDSS+0x11cd>
     245:	80 ff ff             	cmp    $0xff,%bh
     248:	b6 01                	mov    $0x1,%dh
     24a:	00 00                	add    %al,(%rax)
     24c:	00 00                	add    %al,(%rax)
     24e:	f3 00 00             	repz add %al,(%rax)
     251:	00 05 00 01 08 f9    	add    %al,-0x6f7ff00(%rip)        # fffffffff9080357 <_ebss+0x7ffff8f6dff7>
     257:	00 00                	add    %al,(%rax)
     259:	00 05 45 00 00 00    	add    %al,0x45(%rip)        # 2a4 <OLDSS+0x1ec>
     25f:	1d a4 00 00 00       	sbb    $0xa4,%eax
     264:	00 00                	add    %al,(%rax)
     266:	00 00                	add    %al,(%rax)
     268:	9e                   	sahf   
     269:	41 10 00             	adc    %al,(%r8)
     26c:	00 80 ff ff 7b 00    	add    %al,0x7bffff(%rax)
     272:	00 00                	add    %al,(%rax)
     274:	00 00                	add    %al,(%rax)
     276:	00 00                	add    %al,(%rax)
     278:	a7                   	cmpsl  %es:(%rdi),%ds:(%rsi)
     279:	00 00                	add    %al,(%rax)
     27b:	00 02                	add    %al,(%rdx)
     27d:	04 71                	add    $0x71,%al
     27f:	00 00                	add    %al,(%rax)
     281:	00 01                	add    %al,(%rcx)
     283:	1a 01                	sbb    (%rcx),%al
     285:	00 00                	add    %al,(%rax)
     287:	06                   	(bad)  
     288:	0f 71                	(bad)  
     28a:	00 00                	add    %al,(%rax)
     28c:	00 00                	add    %al,(%rax)
     28e:	01 5c 01 00          	add    %ebx,0x0(%rcx,%rax,1)
     292:	00 07                	add    %al,(%rdi)
     294:	0f 71                	(bad)  
     296:	00 00                	add    %al,(%rax)
     298:	00 04 01             	add    %al,(%rcx,%rax,1)
     29b:	c8 01 00 00          	enter  $0x1,$0x0
     29f:	08 0f                	or     %cl,(%rdi)
     2a1:	71 00                	jno    2a3 <OLDSS+0x1eb>
     2a3:	00 00                	add    %al,(%rax)
     2a5:	08 01                	or     %al,(%rcx)
     2a7:	4c 01 00             	add    %r8,(%rax)
     2aa:	00 09                	add    %cl,(%rcx)
     2ac:	10 77 00             	adc    %dh,0x0(%rdi)
     2af:	00 00                	add    %al,(%rax)
     2b1:	10 01                	adc    %al,(%rcx)
     2b3:	6f                   	outsl  %ds:(%rsi),(%dx)
     2b4:	01 00                	add    %eax,(%rax)
     2b6:	00 0a                	add    %cl,(%rdx)
     2b8:	10 77 00             	adc    %dh,0x0(%rdi)
     2bb:	00 00                	add    %al,(%rax)
     2bd:	18 00                	sbb    %al,(%rax)
     2bf:	03 04 03             	add    (%rbx,%rax,1),%eax
     2c2:	01 00                	add    %eax,(%rax)
     2c4:	00 03                	add    %al,(%rbx)
     2c6:	08 fe                	or     %bh,%dh
     2c8:	00 00                	add    %al,(%rax)
     2ca:	00 04 88             	add    %al,(%rax,%rcx,4)
     2cd:	01 00                	add    %eax,(%rax)
     2cf:	00 0b                	add    %cl,(%rbx)
     2d1:	2e 00 00             	cs add %al,(%rax)
     2d4:	00 02                	add    %al,(%rdx)
     2d6:	0e                   	(bad)  
     2d7:	9a                   	(bad)  
     2d8:	00 00                	add    %al,(%rax)
     2da:	00 01                	add    %al,(%rcx)
     2dc:	39 00                	cmp    %eax,(%rax)
     2de:	00 00                	add    %al,(%rax)
     2e0:	10 0e                	adc    %cl,(%rsi)
     2e2:	7d 00                	jge    2e4 <OLDSS+0x22c>
     2e4:	00 00                	add    %al,(%rax)
     2e6:	00 00                	add    %al,(%rax)
     2e8:	04 e6                	add    $0xe6,%al
     2ea:	01 00                	add    %eax,(%rax)
     2ec:	00 11                	add    %dl,(%rcx)
     2ee:	87 00                	xchg   %eax,(%rax)
     2f0:	00 00                	add    %al,(%rax)
     2f2:	06                   	(bad)  
     2f3:	f2 01 00             	repnz add %eax,(%rax)
     2f6:	00 02                	add    %al,(%rdx)
     2f8:	14 14                	adc    $0x14,%al
     2fa:	9a                   	(bad)  
     2fb:	00 00                	add    %al,(%rax)
     2fd:	00 07                	add    %al,(%rdi)
     2ff:	a4                   	movsb  %ds:(%rsi),%es:(%rdi)
     300:	00 00                	add    %al,(%rax)
     302:	00 01                	add    %al,(%rcx)
     304:	03 0d 09 03 00 03    	add    0x3000309(%rip),%ecx        # 3000613 <OLDSS+0x300055b>
     30a:	11 00                	adc    %eax,(%rax)
     30c:	00 80 ff ff 08 15    	add    %al,0x1508ffff(%rax)
     312:	00 00                	add    %al,(%rax)
     314:	00 01                	add    %al,(%rcx)
     316:	04 06                	add    $0x6,%al
     318:	9e                   	sahf   
     319:	41 10 00             	adc    %al,(%r8)
     31c:	00 80 ff ff 7b 00    	add    %al,0x7bffff(%rax)
     322:	00 00                	add    %al,(%rax)
     324:	00 00                	add    %al,(%rax)
     326:	00 00                	add    %al,(%rax)
     328:	01 9c f0 00 00 00 09 	add    %ebx,0x9000000(%rax,%rsi,8)
     32f:	1f                   	(bad)  
     330:	00 00                	add    %al,(%rax)
     332:	00 01                	add    %al,(%rcx)
     334:	06                   	(bad)  
     335:	12 f0                	adc    %al,%dh
     337:	00 00                	add    %al,(%rax)
     339:	00 02                	add    %al,(%rdx)
     33b:	91                   	xchg   %eax,%ecx
     33c:	60                   	(bad)  
     33d:	00 0a                	add    %cl,(%rdx)
     33f:	08 9a 00 00 00 00    	or     %bl,0x0(%rdx)
     345:	48 07                	rex.W (bad) 
     347:	00 00                	add    %al,(%rax)
     349:	05 00 01 08 a3       	add    $0xa3080100,%eax
     34e:	01 00                	add    %eax,(%rax)
     350:	00 14 45 00 00 00 1d 	add    %dl,0x1d000000(,%rax,2)
     357:	ba 00 00 00 00       	mov    $0x0,%edx
     35c:	00 00                	add    %al,(%rax)
     35e:	00 19                	add    %bl,(%rcx)
     360:	42 10 00             	rex.X adc %al,(%rax)
     363:	00 80 ff ff fd 07    	add    %al,0x7fdffff(%rax)
     369:	00 00                	add    %al,(%rax)
     36b:	00 00                	add    %al,(%rax)
     36d:	00 00                	add    %al,(%rax)
     36f:	0d 01 00 00 0c       	or     $0xc000001,%eax
     374:	20 02                	and    %al,(%rdx)
     376:	04 78                	add    $0x78,%al
     378:	00 00                	add    %al,(%rax)
     37a:	00 03                	add    %al,(%rbx)
     37c:	1a 01                	sbb    (%rcx),%al
     37e:	00 00                	add    %al,(%rax)
     380:	02 06                	add    (%rsi),%al
     382:	0f 78 00             	vmread %rax,(%rax)
     385:	00 00                	add    %al,(%rax)
     387:	00 03                	add    %al,(%rbx)
     389:	5c                   	pop    %rsp
     38a:	01 00                	add    %eax,(%rax)
     38c:	00 02                	add    %al,(%rdx)
     38e:	07                   	(bad)  
     38f:	0f 78 00             	vmread %rax,(%rax)
     392:	00 00                	add    %al,(%rax)
     394:	04 03                	add    $0x3,%al
     396:	c8 01 00 00          	enter  $0x1,$0x0
     39a:	02 08                	add    (%rax),%cl
     39c:	0f 78 00             	vmread %rax,(%rax)
     39f:	00 00                	add    %al,(%rax)
     3a1:	08 03                	or     %al,(%rbx)
     3a3:	4c 01 00             	add    %r8,(%rax)
     3a6:	00 02                	add    %al,(%rdx)
     3a8:	09 10                	or     %edx,(%rax)
     3aa:	7f 00                	jg     3ac <OLDSS+0x2f4>
     3ac:	00 00                	add    %al,(%rax)
     3ae:	10 03                	adc    %al,(%rbx)
     3b0:	6f                   	outsl  %ds:(%rsi),(%dx)
     3b1:	01 00                	add    %eax,(%rax)
     3b3:	00 02                	add    %al,(%rdx)
     3b5:	0a 10                	or     (%rax),%dl
     3b7:	7f 00                	jg     3b9 <OLDSS+0x301>
     3b9:	00 00                	add    %al,(%rax)
     3bb:	18 00                	sbb    %al,(%rax)
     3bd:	06                   	(bad)  
     3be:	04 07                	add    $0x7,%al
     3c0:	03 01                	add    (%rcx),%eax
     3c2:	00 00                	add    %al,(%rax)
     3c4:	06                   	(bad)  
     3c5:	08 07                	or     %al,(%rdi)
     3c7:	fe 00                	incb   (%rax)
     3c9:	00 00                	add    %al,(%rax)
     3cb:	05 88 01 00 00       	add    $0x188,%eax
     3d0:	02 0b                	add    (%rbx),%cl
     3d2:	02 2e                	add    (%rsi),%ch
     3d4:	00 00                	add    %al,(%rax)
     3d6:	00 0c 20             	add    %cl,(%rax,%riz,1)
     3d9:	02 0e                	add    (%rsi),%cl
     3db:	a8 00                	test   $0x0,%al
     3dd:	00 00                	add    %al,(%rax)
     3df:	03 39                	add    (%rcx),%edi
     3e1:	00 00                	add    %al,(%rax)
     3e3:	00 02                	add    %al,(%rdx)
     3e5:	10 0e                	adc    %cl,(%rsi)
     3e7:	86 00                	xchg   %al,(%rax)
     3e9:	00 00                	add    %al,(%rax)
     3eb:	00 00                	add    %al,(%rax)
     3ed:	05 e6 01 00 00       	add    $0x1e6,%eax
     3f2:	02 11                	add    (%rcx),%dl
     3f4:	02 92 00 00 00 15    	add    0x15000000(%rdx),%dl
     3fa:	f2 01 00             	repnz add %eax,(%rax)
     3fd:	00 02                	add    %al,(%rdx)
     3ff:	14 14                	adc    $0x14,%al
     401:	a8 00                	test   $0x0,%al
     403:	00 00                	add    %al,(%rax)
     405:	06                   	(bad)  
     406:	01 06                	add    %eax,(%rsi)
     408:	f2 00 00             	repnz add %al,(%rax)
     40b:	00 06                	add    %al,(%rsi)
     40d:	02 05 94 01 00 00    	add    0x194(%rip),%al        # 5a7 <OLDSS+0x4ef>
     413:	16                   	(bad)  
     414:	04 05                	add    $0x5,%al
     416:	69 6e 74 00 06 08 05 	imul   $0x5080600,0x74(%rsi),%ebp
     41d:	b5 01                	mov    $0x1,%ch
     41f:	00 00                	add    %al,(%rax)
     421:	05 52 02 00 00       	add    $0x252,%eax
     426:	03 06                	add    (%rsi),%eax
     428:	17                   	(bad)  
     429:	ed                   	in     (%dx),%eax
     42a:	00 00                	add    %al,(%rax)
     42c:	00 13                	add    %dl,(%rbx)
     42e:	dc 00                	faddl  (%rax)
     430:	00 00                	add    %al,(%rax)
     432:	06                   	(bad)  
     433:	01 08                	add    %ecx,(%rax)
     435:	f0 00 00             	lock add %al,(%rax)
     438:	00 06                	add    %al,(%rsi)
     43a:	02 07                	add    (%rdi),%al
     43c:	24 00                	and    $0x0,%al
     43e:	00 00                	add    %al,(%rax)
     440:	05 ac 01 00 00       	add    $0x1ac,%eax
     445:	03 08                	add    (%rax),%ecx
     447:	16                   	(bad)  
     448:	78 00                	js     44a <OLDSS+0x392>
     44a:	00 00                	add    %al,(%rax)
     44c:	05 5f 02 00 00       	add    $0x25f,%eax
     451:	03 09                	add    (%rcx),%ecx
     453:	17                   	(bad)  
     454:	7f 00                	jg     456 <OLDSS+0x39e>
     456:	00 00                	add    %al,(%rax)
     458:	0c 04                	or     $0x4,%al
     45a:	04 07                	add    $0x7,%al
     45c:	4f 01 00             	rex.WRXB add %r8,(%r8)
     45f:	00 03                	add    %al,(%rbx)
     461:	9b                   	fwait
     462:	02 00                	add    (%rax),%al
     464:	00 04 09             	add    %al,(%rcx,%rcx,1)
     467:	0d dc 00 00 00       	or     $0xdc,%eax
     46c:	00 03                	add    %al,(%rbx)
     46e:	db 02                	fildl  (%rdx)
     470:	00 00                	add    %al,(%rax)
     472:	04 0a                	add    $0xa,%al
     474:	0d dc 00 00 00       	or     $0xdc,%eax
     479:	01 0f                	add    %ecx,(%rdi)
     47b:	52                   	push   %rdx
     47c:	65 64 00 0b          	gs add %cl,%fs:(%rbx)
     480:	0d dc 00 00 00       	or     $0xdc,%eax
     485:	02 03                	add    (%rbx),%al
     487:	02 02                	add    (%rdx),%al
     489:	00 00                	add    %al,(%rax)
     48b:	04 0c                	add    $0xc,%al
     48d:	0d dc 00 00 00       	or     $0xdc,%eax
     492:	03 00                	add    (%rax),%eax
     494:	05 f3 02 00 00       	add    $0x2f3,%eax
     499:	04 0d                	add    $0xd,%al
     49b:	02 13                	add    (%rbx),%dl
     49d:	01 00                	add    %eax,(%rax)
     49f:	00 0c 10             	add    %cl,(%rax,%rdx,1)
     4a2:	04 11                	add    $0x11,%al
     4a4:	92                   	xchg   %eax,%edx
     4a5:	01 00                	add    %eax,(%rax)
     4a7:	00 0f                	add    %cl,(%rdi)
     4a9:	58                   	pop    %rax
     4aa:	00 13                	add    %dl,(%rbx)
     4ac:	0e                   	(bad)  
     4ad:	fb                   	sti    
     4ae:	00 00                	add    %al,(%rax)
     4b0:	00 00                	add    %al,(%rax)
     4b2:	0f 59 00             	mulps  (%rax),%xmm0
     4b5:	14 0e                	adc    $0xe,%al
     4b7:	fb                   	sti    
     4b8:	00 00                	add    %al,(%rax)
     4ba:	00 04 03             	add    %al,(%rbx,%rax,1)
     4bd:	33 02                	xor    (%rdx),%eax
     4bf:	00 00                	add    %al,(%rax)
     4c1:	04 15                	add    $0x15,%al
     4c3:	0e                   	(bad)  
     4c4:	fb                   	sti    
     4c5:	00 00                	add    %al,(%rax)
     4c7:	00 08                	add    %cl,(%rax)
     4c9:	03 73 02             	add    0x2(%rbx),%esi
     4cc:	00 00                	add    %al,(%rax)
     4ce:	04 16                	add    $0x16,%al
     4d0:	0e                   	(bad)  
     4d1:	fb                   	sti    
     4d2:	00 00                	add    %al,(%rax)
     4d4:	00 0c 00             	add    %cl,(%rax,%rax,1)
     4d7:	05 fd 01 00 00       	add    $0x1fd,%eax
     4dc:	04 17                	add    $0x17,%al
     4de:	02 5b 01             	add    0x1(%rbx),%bl
     4e1:	00 00                	add    %al,(%rax)
     4e3:	10 37                	adc    %dh,(%rdi)
     4e5:	00 00                	add    %al,(%rax)
     4e7:	00 04 1b             	add    %al,(%rbx,%rbx,1)
     4ea:	0e                   	(bad)  
     4eb:	b4 01                	mov    $0x1,%ah
     4ed:	00 00                	add    %al,(%rax)
     4ef:	09 03                	or     %eax,(%rbx)
     4f1:	e0 02                	loopne 4f5 <OLDSS+0x43d>
     4f3:	11 00                	adc    %eax,(%rax)
     4f5:	00 80 ff ff 08 86    	add    %al,-0x79f70001(%rax)
     4fb:	00 00                	add    %al,(%rax)
     4fd:	00 11                	add    %dl,(%rcx)
     4ff:	dc 00                	faddl  (%rax)
     501:	00 00                	add    %al,(%rax)
     503:	cf                   	iret   
     504:	01 00                	add    %eax,(%rax)
     506:	00 12                	add    %dl,(%rdx)
     508:	7f 00                	jg     50a <OLDSS+0x452>
     50a:	00 00                	add    %al,(%rax)
     50c:	ff 12                	call   *(%rdx)
     50e:	7f 00                	jg     510 <OLDSS+0x458>
     510:	00 00                	add    %al,(%rax)
     512:	0f 00 10             	lldt   (%rax)
     515:	aa                   	stos   %al,%es:(%rdi)
     516:	02 00                	add    (%rax),%al
     518:	00 05 05 09 b9 01    	add    %al,0x1b90905(%rip)        # 1b90e23 <OLDSS+0x1b90d6b>
     51e:	00 00                	add    %al,(%rax)
     520:	09 03                	or     %eax,(%rbx)
     522:	80 c1 10             	add    $0x10,%cl
     525:	00 00                	add    %al,(%rax)
     527:	80 ff ff             	cmp    $0xff,%bh
     52a:	05 b7 02 00 00       	add    $0x2b7,%eax
     52f:	06                   	(bad)  
     530:	28 1b                	sub    %bl,(%rbx)
     532:	f1                   	int1   
     533:	01 00                	add    %eax,(%rax)
     535:	00 17                	add    %dl,(%rdi)
     537:	21 02                	and    %eax,(%rdx)
     539:	00 00                	add    %al,(%rax)
     53b:	fa                   	cli    
     53c:	01 00                	add    %eax,(%rax)
     53e:	00 11                	add    %dl,(%rcx)
     540:	0a 02                	or     (%rdx),%al
     542:	00 00                	add    %al,(%rax)
     544:	0a 02                	or     (%rdx),%al
     546:	00 00                	add    %al,(%rax)
     548:	12 7f 00             	adc    0x0(%rdi),%bh
     54b:	00 00                	add    %al,(%rax)
     54d:	00 00                	add    %al,(%rax)
     54f:	18 ff                	sbb    %bh,%bh
     551:	02 00                	add    (%rax),%al
     553:	00 18                	add    %bl,(%rax)
     555:	07                   	(bad)  
     556:	00 3f                	add    %bh,(%rdi)
     558:	02 00                	add    (%rax),%al
     55a:	00 0d cc 02 00 00    	add    %cl,0x2cc(%rip)        # 82c <OLDSS+0x774>
     560:	78 00                	js     562 <OLDSS+0x4aa>
     562:	00 00                	add    %al,(%rax)
     564:	00 0d 27 03 00 00    	add    %cl,0x327(%rip)        # 891 <OLDSS+0x7d9>
     56a:	78 00                	js     56c <OLDSS+0x4b4>
     56c:	00 00                	add    %al,(%rax)
     56e:	04 0d                	add    $0xd,%al
     570:	e1 02                	loope  574 <OLDSS+0x4bc>
     572:	00 00                	add    %al,(%rax)
     574:	3f                   	(bad)  
     575:	02 00                	add    (%rax),%al
     577:	00 08                	add    %cl,(%rax)
     579:	0d 8d 02 00 00       	or     $0x28d,%eax
     57e:	3f                   	(bad)  
     57f:	02 00                	add    (%rax),%al
     581:	00 10                	add    %dl,(%rax)
     583:	00 19                	add    %bl,(%rcx)
     585:	08 05 be 02 00 00    	or     %al,0x2be(%rip)        # 849 <OLDSS+0x791>
     58b:	06                   	(bad)  
     58c:	63 18                	movsxd (%rax),%ebx
     58e:	e5 01                	in     $0x1,%eax
     590:	00 00                	add    %al,(%rax)
     592:	11 5e 02             	adc    %ebx,0x2(%rsi)
     595:	00 00                	add    %al,(%rax)
     597:	5e                   	pop    %rsi
     598:	02 00                	add    (%rax),%al
     59a:	00 1a                	add    %bl,(%rdx)
     59c:	7f 00                	jg     59e <OLDSS+0x4e6>
     59e:	00 00                	add    %al,(%rax)
     5a0:	ff 0f                	decl   (%rdi)
     5a2:	00 06                	add    %al,(%rsi)
     5a4:	01 06                	add    %eax,(%rsi)
     5a6:	f9                   	stc    
     5a7:	00 00                	add    %al,(%rax)
     5a9:	00 13                	add    %dl,(%rbx)
     5ab:	5e                   	pop    %rsi
     5ac:	02 00                	add    (%rax),%al
     5ae:	00 10                	add    %dl,(%rax)
     5b0:	39 02                	cmp    %eax,(%rdx)
     5b2:	00 00                	add    %al,(%rax)
     5b4:	08 07                	or     %al,(%rdi)
     5b6:	06                   	(bad)  
     5b7:	4d 02 00             	rex.WRB add (%r8),%r8b
     5ba:	00 09                	add    %cl,(%rcx)
     5bc:	03 40 03             	add    0x3(%rax),%eax
     5bf:	11 00                	adc    %eax,(%rax)
     5c1:	00 80 ff ff 1b 31    	add    %al,0x311bffff(%rax)
     5c7:	03 00                	add    (%rax),%eax
     5c9:	00 08                	add    %cl,(%rax)
     5cb:	09 0a                	or     %ecx,(%rdx)
     5cd:	fb                   	sti    
     5ce:	00 00                	add    %al,(%rax)
     5d0:	00 a0 02 00 00 0a    	add    %ah,0xa000002(%rax)
     5d6:	a0 02 00 00 0a a5 02 	movabs 0x2a50a000002,%al
     5dd:	00 00 
     5df:	0a aa 02 00 00 00    	or     0x2(%rdx),%ch
     5e5:	08 5e 02             	or     %bl,0x2(%rsi)
     5e8:	00 00                	add    %al,(%rax)
     5ea:	08 65 02             	or     %ah,0x2(%rbp)
     5ed:	00 00                	add    %al,(%rax)
     5ef:	08 0a                	or     %cl,(%rdx)
     5f1:	02 00                	add    (%rax),%al
     5f3:	00 1c 12             	add    %bl,(%rdx,%rdx,1)
     5f6:	03 00                	add    (%rax),%eax
     5f8:	00 08                	add    %cl,(%rax)
     5fa:	0a 06                	or     (%rsi),%al
     5fc:	cb                   	lret   
     5fd:	02 00                	add    (%rax),%al
     5ff:	00 0a                	add    %cl,(%rdx)
     601:	3f                   	(bad)  
     602:	02 00                	add    (%rax),%al
     604:	00 0a                	add    %cl,(%rdx)
     606:	07                   	(bad)  
     607:	01 00                	add    %eax,(%rax)
     609:	00 0a                	add    %cl,(%rdx)
     60b:	fb                   	sti    
     60c:	00 00                	add    %al,(%rax)
     60e:	00 00                	add    %al,(%rax)
     610:	1d 42 01 00 00       	sbb    $0x142,%eax
     615:	01 8e 06 f7 49 10    	add    %ecx,0x1049f706(%rsi)
     61b:	00 00                	add    %al,(%rax)
     61d:	80 ff ff             	cmp    $0xff,%bh
     620:	1f                   	(bad)  
     621:	00 00                	add    %al,(%rax)
     623:	00 00                	add    %al,(%rax)
     625:	00 00                	add    %al,(%rax)
     627:	00 01                	add    %al,(%rcx)
     629:	9c                   	pushf  
     62a:	1e                   	(bad)  
     62b:	38 01                	cmp    %al,(%rcx)
     62d:	00 00                	add    %al,(%rax)
     62f:	01 88 06 92 49 10    	add    %ecx,0x10499206(%rax)
     635:	00 00                	add    %al,(%rax)
     637:	80 ff ff             	cmp    $0xff,%bh
     63a:	65 00 00             	add    %al,%gs:(%rax)
     63d:	00 00                	add    %al,(%rax)
     63f:	00 00                	add    %al,(%rax)
     641:	00 01                	add    %al,(%rcx)
     643:	9c                   	pushf  
     644:	11 03                	adc    %eax,(%rbx)
     646:	00 00                	add    %al,(%rax)
     648:	01 f4                	add    %esi,%esp
     64a:	49 10 00             	rex.WB adc %al,(%r8)
     64d:	00 80 ff ff 20 05    	add    %al,0x520ffff(%rax)
     653:	00 00                	add    %al,(%rax)
     655:	00 1f                	add    %bl,(%rdi)
     657:	15 02 00 00 01       	adc    $0x1000002,%eax
     65c:	7f 0a                	jg     668 <OLDSS+0x5b0>
     65e:	fb                   	sti    
     65f:	00 00                	add    %al,(%rax)
     661:	00 73 48             	add    %dh,0x48(%rbx)
     664:	10 00                	adc    %al,(%rax)
     666:	00 80 ff ff 1f 01    	add    %al,0x11fffff(%rax)
     66c:	00 00                	add    %al,(%rax)
     66e:	00 00                	add    %al,(%rax)
     670:	00 00                	add    %al,(%rax)
     672:	01 9c a5 03 00 00 02 	add    %ebx,0x2000003(%rbp,%riz,4)
     679:	78 00                	js     67b <OLDSS+0x5c3>
     67b:	7f 1f                	jg     69c <OLDSS+0x5e4>
     67d:	fb                   	sti    
     67e:	00 00                	add    %al,(%rax)
     680:	00 03                	add    %al,(%rbx)
     682:	91                   	xchg   %eax,%ecx
     683:	8c 7e 02             	mov    %?,0x2(%rsi)
     686:	79 00                	jns    688 <OLDSS+0x5d0>
     688:	7f 2b                	jg     6b5 <OLDSS+0x5fd>
     68a:	fb                   	sti    
     68b:	00 00                	add    %al,(%rax)
     68d:	00 03                	add    %al,(%rbx)
     68f:	91                   	xchg   %eax,%ecx
     690:	88 7e 04             	mov    %bh,0x4(%rsi)
     693:	c6 02 00             	movb   $0x0,(%rdx)
     696:	00 7f 34             	add    %bh,0x34(%rdi)
     699:	4f 01 00             	rex.WRXB add %r8,(%r8)
     69c:	00 03                	add    %al,(%rbx)
     69e:	91                   	xchg   %eax,%ecx
     69f:	84 7e 02             	test   %bh,0x2(%rsi)
     6a2:	66 6d                	insw   (%dx),%es:(%rdi)
     6a4:	74 00                	je     6a6 <OLDSS+0x5ee>
     6a6:	7f 4a                	jg     6f2 <OLDSS+0x63a>
     6a8:	a5                   	movsl  %ds:(%rsi),%es:(%rdi)
     6a9:	03 00                	add    (%rax),%eax
     6ab:	00 03                	add    %al,(%rbx)
     6ad:	91                   	xchg   %eax,%ecx
     6ae:	f8                   	clc    
     6af:	7d 20                	jge    6d1 <OLDSS+0x619>
     6b1:	07                   	(bad)  
     6b2:	0d 03 00 00 81       	or     $0x81000003,%eax
     6b7:	0d 41 02 00 00       	or     $0x241,%eax
     6bc:	03 91 90 7e 0b 6c    	add    0x6c0b7e90(%rcx),%edx
     6c2:	65 6e                	outsb  %gs:(%rsi),(%dx)
     6c4:	00 83 0e fb 00 00    	add    %al,0xfb0e(%rbx)
     6ca:	00 03                	add    %al,(%rbx)
     6cc:	91                   	xchg   %eax,%ecx
     6cd:	ac                   	lods   %ds:(%rsi),%al
     6ce:	7e 01                	jle    6d1 <OLDSS+0x619>
     6d0:	48                   	rex.W
     6d1:	49 10 00             	rex.WB adc %al,(%r8)
     6d4:	00 80 ff ff 80 02    	add    %al,0x280ffff(%rax)
     6da:	00 00                	add    %al,(%rax)
     6dc:	01 80 49 10 00 00    	add    %eax,0x1049(%rax)
     6e2:	80 ff ff             	cmp    $0xff,%bh
     6e5:	aa                   	stos   %al,%es:(%rdi)
     6e6:	03 00                	add    (%rax),%eax
     6e8:	00 00                	add    %al,(%rax)
     6ea:	08 e8                	or     %ch,%al
     6ec:	00 00                	add    %al,(%rax)
     6ee:	00 09                	add    %cl,(%rcx)
     6f0:	0b 02                	or     (%rdx),%eax
     6f2:	00 00                	add    %al,(%rax)
     6f4:	77 e7                	ja     6dd <OLDSS+0x625>
     6f6:	47 10 00             	rex.RXB adc %r8b,(%r8)
     6f9:	00 80 ff ff 8c 00    	add    %al,0x8cffff(%rax)
     6ff:	00 00                	add    %al,(%rax)
     701:	00 00                	add    %al,(%rax)
     703:	00 00                	add    %al,(%rax)
     705:	01 9c 26 04 00 00 02 	add    %ebx,0x2000004(%rsi,%riz,1)
     70c:	78 00                	js     70e <OLDSS+0x656>
     70e:	77 19                	ja     729 <OLDSS+0x671>
     710:	fb                   	sti    
     711:	00 00                	add    %al,(%rax)
     713:	00 02                	add    %al,(%rdx)
     715:	91                   	xchg   %eax,%ecx
     716:	54                   	push   %rsp
     717:	02 79 00             	add    0x0(%rcx),%bh
     71a:	77 25                	ja     741 <OLDSS+0x689>
     71c:	fb                   	sti    
     71d:	00 00                	add    %al,(%rax)
     71f:	00 02                	add    %al,(%rdx)
     721:	91                   	xchg   %eax,%ecx
     722:	50                   	push   %rax
     723:	04 c6                	add    $0xc6,%al
     725:	02 00                	add    (%rax),%al
     727:	00 77 2d             	add    %dh,0x2d(%rdi)
     72a:	4f 01 00             	rex.WRXB add %r8,(%r8)
     72d:	00 02                	add    %al,(%rdx)
     72f:	91                   	xchg   %eax,%ecx
     730:	4c 02 73 74          	rex.WR add 0x74(%rbx),%r14b
     734:	72 00                	jb     736 <OLDSS+0x67e>
     736:	77 3d                	ja     775 <OLDSS+0x6bd>
     738:	26 04 00             	es add $0x0,%al
     73b:	00 02                	add    %al,(%rdx)
     73d:	91                   	xchg   %eax,%ecx
     73e:	40 0e                	rex (bad) 
     740:	15 48 10 00 00       	adc    $0x1048,%eax
     745:	80 ff ff             	cmp    $0xff,%bh
     748:	56                   	push   %rsi
     749:	00 00                	add    %al,(%rax)
     74b:	00 00                	add    %al,(%rax)
     74d:	00 00                	add    %al,(%rax)
     74f:	00 0b                	add    %cl,(%rbx)
     751:	69 00 79 13 fb 00    	imul   $0xfb1379,(%rax),%eax
     757:	00 00                	add    %al,(%rax)
     759:	02 91 64 01 56 48    	add    0x48560164(%rcx),%dl
     75f:	10 00                	adc    %al,(%rax)
     761:	00 80 ff ff 2b 04    	add    %al,0x42bffff(%rax)
     767:	00 00                	add    %al,(%rax)
     769:	00 00                	add    %al,(%rax)
     76b:	08 dc                	or     %bl,%ah
     76d:	00 00                	add    %al,(%rax)
     76f:	00 09                	add    %cl,(%rcx)
     771:	42 02 00             	rex.X add (%rax),%al
     774:	00 4e ef             	add    %cl,-0x11(%rsi)
     777:	45 10 00             	adc    %r8b,(%r8)
     77a:	00 80 ff ff f8 01    	add    %al,0x1f8ffff(%rax)
     780:	00 00                	add    %al,(%rax)
     782:	00 00                	add    %al,(%rax)
     784:	00 00                	add    %al,(%rax)
     786:	01 9c 20 05 00 00 02 	add    %ebx,0x2000005(%rax,%riz,1)
     78d:	78 00                	js     78f <OLDSS+0x6d7>
     78f:	4e 1f                	rex.WRX (bad) 
     791:	fb                   	sti    
     792:	00 00                	add    %al,(%rax)
     794:	00 02                	add    %al,(%rdx)
     796:	91                   	xchg   %eax,%ecx
     797:	54                   	push   %rsp
     798:	02 79 00             	add    0x0(%rcx),%bh
     79b:	4e 2a fb             	rex.WRX sub %bl,%r15b
     79e:	00 00                	add    %al,(%rax)
     7a0:	00 02                	add    %al,(%rdx)
     7a2:	91                   	xchg   %eax,%ecx
     7a3:	50                   	push   %rax
     7a4:	04 c6                	add    $0xc6,%al
     7a6:	02 00                	add    (%rax),%al
     7a8:	00 4e 32             	add    %cl,0x32(%rsi)
     7ab:	4f 01 00             	rex.WRXB add %r8,(%r8)
     7ae:	00 02                	add    %al,(%rdx)
     7b0:	91                   	xchg   %eax,%ecx
     7b1:	4c 02 63 00          	rex.WR add 0x0(%rbx),%r12b
     7b5:	4e                   	rex.WRX
     7b6:	40 dc 00             	rex faddl (%rax)
     7b9:	00 00                	add    %al,(%rax)
     7bb:	02 91 48 0e 1e 46    	add    0x461e0e48(%rcx),%dl
     7c1:	10 00                	adc    %al,(%rax)
     7c3:	00 80 ff ff c2 01    	add    %al,0x1c2ffff(%rax)
     7c9:	00 00                	add    %al,(%rax)
     7cb:	00 00                	add    %al,(%rax)
     7cd:	00 00                	add    %al,(%rax)
     7cf:	0b 69 00             	or     0x0(%rcx),%ebp
     7d2:	50                   	push   %rax
     7d3:	13 fb                	adc    %ebx,%edi
     7d5:	00 00                	add    %al,(%rax)
     7d7:	00 02                	add    %al,(%rdx)
     7d9:	91                   	xchg   %eax,%ecx
     7da:	64 0e                	fs (bad) 
     7dc:	2a 46 10             	sub    0x10(%rsi),%al
     7df:	00 00                	add    %al,(%rax)
     7e1:	80 ff ff             	cmp    $0xff,%bh
     7e4:	a8 01                	test   $0x1,%al
     7e6:	00 00                	add    %al,(%rax)
     7e8:	00 00                	add    %al,(%rax)
     7ea:	00 00                	add    %al,(%rax)
     7ec:	07                   	(bad)  
     7ed:	5a                   	pop    %rdx
     7ee:	02 00                	add    (%rax),%al
     7f0:	00 52 11             	add    %dl,0x11(%rdx)
     7f3:	dc 00                	faddl  (%rax)
     7f5:	00 00                	add    %al,(%rax)
     7f7:	02 91 63 01 7b 46    	add    0x467b0163(%rcx),%dl
     7fd:	10 00                	adc    %al,(%rax)
     7ff:	00 80 ff ff da 06    	add    %al,0x6daffff(%rax)
     805:	00 00                	add    %al,(%rax)
     807:	01 ac 46 10 00 00 80 	add    %ebp,-0x7ffffff0(%rsi,%rax,2)
     80e:	ff                   	(bad)  
     80f:	ff                   	(bad)  
     810:	da 06                	fiaddl (%rsi)
     812:	00 00                	add    %al,(%rax)
     814:	01 dd                	add    %ebx,%ebp
     816:	46 10 00             	rex.RX adc %r8b,(%rax)
     819:	00 80 ff ff da 06    	add    %al,0x6daffff(%rax)
     81f:	00 00                	add    %al,(%rax)
     821:	01 0e                	add    %ecx,(%rsi)
     823:	47 10 00             	rex.RXB adc %r8b,(%r8)
     826:	00 80 ff ff da 06    	add    %al,0x6daffff(%rax)
     82c:	00 00                	add    %al,(%rax)
     82e:	01 3f                	add    %edi,(%rdi)
     830:	47 10 00             	rex.RXB adc %r8b,(%r8)
     833:	00 80 ff ff da 06    	add    %al,0x6daffff(%rax)
     839:	00 00                	add    %al,(%rax)
     83b:	01 70 47             	add    %esi,0x47(%rax)
     83e:	10 00                	adc    %al,(%rax)
     840:	00 80 ff ff da 06    	add    %al,0x6daffff(%rax)
     846:	00 00                	add    %al,(%rax)
     848:	01 a1 47 10 00 00    	add    %esp,0x1047(%rcx)
     84e:	80 ff ff             	cmp    $0xff,%bh
     851:	da 06                	fiaddl (%rsi)
     853:	00 00                	add    %al,(%rax)
     855:	01 d2                	add    %edx,%edx
     857:	47 10 00             	rex.RXB adc %r8b,(%r8)
     85a:	00 80 ff ff da 06    	add    %al,0x6daffff(%rax)
     860:	00 00                	add    %al,(%rax)
     862:	00 00                	add    %al,(%rax)
     864:	00 09                	add    %cl,(%rcx)
     866:	1a 03                	sbb    (%rbx),%al
     868:	00 00                	add    %al,(%rax)
     86a:	41 1e                	rex.B (bad) 
     86c:	45 10 00             	adc    %r8b,(%r8)
     86f:	00 80 ff ff d1 00    	add    %al,0xd1ffff(%rax)
     875:	00 00                	add    %al,(%rax)
     877:	00 00                	add    %al,(%rax)
     879:	00 00                	add    %al,(%rax)
     87b:	01 9c 74 05 00 00 04 	add    %ebx,0x4000005(%rsp,%rsi,2)
     882:	c6 02 00             	movb   $0x0,(%rdx)
     885:	00 41 19             	add    %al,0x19(%rcx)
     888:	4f 01 00             	rex.WRXB add %r8,(%r8)
     88b:	00 02                	add    %al,(%rdx)
     88d:	91                   	xchg   %eax,%ecx
     88e:	4c 07                	rex.WR (bad) 
     890:	d6                   	(bad)  
     891:	02 00                	add    (%rax),%al
     893:	00 43 0b             	add    %al,0xb(%rbx)
     896:	3f                   	(bad)  
     897:	02 00                	add    (%rax),%al
     899:	00 02                	add    %al,(%rdx)
     89b:	91                   	xchg   %eax,%ecx
     89c:	58                   	pop    %rax
     89d:	07                   	(bad)  
     89e:	f9                   	stc    
     89f:	02 00                	add    (%rax),%al
     8a1:	00 44 0e 07          	add    %al,0x7(%rsi,%rcx,1)
     8a5:	01 00                	add    %eax,(%rax)
     8a7:	00 02                	add    %al,(%rdx)
     8a9:	91                   	xchg   %eax,%ecx
     8aa:	50                   	push   %rax
     8ab:	01 e8                	add    %ebp,%eax
     8ad:	45 10 00             	adc    %r8b,(%r8)
     8b0:	00 80 ff ff af 02    	add    %al,0x2afffff(%rax)
     8b6:	00 00                	add    %al,(%rax)
     8b8:	00 09                	add    %cl,(%rcx)
     8ba:	3a 03                	cmp    (%rbx),%al
     8bc:	00 00                	add    %al,(%rax)
     8be:	35 a4 44 10 00       	xor    $0x1044a4,%eax
     8c3:	00 80 ff ff 7a 00    	add    %al,0x7affff(%rax)
     8c9:	00 00                	add    %al,(%rax)
     8cb:	00 00                	add    %al,(%rax)
     8cd:	00 00                	add    %al,(%rax)
     8cf:	01 9c d9 05 00 00 04 	add    %ebx,0x4000005(%rcx,%rbx,8)
     8d6:	45 03 00             	add    (%r8),%r8d
     8d9:	00 35 1b 92 01 00    	add    %dh,0x1921b(%rip)        # 19afa <OLDSS+0x19a42>
     8df:	00 02                	add    %al,(%rdx)
     8e1:	91                   	xchg   %eax,%ecx
     8e2:	40 04 c6             	rex add $0xc6,%al
     8e5:	02 00                	add    (%rax),%al
     8e7:	00 35 27 4f 01 00    	add    %dh,0x14f27(%rip)        # 15814 <OLDSS+0x1575c>
     8ed:	00 03                	add    %al,(%rbx)
     8ef:	91                   	xchg   %eax,%ecx
     8f0:	bc 7f 0e df 44       	mov    $0x44df0e7f,%esp
     8f5:	10 00                	adc    %al,(%rax)
     8f7:	00 80 ff ff 37 00    	add    %al,0x37ffff(%rax)
     8fd:	00 00                	add    %al,(%rax)
     8ff:	00 00                	add    %al,(%rax)
     901:	00 00                	add    %al,(%rax)
     903:	0b 79 00             	or     0x0(%rcx),%edi
     906:	39 13                	cmp    %edx,(%rbx)
     908:	fb                   	sti    
     909:	00 00                	add    %al,(%rax)
     90b:	00 02                	add    %al,(%rdx)
     90d:	91                   	xchg   %eax,%ecx
     90e:	5c                   	pop    %rsp
     90f:	01 05 45 10 00 00    	add    %eax,0x1045(%rip)        # 195a <OLDSS+0x18a2>
     915:	80 ff ff             	cmp    $0xff,%bh
     918:	53                   	push   %rbx
     919:	06                   	(bad)  
     91a:	00 00                	add    %al,(%rax)
     91c:	00 00                	add    %al,(%rax)
     91e:	09 a0 02 00 00 25    	or     %esp,0x25000002(%rax)
     924:	ab                   	stos   %eax,%es:(%rdi)
     925:	43 10 00             	rex.XB adc %al,(%r8)
     928:	00 80 ff ff f9 00    	add    %al,0xf9ffff(%rax)
     92e:	00 00                	add    %al,(%rax)
     930:	00 00                	add    %al,(%rax)
     932:	00 00                	add    %al,(%rax)
     934:	01 9c 53 06 00 00 04 	add    %ebx,0x4000006(%rbx,%rdx,2)
     93b:	45 03 00             	add    (%r8),%r8d
     93e:	00 25 15 92 01 00    	add    %ah,0x19215(%rip)        # 19b59 <OLDSS+0x19aa1>
     944:	00 02                	add    %al,(%rdx)
     946:	91                   	xchg   %eax,%ecx
     947:	40 04 c6             	rex add $0xc6,%al
     94a:	02 00                	add    (%rax),%al
     94c:	00 25 21 4f 01 00    	add    %ah,0x14f21(%rip)        # 15873 <OLDSS+0x157bb>
     952:	00 03                	add    %al,(%rbx)
     954:	91                   	xchg   %eax,%ecx
     955:	bc 7f 0b 69 00       	mov    $0x690b7f,%esp
     95a:	28 0e                	sub    %cl,(%rsi)
     95c:	fb                   	sti    
     95d:	00 00                	add    %al,(%rax)
     95f:	00 02                	add    %al,(%rdx)
     961:	91                   	xchg   %eax,%ecx
     962:	5c                   	pop    %rsp
     963:	01 0b                	add    %ecx,(%rbx)
     965:	44 10 00             	adc    %r8b,(%rax)
     968:	00 80 ff ff da 06    	add    %al,0x6daffff(%rax)
     96e:	00 00                	add    %al,(%rax)
     970:	01 30                	add    %esi,(%rax)
     972:	44 10 00             	adc    %r8b,(%rax)
     975:	00 80 ff ff da 06    	add    %al,0x6daffff(%rax)
     97b:	00 00                	add    %al,(%rax)
     97d:	01 66 44             	add    %esp,0x44(%rsi)
     980:	10 00                	adc    %al,(%rax)
     982:	00 80 ff ff da 06    	add    %al,0x6daffff(%rax)
     988:	00 00                	add    %al,(%rax)
     98a:	01 8b 44 10 00 00    	add    %ecx,0x1044(%rbx)
     990:	80 ff ff             	cmp    $0xff,%bh
     993:	da 06                	fiaddl (%rsi)
     995:	00 00                	add    %al,(%rax)
     997:	00 09                	add    %cl,(%rcx)
     999:	7a 02                	jp     99d <OLDSS+0x8e5>
     99b:	00 00                	add    %al,(%rax)
     99d:	10 96 42 10 00 00    	adc    %dl,0x1042(%rsi)
     9a3:	80 ff ff             	cmp    $0xff,%bh
     9a6:	15 01 00 00 00       	adc    $0x1,%eax
     9ab:	00 00                	add    %al,(%rax)
     9ad:	00 01                	add    %al,(%rcx)
     9af:	9c                   	pushf  
     9b0:	da 06                	fiaddl (%rsi)
     9b2:	00 00                	add    %al,(%rax)
     9b4:	02 78 00             	add    0x0(%rax),%bh
     9b7:	10 22                	adc    %ah,(%rdx)
     9b9:	fb                   	sti    
     9ba:	00 00                	add    %al,(%rax)
     9bc:	00 02                	add    %al,(%rdx)
     9be:	91                   	xchg   %eax,%ecx
     9bf:	4c 02 79 00          	rex.WR add 0x0(%rcx),%r15b
     9c3:	10 2e                	adc    %ch,(%rsi)
     9c5:	fb                   	sti    
     9c6:	00 00                	add    %al,(%rax)
     9c8:	00 02                	add    %al,(%rdx)
     9ca:	91                   	xchg   %eax,%ecx
     9cb:	48 02 6c 65 6e       	rex.W add 0x6e(%rbp,%riz,2),%bpl
     9d0:	00 10                	add    %dl,(%rax)
     9d2:	39 fb                	cmp    %edi,%ebx
     9d4:	00 00                	add    %al,(%rax)
     9d6:	00 02                	add    %al,(%rdx)
     9d8:	91                   	xchg   %eax,%ecx
     9d9:	44 04 c6             	rex.R add $0xc6,%al
     9dc:	02 00                	add    (%rax),%al
     9de:	00 10                	add    %dl,(%rax)
     9e0:	43                   	rex.XB
     9e1:	4f 01 00             	rex.WRXB add %r8,(%r8)
     9e4:	00 02                	add    %al,(%rdx)
     9e6:	91                   	xchg   %eax,%ecx
     9e7:	40 07                	rex (bad) 
     9e9:	d6                   	(bad)  
     9ea:	02 00                	add    (%rax),%al
     9ec:	00 12                	add    %dl,(%rdx)
     9ee:	0b 3f                	or     (%rdi),%edi
     9f0:	02 00                	add    (%rax),%al
     9f2:	00 02                	add    %al,(%rdx)
     9f4:	91                   	xchg   %eax,%ecx
     9f5:	58                   	pop    %rax
     9f6:	07                   	(bad)  
     9f7:	f9                   	stc    
     9f8:	02 00                	add    (%rax),%al
     9fa:	00 13                	add    %dl,(%rbx)
     9fc:	0e                   	(bad)  
     9fd:	07                   	(bad)  
     9fe:	01 00                	add    %eax,(%rax)
     a00:	00 02                	add    %al,(%rdx)
     a02:	91                   	xchg   %eax,%ecx
     a03:	50                   	push   %rax
     a04:	01 72 43             	add    %esi,0x43(%rdx)
     a07:	10 00                	adc    %al,(%rax)
     a09:	00 80 ff ff af 02    	add    %al,0x2afffff(%rax)
     a0f:	00 00                	add    %al,(%rax)
     a11:	01 a1 43 10 00 00    	add    %esp,0x1043(%rcx)
     a17:	80 ff ff             	cmp    $0xff,%bh
     a1a:	da 06                	fiaddl (%rsi)
     a1c:	00 00                	add    %al,(%rax)
     a1e:	00 09                	add    %cl,(%rcx)
     a20:	68 02 00 00 08       	push   $0x8000002
     a25:	19 42 10             	sbb    %eax,0x10(%rdx)
     a28:	00 00                	add    %al,(%rax)
     a2a:	80 ff ff             	cmp    $0xff,%bh
     a2d:	7d 00                	jge    a2f <OLDSS+0x977>
     a2f:	00 00                	add    %al,(%rax)
     a31:	00 00                	add    %al,(%rax)
     a33:	00 00                	add    %al,(%rax)
     a35:	01 9c 46 07 00 00 02 	add    %ebx,0x2000007(%rsi,%rax,2)
     a3c:	78 00                	js     a3e <OLDSS+0x986>
     a3e:	08 1a                	or     %bl,(%rdx)
     a40:	fb                   	sti    
     a41:	00 00                	add    %al,(%rax)
     a43:	00 02                	add    %al,(%rdx)
     a45:	91                   	xchg   %eax,%ecx
     a46:	4c 02 79 00          	rex.WR add 0x0(%rcx),%r15b
     a4a:	08 26                	or     %ah,(%rsi)
     a4c:	fb                   	sti    
     a4d:	00 00                	add    %al,(%rax)
     a4f:	00 02                	add    %al,(%rdx)
     a51:	91                   	xchg   %eax,%ecx
     a52:	48 04 c6             	rex.W add $0xc6,%al
     a55:	02 00                	add    (%rax),%al
     a57:	00 08                	add    %cl,(%rax)
     a59:	2f                   	(bad)  
     a5a:	4f 01 00             	rex.WRXB add %r8,(%r8)
     a5d:	00 02                	add    %al,(%rdx)
     a5f:	91                   	xchg   %eax,%ecx
     a60:	44 0b 68 72          	or     0x72(%rax),%r13d
     a64:	00 0a                	add    %cl,(%rdx)
     a66:	0e                   	(bad)  
     a67:	fb                   	sti    
     a68:	00 00                	add    %al,(%rax)
     a6a:	00 02                	add    %al,(%rdx)
     a6c:	91                   	xchg   %eax,%ecx
     a6d:	6c                   	insb   (%dx),%es:(%rdi)
     a6e:	07                   	(bad)  
     a6f:	d6                   	(bad)  
     a70:	02 00                	add    (%rax),%al
     a72:	00 0b                	add    %cl,(%rbx)
     a74:	0c 46                	or     $0x46,%al
     a76:	07                   	(bad)  
     a77:	00 00                	add    %al,(%rax)
     a79:	02 91 60 07 6d 02    	add    0x26d0760(%rcx),%dl
     a7f:	00 00                	add    %al,(%rax)
     a81:	0c 0c                	or     $0xc,%al
     a83:	46 07                	rex.RX (bad) 
     a85:	00 00                	add    %al,(%rax)
     a87:	02 91 58 00 08 4f    	add    0x4f080058(%rcx),%dl
     a8d:	01 00                	add    %eax,(%rax)
     a8f:	00 00                	add    %al,(%rax)
     a91:	7a 03                	jp     a96 <OLDSS+0x9de>
     a93:	00 00                	add    %al,(%rax)
     a95:	05 00 01 08 8d       	add    $0x8d080100,%eax
     a9a:	03 00                	add    (%rax),%eax
     a9c:	00 0e                	add    %cl,(%rsi)
     a9e:	45 00 00             	add    %r8b,(%r8)
     aa1:	00 1d 18 01 00 00    	add    %bl,0x118(%rip)        # bbf <OLDSS+0xb07>
     aa7:	00 00                	add    %al,(%rax)
     aa9:	00 00                	add    %al,(%rax)
     aab:	16                   	(bad)  
     aac:	4a 10 00             	rex.WX adc %al,(%rax)
     aaf:	00 80 ff ff e8 04    	add    %al,0x4e8ffff(%rax)
     ab5:	00 00                	add    %al,(%rax)
     ab7:	00 00                	add    %al,(%rax)
     ab9:	00 00                	add    %al,(%rax)
     abb:	1d 04 00 00 01       	sbb    $0x1000004,%eax
     ac0:	01 06                	add    %eax,(%rsi)
     ac2:	f2 00 00             	repnz add %al,(%rax)
     ac5:	00 01                	add    %al,(%rcx)
     ac7:	02 05 94 01 00 00    	add    0x194(%rip),%al        # c61 <OLDSS+0xba9>
     acd:	05 ad 01 00 00       	add    $0x1ad,%eax
     ad2:	02 04 14             	add    (%rsp,%rdx,1),%al
     ad5:	48 00 00             	rex.W add %al,(%rax)
     ad8:	00 0f                	add    %cl,(%rdi)
     ada:	04 05                	add    $0x5,%al
     adc:	69 6e 74 00 01 08 05 	imul   $0x5080100,0x74(%rsi),%ebp
     ae3:	b5 01                	mov    $0x1,%ch
     ae5:	00 00                	add    %al,(%rax)
     ae7:	05 52 02 00 00       	add    $0x252,%eax
     aec:	02 06                	add    (%rsi),%al
     aee:	17                   	(bad)  
     aef:	62                   	(bad)  
     af0:	00 00                	add    %al,(%rax)
     af2:	00 01                	add    %al,(%rcx)
     af4:	01 08                	add    %ecx,(%rax)
     af6:	f0 00 00             	lock add %al,(%rax)
     af9:	00 01                	add    %al,(%rcx)
     afb:	02 07                	add    (%rdi),%al
     afd:	24 00                	and    $0x0,%al
     aff:	00 00                	add    %al,(%rax)
     b01:	05 ac 01 00 00       	add    $0x1ac,%eax
     b06:	02 08                	add    (%rax),%cl
     b08:	16                   	(bad)  
     b09:	7c 00                	jl     b0b <OLDSS+0xa53>
     b0b:	00 00                	add    %al,(%rax)
     b0d:	01 04 07             	add    %eax,(%rdi,%rax,1)
     b10:	03 01                	add    (%rcx),%eax
     b12:	00 00                	add    %al,(%rax)
     b14:	05 5f 02 00 00       	add    $0x25f,%eax
     b19:	02 09                	add    (%rcx),%cl
     b1b:	17                   	(bad)  
     b1c:	8f 00                	pop    (%rax)
     b1e:	00 00                	add    %al,(%rax)
     b20:	01 08                	add    %ecx,(%rax)
     b22:	07                   	(bad)  
     b23:	fe 00                	incb   (%rax)
     b25:	00 00                	add    %al,(%rax)
     b27:	05 b7 02 00 00       	add    $0x2b7,%eax
     b2c:	03 28                	add    (%rax),%ebp
     b2e:	1b a2 00 00 00 10    	sbb    0x10000000(%rdx),%esp
     b34:	21 02                	and    %eax,(%rdx)
     b36:	00 00                	add    %al,(%rax)
     b38:	ab                   	stos   %eax,%es:(%rdi)
     b39:	00 00                	add    %al,(%rax)
     b3b:	00 0b                	add    %cl,(%rbx)
     b3d:	bb 00 00 00 bb       	mov    $0xbb000000,%ebx
     b42:	00 00                	add    %al,(%rax)
     b44:	00 11                	add    %dl,(%rcx)
     b46:	8f 00                	pop    (%rax)
     b48:	00 00                	add    %al,(%rax)
     b4a:	00 00                	add    %al,(%rax)
     b4c:	12 ff                	adc    %bh,%bh
     b4e:	02 00                	add    (%rax),%al
     b50:	00 18                	add    %bl,(%rax)
     b52:	04 00                	add    $0x0,%al
     b54:	f0 00 00             	lock add %al,(%rax)
     b57:	00 07                	add    %al,(%rdi)
     b59:	cc                   	int3   
     b5a:	02 00                	add    (%rax),%al
     b5c:	00 7c 00 00          	add    %bh,0x0(%rax,%rax,1)
     b60:	00 00                	add    %al,(%rax)
     b62:	07                   	(bad)  
     b63:	27                   	(bad)  
     b64:	03 00                	add    (%rax),%eax
     b66:	00 7c 00 00          	add    %bh,0x0(%rax,%rax,1)
     b6a:	00 04 07             	add    %al,(%rdi,%rax,1)
     b6d:	e1 02                	loope  b71 <OLDSS+0xab9>
     b6f:	00 00                	add    %al,(%rax)
     b71:	f0 00 00             	lock add %al,(%rax)
     b74:	00 08                	add    %cl,(%rax)
     b76:	07                   	(bad)  
     b77:	8d 02                	lea    (%rdx),%eax
     b79:	00 00                	add    %al,(%rax)
     b7b:	f0 00 00             	lock add %al,(%rax)
     b7e:	00 10                	add    %dl,(%rax)
     b80:	00 13                	add    %dl,(%rbx)
     b82:	08 05 be 02 00 00    	or     %al,0x2be(%rip)        # e46 <OLDSS+0xd8e>
     b88:	03 63 18             	add    0x18(%rbx),%esp
     b8b:	96                   	xchg   %eax,%esi
     b8c:	00 00                	add    %al,(%rax)
     b8e:	00 0b                	add    %cl,(%rbx)
     b90:	0f 01 00             	sgdt   (%rax)
     b93:	00 0f                	add    %cl,(%rdi)
     b95:	01 00                	add    %eax,(%rax)
     b97:	00 14 8f             	add    %dl,(%rdi,%rcx,4)
     b9a:	00 00                	add    %al,(%rax)
     b9c:	00 ff                	add    %bh,%bh
     b9e:	0f 00 01             	sldt   (%rcx)
     ba1:	01 06                	add    %eax,(%rsi)
     ba3:	f9                   	stc    
     ba4:	00 00                	add    %al,(%rax)
     ba6:	00 15 0f 01 00 00    	add    %dl,0x10f(%rip)        # cbb <OLDSS+0xc03>
     bac:	16                   	(bad)  
     bad:	39 02                	cmp    %eax,(%rdx)
     baf:	00 00                	add    %al,(%rax)
     bb1:	06                   	(bad)  
     bb2:	07                   	(bad)  
     bb3:	06                   	(bad)  
     bb4:	fe 00                	incb   (%rax)
     bb6:	00 00                	add    %al,(%rax)
     bb8:	09 03                	or     %eax,(%rbx)
     bba:	40 03 11             	rex add (%rcx),%edx
     bbd:	00 00                	add    %al,(%rax)
     bbf:	80 ff ff             	cmp    $0xff,%bh
     bc2:	0c 52                	or     $0x52,%al
     bc4:	03 00                	add    (%rax),%eax
     bc6:	00 07                	add    %al,(%rdi)
     bc8:	0a 70 00             	or     0x0(%rax),%dh
     bcb:	00 00                	add    %al,(%rax)
     bcd:	46 01 00             	rex.RX add %r8d,(%rax)
     bd0:	00 08                	add    %cl,(%rax)
     bd2:	46 01 00             	rex.RX add %r8d,(%rax)
     bd5:	00 00                	add    %al,(%rax)
     bd7:	06                   	(bad)  
     bd8:	16                   	(bad)  
     bd9:	01 00                	add    %eax,(%rax)
     bdb:	00 0c 60             	add    %cl,(%rax,%riz,2)
     bde:	03 00                	add    (%rax),%eax
     be0:	00 06                	add    %al,(%rsi)
     be2:	07                   	(bad)  
     be3:	65 01 00             	add    %eax,%gs:(%rax)
     be6:	00 65 01             	add    %ah,0x1(%rbp)
     be9:	00 00                	add    %al,(%rax)
     beb:	08 65 01             	or     %ah,0x1(%rbp)
     bee:	00 00                	add    %al,(%rax)
     bf0:	08 46 01             	or     %al,0x1(%rsi)
     bf3:	00 00                	add    %al,(%rax)
     bf5:	00 06                	add    %al,(%rsi)
     bf7:	0f 01 00             	sgdt   (%rax)
     bfa:	00 0d 32 03 00 00    	add    %cl,0x332(%rip)        # f32 <OLDSS+0xe7a>
     c00:	57                   	push   %rdi
     c01:	70 00                	jo     c03 <OLDSS+0xb4b>
     c03:	00 00                	add    %al,(%rax)
     c05:	27                   	(bad)  
     c06:	4e 10 00             	rex.WRX adc %r8b,(%rax)
     c09:	00 80 ff ff d7 00    	add    %al,0xd7ffff(%rax)
     c0f:	00 00                	add    %al,(%rax)
     c11:	00 00                	add    %al,(%rax)
     c13:	00 00                	add    %al,(%rax)
     c15:	01 9c d5 01 00 00 09 	add    %ebx,0x9000001(%rbp,%rdx,8)
     c1c:	62 75 66 00 57       	(bad)
     c21:	18 65 01             	sbb    %ah,0x1(%rbp)
     c24:	00 00                	add    %al,(%rax)
     c26:	03 91 98 7e 02 7e    	add    0x7e027e98(%rcx),%edx
     c2c:	03 00                	add    (%rax),%eax
     c2e:	00 57 29             	add    %dl,0x29(%rdi)
     c31:	46 01 00             	rex.RX add %r8d,(%rax)
     c34:	00 03                	add    %al,(%rbx)
     c36:	91                   	xchg   %eax,%ecx
     c37:	90                   	nop
     c38:	7e 17                	jle    c51 <OLDSS+0xb99>
     c3a:	03 0d 03 00 00 58    	add    0x58000003(%rip),%ecx        # 58000c43 <OLDSS+0x58000b8b>
     c40:	0a f2                	or     %dl,%dh
     c42:	00 00                	add    %al,(%rax)
     c44:	00 03                	add    %al,(%rbx)
     c46:	91                   	xchg   %eax,%ecx
     c47:	a0 7e 03 59 03 00 00 	movabs 0xb5900000359037e,%al
     c4e:	59 0b 
     c50:	70 00                	jo     c52 <OLDSS+0xb9a>
     c52:	00 00                	add    %al,(%rax)
     c54:	03 91 bc 7e 04 f0    	add    -0xffb8144(%rcx),%edx
     c5a:	4e 10 00             	rex.WRX adc %r8b,(%rax)
     c5d:	00 80 ff ff d5 01    	add    %al,0x1d5ffff(%rax)
     c63:	00 00                	add    %al,(%rax)
     c65:	00 0d 31 03 00 00    	add    %cl,0x331(%rip)        # f9c <OLDSS+0xee4>
     c6b:	20 70 00             	and    %dh,0x0(%rax)
     c6e:	00 00                	add    %al,(%rax)
     c70:	1f                   	(bad)  
     c71:	4b 10 00             	rex.WXB adc %al,(%r8)
     c74:	00 80 ff ff 08 03    	add    %al,0x308ffff(%rax)
     c7a:	00 00                	add    %al,(%rax)
     c7c:	00 00                	add    %al,(%rax)
     c7e:	00 00                	add    %al,(%rax)
     c80:	01 9c a9 02 00 00 09 	add    %ebx,0x9000002(%rcx,%rbp,4)
     c87:	73 74                	jae    cfd <OLDSS+0xc45>
     c89:	72 00                	jb     c8b <OLDSS+0xbd3>
     c8b:	20 19                	and    %bl,(%rcx)
     c8d:	65 01 00             	add    %eax,%gs:(%rax)
     c90:	00 03                	add    %al,(%rbx)
     c92:	91                   	xchg   %eax,%ecx
     c93:	b8 7f 02 7e 03       	mov    $0x37e027f,%eax
     c98:	00 00                	add    %al,(%rax)
     c9a:	20 2a                	and    %ch,(%rdx)
     c9c:	46 01 00             	rex.RX add %r8d,(%rax)
     c9f:	00 03                	add    %al,(%rbx)
     ca1:	91                   	xchg   %eax,%ecx
     ca2:	b0 7f                	mov    $0x7f,%al
     ca4:	09 61 70             	or     %esp,0x70(%rcx)
     ca7:	00 20                	add    %ah,(%rax)
     ca9:	3a a9 02 00 00 03    	cmp    0x3000002(%rcx),%ch
     caf:	91                   	xchg   %eax,%ecx
     cb0:	a8 7f                	test   $0x7f,%al
     cb2:	03 9a 03 00 00 21    	add    0x21000003(%rdx),%ebx
     cb8:	08 65 01             	or     %ah,0x1(%rbp)
     cbb:	00 00                	add    %al,(%rax)
     cbd:	02 91 40 03 85 03    	add    0x3850340(%rcx),%dl
     cc3:	00 00                	add    %al,(%rax)
     cc5:	22 0e                	and    (%rsi),%cl
     cc7:	46 01 00             	rex.RX add %r8d,(%rax)
     cca:	00 02                	add    %al,(%rdx)
     ccc:	91                   	xchg   %eax,%ecx
     ccd:	58                   	pop    %rax
     cce:	03 8f 03 00 00 23    	add    0x23000003(%rdi),%ecx
     cd4:	07                   	(bad)  
     cd5:	0f 01 00             	sgdt   (%rax)
     cd8:	00 02                	add    %al,(%rdx)
     cda:	91                   	xchg   %eax,%ecx
     cdb:	57                   	push   %rdi
     cdc:	03 4a 03             	add    0x3(%rdx),%ecx
     cdf:	00 00                	add    %al,(%rax)
     ce1:	24 0a                	and    $0xa,%al
     ce3:	3c 00                	cmp    $0x0,%al
     ce5:	00 00                	add    %al,(%rax)
     ce7:	02 91 50 03 a7 03    	add    0x3a70350(%rcx),%dl
     ced:	00 00                	add    %al,(%rax)
     cef:	25 08 65 01 00       	and    $0x16508,%eax
     cf4:	00 02                	add    %al,(%rdx)
     cf6:	91                   	xchg   %eax,%ecx
     cf7:	48 04 4d             	rex.W add $0x4d,%al
     cfa:	4c 10 00             	rex.WR adc %r8b,(%rax)
     cfd:	00 80 ff ff 4b 01    	add    %al,0x14bffff(%rax)
     d03:	00 00                	add    %al,(%rax)
     d05:	04 66                	add    $0x66,%al
     d07:	4c 10 00             	rex.WR adc %r8b,(%rax)
     d0a:	00 80 ff ff 31 01    	add    %al,0x131ffff(%rax)
     d10:	00 00                	add    %al,(%rax)
     d12:	04 71                	add    $0x71,%al
     d14:	4d 10 00             	rex.WRB adc %r8b,(%r8)
     d17:	00 80 ff ff ae 02    	add    %al,0x2aeffff(%rax)
     d1d:	00 00                	add    %al,(%rax)
     d1f:	04 eb                	add    $0xeb,%al
     d21:	4d 10 00             	rex.WRB adc %r8b,(%r8)
     d24:	00 80 ff ff ae 02    	add    %al,0x2aeffff(%rax)
     d2a:	00 00                	add    %al,(%rax)
     d2c:	04 1e                	add    $0x1e,%al
     d2e:	4e 10 00             	rex.WRX adc %r8b,(%rax)
     d31:	00 80 ff ff 31 01    	add    %al,0x131ffff(%rax)
     d37:	00 00                	add    %al,(%rax)
     d39:	00 06                	add    %al,(%rsi)
     d3b:	bb 00 00 00 18       	mov    $0x18000000,%ebx
     d40:	67 03 00             	add    (%eax),%eax
     d43:	00 01                	add    %al,(%rcx)
     d45:	11 0d 6b 4a 10 00    	adc    %ecx,0x104a6b(%rip)        # 1057b6 <OLDSS+0x1056fe>
     d4b:	00 80 ff ff b4 00    	add    %al,0xb4ffff(%rax)
     d51:	00 00                	add    %al,(%rax)
     d53:	00 00                	add    %al,(%rax)
     d55:	00 00                	add    %al,(%rax)
     d57:	01 9c 1c 03 00 00 02 	add    %ebx,0x2000003(%rsp,%rbx,1)
     d5e:	f9                   	stc    
     d5f:	02 00                	add    (%rax),%al
     d61:	00 11                	add    %dl,(%rcx)
     d63:	1b 70 00             	sbb    0x0(%rax),%esi
     d66:	00 00                	add    %al,(%rax)
     d68:	02 91 5c 02 6c 03    	add    0x36c025c(%rcx),%dl
     d6e:	00 00                	add    %al,(%rax)
     d70:	11 29                	adc    %ebp,(%rcx)
     d72:	1c 03                	sbb    $0x3,%al
     d74:	00 00                	add    %al,(%rax)
     d76:	02 91 50 02 d6 02    	add    0x2d60250(%rcx),%dl
     d7c:	00 00                	add    %al,(%rax)
     d7e:	11 3f                	adc    %edi,(%rdi)
     d80:	56                   	push   %rsi
     d81:	00 00                	add    %al,(%rax)
     d83:	00 02                	add    %al,(%rdx)
     d85:	91                   	xchg   %eax,%ecx
     d86:	58                   	pop    %rax
     d87:	0a 6d 00             	or     0x0(%rbp),%ch
     d8a:	12 0e                	adc    (%rsi),%cl
     d8c:	70 00                	jo     d8e <OLDSS+0xcd6>
     d8e:	00 00                	add    %al,(%rax)
     d90:	02 91 6c 0a 69 00    	add    0x690a6c(%rcx),%dl
     d96:	13 0e                	adc    (%rsi),%ecx
     d98:	70 00                	jo     d9a <OLDSS+0xce2>
     d9a:	00 00                	add    %al,(%rax)
     d9c:	02 91 68 04 dc 4a    	add    0x4adc0468(%rcx),%dl
     da2:	10 00                	adc    %al,(%rax)
     da4:	00 80 ff ff ae 02    	add    %al,0x2aeffff(%rax)
     daa:	00 00                	add    %al,(%rax)
     dac:	00 06                	add    %al,(%rsi)
     dae:	65 01 00             	add    %eax,%gs:(%rax)
     db1:	00 19                	add    %bl,(%rcx)
     db3:	12 03                	adc    (%rbx),%al
     db5:	00 00                	add    %al,(%rax)
     db7:	01 04 06             	add    %eax,(%rsi,%rax,1)
     dba:	16                   	(bad)  
     dbb:	4a 10 00             	rex.WX adc %al,(%rax)
     dbe:	00 80 ff ff 55 00    	add    %al,0x55ffff(%rax)
     dc4:	00 00                	add    %al,(%rax)
     dc6:	00 00                	add    %al,(%rax)
     dc8:	00 00                	add    %al,(%rax)
     dca:	01 9c 78 03 00 00 02 	add    %ebx,0x2000003(%rax,%rdi,2)
     dd1:	79 03                	jns    dd6 <OLDSS+0xd1e>
     dd3:	00 00                	add    %al,(%rax)
     dd5:	04 14                	add    $0x14,%al
     dd7:	f0 00 00             	lock add %al,(%rax)
     dda:	00 02                	add    %al,(%rdx)
     ddc:	91                   	xchg   %eax,%ecx
     ddd:	58                   	pop    %rax
     dde:	02 f9                	add    %cl,%bh
     de0:	02 00                	add    (%rax),%al
     de2:	00 04 23             	add    %al,(%rbx,%riz,1)
     de5:	83 00 00             	addl   $0x0,(%rax)
     de8:	00 02                	add    %al,(%rdx)
     dea:	91                   	xchg   %eax,%ecx
     deb:	50                   	push   %rax
     dec:	02 a2 03 00 00 04    	add    0x4000003(%rdx),%ah
     df2:	33 70 00             	xor    0x0(%rax),%esi
     df5:	00 00                	add    %al,(%rax)
     df7:	02 91 4c 0a 64 73    	add    0x73640a4c(%rcx),%dl
     dfd:	74 00                	je     dff <OLDSS+0xd47>
     dff:	06                   	(bad)  
     e00:	0f 78 03             	vmread %rax,(%rbx)
     e03:	00 00                	add    %al,(%rax)
     e05:	02 91 68 00 06 83    	add    -0x7cf9ff98(%rcx),%dl
     e0b:	00 00                	add    %al,(%rax)
     e0d:	00 00                	add    %al,(%rax)
     e0f:	b6 03                	mov    $0x3,%dh
     e11:	00 00                	add    %al,(%rax)
     e13:	05 00 01 08 fd       	add    $0xfd080100,%eax
     e18:	04 00                	add    $0x0,%al
     e1a:	00 0a                	add    %cl,(%rdx)
     e1c:	45 00 00             	add    %r8b,(%r8)
     e1f:	00 1d 34 01 00 00    	add    %bl,0x134(%rip)        # f59 <OLDSS+0xea1>
     e25:	00 00                	add    %al,(%rax)
     e27:	00 00                	add    %al,(%rax)
     e29:	fe 4e 10             	decb   0x10(%rsi)
     e2c:	00 00                	add    %al,(%rax)
     e2e:	80 ff ff             	cmp    $0xff,%bh
     e31:	e6 03                	out    %al,$0x3
     e33:	00 00                	add    %al,(%rax)
     e35:	00 00                	add    %al,(%rax)
     e37:	00 00                	add    %al,(%rax)
     e39:	8b 05 00 00 07 53    	mov    0x53070000(%rip),%eax        # 53070e3f <OLDSS+0x53070d87>
     e3f:	02 00                	add    (%rax),%al
     e41:	00 02                	add    %al,(%rdx)
     e43:	15 39 00 00 00       	adc    $0x39,%eax
     e48:	04 01                	add    $0x1,%al
     e4a:	06                   	(bad)  
     e4b:	f2 00 00             	repnz add %al,(%rax)
     e4e:	00 04 02             	add    %al,(%rdx,%rax,1)
     e51:	05 94 01 00 00       	add    $0x194,%eax
     e56:	0b 04 05 69 6e 74 00 	or     0x746e69(,%rax,1),%eax
     e5d:	04 08                	add    $0x8,%al
     e5f:	05 b5 01 00 00       	add    $0x1b5,%eax
     e64:	07                   	(bad)  
     e65:	52                   	push   %rdx
     e66:	02 00                	add    (%rax),%al
     e68:	00 06                	add    %al,(%rsi)
     e6a:	17                   	(bad)  
     e6b:	65 00 00             	add    %al,%gs:(%rax)
     e6e:	00 08                	add    %cl,(%rax)
     e70:	55                   	push   %rbp
     e71:	00 00                	add    %al,(%rax)
     e73:	00 04 01             	add    %al,(%rcx,%rax,1)
     e76:	08 f0                	or     %dh,%al
     e78:	00 00                	add    %al,(%rax)
     e7a:	00 04 02             	add    %al,(%rdx,%rax,1)
     e7d:	07                   	(bad)  
     e7e:	24 00                	and    $0x0,%al
     e80:	00 00                	add    %al,(%rax)
     e82:	07                   	(bad)  
     e83:	ac                   	lods   %ds:(%rsi),%al
     e84:	01 00                	add    %eax,(%rax)
     e86:	00 08                	add    %cl,(%rax)
     e88:	16                   	(bad)  
     e89:	7e 00                	jle    e8b <OLDSS+0xdd3>
     e8b:	00 00                	add    %al,(%rax)
     e8d:	04 04                	add    $0x4,%al
     e8f:	07                   	(bad)  
     e90:	03 01                	add    (%rcx),%eax
     e92:	00 00                	add    %al,(%rax)
     e94:	04 08                	add    $0x8,%al
     e96:	07                   	(bad)  
     e97:	fe 00                	incb   (%rax)
     e99:	00 00                	add    %al,(%rax)
     e9b:	05 b4 03 00 00       	add    $0x3b4,%eax
     ea0:	66 0a 73 00          	data16 or 0x0(%rbx),%dh
     ea4:	00 00                	add    %al,(%rax)
     ea6:	83 52 10 00          	adcl   $0x0,0x10(%rdx)
     eaa:	00 80 ff ff 61 00    	add    %al,0x61ffff(%rax)
     eb0:	00 00                	add    %al,(%rax)
     eb2:	00 00                	add    %al,(%rax)
     eb4:	00 00                	add    %al,(%rax)
     eb6:	01 9c e3 00 00 00 01 	add    %ebx,0x1000000(%rbx,%riz,8)
     ebd:	73 74                	jae    f33 <OLDSS+0xe7b>
     ebf:	72 00                	jb     ec1 <OLDSS+0xe09>
     ec1:	66 1e                	data16 (bad) 
     ec3:	e3 00                	jrcxz  ec5 <OLDSS+0xe0d>
     ec5:	00 00                	add    %al,(%rax)
     ec7:	02 91 58 01 63 68    	add    0x68630158(%rcx),%dl
     ecd:	00 66 2b             	add    %ah,0x2b(%rsi)
     ed0:	55                   	push   %rbp
     ed1:	00 00                	add    %al,(%rax)
     ed3:	00 02                	add    %al,(%rdx)
     ed5:	91                   	xchg   %eax,%ecx
     ed6:	54                   	push   %rsp
     ed7:	09 e2                	or     %esp,%edx
     ed9:	03 00                	add    (%rax),%eax
     edb:	00 68 0e             	add    %ch,0xe(%rax)
     ede:	73 00                	jae    ee0 <OLDSS+0xe28>
     ee0:	00 00                	add    %al,(%rax)
     ee2:	02 91 6c 03 70 00    	add    0x70036c(%rcx),%dl
     ee8:	69 11 e3 00 00 00    	imul   $0xe3,(%rcx),%edx
     eee:	02 91 60 00 06 ef    	add    -0x10f9ffa0(%rcx),%dl
     ef4:	00 00                	add    %al,(%rax)
     ef6:	00 04 01             	add    %al,(%rcx,%rax,1)
     ef9:	06                   	(bad)  
     efa:	f9                   	stc    
     efb:	00 00                	add    %al,(%rax)
     efd:	00 08                	add    %cl,(%rax)
     eff:	e8 00 00 00 05       	call   5000f04 <OLDSS+0x5000e4c>
     f04:	d4                   	(bad)  
     f05:	03 00                	add    (%rax),%eax
     f07:	00 5c 07 40          	add    %bl,0x40(%rdi,%rax,1)
     f0b:	01 00                	add    %eax,(%rax)
     f0d:	00 13                	add    %dl,(%rbx)
     f0f:	52                   	push   %rdx
     f10:	10 00                	adc    %al,(%rax)
     f12:	00 80 ff ff 70 00    	add    %al,0x70ffff(%rax)
     f18:	00 00                	add    %al,(%rax)
     f1a:	00 00                	add    %al,(%rax)
     f1c:	00 00                	add    %al,(%rax)
     f1e:	01 9c 40 01 00 00 02 	add    %ebx,0x2000001(%rax,%rax,2)
     f25:	79 03                	jns    f2a <OLDSS+0xe72>
     f27:	00 00                	add    %al,(%rax)
     f29:	5c                   	pop    %rsp
     f2a:	14 40                	adc    $0x40,%al
     f2c:	01 00                	add    %eax,(%rax)
     f2e:	00 02                	add    %al,(%rdx)
     f30:	91                   	xchg   %eax,%ecx
     f31:	58                   	pop    %rax
     f32:	02 af 03 00 00 5c    	add    0x5c000003(%rdi),%ch
     f38:	26 e3 00             	es jrcxz f3b <OLDSS+0xe83>
     f3b:	00 00                	add    %al,(%rax)
     f3d:	02 91 50 03 73 74    	add    0x74730350(%rcx),%dl
     f43:	72 00                	jb     f45 <OLDSS+0xe8d>
     f45:	5e                   	pop    %rsi
     f46:	0b 40 01             	or     0x1(%rax),%eax
     f49:	00 00                	add    %al,(%rax)
     f4b:	02 91 68 00 06 e8    	add    -0x17f9ff98(%rcx),%dl
     f51:	00 00                	add    %al,(%rax)
     f53:	00 05 e9 03 00 00    	add    %al,0x3e9(%rip)        # 1342 <OLDSS+0x128a>
     f59:	4e 07                	rex.WRX (bad) 
     f5b:	40 01 00             	rex add %eax,(%rax)
     f5e:	00 b4 51 10 00 00 80 	add    %dh,-0x7ffffff0(%rcx,%rdx,2)
     f65:	ff                   	(bad)  
     f66:	ff 5f 00             	lcall  *0x0(%rdi)
     f69:	00 00                	add    %al,(%rax)
     f6b:	00 00                	add    %al,(%rax)
     f6d:	00 00                	add    %al,(%rax)
     f6f:	01 9c 90 01 00 00 01 	add    %ebx,0x1000001(%rax,%rdx,4)
     f76:	73 74                	jae    fec <OLDSS+0xf34>
     f78:	72 00                	jb     f7a <OLDSS+0xec2>
     f7a:	4e 1b e3             	rex.WRX sbb %rbx,%r12
     f7d:	00 00                	add    %al,(%rax)
     f7f:	00 02                	add    %al,(%rdx)
     f81:	91                   	xchg   %eax,%ecx
     f82:	58                   	pop    %rax
     f83:	01 63 68             	add    %esp,0x68(%rbx)
     f86:	00 4e 2e             	add    %cl,0x2e(%rsi)
     f89:	60                   	(bad)  
     f8a:	00 00                	add    %al,(%rax)
     f8c:	00 02                	add    %al,(%rdx)
     f8e:	91                   	xchg   %eax,%ecx
     f8f:	54                   	push   %rsp
     f90:	09 ca                	or     %ecx,%edx
     f92:	03 00                	add    (%rax),%eax
     f94:	00 50 11             	add    %dl,0x11(%rax)
     f97:	e3 00                	jrcxz  f99 <OLDSS+0xee1>
     f99:	00 00                	add    %al,(%rax)
     f9b:	02 91 68 00 05 bc    	add    -0x43faff98(%rcx),%dl
     fa1:	03 00                	add    (%rax),%eax
     fa3:	00 42 07             	add    %al,0x7(%rdx)
     fa6:	40 01 00             	rex add %eax,(%rax)
     fa9:	00 5e 51             	add    %bl,0x51(%rsi)
     fac:	10 00                	adc    %al,(%rax)
     fae:	00 80 ff ff 56 00    	add    %al,0x56ffff(%rax)
     fb4:	00 00                	add    %al,(%rax)
     fb6:	00 00                	add    %al,(%rax)
     fb8:	00 00                	add    %al,(%rax)
     fba:	01 9c cd 01 00 00 01 	add    %ebx,0x1000001(%rbp,%rcx,8)
     fc1:	73 74                	jae    1037 <OLDSS+0xf7f>
     fc3:	72 00                	jb     fc5 <OLDSS+0xf0d>
     fc5:	42 1a e3             	rex.X sbb %bl,%spl
     fc8:	00 00                	add    %al,(%rax)
     fca:	00 02                	add    %al,(%rdx)
     fcc:	91                   	xchg   %eax,%ecx
     fcd:	68 01 63 68 00       	push   $0x686301
     fd2:	42 2d 60 00 00 00    	rex.X sub $0x60,%eax
     fd8:	02 91 64 00 05 db    	add    -0x24faff9c(%rcx),%dl
     fde:	03 00                	add    (%rax),%eax
     fe0:	00 36                	add    %dh,(%rsi)
     fe2:	08 2e                	or     %ch,(%rsi)
     fe4:	00 00                	add    %al,(%rax)
     fe6:	00 e3                	add    %ah,%bl
     fe8:	50                   	push   %rax
     fe9:	10 00                	adc    %al,(%rax)
     feb:	00 80 ff ff 7b 00    	add    %al,0x7bffff(%rax)
     ff1:	00 00                	add    %al,(%rax)
     ff3:	00 00                	add    %al,(%rax)
     ff5:	00 00                	add    %al,(%rax)
     ff7:	01 9c 07 02 00 00 01 	add    %ebx,0x1000002(%rdi,%rax,1)
     ffe:	61                   	(bad)  
     fff:	00 36                	add    %dh,(%rsi)
    1001:	1c e3                	sbb    $0xe3,%al
    1003:	00 00                	add    %al,(%rax)
    1005:	00 02                	add    %al,(%rdx)
    1007:	91                   	xchg   %eax,%ecx
    1008:	68 01 62 00 36       	push   $0x36006201
    100d:	2b e3                	sub    %ebx,%esp
    100f:	00 00                	add    %al,(%rax)
    1011:	00 02                	add    %al,(%rdx)
    1013:	91                   	xchg   %eax,%ecx
    1014:	60                   	(bad)  
    1015:	00 05 52 03 00 00    	add    %al,0x352(%rip)        # 136d <OLDSS+0x12b5>
    101b:	2e 0a 73 00          	cs or  0x0(%rbx),%dh
    101f:	00 00                	add    %al,(%rax)
    1021:	9a                   	(bad)  
    1022:	50                   	push   %rax
    1023:	10 00                	adc    %al,(%rax)
    1025:	00 80 ff ff 49 00    	add    %al,0x49ffff(%rax)
    102b:	00 00                	add    %al,(%rax)
    102d:	00 00                	add    %al,(%rax)
    102f:	00 00                	add    %al,(%rax)
    1031:	01 9c 43 02 00 00 01 	add    %ebx,0x1000002(%rbx,%rax,2)
    1038:	73 74                	jae    10ae <OLDSS+0xff6>
    103a:	72 00                	jb     103c <OLDSS+0xf84>
    103c:	2e 1d e3 00 00 00    	cs sbb $0xe3,%eax
    1042:	02 91 58 03 70 00    	add    0x700358(%rcx),%dl
    1048:	30 11                	xor    %dl,(%rcx)
    104a:	e3 00                	jrcxz  104c <OLDSS+0xf94>
    104c:	00 00                	add    %al,(%rax)
    104e:	02 91 68 00 05 60    	add    0x60050068(%rcx),%dl
    1054:	03 00                	add    (%rax),%eax
    1056:	00 26                	add    %ah,(%rsi)
    1058:	07                   	(bad)  
    1059:	40 01 00             	rex add %eax,(%rax)
    105c:	00 43 50             	add    %al,0x50(%rbx)
    105f:	10 00                	adc    %al,(%rax)
    1061:	00 80 ff ff 57 00    	add    %al,0x57ffff(%rax)
    1067:	00 00                	add    %al,(%rax)
    1069:	00 00                	add    %al,(%rax)
    106b:	00 00                	add    %al,(%rax)
    106d:	01 9c 8d 02 00 00 02 	add    %ebx,0x2000002(%rbp,%rcx,4)
    1074:	79 03                	jns    1079 <OLDSS+0xfc1>
    1076:	00 00                	add    %al,(%rax)
    1078:	26 14 40             	es adc $0x40,%al
    107b:	01 00                	add    %eax,(%rax)
    107d:	00 02                	add    %al,(%rdx)
    107f:	91                   	xchg   %eax,%ecx
    1080:	58                   	pop    %rax
    1081:	02 af 03 00 00 26    	add    0x26000003(%rdi),%ch
    1087:	26 e3 00             	es jrcxz 108a <OLDSS+0xfd2>
    108a:	00 00                	add    %al,(%rax)
    108c:	02 91 50 03 72 00    	add    0x720350(%rcx),%dl
    1092:	28 0b                	sub    %cl,(%rbx)
    1094:	40 01 00             	rex add %eax,(%rax)
    1097:	00 02                	add    %al,(%rdx)
    1099:	91                   	xchg   %eax,%ecx
    109a:	68 00 05 c3 03       	push   $0x3c30500
    109f:	00 00                	add    %al,(%rax)
    10a1:	17                   	(bad)  
    10a2:	05 47 00 00 00       	add    $0x47,%eax
    10a7:	ba 4f 10 00 00       	mov    $0x104f,%edx
    10ac:	80 ff ff             	cmp    $0xff,%bh
    10af:	89 00                	mov    %eax,(%rax)
    10b1:	00 00                	add    %al,(%rax)
    10b3:	00 00                	add    %al,(%rax)
    10b5:	00 00                	add    %al,(%rax)
    10b7:	01 9c ef 02 00 00 01 	add    %ebx,0x1000002(%rdi,%rbp,8)
    10be:	61                   	(bad)  
    10bf:	5f                   	pop    %rdi
    10c0:	00 17                	add    %dl,(%rdi)
    10c2:	18 ef                	sbb    %ch,%bh
    10c4:	02 00                	add    (%rax),%al
    10c6:	00 02                	add    %al,(%rdx)
    10c8:	91                   	xchg   %eax,%ecx
    10c9:	58                   	pop    %rax
    10ca:	01 62 5f             	add    %esp,0x5f(%rdx)
    10cd:	00 17                	add    %dl,(%rdi)
    10cf:	28 ef                	sub    %ch,%bh
    10d1:	02 00                	add    (%rax),%al
    10d3:	00 02                	add    %al,(%rdx)
    10d5:	91                   	xchg   %eax,%ecx
    10d6:	50                   	push   %rax
    10d7:	02 a2 03 00 00 17    	add    0x17000003(%rdx),%ah
    10dd:	35 73 00 00 00       	xor    $0x73,%eax
    10e2:	02 91 4c 03 61 00    	add    0x61034c(%rcx),%dl
    10e8:	18 11                	sbb    %dl,(%rcx)
    10ea:	e3 00                	jrcxz  10ec <OLDSS+0x1034>
    10ec:	00 00                	add    %al,(%rax)
    10ee:	02 91 68 03 62 00    	add    0x620368(%rcx),%dl
    10f4:	19 11                	sbb    %edx,(%rcx)
    10f6:	e3 00                	jrcxz  10f8 <OLDSS+0x1040>
    10f8:	00 00                	add    %al,(%rax)
    10fa:	02 91 60 00 06 f4    	add    -0xbf9ffa0(%rcx),%dl
    1100:	02 00                	add    (%rax),%al
    1102:	00 0c 0d f1 03 00 00 	add    %cl,0x3f1(,%rcx,1)
    1109:	01 0e                	add    %ecx,(%rsi)
    110b:	06                   	(bad)  
    110c:	53                   	push   %rbx
    110d:	4f 10 00             	rex.WRXB adc %r8b,(%r8)
    1110:	00 80 ff ff 67 00    	add    %al,0x67ffff(%rax)
    1116:	00 00                	add    %al,(%rax)
    1118:	00 00                	add    %al,(%rax)
    111a:	00 00                	add    %al,(%rax)
    111c:	01 9c 5a 03 00 00 02 	add    %ebx,0x2000003(%rdx,%rbx,2)
    1123:	79 03                	jns    1128 <OLDSS+0x1070>
    1125:	00 00                	add    %al,(%rax)
    1127:	0e                   	(bad)  
    1128:	13 5a 03             	adc    0x3(%rdx),%ebx
    112b:	00 00                	add    %al,(%rax)
    112d:	02 91 58 02 af 03    	add    0x3af0258(%rcx),%dl
    1133:	00 00                	add    %al,(%rax)
    1135:	0e                   	(bad)  
    1136:	25 ef 02 00 00       	and    $0x2ef,%eax
    113b:	02 91 50 02 a2 03    	add    0x3a20250(%rcx),%dl
    1141:	00 00                	add    %al,(%rax)
    1143:	0e                   	(bad)  
    1144:	34 73                	xor    $0x73,%al
    1146:	00 00                	add    %al,(%rax)
    1148:	00 02                	add    %al,(%rdx)
    114a:	91                   	xchg   %eax,%ecx
    114b:	4c 03 64 73 74       	add    0x74(%rbx,%rsi,2),%r12
    1150:	00 10                	add    %dl,(%rax)
    1152:	0e                   	(bad)  
    1153:	5c                   	pop    %rsp
    1154:	03 00                	add    (%rax),%eax
    1156:	00 02                	add    %al,(%rdx)
    1158:	91                   	xchg   %eax,%ecx
    1159:	68 03 73 72 63       	push   $0x63727303
    115e:	00 11                	add    %dl,(%rcx)
    1160:	14 61                	adc    $0x61,%al
    1162:	03 00                	add    (%rax),%eax
    1164:	00 02                	add    %al,(%rdx)
    1166:	91                   	xchg   %eax,%ecx
    1167:	60                   	(bad)  
    1168:	00 0e                	add    %cl,(%rsi)
    116a:	08 06                	or     %al,(%rsi)
    116c:	55                   	push   %rbp
    116d:	00 00                	add    %al,(%rax)
    116f:	00 06                	add    %al,(%rsi)
    1171:	60                   	(bad)  
    1172:	00 00                	add    %al,(%rax)
    1174:	00 0f                	add    %cl,(%rdi)
    1176:	f8                   	clc    
    1177:	03 00                	add    (%rax),%eax
    1179:	00 01                	add    %al,(%rcx)
    117b:	05 06 fe 4e 10       	add    $0x104efe06,%eax
    1180:	00 00                	add    %al,(%rax)
    1182:	80 ff ff             	cmp    $0xff,%bh
    1185:	55                   	push   %rbp
    1186:	00 00                	add    %al,(%rax)
    1188:	00 00                	add    %al,(%rax)
    118a:	00 00                	add    %al,(%rax)
    118c:	00 01                	add    %al,(%rcx)
    118e:	9c                   	pushf  
    118f:	02 79 03             	add    0x3(%rcx),%bh
    1192:	00 00                	add    %al,(%rax)
    1194:	05 13 5a 03 00       	add    $0x35a13,%eax
    1199:	00 02                	add    %al,(%rdx)
    119b:	91                   	xchg   %eax,%ecx
    119c:	58                   	pop    %rax
    119d:	02 f9                	add    %cl,%bh
    119f:	02 00                	add    (%rax),%al
    11a1:	00 05 21 55 00 00    	add    %al,0x5521(%rip)        # 66c8 <OLDSS+0x6610>
    11a7:	00 02                	add    %al,(%rdx)
    11a9:	91                   	xchg   %eax,%ecx
    11aa:	54                   	push   %rsp
    11ab:	02 a2 03 00 00 05    	add    0x5000003(%rdx),%ah
    11b1:	31 73 00             	xor    %esi,0x0(%rbx)
    11b4:	00 00                	add    %al,(%rax)
    11b6:	02 91 50 03 64 73    	add    0x73640350(%rcx),%dl
    11bc:	74 00                	je     11be <OLDSS+0x1106>
    11be:	07                   	(bad)  
    11bf:	0e                   	(bad)  
    11c0:	5c                   	pop    %rsp
    11c1:	03 00                	add    (%rax),%eax
    11c3:	00 02                	add    %al,(%rdx)
    11c5:	91                   	xchg   %eax,%ecx
    11c6:	68 00 00 33 02       	push   $0x2330000
    11cb:	00 00                	add    %al,(%rax)
    11cd:	05 00 01 08 ee       	add    $0xee080100,%eax
    11d2:	05 00 00 0a 45       	add    $0x450a0000,%eax
    11d7:	00 00                	add    %al,(%rax)
    11d9:	00 1d 48 01 00 00    	add    %bl,0x148(%rip)        # 1327 <OLDSS+0x126f>
    11df:	00 00                	add    %al,(%rax)
    11e1:	00 00                	add    %al,(%rax)
    11e3:	e4 52                	in     $0x52,%al
    11e5:	10 00                	adc    %al,(%rax)
    11e7:	00 80 ff ff 66 02    	add    %al,0x266ffff(%rax)
    11ed:	00 00                	add    %al,(%rax)
    11ef:	00 00                	add    %al,(%rax)
    11f1:	00 00                	add    %al,(%rax)
    11f3:	c2 07 00             	ret    $0x7
    11f6:	00 01                	add    %al,(%rcx)
    11f8:	01 06                	add    %eax,(%rsi)
    11fa:	f2 00 00             	repnz add %al,(%rax)
    11fd:	00 01                	add    %al,(%rcx)
    11ff:	02 05 94 01 00 00    	add    0x194(%rip),%al        # 1399 <OLDSS+0x12e1>
    1205:	0b 04 05 69 6e 74 00 	or     0x746e69(,%rax,1),%eax
    120c:	01 08                	add    %ecx,(%rax)
    120e:	05 b5 01 00 00       	add    $0x1b5,%eax
    1213:	03 52 02             	add    0x2(%rdx),%edx
    1216:	00 00                	add    %al,(%rax)
    1218:	02 06                	add    (%rsi),%al
    121a:	17                   	(bad)  
    121b:	56                   	push   %rsi
    121c:	00 00                	add    %al,(%rax)
    121e:	00 01                	add    %al,(%rcx)
    1220:	01 08                	add    %ecx,(%rax)
    1222:	f0 00 00             	lock add %al,(%rax)
    1225:	00 01                	add    %al,(%rcx)
    1227:	02 07                	add    (%rdi),%al
    1229:	24 00                	and    $0x0,%al
    122b:	00 00                	add    %al,(%rax)
    122d:	03 ac 01 00 00 02 08 	add    0x8020000(%rcx,%rax,1),%ebp
    1234:	16                   	(bad)  
    1235:	70 00                	jo     1237 <OLDSS+0x117f>
    1237:	00 00                	add    %al,(%rax)
    1239:	01 04 07             	add    %eax,(%rdi,%rax,1)
    123c:	03 01                	add    (%rcx),%eax
    123e:	00 00                	add    %al,(%rax)
    1240:	01 08                	add    %ecx,(%rax)
    1242:	07                   	(bad)  
    1243:	fe 00                	incb   (%rax)
    1245:	00 00                	add    %al,(%rax)
    1247:	05 0b 00 00 00       	add    $0xb,%eax
    124c:	03 08                	add    (%rax),%ecx
    124e:	0a 64 00 00          	or     0x0(%rax,%rax,1),%ah
    1252:	00 09                	add    %cl,(%rcx)
    1254:	03 e8                	add    %eax,%ebp
    1256:	02 11                	add    (%rcx),%dl
    1258:	00 00                	add    %al,(%rax)
    125a:	80 ff ff             	cmp    $0xff,%bh
    125d:	05 10 01 00 00       	add    $0x110,%eax
    1262:	03 09                	add    (%rcx),%ecx
    1264:	0a 64 00 00          	or     0x0(%rax,%rax,1),%ah
    1268:	00 09                	add    %cl,(%rcx)
    126a:	03 ec                	add    %esp,%ebp
    126c:	02 11                	add    (%rcx),%dl
    126e:	00 00                	add    %al,(%rax)
    1270:	80 ff ff             	cmp    $0xff,%bh
    1273:	07                   	(bad)  
    1274:	20 04 04             	and    %al,(%rsp,%rax,1)
    1277:	f4                   	hlt    
    1278:	00 00                	add    %al,(%rax)
    127a:	00 02                	add    %al,(%rdx)
    127c:	1a 01                	sbb    (%rcx),%al
    127e:	00 00                	add    %al,(%rax)
    1280:	04 06                	add    $0x6,%al
    1282:	0f 70 00 00          	pshufw $0x0,(%rax),%mm0
    1286:	00 00                	add    %al,(%rax)
    1288:	02 5c 01 00          	add    0x0(%rcx,%rax,1),%bl
    128c:	00 04 07             	add    %al,(%rdi,%rax,1)
    128f:	0f 70 00 00          	pshufw $0x0,(%rax),%mm0
    1293:	00 04 02             	add    %al,(%rdx,%rax,1)
    1296:	c8 01 00 00          	enter  $0x1,$0x0
    129a:	04 08                	add    $0x8,%al
    129c:	0f 70 00 00          	pshufw $0x0,(%rax),%mm0
    12a0:	00 08                	add    %cl,(%rax)
    12a2:	02 4c 01 00          	add    0x0(%rcx,%rax,1),%cl
    12a6:	00 04 09             	add    %al,(%rcx,%rcx,1)
    12a9:	10 77 00             	adc    %dh,0x0(%rdi)
    12ac:	00 00                	add    %al,(%rax)
    12ae:	10 02                	adc    %al,(%rdx)
    12b0:	6f                   	outsl  %ds:(%rsi),(%dx)
    12b1:	01 00                	add    %eax,(%rax)
    12b3:	00 04 0a             	add    %al,(%rdx,%rcx,1)
    12b6:	10 77 00             	adc    %dh,0x0(%rdi)
    12b9:	00 00                	add    %al,(%rax)
    12bb:	18 00                	sbb    %al,(%rax)
    12bd:	03 88 01 00 00 04    	add    0x4000001(%rax),%ecx
    12c3:	0b 02                	or     (%rdx),%eax
    12c5:	aa                   	stos   %al,%es:(%rdi)
    12c6:	00 00                	add    %al,(%rax)
    12c8:	00 07                	add    %al,(%rdi)
    12ca:	04 05                	add    $0x5,%al
    12cc:	07                   	(bad)  
    12cd:	3d 01 00 00 02       	cmp    $0x2000001,%eax
    12d2:	9b                   	fwait
    12d3:	02 00                	add    (%rax),%al
    12d5:	00 05 09 0d 4a 00    	add    %al,0x4a0d09(%rip)        # 4a1fe4 <OLDSS+0x4a1f2c>
    12db:	00 00                	add    %al,(%rax)
    12dd:	00 02                	add    %al,(%rdx)
    12df:	db 02                	fildl  (%rdx)
    12e1:	00 00                	add    %al,(%rax)
    12e3:	05 0a 0d 4a 00       	add    $0x4a0d0a,%eax
    12e8:	00 00                	add    %al,(%rax)
    12ea:	01 0c 52             	add    %ecx,(%rdx,%rdx,2)
    12ed:	65 64 00 05 0b 0d 4a 	gs add %al,%fs:0x4a0d0b(%rip)        # 4a2000 <OLDSS+0x4a1f48>
    12f4:	00 
    12f5:	00 00                	add    %al,(%rax)
    12f7:	02 02                	add    (%rdx),%al
    12f9:	02 02                	add    (%rdx),%al
    12fb:	00 00                	add    %al,(%rax)
    12fd:	05 0c 0d 4a 00       	add    $0x4a0d0c,%eax
    1302:	00 00                	add    %al,(%rax)
    1304:	03 00                	add    (%rax),%eax
    1306:	03 f3                	add    %ebx,%esi
    1308:	02 00                	add    (%rax),%al
    130a:	00 05 0d 02 00 01    	add    %al,0x100020d(%rip)        # 100151d <OLDSS+0x1001465>
    1310:	00 00                	add    %al,(%rax)
    1312:	05 37 00 00 00       	add    $0x37,%eax
    1317:	05 1a 0e 5f 01       	add    $0x15f0e1a,%eax
    131c:	00 00                	add    %al,(%rax)
    131e:	09 03                	or     %eax,(%rbx)
    1320:	e0 02                	loopne 1324 <OLDSS+0x126c>
    1322:	11 00                	adc    %eax,(%rax)
    1324:	00 80 ff ff 0d 08    	add    %al,0x80dffff(%rax)
    132a:	f4                   	hlt    
    132b:	00 00                	add    %al,(%rax)
    132d:	00 0e                	add    %cl,(%rsi)
    132f:	68 02 00 00 05       	push   $0x5000002
    1334:	1e                   	(bad)  
    1335:	06                   	(bad)  
    1336:	81 01 00 00 06 64    	addl   $0x64060000,(%rcx)
    133c:	00 00                	add    %al,(%rax)
    133e:	00 06                	add    %al,(%rsi)
    1340:	64 00 00             	add    %al,%fs:(%rax)
    1343:	00 06                	add    %al,(%rsi)
    1345:	3d 01 00 00 00       	cmp    $0x1,%eax
    134a:	0f ff 03             	ud0    (%rbx),%eax
    134d:	00 00                	add    %al,(%rax)
    134f:	01 0e                	add    %ecx,(%rsi)
    1351:	06                   	(bad)  
    1352:	5b                   	pop    %rbx
    1353:	53                   	push   %rbx
    1354:	10 00                	adc    %al,(%rax)
    1356:	00 80 ff ff ef 01    	add    %al,0x1efffff(%rax)
    135c:	00 00                	add    %al,(%rax)
    135e:	00 00                	add    %al,(%rax)
    1360:	00 00                	add    %al,(%rax)
    1362:	01 9c f3 01 00 00 10 	add    %ebx,0x10000001(%rbx,%rsi,8)
    1369:	0a 04 00             	or     (%rax,%rax,1),%al
    136c:	00 01                	add    %al,(%rcx)
    136e:	10 0e                	adc    %cl,(%rsi)
    1370:	f3 01 00             	repz add %eax,(%rax)
    1373:	00 09                	add    %cl,(%rcx)
    1375:	03 80 d1 10 00 00    	add    0x10d1(%rax),%eax
    137b:	80 ff ff             	cmp    $0xff,%bh
    137e:	08 78 00             	or     %bh,0x0(%rax)
    1381:	06                   	(bad)  
    1382:	3c 00                	cmp    $0x0,%al
    1384:	00 00                	add    %al,(%rax)
    1386:	02 91 5c 08 79 00    	add    0x79085c(%rcx),%dl
    138c:	09 3c 00             	or     %edi,(%rax,%rax,1)
    138f:	00 00                	add    %al,(%rax)
    1391:	02 91 58 04 19 54    	add    0x54190458(%rcx),%dl
    1397:	10 00                	adc    %al,(%rax)
    1399:	00 80 ff ff 65 01    	add    %al,0x165ffff(%rax)
    139f:	00 00                	add    %al,(%rax)
    13a1:	04 9c                	add    $0x9c,%al
    13a3:	54                   	push   %rsp
    13a4:	10 00                	adc    %al,(%rax)
    13a6:	00 80 ff ff 65 01    	add    %al,0x165ffff(%rax)
    13ac:	00 00                	add    %al,(%rax)
    13ae:	04 24                	add    $0x24,%al
    13b0:	55                   	push   %rbp
    13b1:	10 00                	adc    %al,(%rax)
    13b3:	00 80 ff ff 65 01    	add    %al,0x165ffff(%rax)
    13b9:	00 00                	add    %al,(%rax)
    13bb:	00 11                	add    %dl,(%rcx)
    13bd:	07                   	(bad)  
    13be:	02 00                	add    (%rax),%al
    13c0:	00 07                	add    %al,(%rdi)
    13c2:	02 00                	add    (%rax),%al
    13c4:	00 09                	add    %cl,(%rcx)
    13c6:	77 00                	ja     13c8 <OLDSS+0x1310>
    13c8:	00 00                	add    %al,(%rax)
    13ca:	09 77 00             	or     %esi,0x0(%rdi)
    13cd:	00 00                	add    %al,(%rax)
    13cf:	00 01                	add    %al,(%rcx)
    13d1:	01 06                	add    %eax,(%rsi)
    13d3:	f9                   	stc    
    13d4:	00 00                	add    %al,(%rax)
    13d6:	00 12                	add    %dl,(%rdx)
    13d8:	00 00                	add    %al,(%rax)
    13da:	00 00                	add    %al,(%rax)
    13dc:	01 07                	add    %eax,(%rdi)
    13de:	06                   	(bad)  
    13df:	e4 52                	in     $0x52,%al
    13e1:	10 00                	adc    %al,(%rax)
    13e3:	00 80 ff ff 77 00    	add    %al,0x77ffff(%rax)
    13e9:	00 00                	add    %al,(%rax)
    13eb:	00 00                	add    %al,(%rax)
    13ed:	00 00                	add    %al,(%rax)
    13ef:	01 9c 04 58 53 10 00 	add    %ebx,0x105358(%rsp,%rax,1)
    13f6:	00 80 ff ff 81 01    	add    %al,0x181ffff(%rax)
    13fc:	00 00                	add    %al,(%rax)
    13fe:	00 00                	add    %al,(%rax)
    1400:	2a 00                	sub    (%rax),%al
    1402:	00 00                	add    %al,(%rax)
    1404:	02 00                	add    (%rax),%al
    1406:	01 07                	add    %eax,(%rdi)
    1408:	00 00                	add    %al,(%rax)
    140a:	08 01                	or     %al,(%rcx)
    140c:	ac                   	lods   %ds:(%rsi),%al
    140d:	08 00                	or     %al,(%rax)
    140f:	00 50 55             	add    %dl,0x55(%rax)
    1412:	10 00                	adc    %al,(%rax)
    1414:	00 80 ff ff 50 95    	add    %al,-0x6aaf0001(%rax)
    141a:	10 00                	adc    %al,(%rax)
    141c:	00 80 ff ff 11 04    	add    %al,0x411ffff(%rax)
    1422:	00 00                	add    %al,(%rax)
    1424:	23 04 00             	and    (%rax,%rax,1),%eax
    1427:	00 4b 04             	add    %cl,0x4(%rbx)
    142a:	00 00                	add    %al,(%rax)
    142c:	01 80 16 03 00 00    	add    %eax,0x316(%rax)
    1432:	05 00 01 08 15       	add    $0x15080100,%eax
    1437:	07                   	(bad)  
    1438:	00 00                	add    %al,(%rax)
    143a:	0c 45                	or     $0x45,%al
    143c:	00 00                	add    %al,(%rax)
    143e:	00 1d 66 01 00 00    	add    %bl,0x166(%rip)        # 15aa <OLDSS+0x14f2>
    1444:	00 00                	add    %al,(%rax)
    1446:	00 00                	add    %al,(%rax)
    1448:	50                   	push   %rax
    1449:	95                   	xchg   %eax,%ebp
    144a:	10 00                	adc    %al,(%rax)
    144c:	00 80 ff ff 3f 02    	add    %al,0x23fffff(%rax)
    1452:	00 00                	add    %al,(%rax)
    1454:	00 00                	add    %al,(%rax)
    1456:	00 00                	add    %al,(%rax)
    1458:	67 09 00             	or     %eax,(%eax)
    145b:	00 03                	add    %al,(%rbx)
    145d:	01 06                	add    %eax,(%rsi)
    145f:	f2 00 00             	repnz add %al,(%rax)
    1462:	00 03                	add    %al,(%rbx)
    1464:	02 05 94 01 00 00    	add    0x194(%rip),%al        # 15fe <OLDSS+0x1546>
    146a:	0d 04 05 69 6e       	or     $0x6e690504,%eax
    146f:	74 00                	je     1471 <OLDSS+0x13b9>
    1471:	03 08                	add    (%rax),%ecx
    1473:	05 b5 01 00 00       	add    $0x1b5,%eax
    1478:	04 52                	add    $0x52,%al
    147a:	02 00                	add    (%rax),%al
    147c:	00 02                	add    %al,(%rdx)
    147e:	06                   	(bad)  
    147f:	17                   	(bad)  
    1480:	56                   	push   %rsi
    1481:	00 00                	add    %al,(%rax)
    1483:	00 03                	add    %al,(%rbx)
    1485:	01 08                	add    %ecx,(%rax)
    1487:	f0 00 00             	lock add %al,(%rax)
    148a:	00 04 22             	add    %al,(%rdx,%riz,1)
    148d:	05 00 00 02 07       	add    $0x7020000,%eax
    1492:	18 69 00             	sbb    %ch,0x0(%rcx)
    1495:	00 00                	add    %al,(%rax)
    1497:	03 02                	add    (%rdx),%eax
    1499:	07                   	(bad)  
    149a:	24 00                	and    $0x0,%al
    149c:	00 00                	add    %al,(%rax)
    149e:	04 ac                	add    $0xac,%al
    14a0:	01 00                	add    %eax,(%rax)
    14a2:	00 02                	add    %al,(%rdx)
    14a4:	08 16                	or     %dl,(%rsi)
    14a6:	7c 00                	jl     14a8 <OLDSS+0x13f0>
    14a8:	00 00                	add    %al,(%rax)
    14aa:	03 04 07             	add    (%rdi,%rax,1),%eax
    14ad:	03 01                	add    (%rcx),%eax
    14af:	00 00                	add    %al,(%rax)
    14b1:	04 5f                	add    $0x5f,%al
    14b3:	02 00                	add    (%rax),%al
    14b5:	00 02                	add    %al,(%rdx)
    14b7:	09 17                	or     %edx,(%rdi)
    14b9:	8f 00                	pop    (%rax)
    14bb:	00 00                	add    %al,(%rax)
    14bd:	03 08                	add    (%rax),%ecx
    14bf:	07                   	(bad)  
    14c0:	fe 00                	incb   (%rax)
    14c2:	00 00                	add    %al,(%rax)
    14c4:	06                   	(bad)  
    14c5:	10 03                	adc    %al,(%rbx)
    14c7:	f9                   	stc    
    14c8:	00 00                	add    %al,(%rax)
    14ca:	00 02                	add    %al,(%rdx)
    14cc:	57                   	push   %rdi
    14cd:	04 00                	add    $0x0,%al
    14cf:	00 03                	add    %al,(%rbx)
    14d1:	06                   	(bad)  
    14d2:	0d 5d 00 00 00       	or     $0x5d,%eax
    14d7:	00 02                	add    %al,(%rdx)
    14d9:	19 05 00 00 03 07    	sbb    %eax,0x7030000(%rip)        # 70314df <OLDSS+0x7031427>
    14df:	0d 5d 00 00 00       	or     $0x5d,%eax
    14e4:	02 0e                	add    (%rsi),%cl
    14e6:	69 73 74 00 03 08 0d 	imul   $0xd080300,0x74(%rbx),%esi
    14ed:	4a 00 00             	rex.WX add %al,(%rax)
    14f0:	00 04 02             	add    %al,(%rdx,%rax,1)
    14f3:	a1 04 00 00 03 09 0d 	movabs 0x4a0d0903000004,%eax
    14fa:	4a 00 
    14fc:	00 00                	add    %al,(%rax)
    14fe:	05 02 60 04 00       	add    $0x46002,%eax
    1503:	00 03                	add    %al,(%rbx)
    1505:	0a 0d 5d 00 00 00    	or     0x5d(%rip),%cl        # 1568 <OLDSS+0x14b0>
    150b:	06                   	(bad)  
    150c:	02 69 04             	add    0x4(%rcx),%ch
    150f:	00 00                	add    %al,(%rax)
    1511:	03 0b                	add    (%rbx),%ecx
    1513:	0d 70 00 00 00       	or     $0x70,%eax
    1518:	08 02                	or     %al,(%rdx)
    151a:	c5 04 00             	(bad)
    151d:	00 03                	add    %al,(%rbx)
    151f:	0c 0d                	or     $0xd,%al
    1521:	70 00                	jo     1523 <OLDSS+0x146b>
    1523:	00 00                	add    %al,(%rax)
    1525:	0c 00                	or     $0x0,%al
    1527:	04 ca                	add    $0xca,%al
    1529:	04 00                	add    $0x0,%al
    152b:	00 03                	add    %al,(%rbx)
    152d:	0d 02 96 00 00       	or     $0x9602,%eax
    1532:	00 07                	add    %al,(%rdi)
    1534:	f9                   	stc    
    1535:	00 00                	add    %al,(%rax)
    1537:	00 10                	add    %dl,(%rax)
    1539:	01 00                	add    %eax,(%rax)
    153b:	00 0f                	add    %cl,(%rdi)
    153d:	00 08                	add    %cl,(%rax)
    153f:	ef                   	out    %eax,(%dx)
    1540:	04 00                	add    $0x0,%al
    1542:	00 0f                	add    %cl,(%rdi)
    1544:	1e                   	(bad)  
    1545:	05 01 00 00 07       	add    $0x7000001,%eax
    154a:	7c 00                	jl     154c <OLDSS+0x1494>
    154c:	00 00                	add    %al,(%rax)
    154e:	2b 01                	sub    (%rcx),%eax
    1550:	00 00                	add    %al,(%rax)
    1552:	10 8f 00 00 00 19    	adc    %cl,0x19000000(%rdi)
    1558:	00 08                	add    %cl,(%rax)
    155a:	90                   	nop
    155b:	04 00                	add    $0x0,%al
    155d:	00 10                	add    %dl,(%rax)
    155f:	15 1b 01 00 00       	adc    $0x11b,%eax
    1564:	06                   	(bad)  
    1565:	20 04 7f             	and    %al,(%rdi,%rdi,2)
    1568:	01 00                	add    %eax,(%rax)
    156a:	00 02                	add    %al,(%rdx)
    156c:	1a 01                	sbb    (%rcx),%al
    156e:	00 00                	add    %al,(%rax)
    1570:	04 06                	add    $0x6,%al
    1572:	0f 7c                	(bad)  
    1574:	00 00                	add    %al,(%rax)
    1576:	00 00                	add    %al,(%rax)
    1578:	02 5c 01 00          	add    0x0(%rcx,%rax,1),%bl
    157c:	00 04 07             	add    %al,(%rdi,%rax,1)
    157f:	0f 7c                	(bad)  
    1581:	00 00                	add    %al,(%rax)
    1583:	00 04 02             	add    %al,(%rdx,%rax,1)
    1586:	c8 01 00 00          	enter  $0x1,$0x0
    158a:	04 08                	add    $0x8,%al
    158c:	0f 7c                	(bad)  
    158e:	00 00                	add    %al,(%rax)
    1590:	00 08                	add    %cl,(%rax)
    1592:	02 4c 01 00          	add    0x0(%rcx,%rax,1),%cl
    1596:	00 04 09             	add    %al,(%rcx,%rcx,1)
    1599:	10 8f 00 00 00 10    	adc    %cl,0x10000000(%rdi)
    159f:	02 6f 01             	add    0x1(%rdi),%ch
    15a2:	00 00                	add    %al,(%rax)
    15a4:	04 0a                	add    $0xa,%al
    15a6:	10 8f 00 00 00 18    	adc    %cl,0x18000000(%rdi)
    15ac:	00 04 88             	add    %al,(%rax,%rcx,4)
    15af:	01 00                	add    %eax,(%rax)
    15b1:	00 04 0b             	add    %al,(%rbx,%rcx,1)
    15b4:	02 36                	add    (%rsi),%dh
    15b6:	01 00                	add    %eax,(%rax)
    15b8:	00 11                	add    %dl,(%rcx)
    15ba:	37                   	(bad)  
    15bb:	00 00                	add    %al,(%rax)
    15bd:	00 05 1b 0e a1 01    	add    %al,0x1a10e1b(%rip)        # 1a123de <OLDSS+0x1a12326>
    15c3:	00 00                	add    %al,(%rax)
    15c5:	09 03                	or     %eax,(%rbx)
    15c7:	e0 02                	loopne 15cb <OLDSS+0x1513>
    15c9:	11 00                	adc    %eax,(%rax)
    15cb:	00 80 ff ff 09 7f    	add    %al,0x7f09ffff(%rax)
    15d1:	01 00                	add    %eax,(%rax)
    15d3:	00 0a                	add    %cl,(%rdx)
    15d5:	be 01 00 00 22       	mov    $0x22000001,%esi
    15da:	5e                   	pop    %rsi
    15db:	96                   	xchg   %eax,%esi
    15dc:	10 00                	adc    %al,(%rax)
    15de:	00 80 ff ff 31 01    	add    %al,0x131ffff(%rax)
    15e4:	00 00                	add    %al,(%rax)
    15e6:	00 00                	add    %al,(%rax)
    15e8:	00 00                	add    %al,(%rax)
    15ea:	01 9c 4f 02 00 00 01 	add    %ebx,0x1000002(%rdi,%rcx,2)
    15f1:	0a 05 00 00 22 1e    	or     0x1e220000(%rip),%al        # 1e2215f7 <OLDSS+0x1e22153f>
    15f7:	8f 00                	pop    (%rax)
    15f9:	00 00                	add    %al,(%rax)
    15fb:	02 91 68 01 0f 05    	add    0x50f0168(%rcx),%dl
    1601:	00 00                	add    %al,(%rax)
    1603:	22 31                	and    (%rcx),%dh
    1605:	8f 00                	pop    (%rax)
    1607:	00 00                	add    %al,(%rax)
    1609:	02 91 60 01 14 05    	add    0x5140160(%rcx),%dl
    160f:	00 00                	add    %al,(%rax)
    1611:	22 44 8f 00          	and    0x0(%rdi,%rcx,4),%al
    1615:	00 00                	add    %al,(%rax)
    1617:	02 91 58 01 00 05    	add    0x5000158(%rcx),%dl
    161d:	00 00                	add    %al,(%rax)
    161f:	22 57 8f             	and    -0x71(%rdi),%dl
    1622:	00 00                	add    %al,(%rax)
    1624:	00 02                	add    %al,(%rdx)
    1626:	91                   	xchg   %eax,%ecx
    1627:	50                   	push   %rax
    1628:	01 05 05 00 00 22    	add    %eax,0x22000005(%rip)        # 22001633 <OLDSS+0x2200157b>
    162e:	6a 8f                	push   $0xffffffffffffff8f
    1630:	00 00                	add    %al,(%rax)
    1632:	00 02                	add    %al,(%rdx)
    1634:	91                   	xchg   %eax,%ecx
    1635:	48 01 9c 04 00 00 22 	add    %rbx,0x7d220000(%rsp,%rax,1)
    163c:	7d 
    163d:	8f 00                	pop    (%rax)
    163f:	00 00                	add    %al,(%rax)
    1641:	02 91 40 01 b1 04    	add    0x4b10140(%rcx),%dl
    1647:	00 00                	add    %al,(%rax)
    1649:	23 0f                	and    (%rdi),%ecx
    164b:	8f 00                	pop    (%rax)
    164d:	00 00                	add    %al,(%rax)
    164f:	02 91 00 01 b6 04    	add    0x4b60100(%rcx),%dl
    1655:	00 00                	add    %al,(%rax)
    1657:	23 22                	and    (%rdx),%esp
    1659:	8f 00                	pop    (%rax)
    165b:	00 00                	add    %al,(%rax)
    165d:	02 91 08 01 bb 04    	add    0x4bb0108(%rcx),%dl
    1663:	00 00                	add    %al,(%rax)
    1665:	23 35 8f 00 00 00    	and    0x8f(%rip),%esi        # 16fa <OLDSS+0x1642>
    166b:	02 91 10 01 c0 04    	add    0x4c00110(%rcx),%dl
    1671:	00 00                	add    %al,(%rax)
    1673:	23 48 8f             	and    -0x71(%rax),%ecx
    1676:	00 00                	add    %al,(%rax)
    1678:	00 02                	add    %al,(%rdx)
    167a:	91                   	xchg   %eax,%ecx
    167b:	18 00                	sbb    %al,(%rax)
    167d:	05 2b 05 00 00       	add    $0x52b,%eax
    1682:	1d 3f 96 10 00       	sbb    $0x10963f,%eax
    1687:	00 80 ff ff 1f 00    	add    %al,0x1fffff(%rax)
    168d:	00 00                	add    %al,(%rax)
    168f:	00 00                	add    %al,(%rax)
    1691:	00 00                	add    %al,(%rax)
    1693:	01 9c 05 7f 04 00 00 	add    %ebx,0x47f(%rbp,%rax,1)
    169a:	18 20                	sbb    %ah,(%rax)
    169c:	96                   	xchg   %eax,%esi
    169d:	10 00                	adc    %al,(%rax)
    169f:	00 80 ff ff 1f 00    	add    %al,0x1fffff(%rax)
    16a5:	00 00                	add    %al,(%rax)
    16a7:	00 00                	add    %al,(%rax)
    16a9:	00 00                	add    %al,(%rax)
    16ab:	01 9c 0a 72 04 00 00 	add    %ebx,0x472(%rdx,%rcx,1)
    16b2:	0a 6f 95             	or     -0x6b(%rdi),%ch
    16b5:	10 00                	adc    %al,(%rax)
    16b7:	00 80 ff ff b1 00    	add    %al,0xb1ffff(%rax)
    16bd:	00 00                	add    %al,(%rax)
    16bf:	00 00                	add    %al,(%rax)
    16c1:	00 00                	add    %al,(%rax)
    16c3:	01 9c fa 02 00 00 0b 	add    %ebx,0xb000002(%rdx,%rdi,8)
    16ca:	6e                   	outsb  %ds:(%rsi),(%dx)
    16cb:	00 1b                	add    %bl,(%rbx)
    16cd:	4a 00 00             	rex.WX add %al,(%rax)
    16d0:	00 02                	add    %al,(%rdx)
    16d2:	91                   	xchg   %eax,%ecx
    16d3:	5c                   	pop    %rsp
    16d4:	01 2a                	add    %ebp,(%rdx)
    16d6:	03 00                	add    (%rax),%eax
    16d8:	00 0a                	add    %cl,(%rdx)
    16da:	26 83 00 00          	es addl $0x0,(%rax)
    16de:	00 02                	add    %al,(%rdx)
    16e0:	91                   	xchg   %eax,%ecx
    16e1:	50                   	push   %rax
    16e2:	01 19                	add    %ebx,(%rcx)
    16e4:	05 00 00 0a 36       	add    $0x360a0000,%eax
    16e9:	5d                   	pop    %rbp
    16ea:	00 00                	add    %al,(%rax)
    16ec:	00 02                	add    %al,(%rdx)
    16ee:	91                   	xchg   %eax,%ecx
    16ef:	58                   	pop    %rax
    16f0:	0b 69 73             	or     0x73(%rcx),%ebp
    16f3:	74 00                	je     16f5 <OLDSS+0x163d>
    16f5:	47                   	rex.RXB
    16f6:	4a 00 00             	rex.WX add %al,(%rax)
    16f9:	00 02                	add    %al,(%rdx)
    16fb:	91                   	xchg   %eax,%ecx
    16fc:	4c 01 a1 04 00 00 0a 	add    %r12,0xa000004(%rcx)
    1703:	53                   	push   %rbx
    1704:	4a 00 00             	rex.WX add %al,(%rax)
    1707:	00 02                	add    %al,(%rdx)
    1709:	91                   	xchg   %eax,%ecx
    170a:	48 12 f9             	rex.W adc %cl,%dil
    170d:	04 00                	add    $0x0,%al
    170f:	00 01                	add    %al,(%rcx)
    1711:	0c 0b                	or     $0xb,%al
    1713:	fa                   	cli    
    1714:	02 00                	add    (%rax),%al
    1716:	00 02                	add    %al,(%rdx)
    1718:	91                   	xchg   %eax,%ecx
    1719:	68 13 70 00 01       	push   $0x1007013
    171e:	0e                   	(bad)  
    171f:	1c fc                	sbb    $0xfc,%al
    1721:	02 00                	add    (%rax),%al
    1723:	00 02                	add    %al,(%rdx)
    1725:	91                   	xchg   %eax,%ecx
    1726:	60                   	(bad)  
    1727:	00 14 08             	add    %dl,(%rax,%rcx,1)
    172a:	09 f9                	or     %edi,%ecx
    172c:	00 00                	add    %al,(%rax)
    172e:	00 05 e0 04 00 00    	add    %al,0x4e0(%rip)        # 1c14 <OLDSS+0x1b5c>
    1734:	05 50 95 10 00       	add    $0x109550,%eax
    1739:	00 80 ff ff 1f 00    	add    %al,0x1fffff(%rax)
    173f:	00 00                	add    %al,(%rax)
    1741:	00 00                	add    %al,(%rax)
    1743:	00 00                	add    %al,(%rax)
    1745:	01 9c 00 61 13 00 00 	add    %ebx,0x1361(%rax,%rax,1)
    174c:	05 00 01 08 4d       	add    $0x4d080100,%eax
    1751:	08 00                	or     %al,(%rax)
    1753:	00 18                	add    %bl,(%rax)
    1755:	45 00 00             	add    %r8b,(%r8)
    1758:	00 1d 7d 01 00 00    	add    %bl,0x17d(%rip)        # 18db <OLDSS+0x1823>
    175e:	00 00                	add    %al,(%rax)
    1760:	00 00                	add    %al,(%rax)
    1762:	8f                   	(bad)  
    1763:	97                   	xchg   %eax,%edi
    1764:	10 00                	adc    %al,(%rax)
    1766:	00 80 ff ff d9 27    	add    %al,0x27d9ffff(%rax)
    176c:	00 00                	add    %al,(%rax)
    176e:	00 00                	add    %al,(%rax)
    1770:	00 00                	add    %al,(%rax)
    1772:	59                   	pop    %rcx
    1773:	0a 00                	or     (%rax),%al
    1775:	00 0d 01 06 f2 00    	add    %cl,0xf20601(%rip)        # f21d7c <OLDSS+0xf21cc4>
    177b:	00 00                	add    %al,(%rax)
    177d:	0d 02 05 94 01       	or     $0x1940502,%eax
    1782:	00 00                	add    %al,(%rax)
    1784:	19 04 05 69 6e 74 00 	sbb    %eax,0x746e69(,%rax,1)
    178b:	0d 08 05 b5 01       	or     $0x1b50508,%eax
    1790:	00 00                	add    %al,(%rax)
    1792:	0e                   	(bad)  
    1793:	52                   	push   %rdx
    1794:	02 00                	add    (%rax),%al
    1796:	00 03                	add    %al,(%rbx)
    1798:	06                   	(bad)  
    1799:	17                   	(bad)  
    179a:	5b                   	pop    %rbx
    179b:	00 00                	add    %al,(%rax)
    179d:	00 1a                	add    %bl,(%rdx)
    179f:	4a 00 00             	rex.WX add %al,(%rax)
    17a2:	00 0d 01 08 f0 00    	add    %cl,0xf00801(%rip)        # f01fa9 <OLDSS+0xf01ef1>
    17a8:	00 00                	add    %al,(%rax)
    17aa:	0e                   	(bad)  
    17ab:	22 05 00 00 03 07    	and    0x7030000(%rip),%al        # 70317b1 <OLDSS+0x70316f9>
    17b1:	18 6e 00             	sbb    %ch,0x0(%rsi)
    17b4:	00 00                	add    %al,(%rax)
    17b6:	0d 02 07 24 00       	or     $0x240702,%eax
    17bb:	00 00                	add    %al,(%rax)
    17bd:	0e                   	(bad)  
    17be:	ac                   	lods   %ds:(%rsi),%al
    17bf:	01 00                	add    %eax,(%rax)
    17c1:	00 03                	add    %al,(%rbx)
    17c3:	08 16                	or     %dl,(%rsi)
    17c5:	81 00 00 00 0d 04    	addl   $0x40d0000,(%rax)
    17cb:	07                   	(bad)  
    17cc:	03 01                	add    (%rcx),%eax
    17ce:	00 00                	add    %al,(%rax)
    17d0:	0d 08 07 fe 00       	or     $0xfe0708,%eax
    17d5:	00 00                	add    %al,(%rax)
    17d7:	12 10                	adc    (%rax),%dl
    17d9:	02 04 f2             	add    (%rdx,%rsi,8),%al
    17dc:	00 00                	add    %al,(%rax)
    17de:	00 0c 57             	add    %cl,(%rdi,%rdx,2)
    17e1:	04 00                	add    $0x0,%al
    17e3:	00 02                	add    %al,(%rdx)
    17e5:	06                   	(bad)  
    17e6:	0d 62 00 00 00       	or     $0x62,%eax
    17eb:	00 0c 19             	add    %cl,(%rcx,%rbx,1)
    17ee:	05 00 00 02 07       	add    $0x7020000,%eax
    17f3:	0d 62 00 00 00       	or     $0x62,%eax
    17f8:	02 16                	add    (%rsi),%dl
    17fa:	69 73 74 00 02 08 4a 	imul   $0x4a080200,0x74(%rbx),%esi
    1801:	00 00                	add    %al,(%rax)
    1803:	00 04 0c             	add    %al,(%rsp,%rcx,1)
    1806:	a1 04 00 00 02 09 0d 	movabs 0x4a0d0902000004,%eax
    180d:	4a 00 
    180f:	00 00                	add    %al,(%rax)
    1811:	05 0c 60 04 00       	add    $0x4600c,%eax
    1816:	00 02                	add    %al,(%rdx)
    1818:	0a 0d 62 00 00 00    	or     0x62(%rip),%cl        # 1880 <OLDSS+0x17c8>
    181e:	06                   	(bad)  
    181f:	0c 69                	or     $0x69,%al
    1821:	04 00                	add    $0x0,%al
    1823:	00 02                	add    %al,(%rdx)
    1825:	0b 0d 75 00 00 00    	or     0x75(%rip),%ecx        # 18a0 <OLDSS+0x17e8>
    182b:	08 0c c5 04 00 00 02 	or     %cl,0x2000004(,%rax,8)
    1832:	0c 0d                	or     $0xd,%al
    1834:	75 00                	jne    1836 <OLDSS+0x177e>
    1836:	00 00                	add    %al,(%rax)
    1838:	0c 00                	or     $0x0,%al
    183a:	0e                   	(bad)  
    183b:	ca 04 00             	lret   $0x4
    183e:	00 02                	add    %al,(%rdx)
    1840:	0d 02 8f 00 00       	or     $0x8f02,%eax
    1845:	00 1b                	add    %bl,(%rbx)
    1847:	f2 00 00             	repnz add %al,(%rax)
    184a:	00 09                	add    %cl,(%rcx)
    184c:	01 00                	add    %eax,(%rax)
    184e:	00 1c 00             	add    %bl,(%rax,%rax,1)
    1851:	1d ef 04 00 00       	sbb    $0x4ef,%eax
    1856:	02 0f                	add    (%rdi),%cl
    1858:	1e                   	(bad)  
    1859:	fe 00                	incb   (%rax)
    185b:	00 00                	add    %al,(%rax)
    185d:	12 20                	adc    (%rax),%ah
    185f:	04 04                	add    $0x4,%al
    1861:	5f                   	pop    %rdi
    1862:	01 00                	add    %eax,(%rax)
    1864:	00 0c 1a             	add    %cl,(%rdx,%rbx,1)
    1867:	01 00                	add    %eax,(%rax)
    1869:	00 04 06             	add    %al,(%rsi,%rax,1)
    186c:	0f 81 00 00 00 00    	jno    1872 <OLDSS+0x17ba>
    1872:	0c 5c                	or     $0x5c,%al
    1874:	01 00                	add    %eax,(%rax)
    1876:	00 04 07             	add    %al,(%rdi,%rax,1)
    1879:	0f 81 00 00 00 04    	jno    400187f <OLDSS+0x40017c7>
    187f:	0c c8                	or     $0xc8,%al
    1881:	01 00                	add    %eax,(%rax)
    1883:	00 04 08             	add    %al,(%rax,%rcx,1)
    1886:	0f 81 00 00 00 08    	jno    800188c <OLDSS+0x80017d4>
    188c:	0c 4c                	or     $0x4c,%al
    188e:	01 00                	add    %eax,(%rax)
    1890:	00 04 09             	add    %al,(%rcx,%rcx,1)
    1893:	10 88 00 00 00 10    	adc    %cl,0x10000000(%rax)
    1899:	0c 6f                	or     $0x6f,%al
    189b:	01 00                	add    %eax,(%rax)
    189d:	00 04 0a             	add    %al,(%rdx,%rcx,1)
    18a0:	10 88 00 00 00 18    	adc    %cl,0x18000000(%rax)
    18a6:	00 0e                	add    %cl,(%rsi)
    18a8:	88 01                	mov    %al,(%rcx)
    18aa:	00 00                	add    %al,(%rax)
    18ac:	04 0b                	add    $0xb,%al
    18ae:	02 15 01 00 00 12    	add    0x12000001(%rip),%dl        # 120018b5 <OLDSS+0x120017fd>
    18b4:	04 05                	add    $0x5,%al
    18b6:	07                   	(bad)  
    18b7:	a7                   	cmpsl  %es:(%rdi),%ds:(%rsi)
    18b8:	01 00                	add    %eax,(%rax)
    18ba:	00 0c 9b             	add    %cl,(%rbx,%rbx,4)
    18bd:	02 00                	add    (%rax),%al
    18bf:	00 05 09 0d 4a 00    	add    %al,0x4a0d09(%rip)        # 4a25ce <OLDSS+0x4a2516>
    18c5:	00 00                	add    %al,(%rax)
    18c7:	00 0c db             	add    %cl,(%rbx,%rbx,8)
    18ca:	02 00                	add    (%rax),%al
    18cc:	00 05 0a 0d 4a 00    	add    %al,0x4a0d0a(%rip)        # 4a25dc <OLDSS+0x4a2524>
    18d2:	00 00                	add    %al,(%rax)
    18d4:	01 16                	add    %edx,(%rsi)
    18d6:	52                   	push   %rdx
    18d7:	65 64 00 05 0b 4a 00 	gs add %al,%fs:0x4a0b(%rip)        # 62ea <OLDSS+0x6232>
    18de:	00 
    18df:	00 02                	add    %al,(%rdx)
    18e1:	0c 02                	or     $0x2,%al
    18e3:	02 00                	add    (%rax),%al
    18e5:	00 05 0c 0d 4a 00    	add    %al,0x4a0d0c(%rip)        # 4a25f7 <OLDSS+0x4a253f>
    18eb:	00 00                	add    %al,(%rax)
    18ed:	03 00                	add    (%rax),%eax
    18ef:	0e                   	(bad)  
    18f0:	f3 02 00             	repz add (%rax),%al
    18f3:	00 05 0d 02 6b 01    	add    %al,0x16b020d(%rip)        # 16b1b06 <OLDSS+0x16b1a4e>
    18f9:	00 00                	add    %al,(%rax)
    18fb:	1e                   	(bad)  
    18fc:	37                   	(bad)  
    18fd:	00 00                	add    %al,(%rax)
    18ff:	00 05 1b 0e c9 01    	add    %al,0x1c90e1b(%rip)        # 1c92720 <OLDSS+0x1c92668>
    1905:	00 00                	add    %al,(%rax)
    1907:	09 03                	or     %eax,(%rbx)
    1909:	e0 02                	loopne 190d <OLDSS+0x1855>
    190b:	11 00                	adc    %eax,(%rax)
    190d:	00 80 ff ff 13 5f    	add    %al,0x5f13ffff(%rax)
    1913:	01 00                	add    %eax,(%rax)
    1915:	00 07                	add    %al,(%rdi)
    1917:	be 06 00 00 16       	mov    $0x16000006,%esi
    191c:	da 01                	fiaddl (%rcx)
    191e:	00 00                	add    %al,(%rax)
    1920:	04 00                	add    $0x0,%al
    1922:	07                   	(bad)  
    1923:	3f                   	(bad)  
    1924:	05 00 00 15 e6       	add    $0xe6150000,%eax
    1929:	01 00                	add    %eax,(%rax)
    192b:	00 04 00             	add    %al,(%rax,%rax,1)
    192e:	07                   	(bad)  
    192f:	51                   	push   %rcx
    1930:	05 00 00 14 f2       	add    $0xf2140000,%eax
    1935:	01 00                	add    %eax,(%rax)
    1937:	00 04 00             	add    %al,(%rax,%rax,1)
    193a:	07                   	(bad)  
    193b:	14 06                	adc    $0x6,%al
    193d:	00 00                	add    %al,(%rax)
    193f:	13 fe                	adc    %esi,%edi
    1941:	01 00                	add    %eax,(%rax)
    1943:	00 04 00             	add    %al,(%rax,%rax,1)
    1946:	07                   	(bad)  
    1947:	4a 06                	rex.WX (bad) 
    1949:	00 00                	add    %al,(%rax)
    194b:	12 0a                	adc    (%rdx),%cl
    194d:	02 00                	add    (%rax),%al
    194f:	00 04 00             	add    %al,(%rax,%rax,1)
    1952:	07                   	(bad)  
    1953:	33 06                	xor    (%rsi),%eax
    1955:	00 00                	add    %al,(%rax)
    1957:	11 16                	adc    %edx,(%rsi)
    1959:	02 00                	add    (%rax),%al
    195b:	00 04 00             	add    %al,(%rax,%rax,1)
    195e:	07                   	(bad)  
    195f:	ac                   	lods   %ds:(%rsi),%al
    1960:	05 00 00 10 22       	add    $0x22100000,%eax
    1965:	02 00                	add    (%rax),%al
    1967:	00 04 00             	add    %al,(%rax,%rax,1)
    196a:	07                   	(bad)  
    196b:	6c                   	insb   (%dx),%es:(%rdi)
    196c:	05 00 00 0f 2e       	add    $0x2e0f0000,%eax
    1971:	02 00                	add    (%rax),%al
    1973:	00 04 00             	add    %al,(%rax,%rax,1)
    1976:	07                   	(bad)  
    1977:	99                   	cltd   
    1978:	06                   	(bad)  
    1979:	00 00                	add    %al,(%rax)
    197b:	0e                   	(bad)  
    197c:	3a 02                	cmp    (%rdx),%al
    197e:	00 00                	add    %al,(%rax)
    1980:	04 00                	add    $0x0,%al
    1982:	07                   	(bad)  
    1983:	95                   	xchg   %eax,%ebp
    1984:	05 00 00 0d 46       	add    $0x460d0000,%eax
    1989:	02 00                	add    (%rax),%al
    198b:	00 04 00             	add    %al,(%rax,%rax,1)
    198e:	07                   	(bad)  
    198f:	e1 05                	loope  1996 <OLDSS+0x18de>
    1991:	00 00                	add    %al,(%rax)
    1993:	0c 52                	or     $0x52,%al
    1995:	02 00                	add    (%rax),%al
    1997:	00 04 00             	add    %al,(%rax,%rax,1)
    199a:	07                   	(bad)  
    199b:	89 06                	mov    %eax,(%rsi)
    199d:	00 00                	add    %al,(%rax)
    199f:	0b 5e 02             	or     0x2(%rsi),%ebx
    19a2:	00 00                	add    %al,(%rax)
    19a4:	04 00                	add    $0x0,%al
    19a6:	07                   	(bad)  
    19a7:	cc                   	int3   
    19a8:	05 00 00 0a 6a       	add    $0x6a0a0000,%eax
    19ad:	02 00                	add    (%rax),%al
    19af:	00 04 00             	add    %al,(%rax,%rax,1)
    19b2:	07                   	(bad)  
    19b3:	00 06                	add    %al,(%rsi)
    19b5:	00 00                	add    %al,(%rax)
    19b7:	09 76 02             	or     %esi,0x2(%rsi)
    19ba:	00 00                	add    %al,(%rax)
    19bc:	04 00                	add    $0x0,%al
    19be:	07                   	(bad)  
    19bf:	c2 05 00             	ret    $0x5
    19c2:	00 08                	add    %cl,(%rax)
    19c4:	82                   	(bad)  
    19c5:	02 00                	add    (%rax),%al
    19c7:	00 04 00             	add    %al,(%rax,%rax,1)
    19ca:	07                   	(bad)  
    19cb:	27                   	(bad)  
    19cc:	06                   	(bad)  
    19cd:	00 00                	add    %al,(%rax)
    19cf:	07                   	(bad)  
    19d0:	8e 02                	mov    (%rdx),%es
    19d2:	00 00                	add    %al,(%rax)
    19d4:	04 00                	add    $0x0,%al
    19d6:	07                   	(bad)  
    19d7:	a4                   	movsb  %ds:(%rsi),%es:(%rdi)
    19d8:	05 00 00 06 9a       	add    $0x9a060000,%eax
    19dd:	02 00                	add    (%rax),%al
    19df:	00 04 00             	add    %al,(%rax,%rax,1)
    19e2:	1f                   	(bad)  
    19e3:	6e                   	outsb  %ds:(%rsi),(%dx)
    19e4:	6d                   	insl   (%dx),%es:(%rdi)
    19e5:	69 00 06 05 06 a8    	imul   $0xa8060506,(%rax),%eax
    19eb:	02 00                	add    (%rax),%al
    19ed:	00 04 00             	add    %al,(%rax,%rax,1)
    19f0:	07                   	(bad)  
    19f1:	41 06                	rex.B (bad) 
    19f3:	00 00                	add    %al,(%rax)
    19f5:	04 b4                	add    $0xb4,%al
    19f7:	02 00                	add    (%rax),%al
    19f9:	00 04 00             	add    %al,(%rax,%rax,1)
    19fc:	07                   	(bad)  
    19fd:	5b                   	pop    %rbx
    19fe:	06                   	(bad)  
    19ff:	00 00                	add    %al,(%rax)
    1a01:	03 c0                	add    %eax,%eax
    1a03:	02 00                	add    (%rax),%al
    1a05:	00 04 00             	add    %al,(%rax,%rax,1)
    1a08:	20 15 02 00 00 05    	and    %dl,0x5000002(%rip)        # 5001a10 <OLDSS+0x5001958>
    1a0e:	29 0a                	sub    %ecx,(%rdx)
    1a10:	75 00                	jne    1a12 <OLDSS+0x195a>
    1a12:	00 00                	add    %al,(%rax)
    1a14:	e6 02                	out    %al,$0x2
    1a16:	00 00                	add    %al,(%rax)
    1a18:	11 75 00             	adc    %esi,0x0(%rbp)
    1a1b:	00 00                	add    %al,(%rax)
    1a1d:	11 75 00             	adc    %esi,0x0(%rbp)
    1a20:	00 00                	add    %al,(%rax)
    1a22:	11 a7 01 00 00 11    	adc    %esp,0x11000001(%rdi)
    1a28:	e6 02                	out    %al,$0x2
    1a2a:	00 00                	add    %al,(%rax)
    1a2c:	04 00                	add    $0x0,%al
    1a2e:	13 56 00             	adc    0x0(%rsi),%edx
    1a31:	00 00                	add    %al,(%rax)
    1a33:	21 9e 01 00 00 01    	and    %ebx,0x1000001(%rsi)
    1a39:	09 01                	or     %eax,(%rcx)
    1a3b:	06                   	(bad)  
    1a3c:	ea                   	(bad)  
    1a3d:	b0 10                	mov    $0x10,%al
    1a3f:	00 00                	add    %al,(%rax)
    1a41:	80 ff ff             	cmp    $0xff,%bh
    1a44:	7e 0e                	jle    1a54 <OLDSS+0x199c>
    1a46:	00 00                	add    %al,(%rax)
    1a48:	00 00                	add    %al,(%rax)
    1a4a:	00 00                	add    %al,(%rax)
    1a4c:	01 9c 6d 0a 00 00 08 	add    %ebx,0x800000a(%rbp,%rbp,2)
    1a53:	e4 12                	in     $0x12,%al
    1a55:	00 00                	add    %al,(%rax)
    1a57:	33 b1 10 00 00 80    	xor    -0x7ffffff0(%rcx),%esi
    1a5d:	ff                   	(bad)  
    1a5e:	ff                   	(bad)  
    1a5f:	bd 00 00 00 00       	mov    $0x0,%ebp
    1a64:	00 00                	add    %al,(%rax)
    1a66:	00 0b                	add    %cl,(%rbx)
    1a68:	01 69 03             	add    %ebp,0x3(%rcx)
    1a6b:	00 00                	add    %al,(%rax)
    1a6d:	01 03                	add    %eax,(%rbx)
    1a6f:	13 00                	adc    (%rax),%eax
    1a71:	00 03                	add    %al,(%rbx)
    1a73:	91                   	xchg   %eax,%ecx
    1a74:	80 7b 01 f8          	cmpb   $0xf8,0x1(%rbx)
    1a78:	12 00                	adc    (%rax),%al
    1a7a:	00 03                	add    %al,(%rbx)
    1a7c:	91                   	xchg   %eax,%ecx
    1a7d:	8b 7b 01             	mov    0x1(%rbx),%edi
    1a80:	ef                   	out    %eax,(%dx)
    1a81:	12 00                	adc    (%rax),%al
    1a83:	00 03                	add    %al,(%rbx)
    1a85:	91                   	xchg   %eax,%ecx
    1a86:	8c 7b 05             	mov    %?,0x5(%rbx)
    1a89:	0e                   	(bad)  
    1a8a:	13 00                	adc    (%rax),%eax
    1a8c:	00 33                	add    %dh,(%rbx)
    1a8e:	b1 10                	mov    $0x10,%cl
    1a90:	00 00                	add    %al,(%rax)
    1a92:	80 ff ff             	cmp    $0xff,%bh
    1a95:	96                   	xchg   %eax,%esi
    1a96:	00 00                	add    %al,(%rax)
    1a98:	00 00                	add    %al,(%rax)
    1a9a:	00 00                	add    %al,(%rax)
    1a9c:	00 03                	add    %al,(%rbx)
    1a9e:	0f 13 00             	movlps %xmm0,(%rax)
    1aa1:	00 03                	add    %al,(%rbx)
    1aa3:	91                   	xchg   %eax,%ecx
    1aa4:	f8                   	clc    
    1aa5:	7a 03                	jp     1aaa <OLDSS+0x19f2>
    1aa7:	19 13                	sbb    %edx,(%rbx)
    1aa9:	00 00                	add    %al,(%rax)
    1aab:	03 91 f0 7a 00 00    	add    0x7af0(%rcx),%edx
    1ab1:	08 e4                	or     %ah,%ah
    1ab3:	12 00                	adc    (%rax),%al
    1ab5:	00 f0                	add    %dh,%al
    1ab7:	b1 10                	mov    $0x10,%cl
    1ab9:	00 00                	add    %al,(%rax)
    1abb:	80 ff ff             	cmp    $0xff,%bh
    1abe:	bd 00 00 00 00       	mov    $0x0,%ebp
    1ac3:	00 00                	add    %al,(%rax)
    1ac5:	00 0c 01             	add    %cl,(%rcx,%rax,1)
    1ac8:	c8 03 00 00          	enter  $0x3,$0x0
    1acc:	01 03                	add    %eax,(%rbx)
    1ace:	13 00                	adc    (%rax),%eax
    1ad0:	00 03                	add    %al,(%rbx)
    1ad2:	91                   	xchg   %eax,%ecx
    1ad3:	a0 7b 01 f8 12 00 00 	movabs 0x9103000012f8017b,%al
    1ada:	03 91 
    1adc:	ab                   	stos   %eax,%es:(%rdi)
    1add:	7b 01                	jnp    1ae0 <OLDSS+0x1a28>
    1adf:	ef                   	out    %eax,(%dx)
    1ae0:	12 00                	adc    (%rax),%al
    1ae2:	00 03                	add    %al,(%rbx)
    1ae4:	91                   	xchg   %eax,%ecx
    1ae5:	ac                   	lods   %ds:(%rsi),%al
    1ae6:	7b 05                	jnp    1aed <OLDSS+0x1a35>
    1ae8:	0e                   	(bad)  
    1ae9:	13 00                	adc    (%rax),%eax
    1aeb:	00 f0                	add    %dh,%al
    1aed:	b1 10                	mov    $0x10,%cl
    1aef:	00 00                	add    %al,(%rax)
    1af1:	80 ff ff             	cmp    $0xff,%bh
    1af4:	96                   	xchg   %eax,%esi
    1af5:	00 00                	add    %al,(%rax)
    1af7:	00 00                	add    %al,(%rax)
    1af9:	00 00                	add    %al,(%rax)
    1afb:	00 03                	add    %al,(%rbx)
    1afd:	0f 13 00             	movlps %xmm0,(%rax)
    1b00:	00 03                	add    %al,(%rbx)
    1b02:	91                   	xchg   %eax,%ecx
    1b03:	98                   	cwtl   
    1b04:	7b 03                	jnp    1b09 <OLDSS+0x1a51>
    1b06:	19 13                	sbb    %edx,(%rbx)
    1b08:	00 00                	add    %al,(%rax)
    1b0a:	03 91 90 7b 00 00    	add    0x7b90(%rcx),%edx
    1b10:	08 25 13 00 00 ad    	or     %ah,-0x52ffffed(%rip)        # ffffffffad001b29 <_ebss+0x7fffaceef7c9>
    1b16:	b2 10                	mov    $0x10,%dl
    1b18:	00 00                	add    %al,(%rax)
    1b1a:	80 ff ff             	cmp    $0xff,%bh
    1b1d:	bd 00 00 00 00       	mov    $0x0,%ebp
    1b22:	00 00                	add    %al,(%rax)
    1b24:	00 0d 01 27 04 00    	add    %cl,0x42701(%rip)        # 4422b <OLDSS+0x44173>
    1b2a:	00 01                	add    %al,(%rcx)
    1b2c:	42 13 00             	rex.X adc (%rax),%eax
    1b2f:	00 03                	add    %al,(%rbx)
    1b31:	91                   	xchg   %eax,%ecx
    1b32:	c0 7b 01 37          	sarb   $0x37,0x1(%rbx)
    1b36:	13 00                	adc    (%rax),%eax
    1b38:	00 03                	add    %al,(%rbx)
    1b3a:	91                   	xchg   %eax,%ecx
    1b3b:	cb                   	lret   
    1b3c:	7b 01                	jnp    1b3f <OLDSS+0x1a87>
    1b3e:	2e 13 00             	cs adc (%rax),%eax
    1b41:	00 03                	add    %al,(%rbx)
    1b43:	91                   	xchg   %eax,%ecx
    1b44:	cc                   	int3   
    1b45:	7b 05                	jnp    1b4c <OLDSS+0x1a94>
    1b47:	4d 13 00             	adc    (%r8),%r8
    1b4a:	00 ad b2 10 00 00    	add    %ch,0x10b2(%rbp)
    1b50:	80 ff ff             	cmp    $0xff,%bh
    1b53:	96                   	xchg   %eax,%esi
    1b54:	00 00                	add    %al,(%rax)
    1b56:	00 00                	add    %al,(%rax)
    1b58:	00 00                	add    %al,(%rax)
    1b5a:	00 03                	add    %al,(%rbx)
    1b5c:	4e 13 00             	rex.WRX adc (%rax),%r8
    1b5f:	00 03                	add    %al,(%rbx)
    1b61:	91                   	xchg   %eax,%ecx
    1b62:	b8 7b 03 58 13       	mov    $0x1358037b,%eax
    1b67:	00 00                	add    %al,(%rax)
    1b69:	03 91 b0 7b 00 00    	add    0x7bb0(%rcx),%edx
    1b6f:	08 a1 12 00 00 6a    	or     %ah,0x6a000012(%rcx)
    1b75:	b3 10                	mov    $0x10,%bl
    1b77:	00 00                	add    %al,(%rax)
    1b79:	80 ff ff             	cmp    $0xff,%bh
    1b7c:	bd 00 00 00 00       	mov    $0x0,%ebp
    1b81:	00 00                	add    %al,(%rax)
    1b83:	00 0e                	add    %cl,(%rsi)
    1b85:	01 86 04 00 00 01    	add    %eax,0x1000004(%rsi)
    1b8b:	c0 12 00             	rclb   $0x0,(%rdx)
    1b8e:	00 03                	add    %al,(%rbx)
    1b90:	91                   	xchg   %eax,%ecx
    1b91:	e0 7b                	loopne 1c0e <OLDSS+0x1b56>
    1b93:	01 b5 12 00 00 03    	add    %esi,0x3000012(%rbp)
    1b99:	91                   	xchg   %eax,%ecx
    1b9a:	eb 7b                	jmp    1c17 <OLDSS+0x1b5f>
    1b9c:	01 ac 12 00 00 03 91 	add    %ebp,-0x6efd0000(%rdx,%rdx,1)
    1ba3:	ec                   	in     (%dx),%al
    1ba4:	7b 05                	jnp    1bab <OLDSS+0x1af3>
    1ba6:	cb                   	lret   
    1ba7:	12 00                	adc    (%rax),%al
    1ba9:	00 6a b3             	add    %ch,-0x4d(%rdx)
    1bac:	10 00                	adc    %al,(%rax)
    1bae:	00 80 ff ff 96 00    	add    %al,0x96ffff(%rax)
    1bb4:	00 00                	add    %al,(%rax)
    1bb6:	00 00                	add    %al,(%rax)
    1bb8:	00 00                	add    %al,(%rax)
    1bba:	03 cc                	add    %esp,%ecx
    1bbc:	12 00                	adc    (%rax),%al
    1bbe:	00 03                	add    %al,(%rbx)
    1bc0:	91                   	xchg   %eax,%ecx
    1bc1:	d8 7b 03             	fdivrs 0x3(%rbx)
    1bc4:	d6                   	(bad)  
    1bc5:	12 00                	adc    (%rax),%al
    1bc7:	00 03                	add    %al,(%rbx)
    1bc9:	91                   	xchg   %eax,%ecx
    1bca:	d0 7b 00             	sarb   0x0(%rbx)
    1bcd:	00 08                	add    %cl,(%rax)
    1bcf:	a1 12 00 00 27 b4 10 	movabs 0x10b427000012,%eax
    1bd6:	00 00 
    1bd8:	80 ff ff             	cmp    $0xff,%bh
    1bdb:	bd 00 00 00 00       	mov    $0x0,%ebp
    1be0:	00 00                	add    %al,(%rax)
    1be2:	00 0f                	add    %cl,(%rdi)
    1be4:	01 e5                	add    %esp,%ebp
    1be6:	04 00                	add    $0x0,%al
    1be8:	00 01                	add    %al,(%rcx)
    1bea:	c0 12 00             	rclb   $0x0,(%rdx)
    1bed:	00 03                	add    %al,(%rbx)
    1bef:	91                   	xchg   %eax,%ecx
    1bf0:	80 7c 01 b5 12       	cmpb   $0x12,-0x4b(%rcx,%rax,1)
    1bf5:	00 00                	add    %al,(%rax)
    1bf7:	03 91 8b 7c 01 ac    	add    -0x53fe8375(%rcx),%edx
    1bfd:	12 00                	adc    (%rax),%al
    1bff:	00 03                	add    %al,(%rbx)
    1c01:	91                   	xchg   %eax,%ecx
    1c02:	8c 7c 05 cb          	mov    %?,-0x35(%rbp,%rax,1)
    1c06:	12 00                	adc    (%rax),%al
    1c08:	00 27                	add    %ah,(%rdi)
    1c0a:	b4 10                	mov    $0x10,%ah
    1c0c:	00 00                	add    %al,(%rax)
    1c0e:	80 ff ff             	cmp    $0xff,%bh
    1c11:	96                   	xchg   %eax,%esi
    1c12:	00 00                	add    %al,(%rax)
    1c14:	00 00                	add    %al,(%rax)
    1c16:	00 00                	add    %al,(%rax)
    1c18:	00 03                	add    %al,(%rbx)
    1c1a:	cc                   	int3   
    1c1b:	12 00                	adc    (%rax),%al
    1c1d:	00 03                	add    %al,(%rbx)
    1c1f:	91                   	xchg   %eax,%ecx
    1c20:	f8                   	clc    
    1c21:	7b 03                	jnp    1c26 <OLDSS+0x1b6e>
    1c23:	d6                   	(bad)  
    1c24:	12 00                	adc    (%rax),%al
    1c26:	00 03                	add    %al,(%rbx)
    1c28:	91                   	xchg   %eax,%ecx
    1c29:	f0 7b 00             	lock jnp 1c2c <OLDSS+0x1b74>
    1c2c:	00 08                	add    %cl,(%rax)
    1c2e:	a1 12 00 00 e4 b4 10 	movabs 0x10b4e4000012,%eax
    1c35:	00 00 
    1c37:	80 ff ff             	cmp    $0xff,%bh
    1c3a:	bd 00 00 00 00       	mov    $0x0,%ebp
    1c3f:	00 00                	add    %al,(%rax)
    1c41:	00 10                	add    %dl,(%rax)
    1c43:	01 44 05 00          	add    %eax,0x0(%rbp,%rax,1)
    1c47:	00 01                	add    %al,(%rcx)
    1c49:	c0 12 00             	rclb   $0x0,(%rdx)
    1c4c:	00 03                	add    %al,(%rbx)
    1c4e:	91                   	xchg   %eax,%ecx
    1c4f:	a0 7c 01 b5 12 00 00 	movabs 0x9103000012b5017c,%al
    1c56:	03 91 
    1c58:	ab                   	stos   %eax,%es:(%rdi)
    1c59:	7c 01                	jl     1c5c <OLDSS+0x1ba4>
    1c5b:	ac                   	lods   %ds:(%rsi),%al
    1c5c:	12 00                	adc    (%rax),%al
    1c5e:	00 03                	add    %al,(%rbx)
    1c60:	91                   	xchg   %eax,%ecx
    1c61:	ac                   	lods   %ds:(%rsi),%al
    1c62:	7c 05                	jl     1c69 <OLDSS+0x1bb1>
    1c64:	cb                   	lret   
    1c65:	12 00                	adc    (%rax),%al
    1c67:	00 e4                	add    %ah,%ah
    1c69:	b4 10                	mov    $0x10,%ah
    1c6b:	00 00                	add    %al,(%rax)
    1c6d:	80 ff ff             	cmp    $0xff,%bh
    1c70:	96                   	xchg   %eax,%esi
    1c71:	00 00                	add    %al,(%rax)
    1c73:	00 00                	add    %al,(%rax)
    1c75:	00 00                	add    %al,(%rax)
    1c77:	00 03                	add    %al,(%rbx)
    1c79:	cc                   	int3   
    1c7a:	12 00                	adc    (%rax),%al
    1c7c:	00 03                	add    %al,(%rbx)
    1c7e:	91                   	xchg   %eax,%ecx
    1c7f:	98                   	cwtl   
    1c80:	7c 03                	jl     1c85 <OLDSS+0x1bcd>
    1c82:	d6                   	(bad)  
    1c83:	12 00                	adc    (%rax),%al
    1c85:	00 03                	add    %al,(%rbx)
    1c87:	91                   	xchg   %eax,%ecx
    1c88:	90                   	nop
    1c89:	7c 00                	jl     1c8b <OLDSS+0x1bd3>
    1c8b:	00 08                	add    %cl,(%rax)
    1c8d:	e4 12                	in     $0x12,%al
    1c8f:	00 00                	add    %al,(%rax)
    1c91:	a1 b5 10 00 00 80 ff 	movabs 0xbdffff80000010b5,%eax
    1c98:	ff bd 
    1c9a:	00 00                	add    %al,(%rax)
    1c9c:	00 00                	add    %al,(%rax)
    1c9e:	00 00                	add    %al,(%rax)
    1ca0:	00 11                	add    %dl,(%rcx)
    1ca2:	01 a3 05 00 00 01    	add    %esp,0x1000005(%rbx)
    1ca8:	03 13                	add    (%rbx),%edx
    1caa:	00 00                	add    %al,(%rax)
    1cac:	03 91 c0 7c 01 f8    	add    -0x7fe8340(%rcx),%edx
    1cb2:	12 00                	adc    (%rax),%al
    1cb4:	00 03                	add    %al,(%rbx)
    1cb6:	91                   	xchg   %eax,%ecx
    1cb7:	cb                   	lret   
    1cb8:	7c 01                	jl     1cbb <OLDSS+0x1c03>
    1cba:	ef                   	out    %eax,(%dx)
    1cbb:	12 00                	adc    (%rax),%al
    1cbd:	00 03                	add    %al,(%rbx)
    1cbf:	91                   	xchg   %eax,%ecx
    1cc0:	cc                   	int3   
    1cc1:	7c 05                	jl     1cc8 <OLDSS+0x1c10>
    1cc3:	0e                   	(bad)  
    1cc4:	13 00                	adc    (%rax),%eax
    1cc6:	00 a1 b5 10 00 00    	add    %ah,0x10b5(%rcx)
    1ccc:	80 ff ff             	cmp    $0xff,%bh
    1ccf:	96                   	xchg   %eax,%esi
    1cd0:	00 00                	add    %al,(%rax)
    1cd2:	00 00                	add    %al,(%rax)
    1cd4:	00 00                	add    %al,(%rax)
    1cd6:	00 03                	add    %al,(%rbx)
    1cd8:	0f 13 00             	movlps %xmm0,(%rax)
    1cdb:	00 03                	add    %al,(%rbx)
    1cdd:	91                   	xchg   %eax,%ecx
    1cde:	b8 7c 03 19 13       	mov    $0x1319037c,%eax
    1ce3:	00 00                	add    %al,(%rax)
    1ce5:	03 91 b0 7c 00 00    	add    0x7cb0(%rcx),%edx
    1ceb:	08 e4                	or     %ah,%ah
    1ced:	12 00                	adc    (%rax),%al
    1cef:	00 5e b6             	add    %bl,-0x4a(%rsi)
    1cf2:	10 00                	adc    %al,(%rax)
    1cf4:	00 80 ff ff bd 00    	add    %al,0xbdffff(%rax)
    1cfa:	00 00                	add    %al,(%rax)
    1cfc:	00 00                	add    %al,(%rax)
    1cfe:	00 00                	add    %al,(%rax)
    1d00:	12 01                	adc    (%rcx),%al
    1d02:	02 06                	add    (%rsi),%al
    1d04:	00 00                	add    %al,(%rax)
    1d06:	01 03                	add    %eax,(%rbx)
    1d08:	13 00                	adc    (%rax),%eax
    1d0a:	00 03                	add    %al,(%rbx)
    1d0c:	91                   	xchg   %eax,%ecx
    1d0d:	e0 7c                	loopne 1d8b <OLDSS+0x1cd3>
    1d0f:	01 f8                	add    %edi,%eax
    1d11:	12 00                	adc    (%rax),%al
    1d13:	00 03                	add    %al,(%rbx)
    1d15:	91                   	xchg   %eax,%ecx
    1d16:	eb 7c                	jmp    1d94 <OLDSS+0x1cdc>
    1d18:	01 ef                	add    %ebp,%edi
    1d1a:	12 00                	adc    (%rax),%al
    1d1c:	00 03                	add    %al,(%rbx)
    1d1e:	91                   	xchg   %eax,%ecx
    1d1f:	ec                   	in     (%dx),%al
    1d20:	7c 05                	jl     1d27 <OLDSS+0x1c6f>
    1d22:	0e                   	(bad)  
    1d23:	13 00                	adc    (%rax),%eax
    1d25:	00 5e b6             	add    %bl,-0x4a(%rsi)
    1d28:	10 00                	adc    %al,(%rax)
    1d2a:	00 80 ff ff 96 00    	add    %al,0x96ffff(%rax)
    1d30:	00 00                	add    %al,(%rax)
    1d32:	00 00                	add    %al,(%rax)
    1d34:	00 00                	add    %al,(%rax)
    1d36:	03 0f                	add    (%rdi),%ecx
    1d38:	13 00                	adc    (%rax),%eax
    1d3a:	00 03                	add    %al,(%rbx)
    1d3c:	91                   	xchg   %eax,%ecx
    1d3d:	d8 7c 03 19          	fdivrs 0x19(%rbx,%rax,1)
    1d41:	13 00                	adc    (%rax),%eax
    1d43:	00 03                	add    %al,(%rbx)
    1d45:	91                   	xchg   %eax,%ecx
    1d46:	d0 7c 00 00          	sarb   0x0(%rax,%rax,1)
    1d4a:	08 e4                	or     %ah,%ah
    1d4c:	12 00                	adc    (%rax),%al
    1d4e:	00 1b                	add    %bl,(%rbx)
    1d50:	b7 10                	mov    $0x10,%bh
    1d52:	00 00                	add    %al,(%rax)
    1d54:	80 ff ff             	cmp    $0xff,%bh
    1d57:	bd 00 00 00 00       	mov    $0x0,%ebp
    1d5c:	00 00                	add    %al,(%rax)
    1d5e:	00 13                	add    %dl,(%rbx)
    1d60:	01 61 06             	add    %esp,0x6(%rcx)
    1d63:	00 00                	add    %al,(%rax)
    1d65:	01 03                	add    %eax,(%rbx)
    1d67:	13 00                	adc    (%rax),%eax
    1d69:	00 03                	add    %al,(%rbx)
    1d6b:	91                   	xchg   %eax,%ecx
    1d6c:	80 7d 01 f8          	cmpb   $0xf8,0x1(%rbp)
    1d70:	12 00                	adc    (%rax),%al
    1d72:	00 03                	add    %al,(%rbx)
    1d74:	91                   	xchg   %eax,%ecx
    1d75:	8b 7d 01             	mov    0x1(%rbp),%edi
    1d78:	ef                   	out    %eax,(%dx)
    1d79:	12 00                	adc    (%rax),%al
    1d7b:	00 03                	add    %al,(%rbx)
    1d7d:	91                   	xchg   %eax,%ecx
    1d7e:	8c 7d 05             	mov    %?,0x5(%rbp)
    1d81:	0e                   	(bad)  
    1d82:	13 00                	adc    (%rax),%eax
    1d84:	00 1b                	add    %bl,(%rbx)
    1d86:	b7 10                	mov    $0x10,%bh
    1d88:	00 00                	add    %al,(%rax)
    1d8a:	80 ff ff             	cmp    $0xff,%bh
    1d8d:	96                   	xchg   %eax,%esi
    1d8e:	00 00                	add    %al,(%rax)
    1d90:	00 00                	add    %al,(%rax)
    1d92:	00 00                	add    %al,(%rax)
    1d94:	00 03                	add    %al,(%rbx)
    1d96:	0f 13 00             	movlps %xmm0,(%rax)
    1d99:	00 03                	add    %al,(%rbx)
    1d9b:	91                   	xchg   %eax,%ecx
    1d9c:	f8                   	clc    
    1d9d:	7c 03                	jl     1da2 <OLDSS+0x1cea>
    1d9f:	19 13                	sbb    %edx,(%rbx)
    1da1:	00 00                	add    %al,(%rax)
    1da3:	03 91 f0 7c 00 00    	add    0x7cf0(%rcx),%edx
    1da9:	08 e4                	or     %ah,%ah
    1dab:	12 00                	adc    (%rax),%al
    1dad:	00 d8                	add    %bl,%al
    1daf:	b7 10                	mov    $0x10,%bh
    1db1:	00 00                	add    %al,(%rax)
    1db3:	80 ff ff             	cmp    $0xff,%bh
    1db6:	bd 00 00 00 00       	mov    $0x0,%ebp
    1dbb:	00 00                	add    %al,(%rax)
    1dbd:	00 14 01             	add    %dl,(%rcx,%rax,1)
    1dc0:	c0 06 00             	rolb   $0x0,(%rsi)
    1dc3:	00 01                	add    %al,(%rcx)
    1dc5:	03 13                	add    (%rbx),%edx
    1dc7:	00 00                	add    %al,(%rax)
    1dc9:	03 91 a0 7d 01 f8    	add    -0x7fe8260(%rcx),%edx
    1dcf:	12 00                	adc    (%rax),%al
    1dd1:	00 03                	add    %al,(%rbx)
    1dd3:	91                   	xchg   %eax,%ecx
    1dd4:	ab                   	stos   %eax,%es:(%rdi)
    1dd5:	7d 01                	jge    1dd8 <OLDSS+0x1d20>
    1dd7:	ef                   	out    %eax,(%dx)
    1dd8:	12 00                	adc    (%rax),%al
    1dda:	00 03                	add    %al,(%rbx)
    1ddc:	91                   	xchg   %eax,%ecx
    1ddd:	ac                   	lods   %ds:(%rsi),%al
    1dde:	7d 05                	jge    1de5 <OLDSS+0x1d2d>
    1de0:	0e                   	(bad)  
    1de1:	13 00                	adc    (%rax),%eax
    1de3:	00 d8                	add    %bl,%al
    1de5:	b7 10                	mov    $0x10,%bh
    1de7:	00 00                	add    %al,(%rax)
    1de9:	80 ff ff             	cmp    $0xff,%bh
    1dec:	96                   	xchg   %eax,%esi
    1ded:	00 00                	add    %al,(%rax)
    1def:	00 00                	add    %al,(%rax)
    1df1:	00 00                	add    %al,(%rax)
    1df3:	00 03                	add    %al,(%rbx)
    1df5:	0f 13 00             	movlps %xmm0,(%rax)
    1df8:	00 03                	add    %al,(%rbx)
    1dfa:	91                   	xchg   %eax,%ecx
    1dfb:	98                   	cwtl   
    1dfc:	7d 03                	jge    1e01 <OLDSS+0x1d49>
    1dfe:	19 13                	sbb    %edx,(%rbx)
    1e00:	00 00                	add    %al,(%rax)
    1e02:	03 91 90 7d 00 00    	add    0x7d90(%rcx),%edx
    1e08:	08 e4                	or     %ah,%ah
    1e0a:	12 00                	adc    (%rax),%al
    1e0c:	00 95 b8 10 00 00    	add    %dl,0x10b8(%rbp)
    1e12:	80 ff ff             	cmp    $0xff,%bh
    1e15:	bd 00 00 00 00       	mov    $0x0,%ebp
    1e1a:	00 00                	add    %al,(%rax)
    1e1c:	00 15 01 1f 07 00    	add    %dl,0x71f01(%rip)        # 73d23 <OLDSS+0x73c6b>
    1e22:	00 01                	add    %al,(%rcx)
    1e24:	03 13                	add    (%rbx),%edx
    1e26:	00 00                	add    %al,(%rax)
    1e28:	03 91 c0 7d 01 f8    	add    -0x7fe8240(%rcx),%edx
    1e2e:	12 00                	adc    (%rax),%al
    1e30:	00 03                	add    %al,(%rbx)
    1e32:	91                   	xchg   %eax,%ecx
    1e33:	cb                   	lret   
    1e34:	7d 01                	jge    1e37 <OLDSS+0x1d7f>
    1e36:	ef                   	out    %eax,(%dx)
    1e37:	12 00                	adc    (%rax),%al
    1e39:	00 03                	add    %al,(%rbx)
    1e3b:	91                   	xchg   %eax,%ecx
    1e3c:	cc                   	int3   
    1e3d:	7d 05                	jge    1e44 <OLDSS+0x1d8c>
    1e3f:	0e                   	(bad)  
    1e40:	13 00                	adc    (%rax),%eax
    1e42:	00 95 b8 10 00 00    	add    %dl,0x10b8(%rbp)
    1e48:	80 ff ff             	cmp    $0xff,%bh
    1e4b:	96                   	xchg   %eax,%esi
    1e4c:	00 00                	add    %al,(%rax)
    1e4e:	00 00                	add    %al,(%rax)
    1e50:	00 00                	add    %al,(%rax)
    1e52:	00 03                	add    %al,(%rbx)
    1e54:	0f 13 00             	movlps %xmm0,(%rax)
    1e57:	00 03                	add    %al,(%rbx)
    1e59:	91                   	xchg   %eax,%ecx
    1e5a:	b8 7d 03 19 13       	mov    $0x1319037d,%eax
    1e5f:	00 00                	add    %al,(%rax)
    1e61:	03 91 b0 7d 00 00    	add    0x7db0(%rcx),%edx
    1e67:	08 e4                	or     %ah,%ah
    1e69:	12 00                	adc    (%rax),%al
    1e6b:	00 52 b9             	add    %dl,-0x47(%rdx)
    1e6e:	10 00                	adc    %al,(%rax)
    1e70:	00 80 ff ff bd 00    	add    %al,0xbdffff(%rax)
    1e76:	00 00                	add    %al,(%rax)
    1e78:	00 00                	add    %al,(%rax)
    1e7a:	00 00                	add    %al,(%rax)
    1e7c:	16                   	(bad)  
    1e7d:	01 7e 07             	add    %edi,0x7(%rsi)
    1e80:	00 00                	add    %al,(%rax)
    1e82:	01 03                	add    %eax,(%rbx)
    1e84:	13 00                	adc    (%rax),%eax
    1e86:	00 03                	add    %al,(%rbx)
    1e88:	91                   	xchg   %eax,%ecx
    1e89:	e0 7d                	loopne 1f08 <OLDSS+0x1e50>
    1e8b:	01 f8                	add    %edi,%eax
    1e8d:	12 00                	adc    (%rax),%al
    1e8f:	00 03                	add    %al,(%rbx)
    1e91:	91                   	xchg   %eax,%ecx
    1e92:	eb 7d                	jmp    1f11 <OLDSS+0x1e59>
    1e94:	01 ef                	add    %ebp,%edi
    1e96:	12 00                	adc    (%rax),%al
    1e98:	00 03                	add    %al,(%rbx)
    1e9a:	91                   	xchg   %eax,%ecx
    1e9b:	ec                   	in     (%dx),%al
    1e9c:	7d 05                	jge    1ea3 <OLDSS+0x1deb>
    1e9e:	0e                   	(bad)  
    1e9f:	13 00                	adc    (%rax),%eax
    1ea1:	00 52 b9             	add    %dl,-0x47(%rdx)
    1ea4:	10 00                	adc    %al,(%rax)
    1ea6:	00 80 ff ff 96 00    	add    %al,0x96ffff(%rax)
    1eac:	00 00                	add    %al,(%rax)
    1eae:	00 00                	add    %al,(%rax)
    1eb0:	00 00                	add    %al,(%rax)
    1eb2:	03 0f                	add    (%rdi),%ecx
    1eb4:	13 00                	adc    (%rax),%eax
    1eb6:	00 03                	add    %al,(%rbx)
    1eb8:	91                   	xchg   %eax,%ecx
    1eb9:	d8 7d 03             	fdivrs 0x3(%rbp)
    1ebc:	19 13                	sbb    %edx,(%rbx)
    1ebe:	00 00                	add    %al,(%rax)
    1ec0:	03 91 d0 7d 00 00    	add    0x7dd0(%rcx),%edx
    1ec6:	08 e4                	or     %ah,%ah
    1ec8:	12 00                	adc    (%rax),%al
    1eca:	00 0f                	add    %cl,(%rdi)
    1ecc:	ba 10 00 00 80       	mov    $0x80000010,%edx
    1ed1:	ff                   	(bad)  
    1ed2:	ff                   	(bad)  
    1ed3:	bd 00 00 00 00       	mov    $0x0,%ebp
    1ed8:	00 00                	add    %al,(%rax)
    1eda:	00 17                	add    %dl,(%rdi)
    1edc:	01 dd                	add    %ebx,%ebp
    1ede:	07                   	(bad)  
    1edf:	00 00                	add    %al,(%rax)
    1ee1:	01 03                	add    %eax,(%rbx)
    1ee3:	13 00                	adc    (%rax),%eax
    1ee5:	00 03                	add    %al,(%rbx)
    1ee7:	91                   	xchg   %eax,%ecx
    1ee8:	80 7e 01 f8          	cmpb   $0xf8,0x1(%rsi)
    1eec:	12 00                	adc    (%rax),%al
    1eee:	00 03                	add    %al,(%rbx)
    1ef0:	91                   	xchg   %eax,%ecx
    1ef1:	8b 7e 01             	mov    0x1(%rsi),%edi
    1ef4:	ef                   	out    %eax,(%dx)
    1ef5:	12 00                	adc    (%rax),%al
    1ef7:	00 03                	add    %al,(%rbx)
    1ef9:	91                   	xchg   %eax,%ecx
    1efa:	8c 7e 05             	mov    %?,0x5(%rsi)
    1efd:	0e                   	(bad)  
    1efe:	13 00                	adc    (%rax),%eax
    1f00:	00 0f                	add    %cl,(%rdi)
    1f02:	ba 10 00 00 80       	mov    $0x80000010,%edx
    1f07:	ff                   	(bad)  
    1f08:	ff 96 00 00 00 00    	call   *0x0(%rsi)
    1f0e:	00 00                	add    %al,(%rax)
    1f10:	00 03                	add    %al,(%rbx)
    1f12:	0f 13 00             	movlps %xmm0,(%rax)
    1f15:	00 03                	add    %al,(%rbx)
    1f17:	91                   	xchg   %eax,%ecx
    1f18:	f8                   	clc    
    1f19:	7d 03                	jge    1f1e <OLDSS+0x1e66>
    1f1b:	19 13                	sbb    %edx,(%rbx)
    1f1d:	00 00                	add    %al,(%rax)
    1f1f:	03 91 f0 7d 00 00    	add    0x7df0(%rcx),%edx
    1f25:	08 e4                	or     %ah,%ah
    1f27:	12 00                	adc    (%rax),%al
    1f29:	00 cc                	add    %cl,%ah
    1f2b:	ba 10 00 00 80       	mov    $0x80000010,%edx
    1f30:	ff                   	(bad)  
    1f31:	ff                   	(bad)  
    1f32:	bd 00 00 00 00       	mov    $0x0,%ebp
    1f37:	00 00                	add    %al,(%rax)
    1f39:	00 18                	add    %bl,(%rax)
    1f3b:	01 3c 08             	add    %edi,(%rax,%rcx,1)
    1f3e:	00 00                	add    %al,(%rax)
    1f40:	01 03                	add    %eax,(%rbx)
    1f42:	13 00                	adc    (%rax),%eax
    1f44:	00 03                	add    %al,(%rbx)
    1f46:	91                   	xchg   %eax,%ecx
    1f47:	a0 7e 01 f8 12 00 00 	movabs 0x9103000012f8017e,%al
    1f4e:	03 91 
    1f50:	ab                   	stos   %eax,%es:(%rdi)
    1f51:	7e 01                	jle    1f54 <OLDSS+0x1e9c>
    1f53:	ef                   	out    %eax,(%dx)
    1f54:	12 00                	adc    (%rax),%al
    1f56:	00 03                	add    %al,(%rbx)
    1f58:	91                   	xchg   %eax,%ecx
    1f59:	ac                   	lods   %ds:(%rsi),%al
    1f5a:	7e 05                	jle    1f61 <OLDSS+0x1ea9>
    1f5c:	0e                   	(bad)  
    1f5d:	13 00                	adc    (%rax),%eax
    1f5f:	00 cc                	add    %cl,%ah
    1f61:	ba 10 00 00 80       	mov    $0x80000010,%edx
    1f66:	ff                   	(bad)  
    1f67:	ff 96 00 00 00 00    	call   *0x0(%rsi)
    1f6d:	00 00                	add    %al,(%rax)
    1f6f:	00 03                	add    %al,(%rbx)
    1f71:	0f 13 00             	movlps %xmm0,(%rax)
    1f74:	00 03                	add    %al,(%rbx)
    1f76:	91                   	xchg   %eax,%ecx
    1f77:	98                   	cwtl   
    1f78:	7e 03                	jle    1f7d <OLDSS+0x1ec5>
    1f7a:	19 13                	sbb    %edx,(%rbx)
    1f7c:	00 00                	add    %al,(%rax)
    1f7e:	03 91 90 7e 00 00    	add    0x7e90(%rcx),%edx
    1f84:	08 e4                	or     %ah,%ah
    1f86:	12 00                	adc    (%rax),%al
    1f88:	00 89 bb 10 00 00    	add    %cl,0x10bb(%rcx)
    1f8e:	80 ff ff             	cmp    $0xff,%bh
    1f91:	bd 00 00 00 00       	mov    $0x0,%ebp
    1f96:	00 00                	add    %al,(%rax)
    1f98:	00 19                	add    %bl,(%rcx)
    1f9a:	01 9b 08 00 00 01    	add    %ebx,0x1000008(%rbx)
    1fa0:	03 13                	add    (%rbx),%edx
    1fa2:	00 00                	add    %al,(%rax)
    1fa4:	03 91 c0 7e 01 f8    	add    -0x7fe8140(%rcx),%edx
    1faa:	12 00                	adc    (%rax),%al
    1fac:	00 03                	add    %al,(%rbx)
    1fae:	91                   	xchg   %eax,%ecx
    1faf:	cb                   	lret   
    1fb0:	7e 01                	jle    1fb3 <OLDSS+0x1efb>
    1fb2:	ef                   	out    %eax,(%dx)
    1fb3:	12 00                	adc    (%rax),%al
    1fb5:	00 03                	add    %al,(%rbx)
    1fb7:	91                   	xchg   %eax,%ecx
    1fb8:	cc                   	int3   
    1fb9:	7e 05                	jle    1fc0 <OLDSS+0x1f08>
    1fbb:	0e                   	(bad)  
    1fbc:	13 00                	adc    (%rax),%eax
    1fbe:	00 89 bb 10 00 00    	add    %cl,0x10bb(%rcx)
    1fc4:	80 ff ff             	cmp    $0xff,%bh
    1fc7:	96                   	xchg   %eax,%esi
    1fc8:	00 00                	add    %al,(%rax)
    1fca:	00 00                	add    %al,(%rax)
    1fcc:	00 00                	add    %al,(%rax)
    1fce:	00 03                	add    %al,(%rbx)
    1fd0:	0f 13 00             	movlps %xmm0,(%rax)
    1fd3:	00 03                	add    %al,(%rbx)
    1fd5:	91                   	xchg   %eax,%ecx
    1fd6:	b8 7e 03 19 13       	mov    $0x1319037e,%eax
    1fdb:	00 00                	add    %al,(%rax)
    1fdd:	03 91 b0 7e 00 00    	add    0x7eb0(%rcx),%edx
    1fe3:	08 e4                	or     %ah,%ah
    1fe5:	12 00                	adc    (%rax),%al
    1fe7:	00 46 bc             	add    %al,-0x44(%rsi)
    1fea:	10 00                	adc    %al,(%rax)
    1fec:	00 80 ff ff b4 00    	add    %al,0xb4ffff(%rax)
    1ff2:	00 00                	add    %al,(%rax)
    1ff4:	00 00                	add    %al,(%rax)
    1ff6:	00 00                	add    %al,(%rax)
    1ff8:	1b 01                	sbb    (%rcx),%eax
    1ffa:	fa                   	cli    
    1ffb:	08 00                	or     %al,(%rax)
    1ffd:	00 01                	add    %al,(%rcx)
    1fff:	03 13                	add    (%rbx),%edx
    2001:	00 00                	add    %al,(%rax)
    2003:	03 91 e0 7e 01 f8    	add    -0x7fe8120(%rcx),%edx
    2009:	12 00                	adc    (%rax),%al
    200b:	00 03                	add    %al,(%rbx)
    200d:	91                   	xchg   %eax,%ecx
    200e:	eb 7e                	jmp    208e <OLDSS+0x1fd6>
    2010:	01 ef                	add    %ebp,%edi
    2012:	12 00                	adc    (%rax),%al
    2014:	00 03                	add    %al,(%rbx)
    2016:	91                   	xchg   %eax,%ecx
    2017:	ec                   	in     (%dx),%al
    2018:	7e 05                	jle    201f <OLDSS+0x1f67>
    201a:	0e                   	(bad)  
    201b:	13 00                	adc    (%rax),%eax
    201d:	00 46 bc             	add    %al,-0x44(%rsi)
    2020:	10 00                	adc    %al,(%rax)
    2022:	00 80 ff ff 96 00    	add    %al,0x96ffff(%rax)
    2028:	00 00                	add    %al,(%rax)
    202a:	00 00                	add    %al,(%rax)
    202c:	00 00                	add    %al,(%rax)
    202e:	03 0f                	add    (%rdi),%ecx
    2030:	13 00                	adc    (%rax),%eax
    2032:	00 03                	add    %al,(%rbx)
    2034:	91                   	xchg   %eax,%ecx
    2035:	d8 7e 03             	fdivrs 0x3(%rsi)
    2038:	19 13                	sbb    %edx,(%rbx)
    203a:	00 00                	add    %al,(%rax)
    203c:	03 91 d0 7e 00 00    	add    0x7ed0(%rcx),%edx
    2042:	08 e4                	or     %ah,%ah
    2044:	12 00                	adc    (%rax),%al
    2046:	00 fa                	add    %bh,%dl
    2048:	bc 10 00 00 80       	mov    $0x80000010,%esp
    204d:	ff                   	(bad)  
    204e:	ff a2 00 00 00 00    	jmp    *0x0(%rdx)
    2054:	00 00                	add    %al,(%rax)
    2056:	00 1c 01             	add    %bl,(%rcx,%rax,1)
    2059:	59                   	pop    %rcx
    205a:	09 00                	or     %eax,(%rax)
    205c:	00 01                	add    %al,(%rcx)
    205e:	03 13                	add    (%rbx),%edx
    2060:	00 00                	add    %al,(%rax)
    2062:	03 91 80 7f 01 f8    	add    -0x7fe8080(%rcx),%edx
    2068:	12 00                	adc    (%rax),%al
    206a:	00 03                	add    %al,(%rbx)
    206c:	91                   	xchg   %eax,%ecx
    206d:	8b 7f 01             	mov    0x1(%rdi),%edi
    2070:	ef                   	out    %eax,(%dx)
    2071:	12 00                	adc    (%rax),%al
    2073:	00 03                	add    %al,(%rbx)
    2075:	91                   	xchg   %eax,%ecx
    2076:	8c 7f 05             	mov    %?,0x5(%rdi)
    2079:	0e                   	(bad)  
    207a:	13 00                	adc    (%rax),%eax
    207c:	00 fa                	add    %bh,%dl
    207e:	bc 10 00 00 80       	mov    $0x80000010,%esp
    2083:	ff                   	(bad)  
    2084:	ff 84 00 00 00 00 00 	incl   0x0(%rax,%rax,1)
    208b:	00 00                	add    %al,(%rax)
    208d:	03 0f                	add    (%rdi),%ecx
    208f:	13 00                	adc    (%rax),%eax
    2091:	00 03                	add    %al,(%rbx)
    2093:	91                   	xchg   %eax,%ecx
    2094:	f8                   	clc    
    2095:	7e 03                	jle    209a <OLDSS+0x1fe2>
    2097:	19 13                	sbb    %edx,(%rbx)
    2099:	00 00                	add    %al,(%rax)
    209b:	03 91 f0 7e 00 00    	add    0x7ef0(%rcx),%edx
    20a1:	08 e4                	or     %ah,%ah
    20a3:	12 00                	adc    (%rax),%al
    20a5:	00 9c bd 10 00 00 80 	add    %bl,-0x7ffffff0(%rbp,%rdi,4)
    20ac:	ff                   	(bad)  
    20ad:	ff a2 00 00 00 00    	jmp    *0x0(%rdx)
    20b3:	00 00                	add    %al,(%rax)
    20b5:	00 1d 01 b8 09 00    	add    %bl,0x9b801(%rip)        # 9d8bc <OLDSS+0x9d804>
    20bb:	00 01                	add    %al,(%rcx)
    20bd:	03 13                	add    (%rbx),%edx
    20bf:	00 00                	add    %al,(%rax)
    20c1:	03 91 a0 7f 01 f8    	add    -0x7fe8060(%rcx),%edx
    20c7:	12 00                	adc    (%rax),%al
    20c9:	00 03                	add    %al,(%rbx)
    20cb:	91                   	xchg   %eax,%ecx
    20cc:	ab                   	stos   %eax,%es:(%rdi)
    20cd:	7f 01                	jg     20d0 <OLDSS+0x2018>
    20cf:	ef                   	out    %eax,(%dx)
    20d0:	12 00                	adc    (%rax),%al
    20d2:	00 03                	add    %al,(%rbx)
    20d4:	91                   	xchg   %eax,%ecx
    20d5:	ac                   	lods   %ds:(%rsi),%al
    20d6:	7f 05                	jg     20dd <OLDSS+0x2025>
    20d8:	0e                   	(bad)  
    20d9:	13 00                	adc    (%rax),%eax
    20db:	00 9c bd 10 00 00 80 	add    %bl,-0x7ffffff0(%rbp,%rdi,4)
    20e2:	ff                   	(bad)  
    20e3:	ff 84 00 00 00 00 00 	incl   0x0(%rax,%rax,1)
    20ea:	00 00                	add    %al,(%rax)
    20ec:	03 0f                	add    (%rdi),%ecx
    20ee:	13 00                	adc    (%rax),%eax
    20f0:	00 03                	add    %al,(%rbx)
    20f2:	91                   	xchg   %eax,%ecx
    20f3:	98                   	cwtl   
    20f4:	7f 03                	jg     20f9 <OLDSS+0x2041>
    20f6:	19 13                	sbb    %edx,(%rbx)
    20f8:	00 00                	add    %al,(%rax)
    20fa:	03 91 90 7f 00 00    	add    0x7f90(%rcx),%edx
    2100:	08 e4                	or     %ah,%ah
    2102:	12 00                	adc    (%rax),%al
    2104:	00 3e                	add    %bh,(%rsi)
    2106:	be 10 00 00 80       	mov    $0x80000010,%esi
    210b:	ff                   	(bad)  
    210c:	ff a2 00 00 00 00    	jmp    *0x0(%rdx)
    2112:	00 00                	add    %al,(%rax)
    2114:	00 1e                	add    %bl,(%rsi)
    2116:	01 14 0a             	add    %edx,(%rdx,%rcx,1)
    2119:	00 00                	add    %al,(%rax)
    211b:	01 03                	add    %eax,(%rbx)
    211d:	13 00                	adc    (%rax),%eax
    211f:	00 02                	add    %al,(%rdx)
    2121:	91                   	xchg   %eax,%ecx
    2122:	40 01 f8             	rex add %edi,%eax
    2125:	12 00                	adc    (%rax),%al
    2127:	00 02                	add    %al,(%rdx)
    2129:	91                   	xchg   %eax,%ecx
    212a:	4b 01 ef             	rex.WXB add %rbp,%r15
    212d:	12 00                	adc    (%rax),%al
    212f:	00 02                	add    %al,(%rdx)
    2131:	91                   	xchg   %eax,%ecx
    2132:	4c 05 0e 13 00 00    	rex.WR add $0x130e,%rax
    2138:	3e be 10 00 00 80    	ds mov $0x80000010,%esi
    213e:	ff                   	(bad)  
    213f:	ff 84 00 00 00 00 00 	incl   0x0(%rax,%rax,1)
    2146:	00 00                	add    %al,(%rax)
    2148:	03 0f                	add    (%rdi),%ecx
    214a:	13 00                	adc    (%rax),%eax
    214c:	00 03                	add    %al,(%rbx)
    214e:	91                   	xchg   %eax,%ecx
    214f:	b8 7f 03 19 13       	mov    $0x1319037f,%eax
    2154:	00 00                	add    %al,(%rax)
    2156:	03 91 b0 7f 00 00    	add    0x7fb0(%rcx),%edx
    215c:	22 e4                	and    %ah,%ah
    215e:	12 00                	adc    (%rax),%al
    2160:	00 e0                	add    %ah,%al
    2162:	be 10 00 00 80       	mov    $0x80000010,%esi
    2167:	ff                   	(bad)  
    2168:	ff 85 00 00 00 00    	incl   0x0(%rbp)
    216e:	00 00                	add    %al,(%rax)
    2170:	00 01                	add    %al,(%rcx)
    2172:	1f                   	(bad)  
    2173:	01 02                	add    %eax,(%rdx)
    2175:	01 03                	add    %eax,(%rbx)
    2177:	13 00                	adc    (%rax),%eax
    2179:	00 02                	add    %al,(%rdx)
    217b:	91                   	xchg   %eax,%ecx
    217c:	60                   	(bad)  
    217d:	01 f8                	add    %edi,%eax
    217f:	12 00                	adc    (%rax),%al
    2181:	00 02                	add    %al,(%rdx)
    2183:	91                   	xchg   %eax,%ecx
    2184:	6b 01 ef             	imul   $0xffffffef,(%rcx),%eax
    2187:	12 00                	adc    (%rax),%al
    2189:	00 02                	add    %al,(%rdx)
    218b:	91                   	xchg   %eax,%ecx
    218c:	6c                   	insb   (%dx),%es:(%rdi)
    218d:	05 0e 13 00 00       	add    $0x130e,%eax
    2192:	e0 be                	loopne 2152 <OLDSS+0x209a>
    2194:	10 00                	adc    %al,(%rax)
    2196:	00 80 ff ff 84 00    	add    %al,0x84ffff(%rax)
    219c:	00 00                	add    %al,(%rax)
    219e:	00 00                	add    %al,(%rax)
    21a0:	00 00                	add    %al,(%rax)
    21a2:	03 0f                	add    (%rdi),%ecx
    21a4:	13 00                	adc    (%rax),%eax
    21a6:	00 02                	add    %al,(%rdx)
    21a8:	91                   	xchg   %eax,%ecx
    21a9:	58                   	pop    %rax
    21aa:	03 19                	add    (%rcx),%ebx
    21ac:	13 00                	adc    (%rax),%eax
    21ae:	00 02                	add    %al,(%rdx)
    21b0:	91                   	xchg   %eax,%ecx
    21b1:	50                   	push   %rax
    21b2:	00 00                	add    %al,(%rax)
    21b4:	00 23                	add    %ah,(%rbx)
    21b6:	bb 06 00 00 01       	mov    $0x1000006,%ebx
    21bb:	00 01                	add    %al,(%rcx)
    21bd:	06                   	(bad)  
    21be:	41 b0 10             	mov    $0x10,%r8b
    21c1:	00 00                	add    %al,(%rax)
    21c3:	80 ff ff             	cmp    $0xff,%bh
    21c6:	a9 00 00 00 00       	test   $0x0,%eax
    21cb:	00 00                	add    %al,(%rax)
    21cd:	00 01                	add    %al,(%rcx)
    21cf:	9c                   	pushf  
    21d0:	c8 0a 00 00          	enter  $0xa,$0x0
    21d4:	24 72                	and    $0x72,%al
    21d6:	73 70                	jae    2248 <OLDSS+0x2190>
    21d8:	00 01                	add    %al,(%rcx)
    21da:	00 01                	add    %al,(%rcx)
    21dc:	30 88 00 00 00 02    	xor    %cl,0x2000000(%rax)
    21e2:	91                   	xchg   %eax,%ecx
    21e3:	48 25 80 05 00 00    	and    $0x580,%rax
    21e9:	01 00                	add    %eax,(%rax)
    21eb:	01 42 88             	add    %eax,-0x78(%rdx)
    21ee:	00 00                	add    %al,(%rax)
    21f0:	00 02                	add    %al,(%rdx)
    21f2:	91                   	xchg   %eax,%ecx
    21f3:	40                   	rex
    21f4:	26 70 00             	es jo  21f7 <OLDSS+0x213f>
    21f7:	01 02                	add    %eax,(%rdx)
    21f9:	01 12                	add    %edx,(%rdx)
    21fb:	c8 0a 00 00          	enter  $0xa,$0x0
    21ff:	02 91 58 02 e4 b0    	add    -0x4f1bfda8(%rcx),%dl
    2205:	10 00                	adc    %al,(%rax)
    2207:	00 80 ff ff c0 02    	add    %al,0x2c0ffff(%rax)
    220d:	00 00                	add    %al,(%rax)
    220f:	00 13                	add    %dl,(%rbx)
    2211:	88 00                	mov    %al,(%rax)
    2213:	00 00                	add    %al,(%rax)
    2215:	09 3c 05 00 00 f8 98 	or     %edi,-0x67080000(,%rax,1)
    221c:	af                   	scas   %es:(%rdi),%eax
    221d:	10 00                	adc    %al,(%rax)
    221f:	00 80 ff ff a9 00    	add    %al,0xa9ffff(%rax)
    2225:	00 00                	add    %al,(%rax)
    2227:	00 00                	add    %al,(%rax)
    2229:	00 00                	add    %al,(%rax)
    222b:	01 9c 1f 0b 00 00 0a 	add    %ebx,0xa00000b(%rdi,%rbx,1)
    2232:	72 73                	jb     22a7 <OLDSS+0x21ef>
    2234:	70 00                	jo     2236 <OLDSS+0x217e>
    2236:	f8                   	clc    
    2237:	26 88 00             	es mov %al,(%rax)
    223a:	00 00                	add    %al,(%rax)
    223c:	02 91 48 0b 80 05    	add    0x5800b48(%rcx),%dl
    2242:	00 00                	add    %al,(%rax)
    2244:	f8                   	clc    
    2245:	38 88 00 00 00 02    	cmp    %cl,0x2000000(%rax)
    224b:	91                   	xchg   %eax,%ecx
    224c:	40 06                	rex (bad) 
    224e:	70 00                	jo     2250 <OLDSS+0x2198>
    2250:	fa                   	cli    
    2251:	12 c8                	adc    %al,%cl
    2253:	0a 00                	or     (%rax),%al
    2255:	00 02                	add    %al,(%rdx)
    2257:	91                   	xchg   %eax,%ecx
    2258:	58                   	pop    %rax
    2259:	02 3b                	add    (%rbx),%bh
    225b:	b0 10                	mov    $0x10,%al
    225d:	00 00                	add    %al,(%rax)
    225f:	80 ff ff             	cmp    $0xff,%bh
    2262:	c0 02 00             	rolb   $0x0,(%rdx)
    2265:	00 00                	add    %al,(%rax)
    2267:	09 4e 05             	or     %ecx,0x5(%rsi)
    226a:	00 00                	add    %al,(%rax)
    226c:	f0 ef                	lock out %eax,(%dx)
    226e:	ae                   	scas   %es:(%rdi),%al
    226f:	10 00                	adc    %al,(%rax)
    2271:	00 80 ff ff a9 00    	add    %al,0xa9ffff(%rax)
    2277:	00 00                	add    %al,(%rax)
    2279:	00 00                	add    %al,(%rax)
    227b:	00 00                	add    %al,(%rax)
    227d:	01 9c 71 0b 00 00 0a 	add    %ebx,0xa00000b(%rcx,%rsi,2)
    2284:	72 73                	jb     22f9 <OLDSS+0x2241>
    2286:	70 00                	jo     2288 <OLDSS+0x21d0>
    2288:	f0 25 88 00 00 00    	lock and $0x88,%eax
    228e:	02 91 48 0b 80 05    	add    0x5800b48(%rcx),%dl
    2294:	00 00                	add    %al,(%rax)
    2296:	f0 37                	lock (bad) 
    2298:	88 00                	mov    %al,(%rax)
    229a:	00 00                	add    %al,(%rax)
    229c:	02 91 40 06 70 00    	add    0x700640(%rcx),%dl
    22a2:	f2 12 c8             	repnz adc %al,%cl
    22a5:	0a 00                	or     (%rax),%al
    22a7:	00 02                	add    %al,(%rdx)
    22a9:	91                   	xchg   %eax,%ecx
    22aa:	58                   	pop    %rax
    22ab:	02 92 af 10 00 00    	add    0x10af(%rdx),%dl
    22b1:	80 ff ff             	cmp    $0xff,%bh
    22b4:	c0 02 00             	rolb   $0x0,(%rdx)
    22b7:	00 00                	add    %al,(%rax)
    22b9:	09 11                	or     %edx,(%rcx)
    22bb:	06                   	(bad)  
    22bc:	00 00                	add    %al,(%rax)
    22be:	e8 46 ae 10 00       	call   10d109 <OLDSS+0x10d051>
    22c3:	00 80 ff ff a9 00    	add    %al,0xa9ffff(%rax)
    22c9:	00 00                	add    %al,(%rax)
    22cb:	00 00                	add    %al,(%rax)
    22cd:	00 00                	add    %al,(%rax)
    22cf:	01 9c c3 0b 00 00 0a 	add    %ebx,0xa00000b(%rbx,%rax,8)
    22d6:	72 73                	jb     234b <OLDSS+0x2293>
    22d8:	70 00                	jo     22da <OLDSS+0x2222>
    22da:	e8 27 88 00 00       	call   ab06 <OLDSS+0xaa4e>
    22df:	00 02                	add    %al,(%rdx)
    22e1:	91                   	xchg   %eax,%ecx
    22e2:	48 0b 80 05 00 00 e8 	or     -0x17fffffb(%rax),%rax
    22e9:	39 88 00 00 00 02    	cmp    %ecx,0x2000000(%rax)
    22ef:	91                   	xchg   %eax,%ecx
    22f0:	40 06                	rex (bad) 
    22f2:	70 00                	jo     22f4 <OLDSS+0x223c>
    22f4:	ea                   	(bad)  
    22f5:	12 c8                	adc    %al,%cl
    22f7:	0a 00                	or     (%rax),%al
    22f9:	00 02                	add    %al,(%rdx)
    22fb:	91                   	xchg   %eax,%ecx
    22fc:	58                   	pop    %rax
    22fd:	02 e9                	add    %cl,%ch
    22ff:	ae                   	scas   %es:(%rdi),%al
    2300:	10 00                	adc    %al,(%rax)
    2302:	00 80 ff ff c0 02    	add    %al,0x2c0ffff(%rax)
    2308:	00 00                	add    %al,(%rax)
    230a:	00 09                	add    %cl,(%rcx)
    230c:	47 06                	rex.RXB (bad) 
    230e:	00 00                	add    %al,(%rax)
    2310:	e0 9d                	loopne 22af <OLDSS+0x21f7>
    2312:	ad                   	lods   %ds:(%rsi),%eax
    2313:	10 00                	adc    %al,(%rax)
    2315:	00 80 ff ff a9 00    	add    %al,0xa9ffff(%rax)
    231b:	00 00                	add    %al,(%rax)
    231d:	00 00                	add    %al,(%rax)
    231f:	00 00                	add    %al,(%rax)
    2321:	01 9c 15 0c 00 00 0a 	add    %ebx,0xa00000c(%rbp,%rdx,1)
    2328:	72 73                	jb     239d <OLDSS+0x22e5>
    232a:	70 00                	jo     232c <OLDSS+0x2274>
    232c:	e0 25                	loopne 2353 <OLDSS+0x229b>
    232e:	88 00                	mov    %al,(%rax)
    2330:	00 00                	add    %al,(%rax)
    2332:	02 91 48 0b 80 05    	add    0x5800b48(%rcx),%dl
    2338:	00 00                	add    %al,(%rax)
    233a:	e0 37                	loopne 2373 <OLDSS+0x22bb>
    233c:	88 00                	mov    %al,(%rax)
    233e:	00 00                	add    %al,(%rax)
    2340:	02 91 40 06 70 00    	add    0x700640(%rcx),%dl
    2346:	e2 12                	loop   235a <OLDSS+0x22a2>
    2348:	c8 0a 00 00          	enter  $0xa,$0x0
    234c:	02 91 58 02 40 ae    	add    -0x51bffda8(%rcx),%dl
    2352:	10 00                	adc    %al,(%rax)
    2354:	00 80 ff ff c0 02    	add    %al,0x2c0ffff(%rax)
    235a:	00 00                	add    %al,(%rax)
    235c:	00 09                	add    %cl,(%rcx)
    235e:	30 06                	xor    %al,(%rsi)
    2360:	00 00                	add    %al,(%rax)
    2362:	bc fd a9 10 00       	mov    $0x10a9fd,%esp
    2367:	00 80 ff ff a0 03    	add    %al,0x3a0ffff(%rax)
    236d:	00 00                	add    %al,(%rax)
    236f:	00 00                	add    %al,(%rax)
    2371:	00 00                	add    %al,(%rax)
    2373:	01 9c e1 0c 00 00 0a 	add    %ebx,0xa00000c(%rcx,%riz,8)
    237a:	72 73                	jb     23ef <OLDSS+0x2337>
    237c:	70 00                	jo     237e <OLDSS+0x22c6>
    237e:	bc 22 88 00 00       	mov    $0x8822,%esp
    2383:	00 03                	add    %al,(%rbx)
    2385:	91                   	xchg   %eax,%ecx
    2386:	a8 7f                	test   $0x7f,%al
    2388:	0b 80 05 00 00 bc    	or     -0x43fffffb(%rax),%eax
    238e:	34 88                	xor    $0x88,%al
    2390:	00 00                	add    %al,(%rax)
    2392:	00 03                	add    %al,(%rbx)
    2394:	91                   	xchg   %eax,%ecx
    2395:	a0 7f 06 70 00 be 12 	movabs 0xac812be0070067f,%al
    239c:	c8 0a 
    239e:	00 00                	add    %al,(%rax)
    23a0:	03 91 b8 7f 06 63    	add    0x63067fb8(%rcx),%edx
    23a6:	72 32                	jb     23da <OLDSS+0x2322>
    23a8:	00 bf 10 88 00 00    	add    %bh,0x8810(%rdi)
    23ae:	00 03                	add    %al,(%rbx)
    23b0:	91                   	xchg   %eax,%ecx
    23b1:	b0 7f                	mov    $0x7f,%al
    23b3:	02 b6 aa 10 00 00    	add    0x10aa(%rsi),%dh
    23b9:	80 ff ff             	cmp    $0xff,%bh
    23bc:	c0 02 00             	rolb   $0x0,(%rdx)
    23bf:	00 02                	add    %al,(%rdx)
    23c1:	22 ab 10 00 00 80    	and    -0x7ffffff0(%rbx),%ch
    23c7:	ff                   	(bad)  
    23c8:	ff c0                	inc    %eax
    23ca:	02 00                	add    (%rax),%al
    23cc:	00 02                	add    %al,(%rdx)
    23ce:	7c ab                	jl     237b <OLDSS+0x22c3>
    23d0:	10 00                	adc    %al,(%rax)
    23d2:	00 80 ff ff c0 02    	add    %al,0x2c0ffff(%rax)
    23d8:	00 00                	add    %al,(%rax)
    23da:	02 cc                	add    %ah,%cl
    23dc:	ab                   	stos   %eax,%es:(%rdi)
    23dd:	10 00                	adc    %al,(%rax)
    23df:	00 80 ff ff c0 02    	add    %al,0x2c0ffff(%rax)
    23e5:	00 00                	add    %al,(%rax)
    23e7:	02 26                	add    (%rsi),%ah
    23e9:	ac                   	lods   %ds:(%rsi),%al
    23ea:	10 00                	adc    %al,(%rax)
    23ec:	00 80 ff ff c0 02    	add    %al,0x2c0ffff(%rax)
    23f2:	00 00                	add    %al,(%rax)
    23f4:	02 76 ac             	add    -0x54(%rsi),%dh
    23f7:	10 00                	adc    %al,(%rax)
    23f9:	00 80 ff ff c0 02    	add    %al,0x2c0ffff(%rax)
    23ff:	00 00                	add    %al,(%rax)
    2401:	02 d0                	add    %al,%dl
    2403:	ac                   	lods   %ds:(%rsi),%al
    2404:	10 00                	adc    %al,(%rax)
    2406:	00 80 ff ff c0 02    	add    %al,0x2c0ffff(%rax)
    240c:	00 00                	add    %al,(%rax)
    240e:	02 38                	add    (%rax),%bh
    2410:	ad                   	lods   %ds:(%rsi),%eax
    2411:	10 00                	adc    %al,(%rax)
    2413:	00 80 ff ff c0 02    	add    %al,0x2c0ffff(%rax)
    2419:	00 00                	add    %al,(%rax)
    241b:	02 9b ad 10 00 00    	add    0x10ad(%rbx),%bl
    2421:	80 ff ff             	cmp    $0xff,%bh
    2424:	c0 02 00             	rolb   $0x0,(%rdx)
    2427:	00 00                	add    %al,(%rax)
    2429:	09 a9 05 00 00 a3    	or     %ebp,-0x5cfffffb(%rcx)
    242f:	08 a7 10 00 00 80    	or     %ah,-0x7ffffff0(%rdi)
    2435:	ff                   	(bad)  
    2436:	ff f5                	push   %rbp
    2438:	02 00                	add    (%rax),%al
    243a:	00 00                	add    %al,(%rax)
    243c:	00 00                	add    %al,(%rax)
    243e:	00 01                	add    %al,(%rcx)
    2440:	9c                   	pushf  
    2441:	84 0d 00 00 0a 72    	test   %cl,0x720a0000(%rip)        # 720a2447 <OLDSS+0x720a238f>
    2447:	73 70                	jae    24b9 <OLDSS+0x2401>
    2449:	00 a3 2a 88 00 00    	add    %ah,0x882a(%rbx)
    244f:	00 03                	add    %al,(%rbx)
    2451:	91                   	xchg   %eax,%ecx
    2452:	a8 7f                	test   $0x7f,%al
    2454:	0b 80 05 00 00 a3    	or     -0x5cfffffb(%rax),%eax
    245a:	3c 88                	cmp    $0x88,%al
    245c:	00 00                	add    %al,(%rax)
    245e:	00 03                	add    %al,(%rbx)
    2460:	91                   	xchg   %eax,%ecx
    2461:	a0 7f 06 70 00 a5 12 	movabs 0xac812a50070067f,%al
    2468:	c8 0a 
    246a:	00 00                	add    %al,(%rax)
    246c:	03 91 b8 7f 02 b2    	add    -0x4dfd8048(%rcx),%edx
    2472:	a7                   	cmpsl  %es:(%rdi),%ds:(%rsi)
    2473:	10 00                	adc    %al,(%rax)
    2475:	00 80 ff ff c0 02    	add    %al,0x2c0ffff(%rax)
    247b:	00 00                	add    %al,(%rax)
    247d:	02 10                	add    (%rax),%dl
    247f:	a8 10                	test   $0x10,%al
    2481:	00 00                	add    %al,(%rax)
    2483:	80 ff ff             	cmp    $0xff,%bh
    2486:	c0 02 00             	rolb   $0x0,(%rdx)
    2489:	00 02                	add    %al,(%rdx)
    248b:	6a a8                	push   $0xffffffffffffffa8
    248d:	10 00                	adc    %al,(%rax)
    248f:	00 80 ff ff c0 02    	add    %al,0x2c0ffff(%rax)
    2495:	00 00                	add    %al,(%rax)
    2497:	02 ba a8 10 00 00    	add    0x10a8(%rdx),%bh
    249d:	80 ff ff             	cmp    $0xff,%bh
    24a0:	c0 02 00             	rolb   $0x0,(%rdx)
    24a3:	00 02                	add    %al,(%rdx)
    24a5:	32 a9 10 00 00 80    	xor    -0x7ffffff0(%rcx),%ch
    24ab:	ff                   	(bad)  
    24ac:	ff c0                	inc    %eax
    24ae:	02 00                	add    (%rax),%al
    24b0:	00 02                	add    %al,(%rdx)
    24b2:	90                   	nop
    24b3:	a9 10 00 00 80       	test   $0x80000010,%eax
    24b8:	ff                   	(bad)  
    24b9:	ff c0                	inc    %eax
    24bb:	02 00                	add    (%rax),%al
    24bd:	00 02                	add    %al,(%rdx)
    24bf:	fb                   	sti    
    24c0:	a9 10 00 00 80       	test   $0x80000010,%eax
    24c5:	ff                   	(bad)  
    24c6:	ff c0                	inc    %eax
    24c8:	02 00                	add    (%rax),%al
    24ca:	00 00                	add    %al,(%rax)
    24cc:	09 69 05             	or     %ebp,0x5(%rcx)
    24cf:	00 00                	add    %al,(%rax)
    24d1:	8a 13                	mov    (%rbx),%dl
    24d3:	a4                   	movsb  %ds:(%rsi),%es:(%rdi)
    24d4:	10 00                	adc    %al,(%rax)
    24d6:	00 80 ff ff f5 02    	add    %al,0x2f5ffff(%rax)
    24dc:	00 00                	add    %al,(%rax)
    24de:	00 00                	add    %al,(%rax)
    24e0:	00 00                	add    %al,(%rax)
    24e2:	01 9c 27 0e 00 00 0a 	add    %ebx,0xa00000e(%rdi,%riz,1)
    24e9:	72 73                	jb     255e <OLDSS+0x24a6>
    24eb:	70 00                	jo     24ed <OLDSS+0x2435>
    24ed:	8a 2b                	mov    (%rbx),%ch
    24ef:	88 00                	mov    %al,(%rax)
    24f1:	00 00                	add    %al,(%rax)
    24f3:	03 91 a8 7f 0b 80    	add    -0x7ff48058(%rcx),%edx
    24f9:	05 00 00 8a 3d       	add    $0x3d8a0000,%eax
    24fe:	88 00                	mov    %al,(%rax)
    2500:	00 00                	add    %al,(%rax)
    2502:	03 91 a0 7f 06 70    	add    0x70067fa0(%rcx),%edx
    2508:	00 8c 12 c8 0a 00 00 	add    %cl,0xac8(%rdx,%rdx,1)
    250f:	03 91 b8 7f 02 bd    	add    -0x42fd8048(%rcx),%edx
    2515:	a4                   	movsb  %ds:(%rsi),%es:(%rdi)
    2516:	10 00                	adc    %al,(%rax)
    2518:	00 80 ff ff c0 02    	add    %al,0x2c0ffff(%rax)
    251e:	00 00                	add    %al,(%rax)
    2520:	02 1b                	add    (%rbx),%bl
    2522:	a5                   	movsl  %ds:(%rsi),%es:(%rdi)
    2523:	10 00                	adc    %al,(%rax)
    2525:	00 80 ff ff c0 02    	add    %al,0x2c0ffff(%rax)
    252b:	00 00                	add    %al,(%rax)
    252d:	02 75 a5             	add    -0x5b(%rbp),%dh
    2530:	10 00                	adc    %al,(%rax)
    2532:	00 80 ff ff c0 02    	add    %al,0x2c0ffff(%rax)
    2538:	00 00                	add    %al,(%rax)
    253a:	02 c5                	add    %ch,%al
    253c:	a5                   	movsl  %ds:(%rsi),%es:(%rdi)
    253d:	10 00                	adc    %al,(%rax)
    253f:	00 80 ff ff c0 02    	add    %al,0x2c0ffff(%rax)
    2545:	00 00                	add    %al,(%rax)
    2547:	02 3d a6 10 00 00    	add    0x10a6(%rip),%bh        # 35f3 <OLDSS+0x353b>
    254d:	80 ff ff             	cmp    $0xff,%bh
    2550:	c0 02 00             	rolb   $0x0,(%rdx)
    2553:	00 02                	add    %al,(%rdx)
    2555:	9b                   	fwait
    2556:	a6                   	cmpsb  %es:(%rdi),%ds:(%rsi)
    2557:	10 00                	adc    %al,(%rax)
    2559:	00 80 ff ff c0 02    	add    %al,0x2c0ffff(%rax)
    255f:	00 00                	add    %al,(%rax)
    2561:	02 06                	add    (%rsi),%al
    2563:	a7                   	cmpsl  %es:(%rdi),%ds:(%rsi)
    2564:	10 00                	adc    %al,(%rax)
    2566:	00 80 ff ff c0 02    	add    %al,0x2c0ffff(%rax)
    256c:	00 00                	add    %al,(%rax)
    256e:	00 09                	add    %cl,(%rcx)
    2570:	96                   	xchg   %eax,%esi
    2571:	06                   	(bad)  
    2572:	00 00                	add    %al,(%rax)
    2574:	71 1e                	jno    2594 <OLDSS+0x24dc>
    2576:	a1 10 00 00 80 ff ff 	movabs 0x2f5ffff80000010,%eax
    257d:	f5 02 
    257f:	00 00                	add    %al,(%rax)
    2581:	00 00                	add    %al,(%rax)
    2583:	00 00                	add    %al,(%rax)
    2585:	01 9c ca 0e 00 00 0a 	add    %ebx,0xa00000e(%rdx,%rcx,8)
    258c:	72 73                	jb     2601 <OLDSS+0x2549>
    258e:	70 00                	jo     2590 <OLDSS+0x24d8>
    2590:	71 2b                	jno    25bd <OLDSS+0x2505>
    2592:	88 00                	mov    %al,(%rax)
    2594:	00 00                	add    %al,(%rax)
    2596:	03 91 a8 7f 0b 80    	add    -0x7ff48058(%rcx),%edx
    259c:	05 00 00 71 3d       	add    $0x3d710000,%eax
    25a1:	88 00                	mov    %al,(%rax)
    25a3:	00 00                	add    %al,(%rax)
    25a5:	03 91 a0 7f 06 70    	add    0x70067fa0(%rcx),%edx
    25ab:	00 73 12             	add    %dh,0x12(%rbx)
    25ae:	c8 0a 00 00          	enter  $0xa,$0x0
    25b2:	03 91 b8 7f 02 c8    	add    -0x37fd8048(%rcx),%edx
    25b8:	a1 10 00 00 80 ff ff 	movabs 0x2c0ffff80000010,%eax
    25bf:	c0 02 
    25c1:	00 00                	add    %al,(%rax)
    25c3:	02 26                	add    (%rsi),%ah
    25c5:	a2 10 00 00 80 ff ff 	movabs %al,0x2c0ffff80000010
    25cc:	c0 02 
    25ce:	00 00                	add    %al,(%rax)
    25d0:	02 80 a2 10 00 00    	add    0x10a2(%rax),%al
    25d6:	80 ff ff             	cmp    $0xff,%bh
    25d9:	c0 02 00             	rolb   $0x0,(%rdx)
    25dc:	00 02                	add    %al,(%rdx)
    25de:	d0 a2 10 00 00 80    	shlb   -0x7ffffff0(%rdx)
    25e4:	ff                   	(bad)  
    25e5:	ff c0                	inc    %eax
    25e7:	02 00                	add    (%rax),%al
    25e9:	00 02                	add    %al,(%rdx)
    25eb:	48 a3 10 00 00 80 ff 	movabs %rax,0x2c0ffff80000010
    25f2:	ff c0 02 
    25f5:	00 00                	add    %al,(%rax)
    25f7:	02 a6 a3 10 00 00    	add    0x10a3(%rsi),%ah
    25fd:	80 ff ff             	cmp    $0xff,%bh
    2600:	c0 02 00             	rolb   $0x0,(%rdx)
    2603:	00 02                	add    %al,(%rdx)
    2605:	11 a4 10 00 00 80 ff 	adc    %esp,-0x800000(%rax,%rdx,1)
    260c:	ff c0                	inc    %eax
    260e:	02 00                	add    (%rax),%al
    2610:	00 00                	add    %al,(%rax)
    2612:	09 92 05 00 00 58    	or     %edx,0x58000005(%rdx)
    2618:	29 9e 10 00 00 80    	sub    %ebx,-0x7ffffff0(%rsi)
    261e:	ff                   	(bad)  
    261f:	ff f5                	push   %rbp
    2621:	02 00                	add    (%rax),%al
    2623:	00 00                	add    %al,(%rax)
    2625:	00 00                	add    %al,(%rax)
    2627:	00 01                	add    %al,(%rcx)
    2629:	9c                   	pushf  
    262a:	6d                   	insl   (%dx),%es:(%rdi)
    262b:	0f 00 00             	sldt   (%rax)
    262e:	0a 72 73             	or     0x73(%rdx),%dh
    2631:	70 00                	jo     2633 <OLDSS+0x257b>
    2633:	58                   	pop    %rax
    2634:	23 88 00 00 00 03    	and    0x3000000(%rax),%ecx
    263a:	91                   	xchg   %eax,%ecx
    263b:	a8 7f                	test   $0x7f,%al
    263d:	0b 80 05 00 00 58    	or     0x58000005(%rax),%eax
    2643:	35 88 00 00 00       	xor    $0x88,%eax
    2648:	03 91 a0 7f 06 70    	add    0x70067fa0(%rcx),%edx
    264e:	00 5a 12             	add    %bl,0x12(%rdx)
    2651:	c8 0a 00 00          	enter  $0xa,$0x0
    2655:	03 91 b8 7f 02 d3    	add    -0x2cfd8048(%rcx),%edx
    265b:	9e                   	sahf   
    265c:	10 00                	adc    %al,(%rax)
    265e:	00 80 ff ff c0 02    	add    %al,0x2c0ffff(%rax)
    2664:	00 00                	add    %al,(%rax)
    2666:	02 31                	add    (%rcx),%dh
    2668:	9f                   	lahf   
    2669:	10 00                	adc    %al,(%rax)
    266b:	00 80 ff ff c0 02    	add    %al,0x2c0ffff(%rax)
    2671:	00 00                	add    %al,(%rax)
    2673:	02 8b 9f 10 00 00    	add    0x109f(%rbx),%cl
    2679:	80 ff ff             	cmp    $0xff,%bh
    267c:	c0 02 00             	rolb   $0x0,(%rdx)
    267f:	00 02                	add    %al,(%rdx)
    2681:	db 9f 10 00 00 80    	fistpl -0x7ffffff0(%rdi)
    2687:	ff                   	(bad)  
    2688:	ff c0                	inc    %eax
    268a:	02 00                	add    (%rax),%al
    268c:	00 02                	add    %al,(%rdx)
    268e:	53                   	push   %rbx
    268f:	a0 10 00 00 80 ff ff 	movabs 0x2c0ffff80000010,%al
    2696:	c0 02 
    2698:	00 00                	add    %al,(%rax)
    269a:	02 b1 a0 10 00 00    	add    0x10a0(%rcx),%dh
    26a0:	80 ff ff             	cmp    $0xff,%bh
    26a3:	c0 02 00             	rolb   $0x0,(%rdx)
    26a6:	00 02                	add    %al,(%rdx)
    26a8:	1c a1                	sbb    $0xa1,%al
    26aa:	10 00                	adc    %al,(%rax)
    26ac:	00 80 ff ff c0 02    	add    %al,0x2c0ffff(%rax)
    26b2:	00 00                	add    %al,(%rax)
    26b4:	00 09                	add    %cl,(%rcx)
    26b6:	de 05 00 00 50 80    	fiadds -0x7fb00000(%rip)        # ffffffff805026bc <_ebss+0x7fff803f035c>
    26bc:	9d                   	popf   
    26bd:	10 00                	adc    %al,(%rax)
    26bf:	00 80 ff ff a9 00    	add    %al,0xa9ffff(%rax)
    26c5:	00 00                	add    %al,(%rax)
    26c7:	00 00                	add    %al,(%rax)
    26c9:	00 00                	add    %al,(%rax)
    26cb:	01 9c bf 0f 00 00 0a 	add    %ebx,0xa00000f(%rdi,%rdi,4)
    26d2:	72 73                	jb     2747 <OLDSS+0x268f>
    26d4:	70 00                	jo     26d6 <OLDSS+0x261e>
    26d6:	50                   	push   %rax
    26d7:	33 88 00 00 00 02    	xor    0x2000000(%rax),%ecx
    26dd:	91                   	xchg   %eax,%ecx
    26de:	48 0b 80 05 00 00 50 	or     0x50000005(%rax),%rax
    26e5:	45 88 00             	mov    %r8b,(%r8)
    26e8:	00 00                	add    %al,(%rax)
    26ea:	02 91 40 06 70 00    	add    0x700640(%rcx),%dl
    26f0:	52                   	push   %rdx
    26f1:	12 c8                	adc    %al,%cl
    26f3:	0a 00                	or     (%rax),%al
    26f5:	00 02                	add    %al,(%rdx)
    26f7:	91                   	xchg   %eax,%ecx
    26f8:	58                   	pop    %rax
    26f9:	02 23                	add    (%rbx),%ah
    26fb:	9e                   	sahf   
    26fc:	10 00                	adc    %al,(%rax)
    26fe:	00 80 ff ff c0 02    	add    %al,0x2c0ffff(%rax)
    2704:	00 00                	add    %al,(%rax)
    2706:	00 09                	add    %cl,(%rcx)
    2708:	86 06                	xchg   %al,(%rsi)
    270a:	00 00                	add    %al,(%rax)
    270c:	48 d7                	rex.W xlat %ds:(%rbx)
    270e:	9c                   	pushf  
    270f:	10 00                	adc    %al,(%rax)
    2711:	00 80 ff ff a9 00    	add    %al,0xa9ffff(%rax)
    2717:	00 00                	add    %al,(%rax)
    2719:	00 00                	add    %al,(%rax)
    271b:	00 00                	add    %al,(%rax)
    271d:	01 9c 11 10 00 00 0a 	add    %ebx,0xa000010(%rcx,%rdx,1)
    2724:	72 73                	jb     2799 <OLDSS+0x26e1>
    2726:	70 00                	jo     2728 <OLDSS+0x2670>
    2728:	48 24 88             	rex.W and $0x88,%al
    272b:	00 00                	add    %al,(%rax)
    272d:	00 02                	add    %al,(%rdx)
    272f:	91                   	xchg   %eax,%ecx
    2730:	48 0b 80 05 00 00 48 	or     0x48000005(%rax),%rax
    2737:	36 88 00             	ss mov %al,(%rax)
    273a:	00 00                	add    %al,(%rax)
    273c:	02 91 40 06 70 00    	add    0x700640(%rcx),%dl
    2742:	4a 12 c8             	rex.WX adc %al,%cl
    2745:	0a 00                	or     (%rax),%al
    2747:	00 02                	add    %al,(%rdx)
    2749:	91                   	xchg   %eax,%ecx
    274a:	58                   	pop    %rax
    274b:	02 7a 9d             	add    -0x63(%rdx),%bh
    274e:	10 00                	adc    %al,(%rax)
    2750:	00 80 ff ff c0 02    	add    %al,0x2c0ffff(%rax)
    2756:	00 00                	add    %al,(%rax)
    2758:	00 09                	add    %cl,(%rcx)
    275a:	c9                   	leave  
    275b:	05 00 00 40 2e       	add    $0x2e400000,%eax
    2760:	9c                   	pushf  
    2761:	10 00                	adc    %al,(%rax)
    2763:	00 80 ff ff a9 00    	add    %al,0xa9ffff(%rax)
    2769:	00 00                	add    %al,(%rax)
    276b:	00 00                	add    %al,(%rax)
    276d:	00 00                	add    %al,(%rax)
    276f:	01 9c 63 10 00 00 0a 	add    %ebx,0xa000010(%rbx,%riz,2)
    2776:	72 73                	jb     27eb <OLDSS+0x2733>
    2778:	70 00                	jo     277a <OLDSS+0x26c2>
    277a:	40 29 88 00 00 00 02 	rex sub %ecx,0x2000000(%rax)
    2781:	91                   	xchg   %eax,%ecx
    2782:	48 0b 80 05 00 00 40 	or     0x40000005(%rax),%rax
    2789:	3b 88 00 00 00 02    	cmp    0x2000000(%rax),%ecx
    278f:	91                   	xchg   %eax,%ecx
    2790:	40 06                	rex (bad) 
    2792:	70 00                	jo     2794 <OLDSS+0x26dc>
    2794:	42 12 c8             	rex.X adc %al,%cl
    2797:	0a 00                	or     (%rax),%al
    2799:	00 02                	add    %al,(%rdx)
    279b:	91                   	xchg   %eax,%ecx
    279c:	58                   	pop    %rax
    279d:	02 d1                	add    %cl,%dl
    279f:	9c                   	pushf  
    27a0:	10 00                	adc    %al,(%rax)
    27a2:	00 80 ff ff c0 02    	add    %al,0x2c0ffff(%rax)
    27a8:	00 00                	add    %al,(%rax)
    27aa:	00 09                	add    %cl,(%rcx)
    27ac:	fd                   	std    
    27ad:	05 00 00 38 85       	add    $0x85380000,%eax
    27b2:	9b                   	fwait
    27b3:	10 00                	adc    %al,(%rax)
    27b5:	00 80 ff ff a9 00    	add    %al,0xa9ffff(%rax)
    27bb:	00 00                	add    %al,(%rax)
    27bd:	00 00                	add    %al,(%rax)
    27bf:	00 00                	add    %al,(%rax)
    27c1:	01 9c b5 10 00 00 0a 	add    %ebx,0xa000010(%rbp,%rsi,4)
    27c8:	72 73                	jb     283d <OLDSS+0x2785>
    27ca:	70 00                	jo     27cc <OLDSS+0x2714>
    27cc:	38 28                	cmp    %ch,(%rax)
    27ce:	88 00                	mov    %al,(%rax)
    27d0:	00 00                	add    %al,(%rax)
    27d2:	02 91 48 0b 80 05    	add    0x5800b48(%rcx),%dl
    27d8:	00 00                	add    %al,(%rax)
    27da:	38 3a                	cmp    %bh,(%rdx)
    27dc:	88 00                	mov    %al,(%rax)
    27de:	00 00                	add    %al,(%rax)
    27e0:	02 91 40 06 70 00    	add    0x700640(%rcx),%dl
    27e6:	3a 12                	cmp    (%rdx),%dl
    27e8:	c8 0a 00 00          	enter  $0xa,$0x0
    27ec:	02 91 58 02 28 9c    	add    -0x63d7fda8(%rcx),%dl
    27f2:	10 00                	adc    %al,(%rax)
    27f4:	00 80 ff ff c0 02    	add    %al,0x2c0ffff(%rax)
    27fa:	00 00                	add    %al,(%rax)
    27fc:	00 09                	add    %cl,(%rcx)
    27fe:	bf 05 00 00 30       	mov    $0x30000005,%edi
    2803:	dc 9a 10 00 00 80    	fcompl -0x7ffffff0(%rdx)
    2809:	ff                   	(bad)  
    280a:	ff a9 00 00 00 00    	ljmp   *0x0(%rcx)
    2810:	00 00                	add    %al,(%rax)
    2812:	00 01                	add    %al,(%rcx)
    2814:	9c                   	pushf  
    2815:	07                   	(bad)  
    2816:	11 00                	adc    %eax,(%rax)
    2818:	00 0a                	add    %cl,(%rdx)
    281a:	72 73                	jb     288f <OLDSS+0x27d7>
    281c:	70 00                	jo     281e <OLDSS+0x2766>
    281e:	30 1e                	xor    %bl,(%rsi)
    2820:	88 00                	mov    %al,(%rax)
    2822:	00 00                	add    %al,(%rax)
    2824:	02 91 48 0b 80 05    	add    0x5800b48(%rcx),%dl
    282a:	00 00                	add    %al,(%rax)
    282c:	30 30                	xor    %dh,(%rax)
    282e:	88 00                	mov    %al,(%rax)
    2830:	00 00                	add    %al,(%rax)
    2832:	02 91 40 06 70 00    	add    0x700640(%rcx),%dl
    2838:	32 12                	xor    (%rdx),%dl
    283a:	c8 0a 00 00          	enter  $0xa,$0x0
    283e:	02 91 58 02 7f 9b    	add    -0x6480fda8(%rcx),%dl
    2844:	10 00                	adc    %al,(%rax)
    2846:	00 80 ff ff c0 02    	add    %al,0x2c0ffff(%rax)
    284c:	00 00                	add    %al,(%rax)
    284e:	00 09                	add    %cl,(%rcx)
    2850:	24 06                	and    $0x6,%al
    2852:	00 00                	add    %al,(%rax)
    2854:	28 33                	sub    %dh,(%rbx)
    2856:	9a                   	(bad)  
    2857:	10 00                	adc    %al,(%rax)
    2859:	00 80 ff ff a9 00    	add    %al,0xa9ffff(%rax)
    285f:	00 00                	add    %al,(%rax)
    2861:	00 00                	add    %al,(%rax)
    2863:	00 00                	add    %al,(%rax)
    2865:	01 9c 59 11 00 00 0a 	add    %ebx,0xa000011(%rcx,%rbx,2)
    286c:	72 73                	jb     28e1 <OLDSS+0x2829>
    286e:	70 00                	jo     2870 <OLDSS+0x27b8>
    2870:	28 20                	sub    %ah,(%rax)
    2872:	88 00                	mov    %al,(%rax)
    2874:	00 00                	add    %al,(%rax)
    2876:	02 91 48 0b 80 05    	add    0x5800b48(%rcx),%dl
    287c:	00 00                	add    %al,(%rax)
    287e:	28 32                	sub    %dh,(%rdx)
    2880:	88 00                	mov    %al,(%rax)
    2882:	00 00                	add    %al,(%rax)
    2884:	02 91 40 06 70 00    	add    0x700640(%rcx),%dl
    288a:	2a 12                	sub    (%rdx),%dl
    288c:	c8 0a 00 00          	enter  $0xa,$0x0
    2890:	02 91 58 02 d6 9a    	add    -0x6529fda8(%rcx),%dl
    2896:	10 00                	adc    %al,(%rax)
    2898:	00 80 ff ff c0 02    	add    %al,0x2c0ffff(%rax)
    289e:	00 00                	add    %al,(%rax)
    28a0:	00 09                	add    %cl,(%rcx)
    28a2:	a1 05 00 00 20 8a 99 	movabs 0x10998a20000005,%eax
    28a9:	10 00 
    28ab:	00 80 ff ff a9 00    	add    %al,0xa9ffff(%rax)
    28b1:	00 00                	add    %al,(%rax)
    28b3:	00 00                	add    %al,(%rax)
    28b5:	00 00                	add    %al,(%rax)
    28b7:	01 9c ab 11 00 00 0a 	add    %ebx,0xa000011(%rbx,%rbp,4)
    28be:	72 73                	jb     2933 <OLDSS+0x287b>
    28c0:	70 00                	jo     28c2 <OLDSS+0x280a>
    28c2:	20 1c 88             	and    %bl,(%rax,%rcx,4)
    28c5:	00 00                	add    %al,(%rax)
    28c7:	00 02                	add    %al,(%rdx)
    28c9:	91                   	xchg   %eax,%ecx
    28ca:	48 0b 80 05 00 00 20 	or     0x20000005(%rax),%rax
    28d1:	2e 88 00             	cs mov %al,(%rax)
    28d4:	00 00                	add    %al,(%rax)
    28d6:	02 91 40 06 70 00    	add    0x700640(%rcx),%dl
    28dc:	22 12                	and    (%rdx),%dl
    28de:	c8 0a 00 00          	enter  $0xa,$0x0
    28e2:	02 91 58 02 2d 9a    	add    -0x65d2fda8(%rcx),%dl
    28e8:	10 00                	adc    %al,(%rax)
    28ea:	00 80 ff ff c0 02    	add    %al,0x2c0ffff(%rax)
    28f0:	00 00                	add    %al,(%rax)
    28f2:	00 09                	add    %cl,(%rcx)
    28f4:	8b 05 00 00 17 e1    	mov    -0x1ee90000(%rip),%eax        # ffffffffe11728fa <_ebss+0x7fffe106059a>
    28fa:	98                   	cwtl   
    28fb:	10 00                	adc    %al,(%rax)
    28fd:	00 80 ff ff a9 00    	add    %al,0xa9ffff(%rax)
    2903:	00 00                	add    %al,(%rax)
    2905:	00 00                	add    %al,(%rax)
    2907:	00 00                	add    %al,(%rax)
    2909:	01 9c fd 11 00 00 0a 	add    %ebx,0xa000011(%rbp,%rdi,8)
    2910:	72 73                	jb     2985 <OLDSS+0x28cd>
    2912:	70 00                	jo     2914 <OLDSS+0x285c>
    2914:	17                   	(bad)  
    2915:	1b 88 00 00 00 02    	sbb    0x2000000(%rax),%ecx
    291b:	91                   	xchg   %eax,%ecx
    291c:	48 0b 80 05 00 00 17 	or     0x17000005(%rax),%rax
    2923:	2d 88 00 00 00       	sub    $0x88,%eax
    2928:	02 91 40 06 70 00    	add    0x700640(%rcx),%dl
    292e:	19 12                	sbb    %edx,(%rdx)
    2930:	c8 0a 00 00          	enter  $0xa,$0x0
    2934:	02 91 58 02 84 99    	add    -0x667bfda8(%rcx),%dl
    293a:	10 00                	adc    %al,(%rax)
    293c:	00 80 ff ff c0 02    	add    %al,0x2c0ffff(%rax)
    2942:	00 00                	add    %al,(%rax)
    2944:	00 09                	add    %cl,(%rcx)
    2946:	3e 06                	ds (bad) 
    2948:	00 00                	add    %al,(%rax)
    294a:	0f 38 98             	(bad)  
    294d:	10 00                	adc    %al,(%rax)
    294f:	00 80 ff ff a9 00    	add    %al,0xa9ffff(%rax)
    2955:	00 00                	add    %al,(%rax)
    2957:	00 00                	add    %al,(%rax)
    2959:	00 00                	add    %al,(%rax)
    295b:	01 9c 4f 12 00 00 0a 	add    %ebx,0xa000012(%rdi,%rcx,2)
    2962:	72 73                	jb     29d7 <OLDSS+0x291f>
    2964:	70 00                	jo     2966 <OLDSS+0x28ae>
    2966:	0f 1d 88 00 00 00 02 	nopl   0x2000000(%rax)
    296d:	91                   	xchg   %eax,%ecx
    296e:	48 0b 80 05 00 00 0f 	or     0xf000005(%rax),%rax
    2975:	2f                   	(bad)  
    2976:	88 00                	mov    %al,(%rax)
    2978:	00 00                	add    %al,(%rax)
    297a:	02 91 40 06 70 00    	add    0x700640(%rcx),%dl
    2980:	11 12                	adc    %edx,(%rdx)
    2982:	c8 0a 00 00          	enter  $0xa,$0x0
    2986:	02 91 58 02 db 98    	add    -0x6724fda8(%rcx),%dl
    298c:	10 00                	adc    %al,(%rax)
    298e:	00 80 ff ff c0 02    	add    %al,0x2c0ffff(%rax)
    2994:	00 00                	add    %al,(%rax)
    2996:	00 09                	add    %cl,(%rcx)
    2998:	58                   	pop    %rax
    2999:	06                   	(bad)  
    299a:	00 00                	add    %al,(%rax)
    299c:	07                   	(bad)  
    299d:	8f                   	(bad)  
    299e:	97                   	xchg   %eax,%edi
    299f:	10 00                	adc    %al,(%rax)
    29a1:	00 80 ff ff a9 00    	add    %al,0xa9ffff(%rax)
    29a7:	00 00                	add    %al,(%rax)
    29a9:	00 00                	add    %al,(%rax)
    29ab:	00 00                	add    %al,(%rax)
    29ad:	01 9c a1 12 00 00 0a 	add    %ebx,0xa000012(%rcx,%riz,4)
    29b4:	72 73                	jb     2a29 <OLDSS+0x2971>
    29b6:	70 00                	jo     29b8 <OLDSS+0x2900>
    29b8:	07                   	(bad)  
    29b9:	24 88                	and    $0x88,%al
    29bb:	00 00                	add    %al,(%rax)
    29bd:	00 02                	add    %al,(%rdx)
    29bf:	91                   	xchg   %eax,%ecx
    29c0:	48 0b 80 05 00 00 07 	or     0x7000005(%rax),%rax
    29c7:	36 88 00             	ss mov %al,(%rax)
    29ca:	00 00                	add    %al,(%rax)
    29cc:	02 91 40 06 70 00    	add    0x700640(%rcx),%dl
    29d2:	09 12                	or     %edx,(%rdx)
    29d4:	c8 0a 00 00          	enter  $0xa,$0x0
    29d8:	02 91 58 02 32 98    	add    -0x67cdfda8(%rcx),%dl
    29de:	10 00                	adc    %al,(%rax)
    29e0:	00 80 ff ff c0 02    	add    %al,0x2c0ffff(%rax)
    29e6:	00 00                	add    %al,(%rax)
    29e8:	00 17                	add    %dl,(%rdi)
    29ea:	68 06 00 00 57       	push   $0x57000006
    29ef:	2c e2                	sub    $0xe2,%al
    29f1:	12 00                	adc    (%rax),%al
    29f3:	00 0f                	add    %cl,(%rdi)
    29f5:	6e                   	outsb  %ds:(%rsi),(%dx)
    29f6:	00 57 49             	add    %dl,0x49(%rdi)
    29f9:	81 00 00 00 0f 69    	addl   $0x690f0000,(%rax)
    29ff:	73 74                	jae    2a75 <OLDSS+0x29bd>
    2a01:	00 57 59             	add    %dl,0x59(%rdi)
    2a04:	5b                   	pop    %rbx
    2a05:	00 00                	add    %al,(%rax)
    2a07:	00 14 74             	add    %dl,(%rsp,%rsi,2)
    2a0a:	03 00                	add    (%rax),%eax
    2a0c:	00 57 64             	add    %dl,0x64(%rdi)
    2a0f:	e2 12                	loop   2a23 <OLDSS+0x296b>
    2a11:	00 00                	add    %al,(%rax)
    2a13:	15 10 5f 05 00       	adc    $0x55f10,%eax
    2a18:	00 59 88             	add    %bl,-0x78(%rcx)
    2a1b:	00 00                	add    %al,(%rax)
    2a1d:	00 10                	add    %dl,(%rax)
    2a1f:	64 05 00 00 59 88    	fs add $0x88590000,%eax
    2a25:	00 00                	add    %al,(%rax)
    2a27:	00 00                	add    %al,(%rax)
    2a29:	00 27                	add    %ah,(%rdi)
    2a2b:	08 17                	or     %dl,(%rdi)
    2a2d:	ad                   	lods   %ds:(%rsi),%eax
    2a2e:	06                   	(bad)  
    2a2f:	00 00                	add    %al,(%rax)
    2a31:	52                   	push   %rdx
    2a32:	2d 25 13 00 00       	sub    $0x1325,%eax
    2a37:	0f 6e 00             	movd   (%rax),%mm0
    2a3a:	52                   	push   %rdx
    2a3b:	48 81 00 00 00 0f 69 	addq   $0x690f0000,(%rax)
    2a42:	73 74                	jae    2ab8 <OLDSS+0x2a00>
    2a44:	00 52 58             	add    %dl,0x58(%rdx)
    2a47:	5b                   	pop    %rbx
    2a48:	00 00                	add    %al,(%rax)
    2a4a:	00 14 74             	add    %dl,(%rsp,%rsi,2)
    2a4d:	03 00                	add    (%rax),%eax
    2a4f:	00 52 63             	add    %dl,0x63(%rdx)
    2a52:	e2 12                	loop   2a66 <OLDSS+0x29ae>
    2a54:	00 00                	add    %al,(%rax)
    2a56:	15 10 5f 05 00       	adc    $0x55f10,%eax
    2a5b:	00 54 88 00          	add    %dl,0x0(%rax,%rcx,4)
    2a5f:	00 00                	add    %al,(%rax)
    2a61:	10 64 05 00          	adc    %ah,0x0(%rbp,%rax,1)
    2a65:	00 54 88 00          	add    %dl,0x0(%rax,%rcx,4)
    2a69:	00 00                	add    %al,(%rax)
    2a6b:	00 00                	add    %al,(%rax)
    2a6d:	28 78 06             	sub    %bh,0x6(%rax)
    2a70:	00 00                	add    %al,(%rax)
    2a72:	02 4d 2c             	add    0x2c(%rbp),%cl
    2a75:	03 0f                	add    (%rdi),%ecx
    2a77:	6e                   	outsb  %ds:(%rsi),(%dx)
    2a78:	00 4d 47             	add    %cl,0x47(%rbp)
    2a7b:	81 00 00 00 0f 69    	addl   $0x690f0000,(%rax)
    2a81:	73 74                	jae    2af7 <OLDSS+0x2a3f>
    2a83:	00 4d 57             	add    %cl,0x57(%rbp)
    2a86:	5b                   	pop    %rbx
    2a87:	00 00                	add    %al,(%rax)
    2a89:	00 14 74             	add    %dl,(%rsp,%rsi,2)
    2a8c:	03 00                	add    (%rax),%eax
    2a8e:	00 4d 62             	add    %cl,0x62(%rbp)
    2a91:	e2 12                	loop   2aa5 <OLDSS+0x29ed>
    2a93:	00 00                	add    %al,(%rax)
    2a95:	15 10 5f 05 00       	adc    $0x55f10,%eax
    2a9a:	00 4f 88             	add    %cl,-0x78(%rdi)
    2a9d:	00 00                	add    %al,(%rax)
    2a9f:	00 10                	add    %dl,(%rax)
    2aa1:	64 05 00 00 4f 88    	fs add $0x884f0000,%eax
    2aa7:	00 00                	add    %al,(%rax)
    2aa9:	00 00                	add    %al,(%rax)
    2aab:	00 00                	add    %al,(%rax)
    2aad:	2a 00                	sub    (%rax),%al
    2aaf:	00 00                	add    %al,(%rax)
    2ab1:	02 00                	add    (%rax),%al
    2ab3:	b6 0a                	mov    $0xa,%dh
    2ab5:	00 00                	add    %al,(%rax)
    2ab7:	08 01                	or     %al,(%rcx)
    2ab9:	ff 0f                	decl   (%rdi)
    2abb:	00 00                	add    %al,(%rax)
    2abd:	68 bf 10 00 00       	push   $0x10bf
    2ac2:	80 ff ff             	cmp    $0xff,%bh
    2ac5:	6f                   	outsl  %ds:(%rsi),(%dx)
    2ac6:	c1 10 00             	rcll   $0x0,(%rax)
    2ac9:	00 80 ff ff d7 06    	add    %al,0x6d7ffff(%rax)
    2acf:	00 00                	add    %al,(%rax)
    2ad1:	23 04 00             	and    (%rax,%rax,1),%eax
    2ad4:	00 4b 04             	add    %cl,0x4(%rbx)
    2ad7:	00 00                	add    %al,(%rax)
    2ad9:	01 80 2a 00 00 00    	add    %eax,0x2a(%rax)
    2adf:	02 00                	add    (%rax),%al
    2ae1:	ca 0a 00             	lret   $0xa
    2ae4:	00 08                	add    %cl,(%rax)
    2ae6:	01 ee                	add    %ebp,%esi
    2ae8:	10 00                	adc    %al,(%rax)
    2aea:	00 00                	add    %al,(%rax)
    2aec:	00 10                	add    %dl,(%rax)
    2aee:	00 00                	add    %al,(%rax)
    2af0:	80 ff ff             	cmp    $0xff,%bh
    2af3:	00 40 10             	add    %al,0x10(%rax)
    2af6:	00 00                	add    %al,(%rax)
    2af8:	80 ff ff             	cmp    $0xff,%bh
    2afb:	11 04 00             	adc    %eax,(%rax,%rax,1)
    2afe:	00 23                	add    %ah,(%rbx)
    2b00:	04 00                	add    $0x0,%al
    2b02:	00 4b 04             	add    %cl,0x4(%rbx)
    2b05:	00 00                	add    %al,(%rax)
    2b07:	01                   	.byte 0x1
    2b08:	80                   	.byte 0x80

Disassembly of section .debug_abbrev:

0000000000000000 <.debug_abbrev>:
   0:	01 05 00 49 13 00    	add    %eax,0x134900(%rip)        # 134906 <OLDSS+0x13484e>
   6:	00 02                	add    %al,(%rdx)
   8:	24 00                	and    $0x0,%al
   a:	0b 0b                	or     (%rbx),%ecx
   c:	3e 0b 03             	ds or  (%rbx),%eax
   f:	0e                   	(bad)  
  10:	00 00                	add    %al,(%rax)
  12:	03 48 00             	add    0x0(%rax),%ecx
  15:	7d 01                	jge    18 <R12>
  17:	7f 13                	jg     2c <R10+0x4>
  19:	00 00                	add    %al,(%rax)
  1b:	04 0d                	add    $0xd,%al
  1d:	00 03                	add    %al,(%rbx)
  1f:	0e                   	(bad)  
  20:	3a 21                	cmp    (%rcx),%ah
  22:	02 3b                	add    (%rbx),%bh
  24:	0b 39                	or     (%rcx),%edi
  26:	0b 49 13             	or     0x13(%rcx),%ecx
  29:	38 0b                	cmp    %cl,(%rbx)
  2b:	00 00                	add    %al,(%rax)
  2d:	05 2e 01 3f 19       	add    $0x193f012e,%eax
  32:	03 0e                	add    (%rsi),%ecx
  34:	3a 0b                	cmp    (%rbx),%cl
  36:	3b 0b                	cmp    (%rbx),%ecx
  38:	39 21                	cmp    %esp,(%rcx)
  3a:	06                   	(bad)  
  3b:	3c 19                	cmp    $0x19,%al
  3d:	01 13                	add    %edx,(%rbx)
  3f:	00 00                	add    %al,(%rax)
  41:	06                   	(bad)  
  42:	18 00                	sbb    %al,(%rax)
  44:	00 00                	add    %al,(%rax)
  46:	07                   	(bad)  
  47:	34 00                	xor    $0x0,%al
  49:	03 0e                	add    (%rsi),%ecx
  4b:	3a 0b                	cmp    (%rbx),%cl
  4d:	3b 0b                	cmp    (%rbx),%ecx
  4f:	39 0b                	cmp    %ecx,(%rbx)
  51:	49 13 3f             	adc    (%r15),%rdi
  54:	19 02                	sbb    %eax,(%rdx)
  56:	18 00                	sbb    %al,(%rax)
  58:	00 08                	add    %cl,(%rax)
  5a:	16                   	(bad)  
  5b:	00 03                	add    %al,(%rbx)
  5d:	0e                   	(bad)  
  5e:	3a 0b                	cmp    (%rbx),%cl
  60:	3b 0b                	cmp    (%rbx),%ecx
  62:	39 0b                	cmp    %ecx,(%rbx)
  64:	49 13 00             	adc    (%r8),%rax
  67:	00 09                	add    %cl,(%rcx)
  69:	2e 01 03             	cs add %eax,(%rbx)
  6c:	0e                   	(bad)  
  6d:	3a 21                	cmp    (%rcx),%ah
  6f:	01 3b                	add    %edi,(%rbx)
  71:	0b 39                	or     (%rcx),%edi
  73:	21 06                	and    %eax,(%rsi)
  75:	11 01                	adc    %eax,(%rcx)
  77:	12 07                	adc    (%rdi),%al
  79:	40 18 7a 19          	sbb    %dil,0x19(%rdx)
  7d:	01 13                	add    %edx,(%rbx)
  7f:	00 00                	add    %al,(%rax)
  81:	0a 11                	or     (%rcx),%dl
  83:	01 25 0e 13 0b 03    	add    %esp,0x30b130e(%rip)        # 30b1397 <OLDSS+0x30b12df>
  89:	1f                   	(bad)  
  8a:	1b 1f                	sbb    (%rdi),%ebx
  8c:	11 01                	adc    %eax,(%rcx)
  8e:	12 07                	adc    (%rdi),%al
  90:	10 17                	adc    %dl,(%rdi)
  92:	00 00                	add    %al,(%rax)
  94:	0b 13                	or     (%rbx),%edx
  96:	01 0b                	add    %ecx,(%rbx)
  98:	0b 3a                	or     (%rdx),%edi
  9a:	0b 3b                	or     (%rbx),%edi
  9c:	0b 39                	or     (%rcx),%edi
  9e:	0b 01                	or     (%rcx),%eax
  a0:	13 00                	adc    (%rax),%eax
  a2:	00 0c 24             	add    %cl,(%rsp)
  a5:	00 0b                	add    %cl,(%rbx)
  a7:	0b 3e                	or     (%rsi),%edi
  a9:	0b 03                	or     (%rbx),%eax
  ab:	08 00                	or     %al,(%rax)
  ad:	00 0d 0f 00 0b 0b    	add    %cl,0xb0b000f(%rip)        # b0b00c2 <OLDSS+0xb0b000a>
  b3:	49 13 00             	adc    (%r8),%rax
  b6:	00 0e                	add    %cl,(%rsi)
  b8:	2e 01 3f             	cs add %edi,(%rdi)
  bb:	19 03                	sbb    %eax,(%rbx)
  bd:	0e                   	(bad)  
  be:	3a 0b                	cmp    (%rbx),%cl
  c0:	3b 0b                	cmp    (%rbx),%ecx
  c2:	39 0b                	cmp    %ecx,(%rbx)
  c4:	27                   	(bad)  
  c5:	19 3c 19             	sbb    %edi,(%rcx,%rbx,1)
  c8:	01 13                	add    %edx,(%rbx)
  ca:	00 00                	add    %al,(%rax)
  cc:	0f 2e 01             	ucomiss (%rcx),%xmm0
  cf:	3f                   	(bad)  
  d0:	19 03                	sbb    %eax,(%rbx)
  d2:	0e                   	(bad)  
  d3:	3a 0b                	cmp    (%rbx),%cl
  d5:	3b 0b                	cmp    (%rbx),%ecx
  d7:	39 0b                	cmp    %ecx,(%rbx)
  d9:	27                   	(bad)  
  da:	19 49 13             	sbb    %ecx,0x13(%rcx)
  dd:	11 01                	adc    %eax,(%rcx)
  df:	12 07                	adc    (%rdi),%al
  e1:	40 18 7a 19          	sbb    %dil,0x19(%rdx)
  e5:	00 00                	add    %al,(%rax)
  e7:	10 34 00             	adc    %dh,(%rax,%rax,1)
  ea:	03 08                	add    (%rax),%ecx
  ec:	3a 0b                	cmp    (%rbx),%cl
  ee:	3b 0b                	cmp    (%rbx),%ecx
  f0:	39 0b                	cmp    %ecx,(%rbx)
  f2:	49 13 02             	adc    (%r10),%rax
  f5:	18 00                	sbb    %al,(%rax)
  f7:	00 00                	add    %al,(%rax)
  f9:	01 0d 00 03 0e 3a    	add    %ecx,0x3a0e0300(%rip)        # 3a0e03ff <OLDSS+0x3a0e0347>
  ff:	21 02                	and    %eax,(%rdx)
 101:	3b 0b                	cmp    (%rbx),%ecx
 103:	39 0b                	cmp    %ecx,(%rbx)
 105:	49 13 38             	adc    (%r8),%rdi
 108:	0b 00                	or     (%rax),%eax
 10a:	00 02                	add    %al,(%rdx)
 10c:	13 01                	adc    (%rcx),%eax
 10e:	0b 21                	or     (%rcx),%esp
 110:	20 3a                	and    %bh,(%rdx)
 112:	21 02                	and    %eax,(%rdx)
 114:	3b 0b                	cmp    (%rbx),%ecx
 116:	39 21                	cmp    %esp,(%rcx)
 118:	09 01                	or     %eax,(%rcx)
 11a:	13 00                	adc    (%rax),%eax
 11c:	00 03                	add    %al,(%rbx)
 11e:	24 00                	and    $0x0,%al
 120:	0b 0b                	or     (%rbx),%ecx
 122:	3e 21 07             	ds and %eax,(%rdi)
 125:	03 0e                	add    (%rsi),%ecx
 127:	00 00                	add    %al,(%rax)
 129:	04 16                	add    $0x16,%al
 12b:	00 03                	add    %al,(%rbx)
 12d:	0e                   	(bad)  
 12e:	3a 21                	cmp    (%rcx),%ah
 130:	02 3b                	add    (%rbx),%bh
 132:	0b 39                	or     (%rcx),%edi
 134:	21 02                	and    %eax,(%rdx)
 136:	49 13 00             	adc    (%r8),%rax
 139:	00 05 11 01 25 0e    	add    %al,0xe250111(%rip)        # e250250 <OLDSS+0xe250198>
 13f:	13 0b                	adc    (%rbx),%ecx
 141:	03 1f                	add    (%rdi),%ebx
 143:	1b 1f                	sbb    (%rdi),%ebx
 145:	11 01                	adc    %eax,(%rcx)
 147:	12 07                	adc    (%rdi),%al
 149:	10 17                	adc    %dl,(%rdi)
 14b:	00 00                	add    %al,(%rax)
 14d:	06                   	(bad)  
 14e:	34 00                	xor    $0x0,%al
 150:	03 0e                	add    (%rsi),%ecx
 152:	3a 0b                	cmp    (%rbx),%cl
 154:	3b 0b                	cmp    (%rbx),%ecx
 156:	39 0b                	cmp    %ecx,(%rbx)
 158:	49 13 3f             	adc    (%r15),%rdi
 15b:	19 3c 19             	sbb    %edi,(%rcx,%rbx,1)
 15e:	00 00                	add    %al,(%rax)
 160:	07                   	(bad)  
 161:	34 00                	xor    $0x0,%al
 163:	47 13 3a             	rex.RXB adc (%r10),%r15d
 166:	0b 3b                	or     (%rbx),%edi
 168:	0b 39                	or     (%rcx),%edi
 16a:	0b 02                	or     (%rdx),%eax
 16c:	18 00                	sbb    %al,(%rax)
 16e:	00 08                	add    %cl,(%rax)
 170:	2e 01 3f             	cs add %edi,(%rdi)
 173:	19 03                	sbb    %eax,(%rbx)
 175:	0e                   	(bad)  
 176:	3a 0b                	cmp    (%rbx),%cl
 178:	3b 0b                	cmp    (%rbx),%ecx
 17a:	39 0b                	cmp    %ecx,(%rbx)
 17c:	11 01                	adc    %eax,(%rcx)
 17e:	12 07                	adc    (%rdi),%al
 180:	40 18 7a 19          	sbb    %dil,0x19(%rdx)
 184:	01 13                	add    %edx,(%rbx)
 186:	00 00                	add    %al,(%rax)
 188:	09 34 00             	or     %esi,(%rax,%rax,1)
 18b:	03 0e                	add    (%rsi),%ecx
 18d:	3a 0b                	cmp    (%rbx),%cl
 18f:	3b 0b                	cmp    (%rbx),%ecx
 191:	39 0b                	cmp    %ecx,(%rbx)
 193:	49 13 02             	adc    (%r10),%rax
 196:	18 00                	sbb    %al,(%rax)
 198:	00 0a                	add    %cl,(%rdx)
 19a:	0f 00 0b             	str    (%rbx)
 19d:	0b 49 13             	or     0x13(%rcx),%ecx
 1a0:	00 00                	add    %al,(%rax)
 1a2:	00 01                	add    %al,(%rcx)
 1a4:	48 00 7d 01          	rex.W add %dil,0x1(%rbp)
 1a8:	7f 13                	jg     1bd <OLDSS+0x105>
 1aa:	00 00                	add    %al,(%rax)
 1ac:	02 05 00 03 08 3a    	add    0x3a080300(%rip),%al        # 3a0804b2 <OLDSS+0x3a0803fa>
 1b2:	21 01                	and    %eax,(%rcx)
 1b4:	3b 0b                	cmp    (%rbx),%ecx
 1b6:	39 0b                	cmp    %ecx,(%rbx)
 1b8:	49 13 02             	adc    (%r10),%rax
 1bb:	18 00                	sbb    %al,(%rax)
 1bd:	00 03                	add    %al,(%rbx)
 1bf:	0d 00 03 0e 3a       	or     $0x3a0e0300,%eax
 1c4:	0b 3b                	or     (%rbx),%edi
 1c6:	0b 39                	or     (%rcx),%edi
 1c8:	0b 49 13             	or     0x13(%rcx),%ecx
 1cb:	38 0b                	cmp    %cl,(%rbx)
 1cd:	00 00                	add    %al,(%rax)
 1cf:	04 05                	add    $0x5,%al
 1d1:	00 03                	add    %al,(%rbx)
 1d3:	0e                   	(bad)  
 1d4:	3a 21                	cmp    (%rcx),%ah
 1d6:	01 3b                	add    %edi,(%rbx)
 1d8:	0b 39                	or     (%rcx),%edi
 1da:	0b 49 13             	or     0x13(%rcx),%ecx
 1dd:	02 18                	add    (%rax),%bl
 1df:	00 00                	add    %al,(%rax)
 1e1:	05 16 00 03 0e       	add    $0xe030016,%eax
 1e6:	3a 0b                	cmp    (%rbx),%cl
 1e8:	3b 0b                	cmp    (%rbx),%ecx
 1ea:	39 0b                	cmp    %ecx,(%rbx)
 1ec:	49 13 00             	adc    (%r8),%rax
 1ef:	00 06                	add    %al,(%rsi)
 1f1:	24 00                	and    $0x0,%al
 1f3:	0b 0b                	or     (%rbx),%ecx
 1f5:	3e 0b 03             	ds or  (%rbx),%eax
 1f8:	0e                   	(bad)  
 1f9:	00 00                	add    %al,(%rax)
 1fb:	07                   	(bad)  
 1fc:	34 00                	xor    $0x0,%al
 1fe:	03 0e                	add    (%rsi),%ecx
 200:	3a 21                	cmp    (%rcx),%ah
 202:	01 3b                	add    %edi,(%rbx)
 204:	0b 39                	or     (%rcx),%edi
 206:	0b 49 13             	or     0x13(%rcx),%ecx
 209:	02 18                	add    (%rax),%bl
 20b:	00 00                	add    %al,(%rax)
 20d:	08 0f                	or     %cl,(%rdi)
 20f:	00 0b                	add    %cl,(%rbx)
 211:	21 08                	and    %ecx,(%rax)
 213:	49 13 00             	adc    (%r8),%rax
 216:	00 09                	add    %cl,(%rcx)
 218:	2e 01 3f             	cs add %edi,(%rdi)
 21b:	19 03                	sbb    %eax,(%rbx)
 21d:	0e                   	(bad)  
 21e:	3a 21                	cmp    (%rcx),%ah
 220:	01 3b                	add    %edi,(%rbx)
 222:	0b 39                	or     (%rcx),%edi
 224:	21 06                	and    %eax,(%rsi)
 226:	27                   	(bad)  
 227:	19 11                	sbb    %edx,(%rcx)
 229:	01 12                	add    %edx,(%rdx)
 22b:	07                   	(bad)  
 22c:	40 18 7a 19          	sbb    %dil,0x19(%rdx)
 230:	01 13                	add    %edx,(%rbx)
 232:	00 00                	add    %al,(%rax)
 234:	0a 05 00 49 13 00    	or     0x134900(%rip),%al        # 134b3a <OLDSS+0x134a82>
 23a:	00 0b                	add    %cl,(%rbx)
 23c:	34 00                	xor    $0x0,%al
 23e:	03 08                	add    (%rax),%ecx
 240:	3a 21                	cmp    (%rcx),%ah
 242:	01 3b                	add    %edi,(%rbx)
 244:	0b 39                	or     (%rcx),%edi
 246:	0b 49 13             	or     0x13(%rcx),%ecx
 249:	02 18                	add    (%rax),%bl
 24b:	00 00                	add    %al,(%rax)
 24d:	0c 13                	or     $0x13,%al
 24f:	01 0b                	add    %ecx,(%rbx)
 251:	0b 3a                	or     (%rdx),%edi
 253:	0b 3b                	or     (%rbx),%edi
 255:	0b 39                	or     (%rcx),%edi
 257:	21 09                	and    %ecx,(%rcx)
 259:	01 13                	add    %edx,(%rbx)
 25b:	00 00                	add    %al,(%rax)
 25d:	0d 0d 00 03 0e       	or     $0xe03000d,%eax
 262:	3a 21                	cmp    (%rcx),%ah
 264:	07                   	(bad)  
 265:	3b 21                	cmp    (%rcx),%esp
 267:	00 49 13             	add    %cl,0x13(%rcx)
 26a:	38 0b                	cmp    %cl,(%rbx)
 26c:	00 00                	add    %al,(%rax)
 26e:	0e                   	(bad)  
 26f:	0b 01                	or     (%rcx),%eax
 271:	11 01                	adc    %eax,(%rcx)
 273:	12 07                	adc    (%rdi),%al
 275:	00 00                	add    %al,(%rax)
 277:	0f 0d 00             	prefetch (%rax)
 27a:	03 08                	add    (%rax),%ecx
 27c:	3a 21                	cmp    (%rcx),%ah
 27e:	04 3b                	add    $0x3b,%al
 280:	0b 39                	or     (%rcx),%edi
 282:	0b 49 13             	or     0x13(%rcx),%ecx
 285:	38 0b                	cmp    %cl,(%rbx)
 287:	00 00                	add    %al,(%rax)
 289:	10 34 00             	adc    %dh,(%rax,%rax,1)
 28c:	03 0e                	add    (%rsi),%ecx
 28e:	3a 0b                	cmp    (%rbx),%cl
 290:	3b 0b                	cmp    (%rbx),%ecx
 292:	39 0b                	cmp    %ecx,(%rbx)
 294:	49 13 3f             	adc    (%r15),%rdi
 297:	19 02                	sbb    %eax,(%rdx)
 299:	18 00                	sbb    %al,(%rax)
 29b:	00 11                	add    %dl,(%rcx)
 29d:	01 01                	add    %eax,(%rcx)
 29f:	49 13 01             	adc    (%r9),%rax
 2a2:	13 00                	adc    (%rax),%eax
 2a4:	00 12                	add    %dl,(%rdx)
 2a6:	21 00                	and    %eax,(%rax)
 2a8:	49 13 2f             	adc    (%r15),%rbp
 2ab:	0b 00                	or     (%rax),%eax
 2ad:	00 13                	add    %dl,(%rbx)
 2af:	26 00 49 13          	es add %cl,0x13(%rcx)
 2b3:	00 00                	add    %al,(%rax)
 2b5:	14 11                	adc    $0x11,%al
 2b7:	01 25 0e 13 0b 03    	add    %esp,0x30b130e(%rip)        # 30b15cb <OLDSS+0x30b1513>
 2bd:	1f                   	(bad)  
 2be:	1b 1f                	sbb    (%rdi),%ebx
 2c0:	11 01                	adc    %eax,(%rcx)
 2c2:	12 07                	adc    (%rdi),%al
 2c4:	10 17                	adc    %dl,(%rdi)
 2c6:	00 00                	add    %al,(%rax)
 2c8:	15 34 00 03 0e       	adc    $0xe030034,%eax
 2cd:	3a 0b                	cmp    (%rbx),%cl
 2cf:	3b 0b                	cmp    (%rbx),%ecx
 2d1:	39 0b                	cmp    %ecx,(%rbx)
 2d3:	49 13 3f             	adc    (%r15),%rdi
 2d6:	19 3c 19             	sbb    %edi,(%rcx,%rbx,1)
 2d9:	00 00                	add    %al,(%rax)
 2db:	16                   	(bad)  
 2dc:	24 00                	and    $0x0,%al
 2de:	0b 0b                	or     (%rbx),%ecx
 2e0:	3e 0b 03             	ds or  (%rbx),%eax
 2e3:	08 00                	or     %al,(%rax)
 2e5:	00 17                	add    %dl,(%rdi)
 2e7:	16                   	(bad)  
 2e8:	00 03                	add    %al,(%rbx)
 2ea:	0e                   	(bad)  
 2eb:	49 13 00             	adc    (%r8),%rax
 2ee:	00 18                	add    %bl,(%rax)
 2f0:	13 01                	adc    (%rcx),%eax
 2f2:	03 0e                	add    (%rsi),%ecx
 2f4:	0b 0b                	or     (%rbx),%ecx
 2f6:	3a 0b                	cmp    (%rbx),%cl
 2f8:	3b 0b                	cmp    (%rbx),%ecx
 2fa:	01 13                	add    %edx,(%rbx)
 2fc:	00 00                	add    %al,(%rax)
 2fe:	19 0f                	sbb    %ecx,(%rdi)
 300:	00 0b                	add    %cl,(%rbx)
 302:	0b 00                	or     (%rax),%eax
 304:	00 1a                	add    %bl,(%rdx)
 306:	21 00                	and    %eax,(%rax)
 308:	49 13 2f             	adc    (%r15),%rbp
 30b:	05 00 00 1b 2e       	add    $0x2e1b0000,%eax
 310:	01 3f                	add    %edi,(%rdi)
 312:	19 03                	sbb    %eax,(%rbx)
 314:	0e                   	(bad)  
 315:	3a 0b                	cmp    (%rbx),%cl
 317:	3b 0b                	cmp    (%rbx),%ecx
 319:	39 0b                	cmp    %ecx,(%rbx)
 31b:	27                   	(bad)  
 31c:	19 49 13             	sbb    %ecx,0x13(%rcx)
 31f:	3c 19                	cmp    $0x19,%al
 321:	01 13                	add    %edx,(%rbx)
 323:	00 00                	add    %al,(%rax)
 325:	1c 2e                	sbb    $0x2e,%al
 327:	01 3f                	add    %edi,(%rdi)
 329:	19 03                	sbb    %eax,(%rbx)
 32b:	0e                   	(bad)  
 32c:	3a 0b                	cmp    (%rbx),%cl
 32e:	3b 0b                	cmp    (%rbx),%ecx
 330:	39 0b                	cmp    %ecx,(%rbx)
 332:	27                   	(bad)  
 333:	19 3c 19             	sbb    %edi,(%rcx,%rbx,1)
 336:	01 13                	add    %edx,(%rbx)
 338:	00 00                	add    %al,(%rax)
 33a:	1d 2e 00 3f 19       	sbb    $0x193f002e,%eax
 33f:	03 0e                	add    (%rsi),%ecx
 341:	3a 0b                	cmp    (%rbx),%cl
 343:	3b 0b                	cmp    (%rbx),%ecx
 345:	39 0b                	cmp    %ecx,(%rbx)
 347:	11 01                	adc    %eax,(%rcx)
 349:	12 07                	adc    (%rdi),%al
 34b:	40 18 7a 19          	sbb    %dil,0x19(%rdx)
 34f:	00 00                	add    %al,(%rax)
 351:	1e                   	(bad)  
 352:	2e 01 3f             	cs add %edi,(%rdi)
 355:	19 03                	sbb    %eax,(%rbx)
 357:	0e                   	(bad)  
 358:	3a 0b                	cmp    (%rbx),%cl
 35a:	3b 0b                	cmp    (%rbx),%ecx
 35c:	39 0b                	cmp    %ecx,(%rbx)
 35e:	11 01                	adc    %eax,(%rcx)
 360:	12 07                	adc    (%rdi),%al
 362:	40 18 7a 19          	sbb    %dil,0x19(%rdx)
 366:	01 13                	add    %edx,(%rbx)
 368:	00 00                	add    %al,(%rax)
 36a:	1f                   	(bad)  
 36b:	2e 01 3f             	cs add %edi,(%rdi)
 36e:	19 03                	sbb    %eax,(%rbx)
 370:	0e                   	(bad)  
 371:	3a 0b                	cmp    (%rbx),%cl
 373:	3b 0b                	cmp    (%rbx),%ecx
 375:	39 0b                	cmp    %ecx,(%rbx)
 377:	27                   	(bad)  
 378:	19 49 13             	sbb    %ecx,0x13(%rcx)
 37b:	11 01                	adc    %eax,(%rcx)
 37d:	12 07                	adc    (%rdi),%al
 37f:	40 18 7a 19          	sbb    %dil,0x19(%rdx)
 383:	01 13                	add    %edx,(%rbx)
 385:	00 00                	add    %al,(%rax)
 387:	20 18                	and    %bl,(%rax)
 389:	00 00                	add    %al,(%rax)
 38b:	00 00                	add    %al,(%rax)
 38d:	01 24 00             	add    %esp,(%rax,%rax,1)
 390:	0b 0b                	or     (%rbx),%ecx
 392:	3e 0b 03             	ds or  (%rbx),%eax
 395:	0e                   	(bad)  
 396:	00 00                	add    %al,(%rax)
 398:	02 05 00 03 0e 3a    	add    0x3a0e0300(%rip),%al        # 3a0e069e <OLDSS+0x3a0e05e6>
 39e:	21 01                	and    %eax,(%rcx)
 3a0:	3b 0b                	cmp    (%rbx),%ecx
 3a2:	39 0b                	cmp    %ecx,(%rbx)
 3a4:	49 13 02             	adc    (%r10),%rax
 3a7:	18 00                	sbb    %al,(%rax)
 3a9:	00 03                	add    %al,(%rbx)
 3ab:	34 00                	xor    $0x0,%al
 3ad:	03 0e                	add    (%rsi),%ecx
 3af:	3a 21                	cmp    (%rcx),%ah
 3b1:	01 3b                	add    %edi,(%rbx)
 3b3:	0b 39                	or     (%rcx),%edi
 3b5:	0b 49 13             	or     0x13(%rcx),%ecx
 3b8:	02 18                	add    (%rax),%bl
 3ba:	00 00                	add    %al,(%rax)
 3bc:	04 48                	add    $0x48,%al
 3be:	00 7d 01             	add    %bh,0x1(%rbp)
 3c1:	7f 13                	jg     3d6 <OLDSS+0x31e>
 3c3:	00 00                	add    %al,(%rax)
 3c5:	05 16 00 03 0e       	add    $0xe030016,%eax
 3ca:	3a 0b                	cmp    (%rbx),%cl
 3cc:	3b 0b                	cmp    (%rbx),%ecx
 3ce:	39 0b                	cmp    %ecx,(%rbx)
 3d0:	49 13 00             	adc    (%r8),%rax
 3d3:	00 06                	add    %al,(%rsi)
 3d5:	0f 00 0b             	str    (%rbx)
 3d8:	21 08                	and    %ecx,(%rax)
 3da:	49 13 00             	adc    (%r8),%rax
 3dd:	00 07                	add    %al,(%rdi)
 3df:	0d 00 03 0e 3a       	or     $0x3a0e0300,%eax
 3e4:	21 04 3b             	and    %eax,(%rbx,%rdi,1)
 3e7:	21 00                	and    %eax,(%rax)
 3e9:	49 13 38             	adc    (%r8),%rdi
 3ec:	0b 00                	or     (%rax),%eax
 3ee:	00 08                	add    %cl,(%rax)
 3f0:	05 00 49 13 00       	add    $0x134900,%eax
 3f5:	00 09                	add    %cl,(%rcx)
 3f7:	05 00 03 08 3a       	add    $0x3a080300,%eax
 3fc:	21 01                	and    %eax,(%rcx)
 3fe:	3b 0b                	cmp    (%rbx),%ecx
 400:	39 0b                	cmp    %ecx,(%rbx)
 402:	49 13 02             	adc    (%r10),%rax
 405:	18 00                	sbb    %al,(%rax)
 407:	00 0a                	add    %cl,(%rdx)
 409:	34 00                	xor    $0x0,%al
 40b:	03 08                	add    (%rax),%ecx
 40d:	3a 21                	cmp    (%rcx),%ah
 40f:	01 3b                	add    %edi,(%rbx)
 411:	0b 39                	or     (%rcx),%edi
 413:	0b 49 13             	or     0x13(%rcx),%ecx
 416:	02 18                	add    (%rax),%bl
 418:	00 00                	add    %al,(%rax)
 41a:	0b 01                	or     (%rcx),%eax
 41c:	01 49 13             	add    %ecx,0x13(%rcx)
 41f:	01 13                	add    %edx,(%rbx)
 421:	00 00                	add    %al,(%rax)
 423:	0c 2e                	or     $0x2e,%al
 425:	01 3f                	add    %edi,(%rdi)
 427:	19 03                	sbb    %eax,(%rbx)
 429:	0e                   	(bad)  
 42a:	3a 21                	cmp    (%rcx),%ah
 42c:	05 3b 0b 39 0b       	add    $0xb390b3b,%eax
 431:	27                   	(bad)  
 432:	19 49 13             	sbb    %ecx,0x13(%rcx)
 435:	3c 19                	cmp    $0x19,%al
 437:	01 13                	add    %edx,(%rbx)
 439:	00 00                	add    %al,(%rax)
 43b:	0d 2e 01 3f 19       	or     $0x193f012e,%eax
 440:	03 0e                	add    (%rsi),%ecx
 442:	3a 21                	cmp    (%rcx),%ah
 444:	01 3b                	add    %edi,(%rbx)
 446:	0b 39                	or     (%rcx),%edi
 448:	21 0a                	and    %ecx,(%rdx)
 44a:	27                   	(bad)  
 44b:	19 49 13             	sbb    %ecx,0x13(%rcx)
 44e:	11 01                	adc    %eax,(%rcx)
 450:	12 07                	adc    (%rdi),%al
 452:	40 18 7a 19          	sbb    %dil,0x19(%rdx)
 456:	01 13                	add    %edx,(%rbx)
 458:	00 00                	add    %al,(%rax)
 45a:	0e                   	(bad)  
 45b:	11 01                	adc    %eax,(%rcx)
 45d:	25 0e 13 0b 03       	and    $0x30b130e,%eax
 462:	1f                   	(bad)  
 463:	1b 1f                	sbb    (%rdi),%ebx
 465:	11 01                	adc    %eax,(%rcx)
 467:	12 07                	adc    (%rdi),%al
 469:	10 17                	adc    %dl,(%rdi)
 46b:	00 00                	add    %al,(%rax)
 46d:	0f 24                	(bad)  
 46f:	00 0b                	add    %cl,(%rbx)
 471:	0b 3e                	or     (%rsi),%edi
 473:	0b 03                	or     (%rbx),%eax
 475:	08 00                	or     %al,(%rax)
 477:	00 10                	add    %dl,(%rax)
 479:	16                   	(bad)  
 47a:	00 03                	add    %al,(%rbx)
 47c:	0e                   	(bad)  
 47d:	49 13 00             	adc    (%r8),%rax
 480:	00 11                	add    %dl,(%rcx)
 482:	21 00                	and    %eax,(%rax)
 484:	49 13 2f             	adc    (%r15),%rbp
 487:	0b 00                	or     (%rax),%eax
 489:	00 12                	add    %dl,(%rdx)
 48b:	13 01                	adc    (%rcx),%eax
 48d:	03 0e                	add    (%rsi),%ecx
 48f:	0b 0b                	or     (%rbx),%ecx
 491:	3a 0b                	cmp    (%rbx),%cl
 493:	3b 0b                	cmp    (%rbx),%ecx
 495:	01 13                	add    %edx,(%rbx)
 497:	00 00                	add    %al,(%rax)
 499:	13 0f                	adc    (%rdi),%ecx
 49b:	00 0b                	add    %cl,(%rbx)
 49d:	0b 00                	or     (%rax),%eax
 49f:	00 14 21             	add    %dl,(%rcx,%riz,1)
 4a2:	00 49 13             	add    %cl,0x13(%rcx)
 4a5:	2f                   	(bad)  
 4a6:	05 00 00 15 26       	add    $0x26150000,%eax
 4ab:	00 49 13             	add    %cl,0x13(%rcx)
 4ae:	00 00                	add    %al,(%rax)
 4b0:	16                   	(bad)  
 4b1:	34 00                	xor    $0x0,%al
 4b3:	03 0e                	add    (%rsi),%ecx
 4b5:	3a 0b                	cmp    (%rbx),%cl
 4b7:	3b 0b                	cmp    (%rbx),%ecx
 4b9:	39 0b                	cmp    %ecx,(%rbx)
 4bb:	49 13 3f             	adc    (%r15),%rdi
 4be:	19 02                	sbb    %eax,(%rdx)
 4c0:	18 00                	sbb    %al,(%rax)
 4c2:	00 17                	add    %dl,(%rdi)
 4c4:	18 00                	sbb    %al,(%rax)
 4c6:	00 00                	add    %al,(%rax)
 4c8:	18 2e                	sbb    %ch,(%rsi)
 4ca:	01 03                	add    %eax,(%rbx)
 4cc:	0e                   	(bad)  
 4cd:	3a 0b                	cmp    (%rbx),%cl
 4cf:	3b 0b                	cmp    (%rbx),%ecx
 4d1:	39 0b                	cmp    %ecx,(%rbx)
 4d3:	27                   	(bad)  
 4d4:	19 11                	sbb    %edx,(%rcx)
 4d6:	01 12                	add    %edx,(%rdx)
 4d8:	07                   	(bad)  
 4d9:	40 18 7a 19          	sbb    %dil,0x19(%rdx)
 4dd:	01 13                	add    %edx,(%rbx)
 4df:	00 00                	add    %al,(%rax)
 4e1:	19 2e                	sbb    %ebp,(%rsi)
 4e3:	01 3f                	add    %edi,(%rdi)
 4e5:	19 03                	sbb    %eax,(%rbx)
 4e7:	0e                   	(bad)  
 4e8:	3a 0b                	cmp    (%rbx),%cl
 4ea:	3b 0b                	cmp    (%rbx),%ecx
 4ec:	39 0b                	cmp    %ecx,(%rbx)
 4ee:	27                   	(bad)  
 4ef:	19 11                	sbb    %edx,(%rcx)
 4f1:	01 12                	add    %edx,(%rdx)
 4f3:	07                   	(bad)  
 4f4:	40 18 7a 19          	sbb    %dil,0x19(%rdx)
 4f8:	01 13                	add    %edx,(%rbx)
 4fa:	00 00                	add    %al,(%rax)
 4fc:	00 01                	add    %al,(%rcx)
 4fe:	05 00 03 08 3a       	add    $0x3a080300,%eax
 503:	21 01                	and    %eax,(%rcx)
 505:	3b 0b                	cmp    (%rbx),%ecx
 507:	39 0b                	cmp    %ecx,(%rbx)
 509:	49 13 02             	adc    (%r10),%rax
 50c:	18 00                	sbb    %al,(%rax)
 50e:	00 02                	add    %al,(%rdx)
 510:	05 00 03 0e 3a       	add    $0x3a0e0300,%eax
 515:	21 01                	and    %eax,(%rcx)
 517:	3b 0b                	cmp    (%rbx),%ecx
 519:	39 0b                	cmp    %ecx,(%rbx)
 51b:	49 13 02             	adc    (%r10),%rax
 51e:	18 00                	sbb    %al,(%rax)
 520:	00 03                	add    %al,(%rbx)
 522:	34 00                	xor    $0x0,%al
 524:	03 08                	add    (%rax),%ecx
 526:	3a 21                	cmp    (%rcx),%ah
 528:	01 3b                	add    %edi,(%rbx)
 52a:	0b 39                	or     (%rcx),%edi
 52c:	0b 49 13             	or     0x13(%rcx),%ecx
 52f:	02 18                	add    (%rax),%bl
 531:	00 00                	add    %al,(%rax)
 533:	04 24                	add    $0x24,%al
 535:	00 0b                	add    %cl,(%rbx)
 537:	0b 3e                	or     (%rsi),%edi
 539:	0b 03                	or     (%rbx),%eax
 53b:	0e                   	(bad)  
 53c:	00 00                	add    %al,(%rax)
 53e:	05 2e 01 3f 19       	add    $0x193f012e,%eax
 543:	03 0e                	add    (%rsi),%ecx
 545:	3a 21                	cmp    (%rcx),%ah
 547:	01 3b                	add    %edi,(%rbx)
 549:	0b 39                	or     (%rcx),%edi
 54b:	0b 27                	or     (%rdi),%esp
 54d:	19 49 13             	sbb    %ecx,0x13(%rcx)
 550:	11 01                	adc    %eax,(%rcx)
 552:	12 07                	adc    (%rdi),%al
 554:	40 18 7a 19          	sbb    %dil,0x19(%rdx)
 558:	01 13                	add    %edx,(%rbx)
 55a:	00 00                	add    %al,(%rax)
 55c:	06                   	(bad)  
 55d:	0f 00 0b             	str    (%rbx)
 560:	21 08                	and    %ecx,(%rax)
 562:	49 13 00             	adc    (%r8),%rax
 565:	00 07                	add    %al,(%rdi)
 567:	16                   	(bad)  
 568:	00 03                	add    %al,(%rbx)
 56a:	0e                   	(bad)  
 56b:	3a 21                	cmp    (%rcx),%ah
 56d:	02 3b                	add    (%rbx),%bh
 56f:	0b 39                	or     (%rcx),%edi
 571:	0b 49 13             	or     0x13(%rcx),%ecx
 574:	00 00                	add    %al,(%rax)
 576:	08 26                	or     %ah,(%rsi)
 578:	00 49 13             	add    %cl,0x13(%rcx)
 57b:	00 00                	add    %al,(%rax)
 57d:	09 34 00             	or     %esi,(%rax,%rax,1)
 580:	03 0e                	add    (%rsi),%ecx
 582:	3a 21                	cmp    (%rcx),%ah
 584:	01 3b                	add    %edi,(%rbx)
 586:	0b 39                	or     (%rcx),%edi
 588:	0b 49 13             	or     0x13(%rcx),%ecx
 58b:	02 18                	add    (%rax),%bl
 58d:	00 00                	add    %al,(%rax)
 58f:	0a 11                	or     (%rcx),%dl
 591:	01 25 0e 13 0b 03    	add    %esp,0x30b130e(%rip)        # 30b18a5 <OLDSS+0x30b17ed>
 597:	1f                   	(bad)  
 598:	1b 1f                	sbb    (%rdi),%ebx
 59a:	11 01                	adc    %eax,(%rcx)
 59c:	12 07                	adc    (%rdi),%al
 59e:	10 17                	adc    %dl,(%rdi)
 5a0:	00 00                	add    %al,(%rax)
 5a2:	0b 24 00             	or     (%rax,%rax,1),%esp
 5a5:	0b 0b                	or     (%rbx),%ecx
 5a7:	3e 0b 03             	ds or  (%rbx),%eax
 5aa:	08 00                	or     %al,(%rax)
 5ac:	00 0c 26             	add    %cl,(%rsi,%riz,1)
 5af:	00 00                	add    %al,(%rax)
 5b1:	00 0d 2e 01 3f 19    	add    %cl,0x193f012e(%rip)        # 193f06e5 <OLDSS+0x193f062d>
 5b7:	03 0e                	add    (%rsi),%ecx
 5b9:	3a 0b                	cmp    (%rbx),%cl
 5bb:	3b 0b                	cmp    (%rbx),%ecx
 5bd:	39 0b                	cmp    %ecx,(%rbx)
 5bf:	27                   	(bad)  
 5c0:	19 11                	sbb    %edx,(%rcx)
 5c2:	01 12                	add    %edx,(%rdx)
 5c4:	07                   	(bad)  
 5c5:	40 18 7a 19          	sbb    %dil,0x19(%rdx)
 5c9:	01 13                	add    %edx,(%rbx)
 5cb:	00 00                	add    %al,(%rax)
 5cd:	0e                   	(bad)  
 5ce:	0f 00 0b             	str    (%rbx)
 5d1:	0b 00                	or     (%rax),%eax
 5d3:	00 0f                	add    %cl,(%rdi)
 5d5:	2e 01 3f             	cs add %edi,(%rdi)
 5d8:	19 03                	sbb    %eax,(%rbx)
 5da:	0e                   	(bad)  
 5db:	3a 0b                	cmp    (%rbx),%cl
 5dd:	3b 0b                	cmp    (%rbx),%ecx
 5df:	39 0b                	cmp    %ecx,(%rbx)
 5e1:	27                   	(bad)  
 5e2:	19 11                	sbb    %edx,(%rcx)
 5e4:	01 12                	add    %edx,(%rdx)
 5e6:	07                   	(bad)  
 5e7:	40 18 7a 19          	sbb    %dil,0x19(%rdx)
 5eb:	00 00                	add    %al,(%rax)
 5ed:	00 01                	add    %al,(%rcx)
 5ef:	24 00                	and    $0x0,%al
 5f1:	0b 0b                	or     (%rbx),%ecx
 5f3:	3e 0b 03             	ds or  (%rbx),%eax
 5f6:	0e                   	(bad)  
 5f7:	00 00                	add    %al,(%rax)
 5f9:	02 0d 00 03 0e 3a    	add    0x3a0e0300(%rip),%cl        # 3a0e08ff <OLDSS+0x3a0e0847>
 5ff:	0b 3b                	or     (%rbx),%edi
 601:	0b 39                	or     (%rcx),%edi
 603:	0b 49 13             	or     0x13(%rcx),%ecx
 606:	38 0b                	cmp    %cl,(%rbx)
 608:	00 00                	add    %al,(%rax)
 60a:	03 16                	add    (%rsi),%edx
 60c:	00 03                	add    %al,(%rbx)
 60e:	0e                   	(bad)  
 60f:	3a 0b                	cmp    (%rbx),%cl
 611:	3b 0b                	cmp    (%rbx),%ecx
 613:	39 0b                	cmp    %ecx,(%rbx)
 615:	49 13 00             	adc    (%r8),%rax
 618:	00 04 48             	add    %al,(%rax,%rcx,2)
 61b:	00 7d 01             	add    %bh,0x1(%rbp)
 61e:	7f 13                	jg     633 <OLDSS+0x57b>
 620:	00 00                	add    %al,(%rax)
 622:	05 34 00 03 0e       	add    $0xe030034,%eax
 627:	3a 0b                	cmp    (%rbx),%cl
 629:	3b 0b                	cmp    (%rbx),%ecx
 62b:	39 0b                	cmp    %ecx,(%rbx)
 62d:	49 13 3f             	adc    (%r15),%rdi
 630:	19 02                	sbb    %eax,(%rdx)
 632:	18 00                	sbb    %al,(%rax)
 634:	00 06                	add    %al,(%rsi)
 636:	05 00 49 13 00       	add    $0x134900,%eax
 63b:	00 07                	add    %al,(%rdi)
 63d:	13 01                	adc    (%rcx),%eax
 63f:	0b 0b                	or     (%rbx),%ecx
 641:	3a 0b                	cmp    (%rbx),%cl
 643:	3b 0b                	cmp    (%rbx),%ecx
 645:	39 21                	cmp    %esp,(%rcx)
 647:	09 01                	or     %eax,(%rcx)
 649:	13 00                	adc    (%rax),%eax
 64b:	00 08                	add    %cl,(%rax)
 64d:	34 00                	xor    $0x0,%al
 64f:	03 08                	add    (%rax),%ecx
 651:	3a 21                	cmp    (%rcx),%ah
 653:	01 3b                	add    %edi,(%rbx)
 655:	21 22                	and    %esp,(%rdx)
 657:	39 0b                	cmp    %ecx,(%rbx)
 659:	49 13 02             	adc    (%r10),%rax
 65c:	18 00                	sbb    %al,(%rax)
 65e:	00 09                	add    %cl,(%rcx)
 660:	21 00                	and    %eax,(%rax)
 662:	49 13 2f             	adc    (%r15),%rbp
 665:	21 0f                	and    %ecx,(%rdi)
 667:	00 00                	add    %al,(%rax)
 669:	0a 11                	or     (%rcx),%dl
 66b:	01 25 0e 13 0b 03    	add    %esp,0x30b130e(%rip)        # 30b197f <OLDSS+0x30b18c7>
 671:	1f                   	(bad)  
 672:	1b 1f                	sbb    (%rdi),%ebx
 674:	11 01                	adc    %eax,(%rcx)
 676:	12 07                	adc    (%rdi),%al
 678:	10 17                	adc    %dl,(%rdi)
 67a:	00 00                	add    %al,(%rax)
 67c:	0b 24 00             	or     (%rax,%rax,1),%esp
 67f:	0b 0b                	or     (%rbx),%ecx
 681:	3e 0b 03             	ds or  (%rbx),%eax
 684:	08 00                	or     %al,(%rax)
 686:	00 0c 0d 00 03 08 3a 	add    %cl,0x3a080300(,%rcx,1)
 68d:	0b 3b                	or     (%rbx),%edi
 68f:	0b 39                	or     (%rcx),%edi
 691:	0b 49 13             	or     0x13(%rcx),%ecx
 694:	38 0b                	cmp    %cl,(%rbx)
 696:	00 00                	add    %al,(%rax)
 698:	0d 0f 00 0b 0b       	or     $0xb0b000f,%eax
 69d:	49 13 00             	adc    (%r8),%rax
 6a0:	00 0e                	add    %cl,(%rsi)
 6a2:	2e 01 3f             	cs add %edi,(%rdi)
 6a5:	19 03                	sbb    %eax,(%rbx)
 6a7:	0e                   	(bad)  
 6a8:	3a 0b                	cmp    (%rbx),%cl
 6aa:	3b 0b                	cmp    (%rbx),%ecx
 6ac:	39 0b                	cmp    %ecx,(%rbx)
 6ae:	27                   	(bad)  
 6af:	19 3c 19             	sbb    %edi,(%rcx,%rbx,1)
 6b2:	01 13                	add    %edx,(%rbx)
 6b4:	00 00                	add    %al,(%rax)
 6b6:	0f 2e 01             	ucomiss (%rcx),%xmm0
 6b9:	3f                   	(bad)  
 6ba:	19 03                	sbb    %eax,(%rbx)
 6bc:	0e                   	(bad)  
 6bd:	3a 0b                	cmp    (%rbx),%cl
 6bf:	3b 0b                	cmp    (%rbx),%ecx
 6c1:	39 0b                	cmp    %ecx,(%rbx)
 6c3:	11 01                	adc    %eax,(%rcx)
 6c5:	12 07                	adc    (%rdi),%al
 6c7:	40 18 7a 19          	sbb    %dil,0x19(%rdx)
 6cb:	01 13                	add    %edx,(%rbx)
 6cd:	00 00                	add    %al,(%rax)
 6cf:	10 34 00             	adc    %dh,(%rax,%rax,1)
 6d2:	03 0e                	add    (%rsi),%ecx
 6d4:	3a 0b                	cmp    (%rbx),%cl
 6d6:	3b 0b                	cmp    (%rbx),%ecx
 6d8:	39 0b                	cmp    %ecx,(%rbx)
 6da:	49 13 02             	adc    (%r10),%rax
 6dd:	18 00                	sbb    %al,(%rax)
 6df:	00 11                	add    %dl,(%rcx)
 6e1:	01 01                	add    %eax,(%rcx)
 6e3:	49 13 01             	adc    (%r9),%rax
 6e6:	13 00                	adc    (%rax),%eax
 6e8:	00 12                	add    %dl,(%rdx)
 6ea:	2e 01 3f             	cs add %edi,(%rdi)
 6ed:	19 03                	sbb    %eax,(%rbx)
 6ef:	0e                   	(bad)  
 6f0:	3a 0b                	cmp    (%rbx),%cl
 6f2:	3b 0b                	cmp    (%rbx),%ecx
 6f4:	39 0b                	cmp    %ecx,(%rbx)
 6f6:	11 01                	adc    %eax,(%rcx)
 6f8:	12 07                	adc    (%rdi),%al
 6fa:	40 18 7a 19          	sbb    %dil,0x19(%rdx)
 6fe:	00 00                	add    %al,(%rax)
 700:	00 01                	add    %al,(%rcx)
 702:	11 00                	adc    %eax,(%rax)
 704:	10 06                	adc    %al,(%rsi)
 706:	11 01                	adc    %eax,(%rcx)
 708:	12 01                	adc    (%rcx),%al
 70a:	03 0e                	add    (%rsi),%ecx
 70c:	1b 0e                	sbb    (%rsi),%ecx
 70e:	25 0e 13 05 00       	and    $0x5130e,%eax
 713:	00 00                	add    %al,(%rax)
 715:	01 05 00 03 0e 3a    	add    %eax,0x3a0e0300(%rip)        # 3a0e0a1b <OLDSS+0x3a0e0963>
 71b:	21 01                	and    %eax,(%rcx)
 71d:	3b 0b                	cmp    (%rbx),%ecx
 71f:	39 0b                	cmp    %ecx,(%rbx)
 721:	49 13 02             	adc    (%r10),%rax
 724:	18 00                	sbb    %al,(%rax)
 726:	00 02                	add    %al,(%rdx)
 728:	0d 00 03 0e 3a       	or     $0x3a0e0300,%eax
 72d:	0b 3b                	or     (%rbx),%edi
 72f:	0b 39                	or     (%rcx),%edi
 731:	0b 49 13             	or     0x13(%rcx),%ecx
 734:	38 0b                	cmp    %cl,(%rbx)
 736:	00 00                	add    %al,(%rax)
 738:	03 24 00             	add    (%rax,%rax,1),%esp
 73b:	0b 0b                	or     (%rbx),%ecx
 73d:	3e 0b 03             	ds or  (%rbx),%eax
 740:	0e                   	(bad)  
 741:	00 00                	add    %al,(%rax)
 743:	04 16                	add    $0x16,%al
 745:	00 03                	add    %al,(%rbx)
 747:	0e                   	(bad)  
 748:	3a 0b                	cmp    (%rbx),%cl
 74a:	3b 0b                	cmp    (%rbx),%ecx
 74c:	39 0b                	cmp    %ecx,(%rbx)
 74e:	49 13 00             	adc    (%r8),%rax
 751:	00 05 2e 00 3f 19    	add    %al,0x193f002e(%rip)        # 193f0785 <OLDSS+0x193f06cd>
 757:	03 0e                	add    (%rsi),%ecx
 759:	3a 21                	cmp    (%rcx),%ah
 75b:	01 3b                	add    %edi,(%rbx)
 75d:	0b 39                	or     (%rcx),%edi
 75f:	21 06                	and    %eax,(%rsi)
 761:	11 01                	adc    %eax,(%rcx)
 763:	12 07                	adc    (%rdi),%al
 765:	40 18 7a 19          	sbb    %dil,0x19(%rdx)
 769:	00 00                	add    %al,(%rax)
 76b:	06                   	(bad)  
 76c:	13 01                	adc    (%rcx),%eax
 76e:	0b 0b                	or     (%rbx),%ecx
 770:	3a 0b                	cmp    (%rbx),%cl
 772:	3b 21                	cmp    (%rcx),%esp
 774:	04 39                	add    $0x39,%al
 776:	21 09                	and    %ecx,(%rcx)
 778:	01 13                	add    %edx,(%rbx)
 77a:	00 00                	add    %al,(%rax)
 77c:	07                   	(bad)  
 77d:	01 01                	add    %eax,(%rcx)
 77f:	49 13 01             	adc    (%r9),%rax
 782:	13 00                	adc    (%rax),%eax
 784:	00 08                	add    %cl,(%rax)
 786:	34 00                	xor    $0x0,%al
 788:	03 0e                	add    (%rsi),%ecx
 78a:	3a 21                	cmp    (%rcx),%ah
 78c:	03 3b                	add    (%rbx),%edi
 78e:	0b 39                	or     (%rcx),%edi
 790:	0b 49 13             	or     0x13(%rcx),%ecx
 793:	3f                   	(bad)  
 794:	19 3c 19             	sbb    %edi,(%rcx,%rbx,1)
 797:	00 00                	add    %al,(%rax)
 799:	09 0f                	or     %ecx,(%rdi)
 79b:	00 0b                	add    %cl,(%rbx)
 79d:	21 08                	and    %ecx,(%rax)
 79f:	49 13 00             	adc    (%r8),%rax
 7a2:	00 0a                	add    %cl,(%rdx)
 7a4:	2e 01 3f             	cs add %edi,(%rdi)
 7a7:	19 03                	sbb    %eax,(%rbx)
 7a9:	0e                   	(bad)  
 7aa:	3a 21                	cmp    (%rcx),%ah
 7ac:	01 3b                	add    %edi,(%rbx)
 7ae:	0b 39                	or     (%rcx),%edi
 7b0:	21 06                	and    %eax,(%rsi)
 7b2:	27                   	(bad)  
 7b3:	19 11                	sbb    %edx,(%rcx)
 7b5:	01 12                	add    %edx,(%rdx)
 7b7:	07                   	(bad)  
 7b8:	40 18 7a 19          	sbb    %dil,0x19(%rdx)
 7bc:	01 13                	add    %edx,(%rbx)
 7be:	00 00                	add    %al,(%rax)
 7c0:	0b 05 00 03 08 3a    	or     0x3a080300(%rip),%eax        # 3a080ac6 <OLDSS+0x3a080a0e>
 7c6:	21 01                	and    %eax,(%rcx)
 7c8:	3b 21                	cmp    (%rcx),%esp
 7ca:	0a 39                	or     (%rcx),%bh
 7cc:	0b 49 13             	or     0x13(%rcx),%ecx
 7cf:	02 18                	add    (%rax),%bl
 7d1:	00 00                	add    %al,(%rax)
 7d3:	0c 11                	or     $0x11,%al
 7d5:	01 25 0e 13 0b 03    	add    %esp,0x30b130e(%rip)        # 30b1ae9 <OLDSS+0x30b1a31>
 7db:	1f                   	(bad)  
 7dc:	1b 1f                	sbb    (%rdi),%ebx
 7de:	11 01                	adc    %eax,(%rcx)
 7e0:	12 07                	adc    (%rdi),%al
 7e2:	10 17                	adc    %dl,(%rdi)
 7e4:	00 00                	add    %al,(%rax)
 7e6:	0d 24 00 0b 0b       	or     $0xb0b0024,%eax
 7eb:	3e 0b 03             	ds or  (%rbx),%eax
 7ee:	08 00                	or     %al,(%rax)
 7f0:	00 0e                	add    %cl,(%rsi)
 7f2:	0d 00 03 08 3a       	or     $0x3a080300,%eax
 7f7:	0b 3b                	or     (%rbx),%edi
 7f9:	0b 39                	or     (%rcx),%edi
 7fb:	0b 49 13             	or     0x13(%rcx),%ecx
 7fe:	38 0b                	cmp    %cl,(%rbx)
 800:	00 00                	add    %al,(%rax)
 802:	0f 21 00             	mov    %db0,%rax
 805:	00 00                	add    %al,(%rax)
 807:	10 21                	adc    %ah,(%rcx)
 809:	00 49 13             	add    %cl,0x13(%rcx)
 80c:	2f                   	(bad)  
 80d:	0b 00                	or     (%rax),%eax
 80f:	00 11                	add    %dl,(%rcx)
 811:	34 00                	xor    $0x0,%al
 813:	03 0e                	add    (%rsi),%ecx
 815:	3a 0b                	cmp    (%rbx),%cl
 817:	3b 0b                	cmp    (%rbx),%ecx
 819:	39 0b                	cmp    %ecx,(%rbx)
 81b:	49 13 3f             	adc    (%r15),%rdi
 81e:	19 02                	sbb    %eax,(%rdx)
 820:	18 00                	sbb    %al,(%rax)
 822:	00 12                	add    %dl,(%rdx)
 824:	34 00                	xor    $0x0,%al
 826:	03 0e                	add    (%rsi),%ecx
 828:	3a 0b                	cmp    (%rbx),%cl
 82a:	3b 0b                	cmp    (%rbx),%ecx
 82c:	39 0b                	cmp    %ecx,(%rbx)
 82e:	49 13 02             	adc    (%r10),%rax
 831:	18 00                	sbb    %al,(%rax)
 833:	00 13                	add    %dl,(%rbx)
 835:	34 00                	xor    $0x0,%al
 837:	03 08                	add    (%rax),%ecx
 839:	3a 0b                	cmp    (%rbx),%cl
 83b:	3b 0b                	cmp    (%rbx),%ecx
 83d:	39 0b                	cmp    %ecx,(%rbx)
 83f:	49 13 02             	adc    (%r10),%rax
 842:	18 00                	sbb    %al,(%rax)
 844:	00 14 0f             	add    %dl,(%rdi,%rcx,1)
 847:	00 0b                	add    %cl,(%rbx)
 849:	0b 00                	or     (%rax),%eax
 84b:	00 00                	add    %al,(%rax)
 84d:	01 05 00 31 13 02    	add    %eax,0x2133100(%rip)        # 2133953 <OLDSS+0x213389b>
 853:	18 00                	sbb    %al,(%rax)
 855:	00 02                	add    %al,(%rdx)
 857:	48 00 7d 01          	rex.W add %dil,0x1(%rbp)
 85b:	7f 13                	jg     870 <OLDSS+0x7b8>
 85d:	00 00                	add    %al,(%rax)
 85f:	03 34 00             	add    (%rax,%rax,1),%esi
 862:	31 13                	xor    %edx,(%rbx)
 864:	02 18                	add    (%rax),%bl
 866:	00 00                	add    %al,(%rax)
 868:	04 18                	add    $0x18,%al
 86a:	00 00                	add    %al,(%rax)
 86c:	00 05 0b 01 31 13    	add    %al,0x1331010b(%rip)        # 1331097d <OLDSS+0x133108c5>
 872:	11 01                	adc    %eax,(%rcx)
 874:	12 07                	adc    (%rdi),%al
 876:	00 00                	add    %al,(%rax)
 878:	06                   	(bad)  
 879:	34 00                	xor    $0x0,%al
 87b:	03 08                	add    (%rax),%ecx
 87d:	3a 21                	cmp    (%rcx),%ah
 87f:	01 3b                	add    %edi,(%rbx)
 881:	0b 39                	or     (%rcx),%edi
 883:	0b 49 13             	or     0x13(%rcx),%ecx
 886:	02 18                	add    (%rax),%bl
 888:	00 00                	add    %al,(%rax)
 88a:	07                   	(bad)  
 88b:	2e 01 3f             	cs add %edi,(%rdi)
 88e:	19 03                	sbb    %eax,(%rbx)
 890:	0e                   	(bad)  
 891:	3a 21                	cmp    (%rcx),%ah
 893:	06                   	(bad)  
 894:	3b 0b                	cmp    (%rbx),%ecx
 896:	39 21                	cmp    %esp,(%rcx)
 898:	06                   	(bad)  
 899:	3c 19                	cmp    $0x19,%al
 89b:	01 13                	add    %edx,(%rbx)
 89d:	00 00                	add    %al,(%rax)
 89f:	08 1d 01 31 13 11    	or     %bl,0x11133101(%rip)        # 111339a6 <OLDSS+0x111338ee>
 8a5:	01 12                	add    %edx,(%rdx)
 8a7:	07                   	(bad)  
 8a8:	58                   	pop    %rax
 8a9:	21 01                	and    %eax,(%rcx)
 8ab:	59                   	pop    %rcx
 8ac:	05 57 21 02 01       	add    $0x1022157,%eax
 8b1:	13 00                	adc    (%rax),%eax
 8b3:	00 09                	add    %cl,(%rcx)
 8b5:	2e 01 3f             	cs add %edi,(%rdi)
 8b8:	19 03                	sbb    %eax,(%rbx)
 8ba:	0e                   	(bad)  
 8bb:	3a 21                	cmp    (%rcx),%ah
 8bd:	01 3b                	add    %edi,(%rbx)
 8bf:	0b 39                	or     (%rcx),%edi
 8c1:	21 06                	and    %eax,(%rsi)
 8c3:	27                   	(bad)  
 8c4:	19 11                	sbb    %edx,(%rcx)
 8c6:	01 12                	add    %edx,(%rdx)
 8c8:	07                   	(bad)  
 8c9:	40 18 7a 19          	sbb    %dil,0x19(%rdx)
 8cd:	01 13                	add    %edx,(%rbx)
 8cf:	00 00                	add    %al,(%rax)
 8d1:	0a 05 00 03 08 3a    	or     0x3a080300(%rip),%al        # 3a080bd7 <OLDSS+0x3a080b1f>
 8d7:	21 01                	and    %eax,(%rcx)
 8d9:	3b 0b                	cmp    (%rbx),%ecx
 8db:	39 0b                	cmp    %ecx,(%rbx)
 8dd:	49 13 02             	adc    (%r10),%rax
 8e0:	18 00                	sbb    %al,(%rax)
 8e2:	00 0b                	add    %cl,(%rbx)
 8e4:	05 00 03 0e 3a       	add    $0x3a0e0300,%eax
 8e9:	21 01                	and    %eax,(%rcx)
 8eb:	3b 0b                	cmp    (%rbx),%ecx
 8ed:	39 0b                	cmp    %ecx,(%rbx)
 8ef:	49 13 02             	adc    (%r10),%rax
 8f2:	18 00                	sbb    %al,(%rax)
 8f4:	00 0c 0d 00 03 0e 3a 	add    %cl,0x3a0e0300(,%rcx,1)
 8fb:	0b 3b                	or     (%rbx),%edi
 8fd:	0b 39                	or     (%rcx),%edi
 8ff:	0b 49 13             	or     0x13(%rcx),%ecx
 902:	38 0b                	cmp    %cl,(%rbx)
 904:	00 00                	add    %al,(%rax)
 906:	0d 24 00 0b 0b       	or     $0xb0b0024,%eax
 90b:	3e 0b 03             	ds or  (%rbx),%eax
 90e:	0e                   	(bad)  
 90f:	00 00                	add    %al,(%rax)
 911:	0e                   	(bad)  
 912:	16                   	(bad)  
 913:	00 03                	add    %al,(%rbx)
 915:	0e                   	(bad)  
 916:	3a 0b                	cmp    (%rbx),%cl
 918:	3b 0b                	cmp    (%rbx),%ecx
 91a:	39 0b                	cmp    %ecx,(%rbx)
 91c:	49 13 00             	adc    (%r8),%rax
 91f:	00 0f                	add    %cl,(%rdi)
 921:	05 00 03 08 3a       	add    $0x3a080300,%eax
 926:	21 02                	and    %eax,(%rdx)
 928:	3b 0b                	cmp    (%rbx),%ecx
 92a:	39 0b                	cmp    %ecx,(%rbx)
 92c:	49 13 00             	adc    (%r8),%rax
 92f:	00 10                	add    %dl,(%rax)
 931:	34 00                	xor    $0x0,%al
 933:	03 0e                	add    (%rsi),%ecx
 935:	3a 21                	cmp    (%rcx),%ah
 937:	02 3b                	add    (%rbx),%bh
 939:	0b 39                	or     (%rcx),%edi
 93b:	21 02                	and    %eax,(%rdx)
 93d:	49 13 00             	adc    (%r8),%rax
 940:	00 11                	add    %dl,(%rcx)
 942:	05 00 49 13 00       	add    $0x134900,%eax
 947:	00 12                	add    %dl,(%rdx)
 949:	13 01                	adc    (%rcx),%eax
 94b:	0b 0b                	or     (%rbx),%ecx
 94d:	3a 0b                	cmp    (%rbx),%cl
 94f:	3b 0b                	cmp    (%rbx),%ecx
 951:	39 21                	cmp    %esp,(%rcx)
 953:	09 01                	or     %eax,(%rcx)
 955:	13 00                	adc    (%rax),%eax
 957:	00 13                	add    %dl,(%rbx)
 959:	0f 00 0b             	str    (%rbx)
 95c:	21 08                	and    %ecx,(%rax)
 95e:	49 13 00             	adc    (%r8),%rax
 961:	00 14 05 00 03 0e 3a 	add    %dl,0x3a0e0300(,%rax,1)
 968:	21 02                	and    %eax,(%rdx)
 96a:	3b 0b                	cmp    (%rbx),%ecx
 96c:	39 0b                	cmp    %ecx,(%rbx)
 96e:	49 13 00             	adc    (%r8),%rax
 971:	00 15 0b 01 00 00    	add    %dl,0x10b(%rip)        # a82 <OLDSS+0x9ca>
 977:	16                   	(bad)  
 978:	0d 00 03 08 3a       	or     $0x3a080300,%eax
 97d:	0b 3b                	or     (%rbx),%edi
 97f:	0b 39                	or     (%rcx),%edi
 981:	21 0d 49 13 38 0b    	and    %ecx,0xb381349(%rip)        # b381cd0 <OLDSS+0xb381c18>
 987:	00 00                	add    %al,(%rax)
 989:	17                   	(bad)  
 98a:	2e 01 3f             	cs add %edi,(%rdi)
 98d:	19 03                	sbb    %eax,(%rbx)
 98f:	0e                   	(bad)  
 990:	3a 21                	cmp    (%rcx),%ah
 992:	02 3b                	add    (%rbx),%bh
 994:	0b 39                	or     (%rcx),%edi
 996:	0b 27                	or     (%rdi),%esp
 998:	19 20                	sbb    %esp,(%rax)
 99a:	21 03                	and    %eax,(%rbx)
 99c:	01 13                	add    %edx,(%rbx)
 99e:	00 00                	add    %al,(%rax)
 9a0:	18 11                	sbb    %dl,(%rcx)
 9a2:	01 25 0e 13 0b 03    	add    %esp,0x30b130e(%rip)        # 30b1cb6 <OLDSS+0x30b1bfe>
 9a8:	1f                   	(bad)  
 9a9:	1b 1f                	sbb    (%rdi),%ebx
 9ab:	11 01                	adc    %eax,(%rcx)
 9ad:	12 07                	adc    (%rdi),%al
 9af:	10 17                	adc    %dl,(%rdi)
 9b1:	00 00                	add    %al,(%rax)
 9b3:	19 24 00             	sbb    %esp,(%rax,%rax,1)
 9b6:	0b 0b                	or     (%rbx),%ecx
 9b8:	3e 0b 03             	ds or  (%rbx),%eax
 9bb:	08 00                	or     %al,(%rax)
 9bd:	00 1a                	add    %bl,(%rdx)
 9bf:	26 00 49 13          	es add %cl,0x13(%rcx)
 9c3:	00 00                	add    %al,(%rax)
 9c5:	1b 01                	sbb    (%rcx),%eax
 9c7:	01 49 13             	add    %ecx,0x13(%rcx)
 9ca:	01 13                	add    %edx,(%rbx)
 9cc:	00 00                	add    %al,(%rax)
 9ce:	1c 21                	sbb    $0x21,%al
 9d0:	00 00                	add    %al,(%rax)
 9d2:	00 1d 34 00 03 0e    	add    %bl,0xe030034(%rip)        # e030a0c <OLDSS+0xe030954>
 9d8:	3a 0b                	cmp    (%rbx),%cl
 9da:	3b 0b                	cmp    (%rbx),%ecx
 9dc:	39 0b                	cmp    %ecx,(%rbx)
 9de:	49 13 3f             	adc    (%r15),%rdi
 9e1:	19 3c 19             	sbb    %edi,(%rcx,%rbx,1)
 9e4:	00 00                	add    %al,(%rax)
 9e6:	1e                   	(bad)  
 9e7:	34 00                	xor    $0x0,%al
 9e9:	03 0e                	add    (%rsi),%ecx
 9eb:	3a 0b                	cmp    (%rbx),%cl
 9ed:	3b 0b                	cmp    (%rbx),%ecx
 9ef:	39 0b                	cmp    %ecx,(%rbx)
 9f1:	49 13 3f             	adc    (%r15),%rdi
 9f4:	19 02                	sbb    %eax,(%rdx)
 9f6:	18 00                	sbb    %al,(%rax)
 9f8:	00 1f                	add    %bl,(%rdi)
 9fa:	2e 01 3f             	cs add %edi,(%rdi)
 9fd:	19 03                	sbb    %eax,(%rbx)
 9ff:	08 3a                	or     %bh,(%rdx)
 a01:	0b 3b                	or     (%rbx),%edi
 a03:	0b 39                	or     (%rcx),%edi
 a05:	0b 3c 19             	or     (%rcx,%rbx,1),%edi
 a08:	01 13                	add    %edx,(%rbx)
 a0a:	00 00                	add    %al,(%rax)
 a0c:	20 2e                	and    %ch,(%rsi)
 a0e:	01 3f                	add    %edi,(%rdi)
 a10:	19 03                	sbb    %eax,(%rbx)
 a12:	0e                   	(bad)  
 a13:	3a 0b                	cmp    (%rbx),%cl
 a15:	3b 0b                	cmp    (%rbx),%ecx
 a17:	39 0b                	cmp    %ecx,(%rbx)
 a19:	27                   	(bad)  
 a1a:	19 49 13             	sbb    %ecx,0x13(%rcx)
 a1d:	3c 19                	cmp    $0x19,%al
 a1f:	01 13                	add    %edx,(%rbx)
 a21:	00 00                	add    %al,(%rax)
 a23:	21 2e                	and    %ebp,(%rsi)
 a25:	01 3f                	add    %edi,(%rdi)
 a27:	19 03                	sbb    %eax,(%rbx)
 a29:	0e                   	(bad)  
 a2a:	3a 0b                	cmp    (%rbx),%cl
 a2c:	3b 05 39 0b 11 01    	cmp    0x1110b39(%rip),%eax        # 111156b <OLDSS+0x11114b3>
 a32:	12 07                	adc    (%rdi),%al
 a34:	40 18 7a 19          	sbb    %dil,0x19(%rdx)
 a38:	01 13                	add    %edx,(%rbx)
 a3a:	00 00                	add    %al,(%rax)
 a3c:	22 1d 01 31 13 11    	and    0x11133101(%rip),%bl        # 11133b43 <OLDSS+0x11133a8b>
 a42:	01 12                	add    %edx,(%rdx)
 a44:	07                   	(bad)  
 a45:	58                   	pop    %rax
 a46:	0b 59 05             	or     0x5(%rcx),%ebx
 a49:	57                   	push   %rdi
 a4a:	0b 00                	or     (%rax),%eax
 a4c:	00 23                	add    %ah,(%rbx)
 a4e:	2e 01 3f             	cs add %edi,(%rdi)
 a51:	19 03                	sbb    %eax,(%rbx)
 a53:	0e                   	(bad)  
 a54:	3a 0b                	cmp    (%rbx),%cl
 a56:	3b 05 39 0b 27 19    	cmp    0x19270b39(%rip),%eax        # 19271595 <OLDSS+0x192714dd>
 a5c:	11 01                	adc    %eax,(%rcx)
 a5e:	12 07                	adc    (%rdi),%al
 a60:	40 18 7a 19          	sbb    %dil,0x19(%rdx)
 a64:	01 13                	add    %edx,(%rbx)
 a66:	00 00                	add    %al,(%rax)
 a68:	24 05                	and    $0x5,%al
 a6a:	00 03                	add    %al,(%rbx)
 a6c:	08 3a                	or     %bh,(%rdx)
 a6e:	0b 3b                	or     (%rbx),%edi
 a70:	05 39 0b 49 13       	add    $0x13490b39,%eax
 a75:	02 18                	add    (%rax),%bl
 a77:	00 00                	add    %al,(%rax)
 a79:	25 05 00 03 0e       	and    $0xe030005,%eax
 a7e:	3a 0b                	cmp    (%rbx),%cl
 a80:	3b 05 39 0b 49 13    	cmp    0x13490b39(%rip),%eax        # 134915bf <OLDSS+0x13491507>
 a86:	02 18                	add    (%rax),%bl
 a88:	00 00                	add    %al,(%rax)
 a8a:	26 34 00             	es xor $0x0,%al
 a8d:	03 08                	add    (%rax),%ecx
 a8f:	3a 0b                	cmp    (%rbx),%cl
 a91:	3b 05 39 0b 49 13    	cmp    0x13490b39(%rip),%eax        # 134915d0 <OLDSS+0x13491518>
 a97:	02 18                	add    (%rax),%bl
 a99:	00 00                	add    %al,(%rax)
 a9b:	27                   	(bad)  
 a9c:	0f 00 0b             	str    (%rbx)
 a9f:	0b 00                	or     (%rax),%eax
 aa1:	00 28                	add    %ch,(%rax)
 aa3:	2e 01 3f             	cs add %edi,(%rdi)
 aa6:	19 03                	sbb    %eax,(%rbx)
 aa8:	0e                   	(bad)  
 aa9:	3a 0b                	cmp    (%rbx),%cl
 aab:	3b 0b                	cmp    (%rbx),%ecx
 aad:	39 0b                	cmp    %ecx,(%rbx)
 aaf:	27                   	(bad)  
 ab0:	19 20                	sbb    %esp,(%rax)
 ab2:	0b 00                	or     (%rax),%eax
 ab4:	00 00                	add    %al,(%rax)
 ab6:	01 11                	add    %edx,(%rcx)
 ab8:	00 10                	add    %dl,(%rax)
 aba:	06                   	(bad)  
 abb:	11 01                	adc    %eax,(%rcx)
 abd:	12 01                	adc    (%rcx),%al
 abf:	03 0e                	add    (%rsi),%ecx
 ac1:	1b 0e                	sbb    (%rsi),%ecx
 ac3:	25 0e 13 05 00       	and    $0x5130e,%eax
 ac8:	00 00                	add    %al,(%rax)
 aca:	01 11                	add    %edx,(%rcx)
 acc:	00 10                	add    %dl,(%rax)
 ace:	06                   	(bad)  
 acf:	11 01                	adc    %eax,(%rcx)
 ad1:	12 01                	adc    (%rcx),%al
 ad3:	03 0e                	add    (%rsi),%ecx
 ad5:	1b 0e                	sbb    (%rsi),%ecx
 ad7:	25 0e 13 05 00       	and    $0x5130e,%eax
	...

Disassembly of section .debug_aranges:

0000000000000000 <.debug_aranges>:
   0:	2c 00                	sub    $0x0,%al
   2:	00 00                	add    %al,(%rax)
   4:	02 00                	add    (%rax),%al
   6:	00 00                	add    %al,(%rax)
   8:	00 00                	add    %al,(%rax)
   a:	08 00                	or     %al,(%rax)
   c:	00 00                	add    %al,(%rax)
   e:	00 00                	add    %al,(%rax)
  10:	00 40 10             	add    %al,0x10(%rax)
  13:	00 00                	add    %al,(%rax)
  15:	80 ff ff             	cmp    $0xff,%bh
  18:	9e                   	sahf   
  19:	01 00                	add    %eax,(%rax)
	...
  2f:	00 2c 00             	add    %ch,(%rax,%rax,1)
  32:	00 00                	add    %al,(%rax)
  34:	02 00                	add    (%rax),%al
  36:	4e 02 00             	rex.WRX add (%rax),%r8b
  39:	00 08                	add    %cl,(%rax)
  3b:	00 00                	add    %al,(%rax)
  3d:	00 00                	add    %al,(%rax)
  3f:	00 9e 41 10 00 00    	add    %bl,0x1041(%rsi)
  45:	80 ff ff             	cmp    $0xff,%bh
  48:	7b 00                	jnp    4a <RCX+0x2>
	...
  5e:	00 00                	add    %al,(%rax)
  60:	2c 00                	sub    $0x0,%al
  62:	00 00                	add    %al,(%rax)
  64:	02 00                	add    (%rax),%al
  66:	45 03 00             	add    (%r8),%r8d
  69:	00 08                	add    %cl,(%rax)
  6b:	00 00                	add    %al,(%rax)
  6d:	00 00                	add    %al,(%rax)
  6f:	00 19                	add    %bl,(%rcx)
  71:	42 10 00             	rex.X adc %al,(%rax)
  74:	00 80 ff ff fd 07    	add    %al,0x7fdffff(%rax)
	...
  8e:	00 00                	add    %al,(%rax)
  90:	2c 00                	sub    $0x0,%al
  92:	00 00                	add    %al,(%rax)
  94:	02 00                	add    (%rax),%al
  96:	91                   	xchg   %eax,%ecx
  97:	0a 00                	or     (%rax),%al
  99:	00 08                	add    %cl,(%rax)
  9b:	00 00                	add    %al,(%rax)
  9d:	00 00                	add    %al,(%rax)
  9f:	00 16                	add    %dl,(%rsi)
  a1:	4a 10 00             	rex.WX adc %al,(%rax)
  a4:	00 80 ff ff e8 04    	add    %al,0x4e8ffff(%rax)
	...
  be:	00 00                	add    %al,(%rax)
  c0:	2c 00                	sub    $0x0,%al
  c2:	00 00                	add    %al,(%rax)
  c4:	02 00                	add    (%rax),%al
  c6:	0f 0e                	femms  
  c8:	00 00                	add    %al,(%rax)
  ca:	08 00                	or     %al,(%rax)
  cc:	00 00                	add    %al,(%rax)
  ce:	00 00                	add    %al,(%rax)
  d0:	fe 4e 10             	decb   0x10(%rsi)
  d3:	00 00                	add    %al,(%rax)
  d5:	80 ff ff             	cmp    $0xff,%bh
  d8:	e6 03                	out    %al,$0x3
	...
  ee:	00 00                	add    %al,(%rax)
  f0:	2c 00                	sub    $0x0,%al
  f2:	00 00                	add    %al,(%rax)
  f4:	02 00                	add    (%rax),%al
  f6:	c9                   	leave  
  f7:	11 00                	adc    %eax,(%rax)
  f9:	00 08                	add    %cl,(%rax)
  fb:	00 00                	add    %al,(%rax)
  fd:	00 00                	add    %al,(%rax)
  ff:	00 e4                	add    %ah,%ah
 101:	52                   	push   %rdx
 102:	10 00                	adc    %al,(%rax)
 104:	00 80 ff ff 66 02    	add    %al,0x266ffff(%rax)
	...
 11e:	00 00                	add    %al,(%rax)
 120:	2c 00                	sub    $0x0,%al
 122:	00 00                	add    %al,(%rax)
 124:	02 00                	add    (%rax),%al
 126:	00 14 00             	add    %dl,(%rax,%rax,1)
 129:	00 08                	add    %cl,(%rax)
 12b:	00 00                	add    %al,(%rax)
 12d:	00 00                	add    %al,(%rax)
 12f:	00 50 55             	add    %dl,0x55(%rax)
 132:	10 00                	adc    %al,(%rax)
 134:	00 80 ff ff 00 40    	add    %al,0x4000ffff(%rax)
	...
 14e:	00 00                	add    %al,(%rax)
 150:	2c 00                	sub    $0x0,%al
 152:	00 00                	add    %al,(%rax)
 154:	02 00                	add    (%rax),%al
 156:	2e 14 00             	cs adc $0x0,%al
 159:	00 08                	add    %cl,(%rax)
 15b:	00 00                	add    %al,(%rax)
 15d:	00 00                	add    %al,(%rax)
 15f:	00 50 95             	add    %dl,-0x6b(%rax)
 162:	10 00                	adc    %al,(%rax)
 164:	00 80 ff ff 3f 02    	add    %al,0x23fffff(%rax)
	...
 17e:	00 00                	add    %al,(%rax)
 180:	2c 00                	sub    $0x0,%al
 182:	00 00                	add    %al,(%rax)
 184:	02 00                	add    (%rax),%al
 186:	48 17                	rex.W (bad) 
 188:	00 00                	add    %al,(%rax)
 18a:	08 00                	or     %al,(%rax)
 18c:	00 00                	add    %al,(%rax)
 18e:	00 00                	add    %al,(%rax)
 190:	8f                   	(bad)  
 191:	97                   	xchg   %eax,%edi
 192:	10 00                	adc    %al,(%rax)
 194:	00 80 ff ff d9 27    	add    %al,0x27d9ffff(%rax)
	...
 1ae:	00 00                	add    %al,(%rax)
 1b0:	2c 00                	sub    $0x0,%al
 1b2:	00 00                	add    %al,(%rax)
 1b4:	02 00                	add    (%rax),%al
 1b6:	ad                   	lods   %ds:(%rsi),%eax
 1b7:	2a 00                	sub    (%rax),%al
 1b9:	00 08                	add    %cl,(%rax)
 1bb:	00 00                	add    %al,(%rax)
 1bd:	00 00                	add    %al,(%rax)
 1bf:	00 68 bf             	add    %ch,-0x41(%rax)
 1c2:	10 00                	adc    %al,(%rax)
 1c4:	00 80 ff ff 07 02    	add    %al,0x207ffff(%rax)
	...
 1de:	00 00                	add    %al,(%rax)
 1e0:	2c 00                	sub    $0x0,%al
 1e2:	00 00                	add    %al,(%rax)
 1e4:	02 00                	add    (%rax),%al
 1e6:	db 2a                	fldt   (%rdx)
 1e8:	00 00                	add    %al,(%rax)
 1ea:	08 00                	or     %al,(%rax)
 1ec:	00 00                	add    %al,(%rax)
 1ee:	00 00                	add    %al,(%rax)
 1f0:	00 00                	add    %al,(%rax)
 1f2:	10 00                	adc    %al,(%rax)
 1f4:	00 80 ff ff 00 40    	add    %al,0x4000ffff(%rax)
	...

Disassembly of section .debug_line:

0000000000000000 <.debug_line>:
       0:	a3 00 00 00 05 00 08 	movabs %eax,0x5400080005000000
       7:	00 54 
       9:	00 00                	add    %al,(%rax)
       b:	00 01                	add    %al,(%rcx)
       d:	01 01                	add    %eax,(%rcx)
       f:	fb                   	sti    
      10:	0e                   	(bad)  
      11:	0d 00 01 01 01       	or     $0x1010100,%eax
      16:	01 00                	add    %eax,(%rax)
      18:	00 00                	add    %al,(%rax)
      1a:	01 00                	add    %eax,(%rax)
      1c:	00 01                	add    %al,(%rcx)
      1e:	01 01                	add    %eax,(%rcx)
      20:	1f                   	(bad)  
      21:	04 00                	add    $0x0,%al
      23:	00 00                	add    %al,(%rax)
      25:	00 3c 00             	add    %bh,(%rax,%rax,1)
      28:	00 00                	add    %al,(%rax)
      2a:	47 00 00             	rex.RXB add %r8b,(%r8)
      2d:	00 5b 00             	add    %bl,0x0(%rbx)
      30:	00 00                	add    %al,(%rax)
      32:	02 01                	add    (%rcx),%al
      34:	1f                   	(bad)  
      35:	02 0f                	add    (%rdi),%cl
      37:	08 33                	or     %dh,(%rbx)
      39:	00 00                	add    %al,(%rax)
      3b:	00 01                	add    %al,(%rcx)
      3d:	33 00                	xor    (%rax),%eax
      3f:	00 00                	add    %al,(%rax)
      41:	01 6f 00             	add    %ebp,0x0(%rdi)
      44:	00 00                	add    %al,(%rax)
      46:	02 7a 00             	add    0x0(%rdx),%bh
      49:	00 00                	add    %al,(%rax)
      4b:	02 82 00 00 00 02    	add    0x2000000(%rdx),%al
      51:	89 00                	mov    %eax,(%rax)
      53:	00 00                	add    %al,(%rax)
      55:	03 91 00 00 00 02    	add    0x2000000(%rcx),%edx
      5b:	98                   	cwtl   
      5c:	00 00                	add    %al,(%rax)
      5e:	00 02                	add    %al,(%rdx)
      60:	05 01 00 09 02       	add    $0x2090001,%eax
      65:	00 40 10             	add    %al,0x10(%rax)
      68:	00 00                	add    %al,(%rax)
      6a:	80 ff ff             	cmp    $0xff,%bh
      6d:	1a 05 05 08 e5 05    	sbb    0x5e50805(%rip),%al        # 5e50878 <OLDSS+0x5e507c0>
      73:	09 08                	or     %ecx,(%rax)
      75:	4e 05 0b 00 02 04    	rex.WRX add $0x402000b,%rax
      7b:	01 f3                	add    %esi,%ebx
      7d:	05 01 03 09 2e       	add    $0x2e090301,%eax
      82:	05 05 08 d7 05       	add    $0x5d70805,%eax
      87:	02 08                	add    (%rax),%cl
      89:	68 05 05 02 92       	push   $0xffffffff92020505
      8e:	01 13                	add    %edx,(%rbx)
      90:	08 67 08             	or     %ah,0x8(%rdi)
      93:	67 05 01 08 67 a0    	addr32 add $0xa0670801,%eax
      99:	05 05 02 22 13       	add    $0x13220205,%eax
      9e:	05 01 08 67 02       	add    $0x2670801,%eax
      a3:	07                   	(bad)  
      a4:	00 01                	add    %al,(%rcx)
      a6:	01 62 00             	add    %esp,0x0(%rdx)
      a9:	00 00                	add    %al,(%rax)
      ab:	05 00 08 00 37       	add    $0x37000800,%eax
      b0:	00 00                	add    %al,(%rax)
      b2:	00 01                	add    %al,(%rcx)
      b4:	01 01                	add    %eax,(%rcx)
      b6:	fb                   	sti    
      b7:	0e                   	(bad)  
      b8:	0d 00 01 01 01       	or     $0x1010100,%eax
      bd:	01 00                	add    %eax,(%rax)
      bf:	00 00                	add    %al,(%rax)
      c1:	01 00                	add    %eax,(%rax)
      c3:	00 01                	add    %al,(%rcx)
      c5:	01 01                	add    %eax,(%rcx)
      c7:	1f                   	(bad)  
      c8:	03 00                	add    (%rax),%eax
      ca:	00 00                	add    %al,(%rax)
      cc:	00 3c 00             	add    %bh,(%rax,%rax,1)
      cf:	00 00                	add    %al,(%rax)
      d1:	47 00 00             	rex.RXB add %r8b,(%r8)
      d4:	00 02                	add    %al,(%rdx)
      d6:	01 1f                	add    %ebx,(%rdi)
      d8:	02 0f                	add    (%rdi),%cl
      da:	03 af 00 00 00 01    	add    0x1000000(%rdi),%ebp
      e0:	af                   	scas   %es:(%rdi),%eax
      e1:	00 00                	add    %al,(%rax)
      e3:	00 01                	add    %al,(%rcx)
      e5:	6f                   	outsl  %ds:(%rsi),(%dx)
      e6:	00 00                	add    %al,(%rax)
      e8:	00 02                	add    %al,(%rdx)
      ea:	05 01 00 09 02       	add    $0x2090001,%eax
      ef:	9e                   	sahf   
      f0:	41 10 00             	adc    %al,(%r8)
      f3:	00 80 ff ff 16 05    	add    %al,0x516ffff(%rax)
      f9:	12 08                	adc    (%rax),%cl
      fb:	bb 05 1b d7 05       	mov    $0x5d71b05,%ebx
     100:	2b 02                	sub    (%rdx),%eax
     102:	30 13                	xor    %dl,(%rbx)
     104:	05 01 08 83 02       	add    $0x2830801,%eax
     109:	07                   	(bad)  
     10a:	00 01                	add    %al,(%rcx)
     10c:	01 0c 03             	add    %ecx,(%rbx,%rax,1)
     10f:	00 00                	add    %al,(%rax)
     111:	05 00 08 00 59       	add    $0x59000800,%eax
     116:	00 00                	add    %al,(%rax)
     118:	00 01                	add    %al,(%rcx)
     11a:	01 01                	add    %eax,(%rcx)
     11c:	fb                   	sti    
     11d:	0e                   	(bad)  
     11e:	0d 00 01 01 01       	or     $0x1010100,%eax
     123:	01 00                	add    %eax,(%rax)
     125:	00 00                	add    %al,(%rax)
     127:	01 00                	add    %eax,(%rax)
     129:	00 01                	add    %al,(%rcx)
     12b:	01 01                	add    %eax,(%rcx)
     12d:	1f                   	(bad)  
     12e:	04 00                	add    $0x0,%al
     130:	00 00                	add    %al,(%rax)
     132:	00 3c 00             	add    %bh,(%rax,%rax,1)
     135:	00 00                	add    %al,(%rax)
     137:	47 00 00             	rex.RXB add %r8b,(%r8)
     13a:	00 cc                	add    %cl,%ah
     13c:	00 00                	add    %al,(%rax)
     13e:	00 02                	add    %al,(%rdx)
     140:	01 1f                	add    %ebx,(%rdi)
     142:	02 0f                	add    (%rdi),%cl
     144:	09 c5                	or     %eax,%ebp
     146:	00 00                	add    %al,(%rax)
     148:	00 01                	add    %al,(%rcx)
     14a:	c5 00 00             	(bad)
     14d:	00 01                	add    %al,(%rcx)
     14f:	6f                   	outsl  %ds:(%rsi),(%dx)
     150:	00 00                	add    %al,(%rax)
     152:	00 02                	add    %al,(%rdx)
     154:	7a 00                	jp     156 <OLDSS+0x9e>
     156:	00 00                	add    %al,(%rax)
     158:	02 82 00 00 00 02    	add    0x2000000(%rdx),%al
     15e:	f5                   	cmc    
     15f:	00 00                	add    %al,(%rax)
     161:	00 02                	add    %al,(%rdx)
     163:	fc                   	cld    
     164:	00 00                	add    %al,(%rax)
     166:	00 03                	add    %al,(%rbx)
     168:	05 01 00 00 00       	add    $0x1,%eax
     16d:	10 01                	adc    %al,(%rcx)
     16f:	00 00                	add    %al,(%rax)
     171:	02 05 01 00 09 02    	add    0x2090001(%rip),%al        # 2090178 <OLDSS+0x20900c0>
     177:	19 42 10             	sbb    %eax,0x10(%rdx)
     17a:	00 00                	add    %al,(%rax)
     17c:	80 ff ff             	cmp    $0xff,%bh
     17f:	1a 05 20 02 25 13    	sbb    0x13250220(%rip),%al        # 132503a5 <OLDSS+0x132502ed>
     185:	05 0e d6 05 29       	add    $0x2905d60e,%eax
     18a:	67 05 0c 08 20 05    	addr32 add $0x520080c,%eax
     190:	1f                   	(bad)  
     191:	4b 05 24 74 05 0c    	rex.WXB add $0xc057424,%rax
     197:	f2 05 0b ad 05 01    	repnz add $0x105ad0b,%eax
     19d:	91                   	xchg   %eax,%ecx
     19e:	3f                   	(bad)  
     19f:	05 55 02 2f 13       	add    $0x132f0255,%eax
     1a4:	05 46 08 12 05       	add    $0x5120846,%eax
     1a9:	69 66 05 6d 58 05 30 	imul   $0x3005586d,0x5(%rsi),%esp
     1b0:	58                   	pop    %rax
     1b1:	05 41 08 20 05       	add    $0x5200841,%eax
     1b6:	0b 3c 05 0e 4b 05 1d 	or     0x1d054b0e(,%rax,1),%edi
     1bd:	83 05 0e 4a 05 0b 3c 	addl   $0x3c,0xb054a0e(%rip)        # b054bd2 <OLDSS+0xb054b1a>
     1c4:	05 1d 4b 05 0e       	add    $0xe054b1d,%eax
     1c9:	4a 05 24 3c 05 0b    	rex.WX add $0xb053c24,%rax
     1cf:	4a 05 1d 4b 05 0e    	rex.WX add $0xe054b1d,%rax
     1d5:	4a 05 22 3c 05 0b    	rex.WX add $0xb053c22,%rax
     1db:	4a 05 1d 4b 05 0e    	rex.WX add $0xe054b1d,%rax
     1e1:	4a 05 27 3c 05 0b    	rex.WX add $0xb053c27,%rax
     1e7:	4a 05 12 4b 05 0b    	rex.WX add $0xb054b12,%rax
     1ed:	82                   	(bad)  
     1ee:	05 05 4b 05 0b       	add    $0xb054b05,%eax
     1f3:	02 27                	add    (%rdi),%ah
     1f5:	13 05 07 66 05 15    	adc    0x15056607(%rip),%eax        # 15056802 <OLDSS+0x1505674a>
     1fb:	4c 05 09 82 05 01    	rex.WR add $0x1058209,%rax
     201:	08 bc a6 05 0c 02 3b 	or     %bh,0x3b020c05(%rsi,%riz,4)
     208:	15 05 05 66 05       	adc    $0x5660505,%eax
     20d:	09 00                	or     %eax,(%rax)
     20f:	02 04 03             	add    (%rbx,%rax,1),%al
     212:	30 05 1b 00 02 04    	xor    %al,0x402001b(%rip)        # 4020233 <OLDSS+0x402017b>
     218:	03 08                	add    (%rax),%ecx
     21a:	bb 05 24 00 02       	mov    $0x2002405,%ebx
     21f:	04 03                	add    $0x3,%al
     221:	3c 05                	cmp    $0x5,%al
     223:	1e                   	(bad)  
     224:	00 02                	add    %al,(%rdx)
     226:	04 03                	add    $0x3,%al
     228:	3c 05                	cmp    $0x5,%al
     22a:	09 00                	or     %eax,(%rax)
     22c:	02 04 03             	add    (%rbx,%rax,1),%al
     22f:	2e 05 32 00 02 04    	cs add $0x4020032,%eax
     235:	03 08                	add    (%rax),%ecx
     237:	b7 05                	mov    $0x5,%bh
     239:	1f                   	(bad)  
     23a:	00 02                	add    %al,(%rdx)
     23c:	04 01                	add    $0x1,%al
     23e:	4a 05 28 00 02 04    	rex.WX add $0x4020028,%rax
     244:	01 3c 05 22 00 02 04 	add    %edi,0x4020022(,%rax,1)
     24b:	01 3c 05 18 00 02 04 	add    %edi,0x4020018(,%rax,1)
     252:	01 2e                	add    %ebp,(%rsi)
     254:	05 0c 5e 05 05       	add    $0x5055e0c,%eax
     259:	66 05 09 00          	add    $0x9,%ax
     25d:	02 04 03             	add    (%rbx,%rax,1),%al
     260:	30 05 18 00 02 04    	xor    %al,0x4020018(%rip)        # 402027e <OLDSS+0x40201c6>
     266:	03 08                	add    (%rax),%ecx
     268:	bb 05 21 00 02       	mov    $0x2002105,%ebx
     26d:	04 03                	add    $0x3,%al
     26f:	3c 05                	cmp    $0x5,%al
     271:	1b 00                	sbb    (%rax),%eax
     273:	02 04 03             	add    (%rbx,%rax,1),%al
     276:	3c 05                	cmp    $0x5,%al
     278:	09 00                	or     %eax,(%rax)
     27a:	02 04 03             	add    (%rbx,%rax,1),%al
     27d:	2e 05 33 00 02 04    	cs add $0x4020033,%eax
     283:	03 08                	add    (%rax),%ecx
     285:	b7 05                	mov    $0x5,%bh
     287:	1f                   	(bad)  
     288:	00 02                	add    %al,(%rdx)
     28a:	04 01                	add    $0x1,%al
     28c:	4a 05 28 00 02 04    	rex.WX add $0x4020028,%rax
     292:	01 3c 05 22 00 02 04 	add    %edi,0x4020022(,%rax,1)
     299:	01 3c 05 18 00 02 04 	add    %edi,0x4020018(,%rax,1)
     2a0:	01 2e                	add    %ebp,(%rsi)
     2a2:	05 01 5d 84 05       	add    $0x5845d01,%eax
     2a7:	13 02                	adc    (%rdx),%eax
     2a9:	3b 15 05 05 66 05    	cmp    0x5660505(%rip),%edx        # 56607b4 <OLDSS+0x56606fc>
     2af:	09 00                	or     %eax,(%rax)
     2b1:	02 04 03             	add    (%rbx,%rax,1),%al
     2b4:	30 05 3b 00 02 04    	xor    %al,0x402003b(%rip)        # 40202f5 <OLDSS+0x402023d>
     2ba:	03 08                	add    (%rax),%ecx
     2bc:	c6 05 27 00 02 04 01 	movb   $0x1,0x4020027(%rip)        # 40202ea <OLDSS+0x4020232>
     2c3:	4a 05 30 00 02 04    	rex.WX add $0x4020030,%rax
     2c9:	01 3c 05 2a 00 02 04 	add    %edi,0x402002a(,%rax,1)
     2d0:	01 3c 05 20 00 02 04 	add    %edi,0x4020020(,%rax,1)
     2d7:	01 2e                	add    %ebp,(%rsi)
     2d9:	05 01 5e 85 05       	add    $0x5855e01,%eax
     2de:	27                   	(bad)  
     2df:	02 25 13 05 0b 08    	add    0x80b0513(%rip),%ah        # 80b07f8 <OLDSS+0x80b0740>
     2e5:	20 05 0e 4b 05 1d    	and    %al,0x1d054b0e(%rip)        # 1d054df9 <OLDSS+0x1d054d41>
     2eb:	83 05 0e 4a 05 0b 3c 	addl   $0x3c,0xb054a0e(%rip)        # b054d00 <OLDSS+0xb054c48>
     2f2:	05 1d 4b 05 0e       	add    $0xe054b1d,%eax
     2f7:	4a 05 24 3c 05 0b    	rex.WX add $0xb053c24,%rax
     2fd:	4a 05 1d 4b 05 0e    	rex.WX add $0xe054b1d,%rax
     303:	4a 05 22 3c 05 0b    	rex.WX add $0xb053c22,%rax
     309:	4a 05 1d 4b 05 0e    	rex.WX add $0xe054b1d,%rax
     30f:	4a 05 27 3c 05 0b    	rex.WX add $0xb053c27,%rax
     315:	4a 05 12 4b 05 0b    	rex.WX add $0xb054b12,%rax
     31b:	82                   	(bad)  
     31c:	05 2e 4b 05 5a       	add    $0x5a054b2e,%eax
     321:	f2 05 43 08 12 05    	repnz add $0x5120843,%eax
     327:	05 3c 05 01 08       	add    $0x801053c,%eax
     32c:	d7                   	xlat   %ds:(%rbx)
     32d:	78 05                	js     334 <OLDSS+0x27c>
     32f:	13 02                	adc    (%rdx),%eax
     331:	2f                   	(bad)  
     332:	13 05 05 74 05 27    	adc    0x27057405(%rip),%eax        # 2705773d <OLDSS+0x27057685>
     338:	5a                   	pop    %rdx
     339:	05 11 4a 05 1b       	add    $0x1b054a11,%eax
     33e:	02 22                	add    (%rdx),%ah
     340:	13 05 0c 4a 05 0d    	adc    0xd054a0c(%rip),%eax        # d054d52 <OLDSS+0xd054c9a>
     346:	4c 05 13 02 23 14    	rex.WR add $0x14230213,%rax
     34c:	05 0c 74 05 0d       	add    $0xd05740c,%eax
     351:	4c 05 13 02 26 14    	rex.WR add $0x14260213,%rax
     357:	05 0c 74 05 0d       	add    $0xd05740c,%eax
     35c:	4c 05 13 02 26 14    	rex.WR add $0x14260213,%rax
     362:	05 0c 74 05 0d       	add    $0xd05740c,%eax
     367:	4c 05 13 02 26 14    	rex.WR add $0x14260213,%rax
     36d:	05 0c 74 05 0d       	add    $0xd05740c,%eax
     372:	4c 05 13 02 26 14    	rex.WR add $0x14260213,%rax
     378:	05 0c 74 05 0d       	add    $0xd05740c,%eax
     37d:	4c 05 13 02 26 14    	rex.WR add $0x14260213,%rax
     383:	05 0c 74 05 0d       	add    $0xd05740c,%eax
     388:	4c 05 13 02 26 14    	rex.WR add $0x14260213,%rax
     38e:	05 0c 74 05 0d       	add    $0xd05740c,%eax
     393:	4c 05 23 00 02 04    	rex.WR add $0x4020023,%rax
     399:	02 03                	add    (%rbx),%al
     39b:	5f                   	pop    %rdi
     39c:	02 26                	add    (%rsi),%ah
     39e:	01 05 1c 00 02 04    	add    %eax,0x402001c(%rip)        # 40203c0 <OLDSS+0x4020308>
     3a4:	01 4a 05             	add    %ecx,0x5(%rdx)
     3a7:	05 03 24 9e 05       	add    $0x59e2403,%eax
     3ac:	01 21                	add    %esp,(%rcx)
     3ae:	69 05 13 02 2e 13 05 	imul   $0x5740505,0x132e0213(%rip),%eax        # 132e05cb <OLDSS+0x132e0513>
     3b5:	05 74 05 
     3b8:	30 00                	xor    %al,(%rax)
     3ba:	02 04 03             	add    (%rbx,%rax,1),%al
     3bd:	30 05 09 00 02 04    	xor    %al,0x4020009(%rip)        # 40203cc <OLDSS+0x4020314>
     3c3:	03 c8                	add    %eax,%ecx
     3c5:	05 1f 00 02 04       	add    $0x402001f,%eax
     3ca:	03 3c 05 09 00 02 04 	add    0x4020009(,%rax,1),%edi
     3d1:	03 9e 05 2b 00 02    	add    0x2002b05(%rsi),%ebx
     3d7:	04 03                	add    $0x3,%al
     3d9:	08 c6                	or     %al,%dh
     3db:	05 1d 00 02 04       	add    $0x402001d,%eax
     3e0:	01 4a 05             	add    %ecx,0x5(%rdx)
     3e3:	21 00                	and    %eax,(%rax)
     3e5:	02 04 01             	add    (%rcx,%rax,1),%al
     3e8:	c8 05 01 4e          	enter  $0x105,$0x4e
     3ec:	85 05 05 02 74 14    	test   %eax,0x14740205(%rip)        # 147405f7 <OLDSS+0x1474053f>
     3f2:	05 12 02 2d 13       	add    $0x132d0212,%eax
     3f7:	05 05 02 3a 14       	add    $0x143a0205,%eax
     3fc:	05 0c 02 32 13       	add    $0x1332020c,%eax
     401:	05 01 67 bc 05       	add    $0x5bc6701,%eax
     406:	12 08                	adc    (%rax),%cl
     408:	ad                   	lods   %ds:(%rsi),%eax
     409:	05 19 08 ad 05       	add    $0x5ad0819,%eax
     40e:	05 08 74 05 01       	add    $0x1057408,%eax
     413:	08 22                	or     %ah,(%rdx)
     415:	3e 08 b2 02 03 00 01 	ds or  %dh,0x1000302(%rdx)
     41c:	01 6a 01             	add    %ebp,0x1(%rdx)
     41f:	00 00                	add    %al,(%rax)
     421:	05 00 08 00 4f       	add    $0x4f000800,%eax
     426:	00 00                	add    %al,(%rax)
     428:	00 01                	add    %al,(%rcx)
     42a:	01 01                	add    %eax,(%rcx)
     42c:	fb                   	sti    
     42d:	0e                   	(bad)  
     42e:	0d 00 01 01 01       	or     $0x1010100,%eax
     433:	01 00                	add    %eax,(%rax)
     435:	00 00                	add    %al,(%rax)
     437:	01 00                	add    %eax,(%rax)
     439:	00 01                	add    %al,(%rcx)
     43b:	01 01                	add    %eax,(%rcx)
     43d:	1f                   	(bad)  
     43e:	04 00                	add    $0x0,%al
     440:	00 00                	add    %al,(%rax)
     442:	00 3c 00             	add    %bh,(%rax,%rax,1)
     445:	00 00                	add    %al,(%rax)
     447:	47 00 00             	rex.RXB add %r8b,(%r8)
     44a:	00 cc                	add    %cl,%ah
     44c:	00 00                	add    %al,(%rax)
     44e:	00 02                	add    %al,(%rdx)
     450:	01 1f                	add    %ebx,(%rdi)
     452:	02 0f                	add    (%rdi),%cl
     454:	07                   	(bad)  
     455:	23 01                	and    (%rcx),%eax
     457:	00 00                	add    %al,(%rax)
     459:	01 23                	add    %esp,(%rbx)
     45b:	01 00                	add    %eax,(%rax)
     45d:	00 01                	add    %al,(%rcx)
     45f:	7a 00                	jp     461 <OLDSS+0x3a9>
     461:	00 00                	add    %al,(%rax)
     463:	02 fc                	add    %ah,%bh
     465:	00 00                	add    %al,(%rax)
     467:	00 03                	add    %al,(%rbx)
     469:	05 01 00 00 00       	add    $0x1,%eax
     46e:	2b 01                	sub    (%rcx),%eax
     470:	00 00                	add    %al,(%rax)
     472:	02 10                	add    (%rax),%dl
     474:	01 00                	add    %eax,(%rax)
     476:	00 02                	add    %al,(%rdx)
     478:	05 01 00 09 02       	add    $0x2090001,%eax
     47d:	16                   	(bad)  
     47e:	4a 10 00             	rex.WX adc %al,(%rax)
     481:	00 80 ff ff 16 05    	add    %al,0x516ffff(%rax)
     487:	0f 02 27             	lar    (%rdi),%esp
     48a:	13 05 0b 83 05 0d    	adc    0xd05830b(%rip),%eax        # d05879b <OLDSS+0xd0586e3>
     490:	30 05 10 ba 72 05    	xor    %al,0x572ba10(%rip)        # 572bea6 <OLDSS+0x572bdee>
     496:	12 90 05 01 4e 05    	adc    0x54e0105(%rax),%dl
     49c:	45 50                	rex.RB push %r8
     49e:	05 18 02 2c 13       	add    $0x132c0218,%eax
     4a3:	05 0e 4a 05 18       	add    $0x18054a0e,%eax
     4a8:	c9                   	leave  
     4a9:	05 0e 4a 05 08       	add    $0x8054a0e,%eax
     4ae:	c9                   	leave  
     4af:	67 08 bc 05 21 67 05 	or     %bh,0xb056721(%ebp,%eax,1)
     4b6:	0b 
     4b7:	66 05 19 74          	add    $0x7419,%ax
     4bb:	05 21 ac 05 1d       	add    $0x1d05ac21,%eax
     4c0:	2e 05 01 33 05 26    	cs add $0x26053301,%eax
     4c6:	2c 05                	sub    $0x5,%al
     4c8:	0b 66 05             	or     0x5(%rsi),%esp
     4cb:	19 74 05 26          	sbb    %esi,0x26(%rbp,%rax,1)
     4cf:	ac                   	lods   %ds:(%rsi),%al
     4d0:	05 1d 2e 05 01       	add    $0x1052e1d,%eax
     4d5:	30 05 3e 3f 05 08    	xor    %al,0x8053f3e(%rip)        # 8054419 <OLDSS+0x8054361>
     4db:	02 2f                	add    (%rdi),%ch
     4dd:	13 05 0e 83 05 07    	adc    0x705830e(%rip),%eax        # 70587f1 <OLDSS+0x7058739>
     4e3:	83 a1 05 06 59 05 0d 	andl   $0xd,0x5590605(%rcx)
     4ea:	00 02                	add    %al,(%rdx)
     4ec:	04 01                	add    $0x1,%al
     4ee:	67 05 11 00 02 04    	addr32 add $0x4020011,%eax
     4f4:	01 ba 05 0f 00 02    	add    %edi,0x2000f05(%rdx)
     4fa:	04 01                	add    $0x1,%al
     4fc:	67 05 04 00 02 04    	addr32 add $0x4020004,%eax
     502:	01 e5                	add    %esp,%ebp
     504:	05 0e 5a 05 03       	add    $0x3055a0e,%eax
     509:	e5 05                	in     $0x5,%eax
     50b:	0f 02 3b             	lar    (%rbx),%edi
     50e:	14 05                	adc    $0x5,%al
     510:	07                   	(bad)  
     511:	02 4a 13             	add    0x13(%rdx),%cl
     514:	05 12 08 e5 05       	add    $0x5e50812,%eax
     519:	0f 08                	invd   
     51b:	82                   	(bad)  
     51c:	05 12 4a 05 0f       	add    $0xf054a12,%eax
     521:	2e 05 12 75 05 07    	cs add $0x7057512,%eax
     527:	e5 05                	in     $0x5,%eax
     529:	16                   	(bad)  
     52a:	5a                   	pop    %rdx
     52b:	05 10 02 45 12       	add    $0x12450210,%eax
     530:	05 14 ba 05 12       	add    $0x1205ba14,%eax
     535:	4b 05 07 e5 05 0f    	rex.WXB add $0xf05e507,%rax
     53b:	5a                   	pop    %rdx
     53c:	05 0a 02 48 13       	add    $0x1348020a,%eax
     541:	05 13 67 3d 05       	add    $0x53d6713,%eax
     546:	16                   	(bad)  
     547:	ba 05 07 3e 05       	mov    $0x53e0705,%edx
     54c:	12 08                	adc    (%rax),%cl
     54e:	f3 05 07 e5 05 0c    	repz add $0xc05e507,%eax
     554:	30 05 04 02 48 13    	xor    %al,0x13480204(%rip)        # 1348075e <OLDSS+0x134806a6>
     55a:	05 0f 08 f3 05       	add    $0x5f3080f,%eax
     55f:	04 e5                	add    $0xe5,%al
     561:	05 08 03 61 20       	add    $0x20610308,%eax
     566:	05 09 03 22 9e       	add    $0x9e220309,%eax
     56b:	05 01 08 83 05       	add    $0x5830801,%eax
     570:	36 03 0e             	ss add (%rsi),%ecx
     573:	90                   	nop
     574:	05 02 02 71 15       	add    $0x15710202,%eax
     579:	05 0b 02 2d 13       	add    $0x132d020b,%eax
     57e:	05 09 02 31 14       	add    $0x14310209,%eax
     583:	05 01 67 02 02       	add    $0x2026701,%eax
     588:	00 01                	add    %al,(%rcx)
     58a:	01 33                	add    %esi,(%rbx)
     58c:	02 00                	add    (%rax),%al
     58e:	00 05 00 08 00 37    	add    %al,0x37000800(%rip)        # 37000d94 <OLDSS+0x37000cdc>
     594:	00 00                	add    %al,(%rax)
     596:	00 01                	add    %al,(%rcx)
     598:	01 01                	add    %eax,(%rcx)
     59a:	fb                   	sti    
     59b:	0e                   	(bad)  
     59c:	0d 00 01 01 01       	or     $0x1010100,%eax
     5a1:	01 00                	add    %eax,(%rax)
     5a3:	00 00                	add    %al,(%rax)
     5a5:	01 00                	add    %eax,(%rax)
     5a7:	00 01                	add    %al,(%rcx)
     5a9:	01 01                	add    %eax,(%rcx)
     5ab:	1f                   	(bad)  
     5ac:	03 00                	add    (%rax),%eax
     5ae:	00 00                	add    %al,(%rax)
     5b0:	00 3c 00             	add    %bh,(%rax,%rax,1)
     5b3:	00 00                	add    %al,(%rax)
     5b5:	47 00 00             	rex.RXB add %r8b,(%r8)
     5b8:	00 02                	add    %al,(%rdx)
     5ba:	01 1f                	add    %ebx,(%rdi)
     5bc:	02 0f                	add    (%rdi),%cl
     5be:	03 3f                	add    (%rdi),%edi
     5c0:	01 00                	add    %eax,(%rax)
     5c2:	00 01                	add    %al,(%rcx)
     5c4:	3f                   	(bad)  
     5c5:	01 00                	add    %eax,(%rax)
     5c7:	00 01                	add    %al,(%rcx)
     5c9:	7a 00                	jp     5cb <OLDSS+0x513>
     5cb:	00 00                	add    %al,(%rax)
     5cd:	02 05 37 00 09 02    	add    0x2090037(%rip),%al        # 209060a <OLDSS+0x2090552>
     5d3:	fe 4e 10             	decb   0x10(%rsi)
     5d6:	00 00                	add    %al,(%rax)
     5d8:	80 ff ff             	cmp    $0xff,%bh
     5db:	16                   	(bad)  
     5dc:	05 0e 02 28 14       	add    $0x1428020e,%eax
     5e1:	05 0b 83 05 0d       	add    $0xd05830b,%eax
     5e6:	2f                   	(bad)  
     5e7:	05 10 ba 65 05       	add    $0x565ba10,%eax
     5ec:	13 90 05 01 4c 05    	adc    0x54c0105(%rax),%edx
     5f2:	3a 4e 05             	cmp    0x5(%rsi),%cl
     5f5:	0e                   	(bad)  
     5f6:	02 27                	add    (%rdi),%ah
     5f8:	14 05                	adc    $0x5,%al
     5fa:	14 83                	adc    $0x83,%al
     5fc:	05 0b 83 05 16       	add    $0x1605830b,%eax
     601:	2f                   	(bad)  
     602:	05 0d ba 05 12       	add    $0x1205ba0d,%eax
     607:	ba 05 10 3c 2d       	mov    $0x2d3c1005,%edx
     60c:	05 13 90 05 01       	add    $0x1059013,%eax
     611:	4c 05 3b 4d 05 11    	rex.WR add $0x11054d3b,%rax
     617:	02 27                	add    (%rdi),%ah
     619:	13 83 05 0b 84 05    	adc    0x5840b05(%rbx),%eax
     61f:	0c 2f                	or     $0x2f,%al
     621:	05 12 74 05 0b       	add    $0xb057412,%eax
     626:	74 05                	je     62d <OLDSS+0x575>
     628:	11 4b 05             	adc    %ecx,0x5(%rbx)
     62b:	16                   	(bad)  
     62c:	74 05                	je     633 <OLDSS+0x57b>
     62e:	1d 74 00 02 04       	sbb    $0x4020074,%eax
     633:	01 06                	add    %eax,(%rsi)
     635:	4a 00 02             	rex.WX add %al,(%rdx)
     638:	04 02                	add    $0x2,%al
     63a:	74 05                	je     641 <OLDSS+0x589>
     63c:	06                   	(bad)  
     63d:	06                   	(bad)  
     63e:	76 59                	jbe    699 <OLDSS+0x5e1>
     640:	05 10 53 05 13       	add    $0x13055310,%eax
     645:	90                   	nop
     646:	05 0b 51 05 01       	add    $0x105510b,%eax
     64b:	59                   	pop    %rcx
     64c:	05 2c 31 05 0b       	add    $0xb05312c,%eax
     651:	02 24 14             	add    (%rsp,%rdx,1),%ah
     654:	05 0a 83 05 1b       	add    $0x1b05830a,%eax
     659:	00 02                	add    %al,(%rdx)
     65b:	04 01                	add    $0x1,%al
     65d:	20 05 11 00 02 04    	and    %al,0x4020011(%rip)        # 4020674 <OLDSS+0x40205bc>
     663:	01 ba 05 16 00 02    	add    %edi,0x2001605(%rdx)
     669:	04 01                	add    $0x1,%al
     66b:	ba 05 14 00 02       	mov    $0x2001405,%edx
     670:	04 01                	add    $0x1,%al
     672:	3c 05                	cmp    $0x5,%al
     674:	0c 00                	or     $0x0,%al
     676:	02 04 01             	add    (%rcx,%rax,1),%al
     679:	2e 05 0b 00 02 04    	cs add $0x402000b,%eax
     67f:	01 3c 05 0c 4b 05 01 	add    %edi,0x1054b0c(,%rax,1)
     686:	4b 05 22 31 05 11    	rex.WXB add $0x11053122,%rax
     68c:	08 e6                	or     %ah,%dh
     68e:	05 0a 83 05 0d       	add    $0xd05830a,%eax
     693:	00 02                	add    %al,(%rdx)
     695:	04 01                	add    $0x1,%al
     697:	20 05 0b 00 02 04    	and    %al,0x402000b(%rip)        # 40206a8 <OLDSS+0x40205f0>
     69d:	01 ba 05 0f 75 05    	add    %edi,0x5750f05(%rdx)
     6a3:	15 82 05 01 3d       	adc    $0x3d010582,%eax
     6a8:	05 2e 31 05 0b       	add    $0xb05312e,%eax
     6ad:	02 24 14             	add    (%rsp,%rdx,1),%ah
     6b0:	05 0a 2f 59 05       	add    $0x5592f0a,%eax
     6b5:	0c 56                	or     $0x56,%al
     6b7:	05 14 74 05 17       	add    $0x17057414,%eax
     6bc:	00 02                	add    %al,(%rdx)
     6be:	04 01                	add    $0x1,%al
     6c0:	4a 05 1d 00 02 04    	rex.WX add $0x402001d,%rax
     6c6:	01 74 05 14          	add    %esi,0x14(%rbp,%rax,1)
     6ca:	00 02                	add    %al,(%rdx)
     6cc:	04 01                	add    $0x1,%al
     6ce:	74 05                	je     6d5 <OLDSS+0x61d>
     6d0:	0c 50                	or     $0x50,%al
     6d2:	05 11 74 05 19       	add    $0x19057411,%eax
     6d7:	74 05                	je     6de <OLDSS+0x626>
     6d9:	1b 00                	sbb    (%rax),%eax
     6db:	02 04 01             	add    (%rcx,%rax,1),%al
     6de:	4a 05 20 00 02 04    	rex.WX add $0x4020020,%rax
     6e4:	01 74 05 1e          	add    %esi,0x1e(%rbp,%rax,1)
     6e8:	00 02                	add    %al,(%rdx)
     6ea:	04 01                	add    $0x1,%al
     6ec:	74 05                	je     6f3 <OLDSS+0x63b>
     6ee:	19 00                	sbb    %eax,(%rax)
     6f0:	02 04 01             	add    (%rcx,%rax,1),%al
     6f3:	58                   	pop    %rax
     6f4:	00 02                	add    %al,(%rdx)
     6f6:	04 02                	add    $0x2,%al
     6f8:	06                   	(bad)  
     6f9:	2e 05 01 00 02 04    	cs add $0x4020001,%eax
     6ff:	05 06 59 05 31       	add    $0x31055906,%eax
     704:	31 05 0b 02 25 14    	xor    %eax,0x1425020b(%rip)        # 14250915 <OLDSS+0x1425085d>
     70a:	05 0d 2f 05 12       	add    $0x12052f0d,%eax
     70f:	9e                   	sahf   
     710:	05 0c 4a 05 11       	add    $0x11054a0c,%eax
     715:	4b 05 0c 68 54 05    	rex.WXB add $0x554680c,%rax
     71b:	11 74 05 0c          	adc    %esi,0xc(%rbp,%rax,1)
     71f:	50                   	push   %rax
     720:	05 01 59 05 32       	add    $0x32055901,%eax
     725:	31 05 11 02 25 14    	xor    %eax,0x14250211(%rip)        # 1425093c <OLDSS+0x14250884>
     72b:	05 0b 84 05 0d       	add    $0xd05840b,%eax
     730:	2f                   	(bad)  
     731:	05 12 9e 05 0c       	add    $0xc059e12,%eax
     736:	4a 05 14 4b 05 0c    	rex.WX add $0xc054b14,%rax
     73c:	84 54 05 11          	test   %dl,0x11(%rbp,%rax,1)
     740:	74 05                	je     747 <OLDSS+0x68f>
     742:	0c 50                	or     $0x50,%al
     744:	05 01 4b 05 2c       	add    $0x2c054b01,%eax
     749:	31 05 0b 02 24 14    	xor    %eax,0x1424020b(%rip)        # 1424095a <OLDSS+0x142408a2>
     74f:	83 05 10 00 02 04 01 	addl   $0x1,0x4020010(%rip)        # 4020766 <OLDSS+0x40206ae>
     756:	20 05 0c 00 02 04    	and    %al,0x402000c(%rip)        # 4020768 <OLDSS+0x40206b0>
     75c:	01 ba 05 05 75 05    	add    %edi,0x5750505(%rdx)
     762:	0a 59 05             	or     0x5(%rcx),%bl
     765:	1a 00                	sbb    (%rax),%al
     767:	02 04 01             	add    (%rcx,%rax,1),%al
     76a:	20 05 10 00 02 04    	and    %al,0x4020010(%rip)        # 4020780 <OLDSS+0x40206c8>
     770:	01 ba 05 15 00 02    	add    %edi,0x2001505(%rdx)
     776:	04 01                	add    $0x1,%al
     778:	ba 05 13 00 02       	mov    $0x2001305,%edx
     77d:	04 01                	add    $0x1,%al
     77f:	3c 05                	cmp    $0x5,%al
     781:	0c 00                	or     $0x0,%al
     783:	02 04 01             	add    (%rcx,%rax,1),%al
     786:	2e 05 0b 00 02 04    	cs add $0x402000b,%eax
     78c:	01 3c 05 0c 4b 05 01 	add    %edi,0x1054b0c(,%rax,1)
     793:	4b 05 2f 31 05 0e    	rex.WXB add $0xe05312f,%rax
     799:	02 25 14 05 11 75    	add    0x75110514(%rip),%ah        # 75110cb3 <OLDSS+0x75110bfb>
     79f:	05 0a 83 05 0d       	add    $0xd05830a,%eax
     7a4:	2f                   	(bad)  
     7a5:	05 10 9e 05 0c       	add    $0xc059e10,%eax
     7aa:	4a 05 13 4b 05 0a    	rex.WX add $0xa054b13,%rax
     7b0:	4c 05 0b 54 05 0e    	rex.WR add $0xe05540b,%rax
     7b6:	74 05                	je     7bd <OLDSS+0x705>
     7b8:	0c 50                	or     $0x50,%al
     7ba:	05 01 3d 02 02       	add    $0x2023d01,%eax
     7bf:	00 01                	add    %al,(%rcx)
     7c1:	01 e6                	add    %esp,%esi
     7c3:	00 00                	add    %al,(%rax)
     7c5:	00 05 00 08 00 4a    	add    %al,0x4a000800(%rip)        # 4a000fcb <OLDSS+0x4a000f13>
     7cb:	00 00                	add    %al,(%rax)
     7cd:	00 01                	add    %al,(%rcx)
     7cf:	01 01                	add    %eax,(%rcx)
     7d1:	fb                   	sti    
     7d2:	0e                   	(bad)  
     7d3:	0d 00 01 01 01       	or     $0x1010100,%eax
     7d8:	01 00                	add    %eax,(%rax)
     7da:	00 00                	add    %al,(%rax)
     7dc:	01 00                	add    %eax,(%rax)
     7de:	00 01                	add    %al,(%rcx)
     7e0:	01 01                	add    %eax,(%rcx)
     7e2:	1f                   	(bad)  
     7e3:	04 00                	add    $0x0,%al
     7e5:	00 00                	add    %al,(%rax)
     7e7:	00 5b 01             	add    %bl,0x1(%rbx)
     7ea:	00 00                	add    %al,(%rax)
     7ec:	47 00 00             	rex.RXB add %r8b,(%r8)
     7ef:	00 5b 00             	add    %bl,0x0(%rbx)
     7f2:	00 00                	add    %al,(%rax)
     7f4:	02 01                	add    (%rcx),%al
     7f6:	1f                   	(bad)  
     7f7:	02 0f                	add    (%rdi),%cl
     7f9:	06                   	(bad)  
     7fa:	53                   	push   %rbx
     7fb:	01 00                	add    %eax,(%rax)
     7fd:	00 01                	add    %al,(%rcx)
     7ff:	53                   	push   %rbx
     800:	01 00                	add    %eax,(%rax)
     802:	00 01                	add    %al,(%rcx)
     804:	7a 00                	jp     806 <OLDSS+0x74e>
     806:	00 00                	add    %al,(%rax)
     808:	02 89 00 00 00 03    	add    0x3000000(%rcx),%cl
     80e:	6f                   	outsl  %ds:(%rsi),(%dx)
     80f:	00 00                	add    %al,(%rax)
     811:	00 02                	add    %al,(%rdx)
     813:	82                   	(bad)  
     814:	00 00                	add    %al,(%rax)
     816:	00 02                	add    %al,(%rdx)
     818:	05 01 00 09 02       	add    $0x2090001,%eax
     81d:	e4 52                	in     $0x52,%al
     81f:	10 00                	adc    %al,(%rax)
     821:	00 80 ff ff 19 05    	add    %al,0x519ffff(%rax)
     827:	1c 08                	sbb    $0x8,%al
     829:	ad                   	lods   %ds:(%rsi),%eax
     82a:	05 32 f2 05 0e       	add    $0xe05f232,%eax
     82f:	4a 05 1d c9 05 31    	rex.WX add $0x3105c91d,%rax
     835:	08 12                	or     %dl,(%rdx)
     837:	05 0e 4a 05 05       	add    $0x5054a0e,%eax
     83c:	c9                   	leave  
     83d:	05 01 08 4c 3e       	add    $0x3e4c0801,%eax
     842:	05 09 03 15 02       	add    $0x2150309,%eax
     847:	23 01                	and    (%rcx),%eax
     849:	05 02 74 05 0a       	add    $0xa057402,%eax
     84e:	59                   	pop    %rcx
     84f:	05 03 74 05 11       	add    $0x11057403,%eax
     854:	59                   	pop    %rcx
     855:	05 07 02 25 12       	add    $0x12250207,%eax
     85a:	05 3b 4b 05 11       	add    $0x11054b3b,%eax
     85f:	08 ac 02 3e 14 05 07 	or     %ch,0x705143e(%rdx,%rax,1)
     866:	02 25 12 05 3b 4b    	add    0x4b3b0512(%rip),%ah        # 4b3b0d7e <OLDSS+0x4b3b0cc6>
     86c:	05 11 08 ac 02       	add    $0x2ac0811,%eax
     871:	3e 14 05             	ds adc $0x5,%al
     874:	07                   	(bad)  
     875:	02 25 12 05 3b 4b    	add    0x4b3b0512(%rip),%ah        # 4b3b0d8d <OLDSS+0x4b3b0cd5>
     87b:	05 11 08 f2 05       	add    $0x5f20811,%eax
     880:	18 00                	sbb    %al,(%rax)
     882:	02 04 02             	add    (%rdx,%rax,1),%al
     885:	03 78 02             	add    0x2(%rax),%edi
     888:	3e 01 05 11 00 02 04 	ds add %eax,0x4020011(%rip)        # 40208a0 <OLDSS+0x40207e8>
     88f:	01 4a 05             	add    %ecx,0x5(%rdx)
     892:	17                   	(bad)  
     893:	00 02                	add    %al,(%rdx)
     895:	04 02                	add    $0x2,%al
     897:	9d                   	popf   
     898:	05 10 00 02 04       	add    $0x4020010,%eax
     89d:	01 4a 05             	add    %ecx,0x5(%rdx)
     8a0:	02 03                	add    (%rbx),%al
     8a2:	0d 9e 05 01 21       	or     $0x2101059e,%eax
     8a7:	02 09                	add    (%rcx),%cl
     8a9:	00 01                	add    %al,(%rcx)
     8ab:	01 b7 00 00 00 03    	add    %esi,0x3000000(%rdi)
     8b1:	00 28                	add    %ch,(%rax)
     8b3:	00 00                	add    %al,(%rax)
     8b5:	00 01                	add    %al,(%rcx)
     8b7:	01 fb                	add    %edi,%ebx
     8b9:	0e                   	(bad)  
     8ba:	0d 00 01 01 01       	or     $0x1010100,%eax
     8bf:	01 00                	add    %eax,(%rax)
     8c1:	00 00                	add    %al,(%rax)
     8c3:	01 00                	add    %eax,(%rax)
     8c5:	00 01                	add    %al,(%rcx)
     8c7:	73 72                	jae    93b <OLDSS+0x883>
     8c9:	63 2f                	movsxd (%rdi),%ebp
     8cb:	6b 65 72 6e          	imul   $0x6e,0x72(%rbp),%esp
     8cf:	65 6c                	gs insb (%dx),%es:(%rdi)
     8d1:	00 00                	add    %al,(%rax)
     8d3:	68 65 61 64 2e       	push   $0x2e646165
     8d8:	73 00                	jae    8da <OLDSS+0x822>
     8da:	01 00                	add    %eax,(%rax)
     8dc:	00 00                	add    %al,(%rax)
     8de:	00 09                	add    %cl,(%rcx)
     8e0:	02 50 55             	add    0x55(%rax),%dl
     8e3:	10 00                	adc    %al,(%rax)
     8e5:	00 80 ff ff 17 3d    	add    %al,0x3d17ffff(%rax)
     8eb:	2f                   	(bad)  
     8ec:	2f                   	(bad)  
     8ed:	2f                   	(bad)  
     8ee:	2f                   	(bad)  
     8ef:	5a                   	pop    %rdx
     8f0:	75 40                	jne    932 <OLDSS+0x87a>
     8f2:	78 76                	js     96a <OLDSS+0x8b2>
     8f4:	4b 2f                	rex.WXB (bad) 
     8f6:	2f                   	(bad)  
     8f7:	2f                   	(bad)  
     8f8:	2f                   	(bad)  
     8f9:	30 78 75             	xor    %bh,0x75(%rax)
     8fc:	3d 75 2f 21 a6       	cmp    $0xa6212f75,%eax
     901:	75 3d                	jne    940 <OLDSS+0x888>
     903:	3d 3d 3d a1 75       	cmp    $0x75a13d3d,%eax
     908:	75 3d                	jne    947 <OLDSS+0x88f>
     90a:	9f                   	lahf   
     90b:	3e 2f                	ds (bad) 
     90d:	3d 4b 3d 4b 75       	cmp    $0x754b3d4b,%eax
     912:	76 3d                	jbe    951 <OLDSS+0x899>
     914:	4b                   	rex.WXB
     915:	4b 3d 32 75 3d 3d    	rex.WXB cmp $0x3d3d7532,%rax
     91b:	75 4b                	jne    968 <OLDSS+0x8b0>
     91d:	2f                   	(bad)  
     91e:	3d 4b 3d 3e 2f       	cmp    $0x2f3e3d4b,%eax
     923:	67 4b 3d 4b 75 4b 4b 	addr32 rex.WXB cmp $0x4b4b754b,%rax
     92a:	4c                   	rex.WR
     92b:	4b                   	rex.WXB
     92c:	3e 75 2f             	jne,pt 95e <OLDSS+0x8a6>
     92f:	21 03                	and    %eax,(%rbx)
     931:	0d 9e 21 21 21       	or     $0x2121219e,%eax
     936:	21 21                	and    %esp,(%rcx)
     938:	21 21                	and    %esp,(%rcx)
     93a:	22 2f                	and    (%rdi),%ch
     93c:	2f                   	(bad)  
     93d:	2f                   	(bad)  
     93e:	2f                   	(bad)  
     93f:	2f                   	(bad)  
     940:	2f                   	(bad)  
     941:	2f                   	(bad)  
     942:	30 3d 21 3d 22 75    	xor    %bh,0x75223d21(%rip)        # 75224669 <OLDSS+0x752245b1>
     948:	3d 03 0a 3c 5d       	cmp    $0x5d3c0a03,%eax
     94d:	30 21                	xor    %ah,(%rcx)
     94f:	3d 21 3e 2f 2f       	cmp    $0x2f2f3e21,%eax
     954:	2f                   	(bad)  
     955:	2f                   	(bad)  
     956:	2f                   	(bad)  
     957:	2f                   	(bad)  
     958:	2f                   	(bad)  
     959:	30 21                	xor    %ah,(%rcx)
     95b:	21 21                	and    %esp,(%rcx)
     95d:	21 21                	and    %esp,(%rcx)
     95f:	21 21                	and    %esp,(%rcx)
     961:	02 81 7d 00 01 01    	add    0x101007d(%rcx),%al
     967:	ee                   	out    %al,(%dx)
     968:	00 00                	add    %al,(%rax)
     96a:	00 05 00 08 00 46    	add    %al,0x46000800(%rip)        # 46001170 <OLDSS+0x460010b8>
     970:	00 00                	add    %al,(%rax)
     972:	00 01                	add    %al,(%rcx)
     974:	01 01                	add    %eax,(%rcx)
     976:	fb                   	sti    
     977:	0e                   	(bad)  
     978:	0d 00 01 01 01       	or     $0x1010100,%eax
     97d:	01 00                	add    %eax,(%rax)
     97f:	00 00                	add    %al,(%rax)
     981:	01 00                	add    %eax,(%rax)
     983:	00 01                	add    %al,(%rcx)
     985:	01 01                	add    %eax,(%rcx)
     987:	1f                   	(bad)  
     988:	03 00                	add    (%rax),%eax
     98a:	00 00                	add    %al,(%rax)
     98c:	00 3c 00             	add    %bh,(%rax,%rax,1)
     98f:	00 00                	add    %al,(%rax)
     991:	47 00 00             	rex.RXB add %r8b,(%r8)
     994:	00 02                	add    %al,(%rdx)
     996:	01 1f                	add    %ebx,(%rdi)
     998:	02 0f                	add    (%rdi),%cl
     99a:	06                   	(bad)  
     99b:	71 01                	jno    99e <OLDSS+0x8e6>
     99d:	00 00                	add    %al,(%rax)
     99f:	01 71 01             	add    %esi,0x1(%rcx)
     9a2:	00 00                	add    %al,(%rax)
     9a4:	01 7a 00             	add    %edi,0x0(%rdx)
     9a7:	00 00                	add    %al,(%rax)
     9a9:	02 98 00 00 00 02    	add    0x2000000(%rax),%bl
     9af:	6f                   	outsl  %ds:(%rsi),(%dx)
     9b0:	00 00                	add    %al,(%rax)
     9b2:	00 02                	add    %al,(%rdx)
     9b4:	82                   	(bad)  
     9b5:	00 00                	add    %al,(%rax)
     9b7:	00 02                	add    %al,(%rdx)
     9b9:	05 01 00 09 02       	add    $0x2090001,%eax
     9be:	50                   	push   %rax
     9bf:	95                   	xchg   %eax,%ebp
     9c0:	10 00                	adc    %al,(%rax)
     9c2:	00 80 ff ff 17 08    	add    %al,0x817ffff(%rax)
     9c8:	ae                   	scas   %es:(%rdi),%al
     9c9:	3f                   	(bad)  
     9ca:	05 24 02 35 13       	add    $0x13350224,%eax
     9cf:	05 0b 9e 05 1c       	add    $0x1c059e0b,%eax
     9d4:	08 4c 05 11          	or     %cl,0x11(%rbp,%rax,1)
     9d8:	84 05 10 66 76 05    	test   %al,0x5766610(%rip)        # 5766fee <OLDSS+0x5766f36>
     9de:	0b bb 05 17 ad 05    	or     0x5ad1705(%rbx),%edi
     9e4:	23 ad 05 11 82 05    	and    0x5821105(%rbp),%ebp
     9ea:	10 2e                	adc    %ch,(%rsi)
     9ec:	05 23 83 05 11       	add    $0x11058323,%eax
     9f1:	82                   	(bad)  
     9f2:	05 10 2e 05 01       	add    $0x1052e10,%eax
     9f7:	75 3e                	jne    a37 <OLDSS+0x97f>
     9f9:	05 05 08 ad 05       	add    $0x5ad0805,%eax
     9fe:	01 21                	add    %esp,(%rcx)
     a00:	31 05 05 08 ad 05    	xor    %eax,0x5ad0805(%rip)        # 5ad120b <OLDSS+0x5ad1153>
     a06:	01 21                	add    %esp,(%rcx)
     a08:	32 05 03 02 34 13    	xor    0x13340203(%rip),%al        # 13340c11 <OLDSS+0x13340b59>
     a0e:	05 24 08 20 05       	add    $0x5200824,%eax
     a13:	03 75 05             	add    0x5(%rbp),%esi
     a16:	24 08                	and    $0x8,%al
     a18:	20 05 03 75 05 24    	and    %al,0x24057503(%rip)        # 24057f21 <OLDSS+0x24057e69>
     a1e:	08 20                	or     %ah,(%rax)
     a20:	05 03 76 05 24       	add    $0x24057603,%eax
     a25:	08 20                	or     %ah,(%rax)
     a27:	05 03 75 05 25       	add    $0x25057503,%eax
     a2c:	08 20                	or     %ah,(%rax)
     a2e:	05 03 75 05 25       	add    $0x25057503,%eax
     a33:	08 20                	or     %ah,(%rax)
     a35:	05 03 75 05 25       	add    $0x25057503,%eax
     a3a:	08 20                	or     %ah,(%rax)
     a3c:	05 03 75 05 25       	add    $0x25057503,%eax
     a41:	08 20                	or     %ah,(%rax)
     a43:	05 03 75 05 25       	add    $0x25057503,%eax
     a48:	08 20                	or     %ah,(%rax)
     a4a:	05 03 75 05 25       	add    $0x25057503,%eax
     a4f:	08 20                	or     %ah,(%rax)
     a51:	05 01 75 02 03       	add    $0x3027501,%eax
     a56:	00 01                	add    %al,(%rcx)
     a58:	01 a2 05 00 00 05    	add    %esp,0x5000005(%rdx)
     a5e:	00 08                	add    %cl,(%rax)
     a60:	00 4b 00             	add    %cl,0x0(%rbx)
     a63:	00 00                	add    %al,(%rax)
     a65:	01 01                	add    %eax,(%rcx)
     a67:	01 fb                	add    %edi,%ebx
     a69:	0e                   	(bad)  
     a6a:	0d 00 01 01 01       	or     $0x1010100,%eax
     a6f:	01 00                	add    %eax,(%rax)
     a71:	00 00                	add    %al,(%rax)
     a73:	01 00                	add    %eax,(%rax)
     a75:	00 01                	add    %al,(%rcx)
     a77:	01 01                	add    %eax,(%rcx)
     a79:	1f                   	(bad)  
     a7a:	03 00                	add    (%rax),%eax
     a7c:	00 00                	add    %al,(%rax)
     a7e:	00 3c 00             	add    %bh,(%rax,%rax,1)
     a81:	00 00                	add    %al,(%rax)
     a83:	47 00 00             	rex.RXB add %r8b,(%r8)
     a86:	00 02                	add    %al,(%rdx)
     a88:	01 1f                	add    %ebx,(%rdi)
     a8a:	02 0f                	add    (%rdi),%cl
     a8c:	07                   	(bad)  
     a8d:	88 01                	mov    %al,(%rcx)
     a8f:	00 00                	add    %al,(%rax)
     a91:	01 88 01 00 00 01    	add    %ecx,0x1000001(%rax)
     a97:	98                   	cwtl   
     a98:	00 00                	add    %al,(%rax)
     a9a:	00 02                	add    %al,(%rdx)
     a9c:	7a 00                	jp     a9e <OLDSS+0x9e6>
     a9e:	00 00                	add    %al,(%rax)
     aa0:	02 6f 00             	add    0x0(%rdi),%ch
     aa3:	00 00                	add    %al,(%rax)
     aa5:	02 82 00 00 00 02    	add    0x2000000(%rdx),%al
     aab:	91                   	xchg   %eax,%ecx
     aac:	00 00                	add    %al,(%rax)
     aae:	00 02                	add    %al,(%rdx)
     ab0:	05 01 00 09 02       	add    $0x2090001,%eax
     ab5:	8f                   	(bad)  
     ab6:	97                   	xchg   %eax,%edi
     ab7:	10 00                	adc    %al,(%rax)
     ab9:	00 80 ff ff 19 05    	add    %al,0x519ffff(%rax)
     abf:	12 02                	adc    (%rdx),%al
     ac1:	2a 13                	sub    (%rbx),%dl
     ac3:	05 1c 83 05 04       	add    $0x405831c,%eax
     ac8:	ac                   	lods   %ds:(%rsi),%al
     ac9:	05 02 4b 05 12       	add    $0x12054b02,%eax
     ace:	74 05                	je     ad5 <OLDSS+0xa1d>
     ad0:	02 08                	add    (%rax),%cl
     ad2:	2e 05 07 00 02 04    	cs add $0x4020007,%eax
     ad8:	01 02                	add    %eax,(%rdx)
     ada:	4c 13 05 01 32 05 12 	adc    0x12053201(%rip),%r8        # 12053ce2 <OLDSS+0x12053c2a>
     ae1:	02 2a                	add    (%rdx),%ch
     ae3:	13 05 1c 83 05 04    	adc    0x405831c(%rip),%eax        # 4058e05 <OLDSS+0x4058d4d>
     ae9:	ac                   	lods   %ds:(%rsi),%al
     aea:	05 02 4b 05 12       	add    $0x12054b02,%eax
     aef:	74 05                	je     af6 <OLDSS+0xa3e>
     af1:	02 08                	add    (%rax),%cl
     af3:	2e 05 07 00 02 04    	cs add $0x4020007,%eax
     af9:	01 02                	add    %eax,(%rdx)
     afb:	4c 13 05 01 32 05 12 	adc    0x12053201(%rip),%r8        # 12053d03 <OLDSS+0x12053c4b>
     b02:	02 2a                	add    (%rdx),%ch
     b04:	13 05 1c 83 05 04    	adc    0x405831c(%rip),%eax        # 4058e26 <OLDSS+0x4058d6e>
     b0a:	ac                   	lods   %ds:(%rsi),%al
     b0b:	05 02 4b 05 12       	add    $0x12054b02,%eax
     b10:	74 05                	je     b17 <OLDSS+0xa5f>
     b12:	02 08                	add    (%rax),%cl
     b14:	2e 05 07 00 02 04    	cs add $0x4020007,%eax
     b1a:	01 02                	add    %eax,(%rdx)
     b1c:	4c 13 05 01 33 05 12 	adc    0x12053301(%rip),%r8        # 12053e24 <OLDSS+0x12053d6c>
     b23:	02 2a                	add    (%rdx),%ch
     b25:	13 05 1c 83 05 04    	adc    0x405831c(%rip),%eax        # 4058e47 <OLDSS+0x4058d8f>
     b2b:	ac                   	lods   %ds:(%rsi),%al
     b2c:	05 02 4b 05 12       	add    $0x12054b02,%eax
     b31:	74 05                	je     b38 <OLDSS+0xa80>
     b33:	02 08                	add    (%rax),%cl
     b35:	2e 05 07 00 02 04    	cs add $0x4020007,%eax
     b3b:	01 02                	add    %eax,(%rdx)
     b3d:	4c 13 05 01 32 05 12 	adc    0x12053201(%rip),%r8        # 12053d45 <OLDSS+0x12053c8d>
     b44:	02 2a                	add    (%rdx),%ch
     b46:	13 05 1c 83 05 04    	adc    0x405831c(%rip),%eax        # 4058e68 <OLDSS+0x4058db0>
     b4c:	ac                   	lods   %ds:(%rsi),%al
     b4d:	05 02 4b 05 12       	add    $0x12054b02,%eax
     b52:	74 05                	je     b59 <OLDSS+0xaa1>
     b54:	02 08                	add    (%rax),%cl
     b56:	2e 05 07 00 02 04    	cs add $0x4020007,%eax
     b5c:	01 02                	add    %eax,(%rdx)
     b5e:	4c 13 05 01 32 05 12 	adc    0x12053201(%rip),%r8        # 12053d66 <OLDSS+0x12053cae>
     b65:	02 2a                	add    (%rdx),%ch
     b67:	13 05 1c 83 05 04    	adc    0x405831c(%rip),%eax        # 4058e89 <OLDSS+0x4058dd1>
     b6d:	ac                   	lods   %ds:(%rsi),%al
     b6e:	05 02 4b 05 12       	add    $0x12054b02,%eax
     b73:	74 05                	je     b7a <OLDSS+0xac2>
     b75:	02 08                	add    (%rax),%cl
     b77:	2e 05 07 00 02 04    	cs add $0x4020007,%eax
     b7d:	01 02                	add    %eax,(%rdx)
     b7f:	4c 13 05 01 32 05 12 	adc    0x12053201(%rip),%r8        # 12053d87 <OLDSS+0x12053ccf>
     b86:	02 2a                	add    (%rdx),%ch
     b88:	13 05 1c 83 05 04    	adc    0x405831c(%rip),%eax        # 4058eaa <OLDSS+0x4058df2>
     b8e:	ac                   	lods   %ds:(%rsi),%al
     b8f:	05 02 4b 05 12       	add    $0x12054b02,%eax
     b94:	74 05                	je     b9b <OLDSS+0xae3>
     b96:	02 08                	add    (%rax),%cl
     b98:	2e 05 07 00 02 04    	cs add $0x4020007,%eax
     b9e:	01 02                	add    %eax,(%rdx)
     ba0:	4c 13 05 01 32 05 12 	adc    0x12053201(%rip),%r8        # 12053da8 <OLDSS+0x12053cf0>
     ba7:	02 2a                	add    (%rdx),%ch
     ba9:	13 05 1c 83 05 04    	adc    0x405831c(%rip),%eax        # 4058ecb <OLDSS+0x4058e13>
     baf:	ac                   	lods   %ds:(%rsi),%al
     bb0:	05 02 4b 05 12       	add    $0x12054b02,%eax
     bb5:	74 05                	je     bbc <OLDSS+0xb04>
     bb7:	02 08                	add    (%rax),%cl
     bb9:	2e 05 07 00 02 04    	cs add $0x4020007,%eax
     bbf:	01 02                	add    %eax,(%rdx)
     bc1:	4c 13 05 01 32 05 12 	adc    0x12053201(%rip),%r8        # 12053dc9 <OLDSS+0x12053d11>
     bc8:	02 2a                	add    (%rdx),%ch
     bca:	13 05 1c 83 05 04    	adc    0x405831c(%rip),%eax        # 4058eec <OLDSS+0x4058e34>
     bd0:	ac                   	lods   %ds:(%rsi),%al
     bd1:	05 02 4b 05 12       	add    $0x12054b02,%eax
     bd6:	74 05                	je     bdd <OLDSS+0xb25>
     bd8:	02 08                	add    (%rax),%cl
     bda:	2e 05 07 00 02 04    	cs add $0x4020007,%eax
     be0:	01 02                	add    %eax,(%rdx)
     be2:	4c 13 05 01 32 05 12 	adc    0x12053201(%rip),%r8        # 12053dea <OLDSS+0x12053d32>
     be9:	02 2a                	add    (%rdx),%ch
     beb:	13 05 1c 83 05 04    	adc    0x405831c(%rip),%eax        # 4058f0d <OLDSS+0x4058e55>
     bf1:	ac                   	lods   %ds:(%rsi),%al
     bf2:	05 02 4b 05 12       	add    $0x12054b02,%eax
     bf7:	74 05                	je     bfe <OLDSS+0xb46>
     bf9:	02 08                	add    (%rax),%cl
     bfb:	2e 05 07 00 02 04    	cs add $0x4020007,%eax
     c01:	01 02                	add    %eax,(%rdx)
     c03:	4c 13 05 01 32 05 12 	adc    0x12053201(%rip),%r8        # 12053e0b <OLDSS+0x12053d53>
     c0a:	02 31                	add    (%rcx),%dh
     c0c:	13 05 1c 83 05 04    	adc    0x405831c(%rip),%eax        # 4058f2e <OLDSS+0x4058e76>
     c12:	ac                   	lods   %ds:(%rsi),%al
     c13:	05 02 4b 05 12       	add    $0x12054b02,%eax
     c18:	74 05                	je     c1f <OLDSS+0xb67>
     c1a:	02 08                	add    (%rax),%cl
     c1c:	2e 05 10 02 4c 14    	cs add $0x144c0210,%eax
     c22:	05 04 74 05 14       	add    $0x14057404,%eax
     c27:	59                   	pop    %rcx
     c28:	05 03 08 9e 05       	add    $0x59e0803,%eax
     c2d:	10 02                	adc    %al,(%rdx)
     c2f:	33 14 05 04 74 05 14 	xor    0x14057404(,%rax,1),%edx
     c36:	59                   	pop    %rcx
     c37:	05 03 08 9e 05       	add    $0x59e0803,%eax
     c3c:	14 02                	adc    $0x2,%al
     c3e:	35 14 05 03 08       	xor    $0x8030514,%eax
     c43:	9e                   	sahf   
     c44:	05 11 02 33 14       	add    $0x14330211,%eax
     c49:	05 04 74 05 11       	add    $0x11057404,%eax
     c4e:	91                   	xchg   %eax,%ecx
     c4f:	05 05 74 05 15       	add    $0x15057405,%eax
     c54:	59                   	pop    %rcx
     c55:	05 04 02 26 12       	add    $0x12260204,%eax
     c5a:	05 15 02 38 14       	add    $0x14380215,%eax
     c5f:	05 04 02 26 12       	add    $0x12260204,%eax
     c64:	05 02 02 36 14       	add    $0x14360202,%eax
     c69:	05 13 ba 05 02       	add    $0x205ba13,%eax
     c6e:	02 26                	add    (%rsi),%ah
     c70:	12 05 07 00 02 04    	adc    0x4020007(%rip),%al        # 4020c7d <OLDSS+0x4020bc5>
     c76:	01 02                	add    %eax,(%rdx)
     c78:	39 14 05 01 32 05 12 	cmp    %edx,0x12053201(,%rax,1)
     c7f:	02 31                	add    (%rcx),%dh
     c81:	13 05 1c 83 05 04    	adc    0x405831c(%rip),%eax        # 4058fa3 <OLDSS+0x4058eeb>
     c87:	ac                   	lods   %ds:(%rsi),%al
     c88:	05 02 4b 05 12       	add    $0x12054b02,%eax
     c8d:	74 05                	je     c94 <OLDSS+0xbdc>
     c8f:	02 08                	add    (%rax),%cl
     c91:	2e 05 10 02 4c 14    	cs add $0x144c0210,%eax
     c97:	05 04 74 05 14       	add    $0x14057404,%eax
     c9c:	59                   	pop    %rcx
     c9d:	05 03 08 9e 05       	add    $0x59e0803,%eax
     ca2:	10 02                	adc    %al,(%rdx)
     ca4:	33 14 05 04 74 05 14 	xor    0x14057404(,%rax,1),%edx
     cab:	59                   	pop    %rcx
     cac:	05 03 08 9e 05       	add    $0x59e0803,%eax
     cb1:	14 02                	adc    $0x2,%al
     cb3:	35 14 05 03 08       	xor    $0x8030514,%eax
     cb8:	9e                   	sahf   
     cb9:	05 11 02 33 14       	add    $0x14330211,%eax
     cbe:	05 04 74 05 11       	add    $0x11057404,%eax
     cc3:	91                   	xchg   %eax,%ecx
     cc4:	05 05 74 05 15       	add    $0x15057405,%eax
     cc9:	59                   	pop    %rcx
     cca:	05 04 02 26 12       	add    $0x12260204,%eax
     ccf:	05 15 02 38 14       	add    $0x14380215,%eax
     cd4:	05 04 02 26 12       	add    $0x12260204,%eax
     cd9:	05 02 02 36 14       	add    $0x14360202,%eax
     cde:	05 13 ba 05 02       	add    $0x205ba13,%eax
     ce3:	02 26                	add    (%rsi),%ah
     ce5:	12 05 07 00 02 04    	adc    0x4020007(%rip),%al        # 4020cf2 <OLDSS+0x4020c3a>
     ceb:	01 02                	add    %eax,(%rdx)
     ced:	39 14 05 01 32 05 12 	cmp    %edx,0x12053201(,%rax,1)
     cf4:	02 31                	add    (%rcx),%dh
     cf6:	13 05 1c 83 05 04    	adc    0x405831c(%rip),%eax        # 4059018 <OLDSS+0x4058f60>
     cfc:	ac                   	lods   %ds:(%rsi),%al
     cfd:	05 02 4b 05 12       	add    $0x12054b02,%eax
     d02:	74 05                	je     d09 <OLDSS+0xc51>
     d04:	02 08                	add    (%rax),%cl
     d06:	2e 05 10 02 4c 14    	cs add $0x144c0210,%eax
     d0c:	05 04 74 05 14       	add    $0x14057404,%eax
     d11:	59                   	pop    %rcx
     d12:	05 03 08 9e 05       	add    $0x59e0803,%eax
     d17:	10 02                	adc    %al,(%rdx)
     d19:	33 14 05 04 74 05 14 	xor    0x14057404(,%rax,1),%edx
     d20:	59                   	pop    %rcx
     d21:	05 03 08 9e 05       	add    $0x59e0803,%eax
     d26:	14 02                	adc    $0x2,%al
     d28:	35 14 05 03 08       	xor    $0x8030514,%eax
     d2d:	9e                   	sahf   
     d2e:	05 11 02 33 14       	add    $0x14330211,%eax
     d33:	05 04 74 05 11       	add    $0x11057404,%eax
     d38:	91                   	xchg   %eax,%ecx
     d39:	05 05 74 05 15       	add    $0x15057405,%eax
     d3e:	59                   	pop    %rcx
     d3f:	05 04 02 26 12       	add    $0x12260204,%eax
     d44:	05 15 02 38 14       	add    $0x14380215,%eax
     d49:	05 04 02 26 12       	add    $0x12260204,%eax
     d4e:	05 02 02 36 14       	add    $0x14360202,%eax
     d53:	05 13 ba 05 02       	add    $0x205ba13,%eax
     d58:	02 26                	add    (%rsi),%ah
     d5a:	12 05 07 00 02 04    	adc    0x4020007(%rip),%al        # 4020d67 <OLDSS+0x4020caf>
     d60:	01 02                	add    %eax,(%rdx)
     d62:	39 14 05 01 32 05 12 	cmp    %edx,0x12053201(,%rax,1)
     d69:	02 31                	add    (%rcx),%dh
     d6b:	13 05 1c 83 05 04    	adc    0x405831c(%rip),%eax        # 405908d <OLDSS+0x4058fd5>
     d71:	ac                   	lods   %ds:(%rsi),%al
     d72:	05 02 4b 05 12       	add    $0x12054b02,%eax
     d77:	74 05                	je     d7e <OLDSS+0xcc6>
     d79:	02 08                	add    (%rax),%cl
     d7b:	2e 05 10 02 4c 14    	cs add $0x144c0210,%eax
     d81:	05 04 74 05 14       	add    $0x14057404,%eax
     d86:	59                   	pop    %rcx
     d87:	05 03 08 9e 05       	add    $0x59e0803,%eax
     d8c:	10 02                	adc    %al,(%rdx)
     d8e:	33 14 05 04 74 05 14 	xor    0x14057404(,%rax,1),%edx
     d95:	59                   	pop    %rcx
     d96:	05 03 08 9e 05       	add    $0x59e0803,%eax
     d9b:	14 02                	adc    $0x2,%al
     d9d:	35 14 05 03 08       	xor    $0x8030514,%eax
     da2:	9e                   	sahf   
     da3:	05 11 02 33 14       	add    $0x14330211,%eax
     da8:	05 04 74 05 11       	add    $0x11057404,%eax
     dad:	91                   	xchg   %eax,%ecx
     dae:	05 05 74 05 15       	add    $0x15057405,%eax
     db3:	59                   	pop    %rcx
     db4:	05 04 02 26 12       	add    $0x12260204,%eax
     db9:	05 15 02 38 14       	add    $0x14380215,%eax
     dbe:	05 04 02 26 12       	add    $0x12260204,%eax
     dc3:	05 02 02 36 14       	add    $0x14360202,%eax
     dc8:	05 12 ba 05 02       	add    $0x205ba12,%eax
     dcd:	02 26                	add    (%rsi),%ah
     dcf:	12 05 07 00 02 04    	adc    0x4020007(%rip),%al        # 4020ddc <OLDSS+0x4020d24>
     dd5:	01 02                	add    %eax,(%rdx)
     dd7:	39 14 05 01 32 05 12 	cmp    %edx,0x12053201(,%rax,1)
     dde:	02 31                	add    (%rcx),%dh
     de0:	13 05 10 83 05 02    	adc    0x2058310(%rip),%eax        # 20590f6 <OLDSS+0x205903e>
     de6:	84 05 1c 76 05 04    	test   %al,0x405761c(%rip)        # 4058408 <OLDSS+0x4058350>
     dec:	ac                   	lods   %ds:(%rsi),%al
     ded:	05 02 4b 05 12       	add    $0x12054b02,%eax
     df2:	74 05                	je     df9 <OLDSS+0xd41>
     df4:	02 08                	add    (%rax),%cl
     df6:	2e 05 12 02 4c 14    	cs add $0x144c0212,%eax
     dfc:	05 04 74 05 14       	add    $0x14057404,%eax
     e01:	59                   	pop    %rcx
     e02:	05 03 02 26 12       	add    $0x12260203,%eax
     e07:	05 10 02 36 14       	add    $0x14360210,%eax
     e0c:	05 04 74 05 14       	add    $0x14057404,%eax
     e11:	59                   	pop    %rcx
     e12:	05 03 08 9e 05       	add    $0x59e0803,%eax
     e17:	14 02                	adc    $0x2,%al
     e19:	35 14 05 03 08       	xor    $0x8030514,%eax
     e1e:	9e                   	sahf   
     e1f:	05 10 02 33 14       	add    $0x14330210,%eax
     e24:	05 04 74 05 14       	add    $0x14057404,%eax
     e29:	59                   	pop    %rcx
     e2a:	05 03 08 9e 05       	add    $0x59e0803,%eax
     e2f:	14 02                	adc    $0x2,%al
     e31:	35 14 05 03 08       	xor    $0x8030514,%eax
     e36:	9e                   	sahf   
     e37:	05 10 02 33 14       	add    $0x14330210,%eax
     e3c:	05 04 74 05 14       	add    $0x14057404,%eax
     e41:	59                   	pop    %rcx
     e42:	05 03 08 9e 05       	add    $0x59e0803,%eax
     e47:	10 02                	adc    %al,(%rdx)
     e49:	33 14 05 04 74 05 14 	xor    0x14057404(,%rax,1),%edx
     e50:	59                   	pop    %rcx
     e51:	05 03 02 26 12       	add    $0x12260203,%eax
     e56:	05 13 02 36 16       	add    $0x16360213,%eax
     e5b:	05 02 02 26 12       	add    $0x12260202,%eax
     e60:	05 07 00 02 04       	add    $0x4020007,%eax
     e65:	01 02                	add    %eax,(%rdx)
     e67:	3d 14 05 01 32       	cmp    $0x32010514,%eax
     e6c:	05 12 02 2a 13       	add    $0x132a0212,%eax
     e71:	05 1c 83 05 04       	add    $0x405831c,%eax
     e76:	ac                   	lods   %ds:(%rsi),%al
     e77:	05 02 4b 05 12       	add    $0x12054b02,%eax
     e7c:	74 05                	je     e83 <OLDSS+0xdcb>
     e7e:	02 08                	add    (%rax),%cl
     e80:	2e 05 07 00 02 04    	cs add $0x4020007,%eax
     e86:	01 02                	add    %eax,(%rdx)
     e88:	4c 13 05 01 32 05 12 	adc    0x12053201(%rip),%r8        # 12054090 <OLDSS+0x12053fd8>
     e8f:	02 2a                	add    (%rdx),%ch
     e91:	13 05 1c 83 05 04    	adc    0x405831c(%rip),%eax        # 40591b3 <OLDSS+0x40590fb>
     e97:	ac                   	lods   %ds:(%rsi),%al
     e98:	05 02 4b 05 12       	add    $0x12054b02,%eax
     e9d:	74 05                	je     ea4 <OLDSS+0xdec>
     e9f:	02 08                	add    (%rax),%cl
     ea1:	2e 05 07 00 02 04    	cs add $0x4020007,%eax
     ea7:	01 02                	add    %eax,(%rdx)
     ea9:	4c 13 05 01 32 05 12 	adc    0x12053201(%rip),%r8        # 120540b1 <OLDSS+0x12053ff9>
     eb0:	02 2a                	add    (%rdx),%ch
     eb2:	13 05 1c 83 05 04    	adc    0x405831c(%rip),%eax        # 40591d4 <OLDSS+0x405911c>
     eb8:	ac                   	lods   %ds:(%rsi),%al
     eb9:	05 02 4b 05 12       	add    $0x12054b02,%eax
     ebe:	74 05                	je     ec5 <OLDSS+0xe0d>
     ec0:	02 08                	add    (%rax),%cl
     ec2:	2e 05 07 00 02 04    	cs add $0x4020007,%eax
     ec8:	01 02                	add    %eax,(%rdx)
     eca:	4c 13 05 01 32 05 12 	adc    0x12053201(%rip),%r8        # 120540d2 <OLDSS+0x1205401a>
     ed1:	02 2a                	add    (%rdx),%ch
     ed3:	13 05 1c 83 05 04    	adc    0x405831c(%rip),%eax        # 40591f5 <OLDSS+0x405913d>
     ed9:	ac                   	lods   %ds:(%rsi),%al
     eda:	05 02 4b 05 12       	add    $0x12054b02,%eax
     edf:	74 05                	je     ee6 <OLDSS+0xe2e>
     ee1:	02 08                	add    (%rax),%cl
     ee3:	2e 05 07 00 02 04    	cs add $0x4020007,%eax
     ee9:	01 02                	add    %eax,(%rdx)
     eeb:	4c 13 05 01 32 05 12 	adc    0x12053201(%rip),%r8        # 120540f3 <OLDSS+0x1205403b>
     ef2:	02 2a                	add    (%rdx),%ch
     ef4:	13 05 1c 83 05 04    	adc    0x405831c(%rip),%eax        # 4059216 <OLDSS+0x405915e>
     efa:	ac                   	lods   %ds:(%rsi),%al
     efb:	05 02 4b 05 12       	add    $0x12054b02,%eax
     f00:	74 05                	je     f07 <OLDSS+0xe4f>
     f02:	02 08                	add    (%rax),%cl
     f04:	2e 05 07 00 02 04    	cs add $0x4020007,%eax
     f0a:	01 02                	add    %eax,(%rdx)
     f0c:	4c 13 05 01 33 04 02 	adc    0x2043301(%rip),%r8        # 2044214 <OLDSS+0x204415c>
     f13:	05 02 03 ca 7e       	add    $0x7eca0302,%eax
     f18:	02 49 01             	add    0x1(%rcx),%cl
     f1b:	05 01 02 96 01       	add    $0x1960201,%eax
     f20:	13 05 02 02 27 11    	adc    0x11270202(%rip),%eax        # 11271128 <OLDSS+0x11271070>
     f26:	05 01 02 96 01       	add    $0x1960201,%eax
     f2b:	13 05 02 03 7a 02    	adc    0x27a0302(%rip),%eax        # 27a1233 <OLDSS+0x27a117b>
     f31:	27                   	(bad)  
     f32:	01 05 01 02 96 01    	add    %eax,0x1960201(%rip)        # 1961139 <OLDSS+0x1961081>
     f38:	13 05 02 03 09 02    	adc    0x2090302(%rip),%eax        # 2091240 <OLDSS+0x2091188>
     f3e:	27                   	(bad)  
     f3f:	01 05 01 02 96 01    	add    %eax,0x1960201(%rip)        # 1961146 <OLDSS+0x196108e>
     f45:	13 05 02 02 27 11    	adc    0x11270202(%rip),%eax        # 1127114d <OLDSS+0x11271095>
     f4b:	05 01 02 96 01       	add    $0x1960201,%eax
     f50:	13 05 02 02 27 11    	adc    0x11270202(%rip),%eax        # 11271158 <OLDSS+0x112710a0>
     f56:	05 01 02 96 01       	add    $0x1960201,%eax
     f5b:	13 05 02 03 7a 02    	adc    0x27a0302(%rip),%eax        # 27a1263 <OLDSS+0x27a11ab>
     f61:	27                   	(bad)  
     f62:	01 05 01 02 96 01    	add    %eax,0x1960201(%rip)        # 1961169 <OLDSS+0x19610b1>
     f68:	13 05 02 02 27 11    	adc    0x11270202(%rip),%eax        # 11271170 <OLDSS+0x112710b8>
     f6e:	05 01 02 96 01       	add    $0x1960201,%eax
     f73:	13 05 02 02 27 11    	adc    0x11270202(%rip),%eax        # 1127117b <OLDSS+0x112710c3>
     f79:	05 01 02 96 01       	add    $0x1960201,%eax
     f7e:	13 05 02 02 27 11    	adc    0x11270202(%rip),%eax        # 11271186 <OLDSS+0x112710ce>
     f84:	05 01 02 96 01       	add    $0x1960201,%eax
     f89:	13 05 02 02 27 11    	adc    0x11270202(%rip),%eax        # 11271191 <OLDSS+0x112710d9>
     f8f:	05 01 02 96 01       	add    $0x1960201,%eax
     f94:	13 05 02 02 27 11    	adc    0x11270202(%rip),%eax        # 1127119c <OLDSS+0x112710e4>
     f9a:	05 01 02 96 01       	add    $0x1960201,%eax
     f9f:	13 05 02 02 27 11    	adc    0x11270202(%rip),%eax        # 112711a7 <OLDSS+0x112710ef>
     fa5:	05 01 02 96 01       	add    $0x1960201,%eax
     faa:	13 05 02 02 27 11    	adc    0x11270202(%rip),%eax        # 112711b2 <OLDSS+0x112710fa>
     fb0:	05 01 02 96 01       	add    $0x1960201,%eax
     fb5:	13 05 02 02 27 11    	adc    0x11270202(%rip),%eax        # 112711bd <OLDSS+0x11271105>
     fbb:	05 01 02 96 01       	add    $0x1960201,%eax
     fc0:	13 05 02 02 27 11    	adc    0x11270202(%rip),%eax        # 112711c8 <OLDSS+0x11271110>
     fc6:	05 01 02 96 01       	add    $0x1960201,%eax
     fcb:	13 05 02 08 c7 05    	adc    0x5c70802(%rip),%eax        # 5c717d3 <OLDSS+0x5c7171b>
     fd1:	01 02                	add    %eax,(%rdx)
     fd3:	84 01                	test   %al,(%rcx)
     fd5:	13 05 02 08 c7 05    	adc    0x5c70802(%rip),%eax        # 5c717dd <OLDSS+0x5c71725>
     fdb:	01 02                	add    %eax,(%rdx)
     fdd:	84 01                	test   %al,(%rcx)
     fdf:	13 05 02 08 c7 05    	adc    0x5c70802(%rip),%eax        # 5c717e7 <OLDSS+0x5c7172f>
     fe5:	01 02                	add    %eax,(%rdx)
     fe7:	84 01                	test   %al,(%rcx)
     fe9:	13 05 02 08 c7 05    	adc    0x5c70802(%rip),%eax        # 5c717f1 <OLDSS+0x5c71739>
     fef:	01 02                	add    %eax,(%rdx)
     ff1:	84 01                	test   %al,(%rcx)
     ff3:	13 04 01             	adc    (%rcx,%rax,1),%eax
     ff6:	03 cd                	add    %ebp,%ecx
     ff8:	01 20                	add    %esp,(%rax)
     ffa:	02 03                	add    (%rbx),%al
     ffc:	00 01                	add    %al,(%rcx)
     ffe:	01 eb                	add    %ebp,%ebx
    1000:	00 00                	add    %al,(%rax)
    1002:	00 03                	add    %al,(%rbx)
    1004:	00 29                	add    %ch,(%rcx)
    1006:	00 00                	add    %al,(%rax)
    1008:	00 01                	add    %al,(%rcx)
    100a:	01 fb                	add    %edi,%ebx
    100c:	0e                   	(bad)  
    100d:	0d 00 01 01 01       	or     $0x1010100,%eax
    1012:	01 00                	add    %eax,(%rax)
    1014:	00 00                	add    %al,(%rax)
    1016:	01 00                	add    %eax,(%rax)
    1018:	00 01                	add    %al,(%rcx)
    101a:	73 72                	jae    108e <OLDSS+0xfd6>
    101c:	63 2f                	movsxd (%rdi),%ebp
    101e:	6b 65 72 6e          	imul   $0x6e,0x72(%rbp),%esp
    1022:	65 6c                	gs insb (%dx),%es:(%rdi)
    1024:	00 00                	add    %al,(%rax)
    1026:	65 6e                	outsb  %gs:(%rsi),(%dx)
    1028:	74 72                	je     109c <OLDSS+0xfe4>
    102a:	79 2e                	jns    105a <OLDSS+0xfa2>
    102c:	73 00                	jae    102e <OLDSS+0xf76>
    102e:	01 00                	add    %eax,(%rax)
    1030:	00 00                	add    %al,(%rax)
    1032:	00 09                	add    %cl,(%rcx)
    1034:	02 68 bf             	add    -0x41(%rax),%ch
    1037:	10 00                	adc    %al,(%rax)
    1039:	00 80 ff ff 03 33    	add    %al,0x3303ffff(%rax)
    103f:	01 2f                	add    %ebp,(%rdi)
    1041:	2f                   	(bad)  
    1042:	2f                   	(bad)  
    1043:	2f                   	(bad)  
    1044:	2f                   	(bad)  
    1045:	2f                   	(bad)  
    1046:	2f                   	(bad)  
    1047:	2f                   	(bad)  
    1048:	21 21                	and    %esp,(%rcx)
    104a:	21 21                	and    %esp,(%rcx)
    104c:	21 21                	and    %esp,(%rcx)
    104e:	21 3d 21 3d 21 4b    	and    %edi,0x4b213d21(%rip)        # 4b214d75 <OLDSS+0x4b214cbd>
    1054:	03 0e                	add    (%rsi),%ecx
    1056:	2e 31 2f             	cs xor %ebp,(%rdi)
    1059:	21 75 4d             	and    %esi,0x4d(%rbp)
    105c:	21 3d 21 3d 21 3e    	and    %edi,0x3e213d21(%rip)        # 3e214d83 <OLDSS+0x3e214ccb>
    1062:	21 21                	and    %esp,(%rcx)
    1064:	21 21                	and    %esp,(%rcx)
    1066:	21 21                	and    %esp,(%rcx)
    1068:	2f                   	(bad)  
    1069:	2f                   	(bad)  
    106a:	2f                   	(bad)  
    106b:	2f                   	(bad)  
    106c:	2f                   	(bad)  
    106d:	2f                   	(bad)  
    106e:	2f                   	(bad)  
    106f:	30 21                	xor    %ah,(%rcx)
    1071:	83 84 75 3d 3e 3f 30 	addl   $0x31,0x303f3e3d(%rbp,%rsi,2)
    1078:	31 
    1079:	2f                   	(bad)  
    107a:	21 75 4b             	and    %esi,0x4b(%rbp)
    107d:	31 21                	xor    %esp,(%rcx)
    107f:	21 22                	and    %esp,(%rdx)
    1081:	21 3d 21 3d 21 3e    	and    %edi,0x3e213d21(%rip)        # 3e214da8 <OLDSS+0x3e214cf0>
    1087:	21 21                	and    %esp,(%rcx)
    1089:	21 21                	and    %esp,(%rcx)
    108b:	21 21                	and    %esp,(%rcx)
    108d:	2f                   	(bad)  
    108e:	2f                   	(bad)  
    108f:	2f                   	(bad)  
    1090:	2f                   	(bad)  
    1091:	2f                   	(bad)  
    1092:	2f                   	(bad)  
    1093:	2f                   	(bad)  
    1094:	30 75 3d             	xor    %dh,0x3d(%rbp)
    1097:	3e 75 3e             	jne,pt 10d8 <OLDSS+0x1020>
    109a:	5a                   	pop    %rdx
    109b:	5b                   	pop    %rbx
    109c:	2f                   	(bad)  
    109d:	21 75 4b             	and    %esi,0x4b(%rbp)
    10a0:	5b                   	pop    %rbx
    10a1:	2f                   	(bad)  
    10a2:	21 75 4b             	and    %esi,0x4b(%rbp)
    10a5:	5b                   	pop    %rbx
    10a6:	2f                   	(bad)  
    10a7:	21 75 4b             	and    %esi,0x4b(%rbp)
    10aa:	5b                   	pop    %rbx
    10ab:	2f                   	(bad)  
    10ac:	21 75 4b             	and    %esi,0x4b(%rbp)
    10af:	5b                   	pop    %rbx
    10b0:	2f                   	(bad)  
    10b1:	21 75 4b             	and    %esi,0x4b(%rbp)
    10b4:	5c                   	pop    %rsp
    10b5:	21 75 4b             	and    %esi,0x4b(%rbp)
    10b8:	5b                   	pop    %rbx
    10b9:	2f                   	(bad)  
    10ba:	21 75 4b             	and    %esi,0x4b(%rbp)
    10bd:	5b                   	pop    %rbx
    10be:	21 75 4b             	and    %esi,0x4b(%rbp)
    10c1:	5b                   	pop    %rbx
    10c2:	21 75 4b             	and    %esi,0x4b(%rbp)
    10c5:	5b                   	pop    %rbx
    10c6:	21 75 4b             	and    %esi,0x4b(%rbp)
    10c9:	5b                   	pop    %rbx
    10ca:	21 75 4b             	and    %esi,0x4b(%rbp)
    10cd:	5b                   	pop    %rbx
    10ce:	21 75 4b             	and    %esi,0x4b(%rbp)
    10d1:	5b                   	pop    %rbx
    10d2:	2f                   	(bad)  
    10d3:	21 75 4b             	and    %esi,0x4b(%rbp)
    10d6:	5b                   	pop    %rbx
    10d7:	21 75 4b             	and    %esi,0x4b(%rbp)
    10da:	5b                   	pop    %rbx
    10db:	2f                   	(bad)  
    10dc:	21 75 4b             	and    %esi,0x4b(%rbp)
    10df:	5b                   	pop    %rbx
    10e0:	2f                   	(bad)  
    10e1:	21 75 4b             	and    %esi,0x4b(%rbp)
    10e4:	5b                   	pop    %rbx
    10e5:	2f                   	(bad)  
    10e6:	21 75 4b             	and    %esi,0x4b(%rbp)
    10e9:	02 05 00 01 01 b7    	add    -0x48feff00(%rip),%al        # ffffffffb70111ef <_ebss+0x7fffb6efee8f>
    10ef:	00 00                	add    %al,(%rax)
    10f1:	00 03                	add    %al,(%rbx)
    10f3:	00 28                	add    %ch,(%rax)
    10f5:	00 00                	add    %al,(%rax)
    10f7:	00 01                	add    %al,(%rcx)
    10f9:	01 fb                	add    %edi,%ebx
    10fb:	0e                   	(bad)  
    10fc:	0d 00 01 01 01       	or     $0x1010100,%eax
    1101:	01 00                	add    %eax,(%rax)
    1103:	00 00                	add    %al,(%rax)
    1105:	01 00                	add    %eax,(%rax)
    1107:	00 01                	add    %al,(%rcx)
    1109:	73 72                	jae    117d <OLDSS+0x10c5>
    110b:	63 2f                	movsxd (%rdi),%ebp
    110d:	6b 65 72 6e          	imul   $0x6e,0x72(%rbp),%esp
    1111:	65 6c                	gs insb (%dx),%es:(%rdi)
    1113:	00 00                	add    %al,(%rax)
    1115:	68 65 61 64 2e       	push   $0x2e646165
    111a:	73 00                	jae    111c <OLDSS+0x1064>
    111c:	01 00                	add    %eax,(%rax)
    111e:	00 00                	add    %al,(%rax)
    1120:	00 09                	add    %cl,(%rcx)
    1122:	02 00                	add    (%rax),%al
    1124:	00 10                	add    %dl,(%rax)
    1126:	00 00                	add    %al,(%rax)
    1128:	80 ff ff             	cmp    $0xff,%bh
    112b:	17                   	(bad)  
    112c:	3d 2f 2f 2f 2f       	cmp    $0x2f2f2f2f,%eax
    1131:	5a                   	pop    %rdx
    1132:	75 40                	jne    1174 <OLDSS+0x10bc>
    1134:	78 76                	js     11ac <OLDSS+0x10f4>
    1136:	4b 2f                	rex.WXB (bad) 
    1138:	2f                   	(bad)  
    1139:	2f                   	(bad)  
    113a:	2f                   	(bad)  
    113b:	30 78 75             	xor    %bh,0x75(%rax)
    113e:	3d 75 2f 21 a6       	cmp    $0xa6212f75,%eax
    1143:	75 3d                	jne    1182 <OLDSS+0x10ca>
    1145:	3d 3d 3d a1 75       	cmp    $0x75a13d3d,%eax
    114a:	75 3d                	jne    1189 <OLDSS+0x10d1>
    114c:	9f                   	lahf   
    114d:	3e 2f                	ds (bad) 
    114f:	3d 4b 3d 4b 75       	cmp    $0x754b3d4b,%eax
    1154:	76 3d                	jbe    1193 <OLDSS+0x10db>
    1156:	4b                   	rex.WXB
    1157:	4b 3d 32 75 3d 3d    	rex.WXB cmp $0x3d3d7532,%rax
    115d:	75 4b                	jne    11aa <OLDSS+0x10f2>
    115f:	2f                   	(bad)  
    1160:	3d 4b 3d 3e 2f       	cmp    $0x2f3e3d4b,%eax
    1165:	67 4b 3d 4b 75 4b 4b 	addr32 rex.WXB cmp $0x4b4b754b,%rax
    116c:	4c                   	rex.WR
    116d:	4b                   	rex.WXB
    116e:	3e 75 2f             	jne,pt 11a0 <OLDSS+0x10e8>
    1171:	21 03                	and    %eax,(%rbx)
    1173:	0d 9e 21 21 21       	or     $0x2121219e,%eax
    1178:	21 21                	and    %esp,(%rcx)
    117a:	21 21                	and    %esp,(%rcx)
    117c:	22 2f                	and    (%rdi),%ch
    117e:	2f                   	(bad)  
    117f:	2f                   	(bad)  
    1180:	2f                   	(bad)  
    1181:	2f                   	(bad)  
    1182:	2f                   	(bad)  
    1183:	2f                   	(bad)  
    1184:	30 3d 21 3d 22 75    	xor    %bh,0x75223d21(%rip)        # 75224eab <OLDSS+0x75224df3>
    118a:	3d 03 0a 3c 5d       	cmp    $0x5d3c0a03,%eax
    118f:	30 21                	xor    %ah,(%rcx)
    1191:	3d 21 3e 2f 2f       	cmp    $0x2f2f3e21,%eax
    1196:	2f                   	(bad)  
    1197:	2f                   	(bad)  
    1198:	2f                   	(bad)  
    1199:	2f                   	(bad)  
    119a:	2f                   	(bad)  
    119b:	30 21                	xor    %ah,(%rcx)
    119d:	21 21                	and    %esp,(%rcx)
    119f:	21 21                	and    %esp,(%rcx)
    11a1:	21 21                	and    %esp,(%rcx)
    11a3:	02 81 7d 00 01 01    	add    0x101007d(%rcx),%al

Disassembly of section .debug_str:

0000000000000000 <.debug_str>:
   0:	69 6e 69 74 5f 6d 6f 	imul   $0x6f6d5f74,0x69(%rsi),%ebp
   7:	75 73                	jne    7c <ES+0x4>
   9:	65 00 67 5f          	add    %ah,%gs:0x5f(%rdi)
   d:	6d                   	insl   (%dx),%es:(%rdi)
   e:	6f                   	outsl  %ds:(%rsi),(%dx)
   f:	75 73                	jne    84 <RAX+0x4>
  11:	65 5f                	gs pop %rdi
  13:	78 00                	js     15 <R13+0x5>
  15:	69 6e 69 74 5f 62 6f 	imul   $0x6f625f74,0x69(%rsi),%ebp
  1c:	6f                   	outsl  %ds:(%rsi),(%dx)
  1d:	74 5f                	je     7e <ES+0x6>
  1f:	69 6e 66 6f 00 73 68 	imul   $0x6873006f,0x66(%rsi),%ebp
  26:	6f                   	outsl  %ds:(%rsi),(%dx)
  27:	72 74                	jb     9d <RIP+0x5>
  29:	20 75 6e             	and    %dh,0x6e(%rbp)
  2c:	73 69                	jae    97 <ERRCODE+0x7>
  2e:	67 6e                	outsb  %ds:(%esi),(%dx)
  30:	65 64 20 69 6e       	gs and %ch,%fs:0x6e(%rcx)
  35:	74 00                	je     37 <R9+0x7>
  37:	67 5f                	addr32 pop %rdi
  39:	67 72 61             	addr32 jb 9d <RIP+0x5>
  3c:	70 68                	jo     a6 <CS+0x6>
  3e:	69 63 49 6e 66 6f 00 	imul   $0x6f666e,0x49(%rbx),%esp
  45:	47                   	rex.RXB
  46:	4e 55                	rex.WRX push %rbp
  48:	20 43 31             	and    %al,0x31(%rbx)
  4b:	37                   	(bad)  
  4c:	20 31                	and    %dh,(%rcx)
  4e:	31 2e                	xor    %ebp,(%rsi)
  50:	34 2e                	xor    $0x2e,%al
  52:	30 20                	xor    %ah,(%rax)
  54:	2d 6d 36 34 20       	sub    $0x2034366d,%eax
  59:	2d 6d 63 6d 6f       	sub    $0x6f6d636d,%eax
  5e:	64 65 6c             	fs gs insb (%dx),%es:(%rdi)
  61:	3d 6c 61 72 67       	cmp    $0x6772616c,%eax
  66:	65 20 2d 6d 74 75 6e 	and    %ch,%gs:0x6e75746d(%rip)        # 6e7574da <OLDSS+0x6e757422>
  6d:	65 3d 67 65 6e 65    	gs cmp $0x656e6567,%eax
  73:	72 69                	jb     de <OLDSS+0x26>
  75:	63 20                	movsxd (%rax),%esp
  77:	2d 6d 61 72 63       	sub    $0x6372616d,%eax
  7c:	68 3d 78 38 36       	push   $0x3638783d
  81:	2d 36 34 20 2d       	sub    $0x2d203436,%eax
  86:	67 20 2d 66 6e 6f 2d 	and    %ch,0x2d6f6e66(%eip)        # 2d6f6ef3 <OLDSS+0x2d6f6e3b>
  8d:	62 75                	(bad)  
  8f:	69 6c 74 69 6e 20 2d 	imul   $0x662d206e,0x69(%rsp,%rsi,2),%ebp
  96:	66 
  97:	6e                   	outsb  %ds:(%rsi),(%dx)
  98:	6f                   	outsl  %ds:(%rsi),(%dx)
  99:	2d 73 74 61 63       	sub    $0x63617473,%eax
  9e:	6b 2d 70 72 6f 74 65 	imul   $0x65,0x746f7270(%rip),%ebp        # 746f7315 <OLDSS+0x746f725d>
  a5:	63 74 6f 72          	movsxd 0x72(%rdi,%rbp,2),%esi
  a9:	20 2d 66 61 73 79    	and    %ch,0x79736166(%rip)        # 79736215 <OLDSS+0x7973615d>
  af:	6e                   	outsb  %ds:(%rsi),(%dx)
  b0:	63 68 72             	movsxd 0x72(%rax),%ebp
  b3:	6f                   	outsl  %ds:(%rsi),(%dx)
  b4:	6e                   	outsb  %ds:(%rsi),(%dx)
  b5:	6f                   	outsl  %ds:(%rsi),(%dx)
  b6:	75 73                	jne    12b <OLDSS+0x73>
  b8:	2d 75 6e 77 69       	sub    $0x69776e75,%eax
  bd:	6e                   	outsb  %ds:(%rsi),(%dx)
  be:	64 2d 74 61 62 6c    	fs sub $0x6c626174,%eax
  c4:	65 73 20             	gs jae e7 <OLDSS+0x2f>
  c7:	2d 66 73 74 61       	sub    $0x61747366,%eax
  cc:	63 6b 2d             	movsxd 0x2d(%rbx),%ebp
  cf:	63 6c 61 73          	movsxd 0x73(%rcx,%riz,2),%ebp
  d3:	68 2d 70 72 6f       	push   $0x6f72702d
  d8:	74 65                	je     13f <OLDSS+0x87>
  da:	63 74 69 6f          	movsxd 0x6f(%rcx,%rbp,2),%esi
  de:	6e                   	outsb  %ds:(%rsi),(%dx)
  df:	20 2d 66 63 66 2d    	and    %ch,0x2d666366(%rip)        # 2d66644b <OLDSS+0x2d666393>
  e5:	70 72                	jo     159 <OLDSS+0xa1>
  e7:	6f                   	outsl  %ds:(%rsi),(%dx)
  e8:	74 65                	je     14f <OLDSS+0x97>
  ea:	63 74 69 6f          	movsxd 0x6f(%rcx,%rbp,2),%esi
  ee:	6e                   	outsb  %ds:(%rsi),(%dx)
  ef:	00 75 6e             	add    %dh,0x6e(%rbp)
  f2:	73 69                	jae    15d <OLDSS+0xa5>
  f4:	67 6e                	outsb  %ds:(%esi),(%dx)
  f6:	65 64 20 63 68       	gs and %ah,%fs:0x68(%rbx)
  fb:	61                   	(bad)  
  fc:	72 00                	jb     fe <OLDSS+0x46>
  fe:	6c                   	insb   (%dx),%es:(%rdi)
  ff:	6f                   	outsl  %ds:(%rsi),(%dx)
 100:	6e                   	outsb  %ds:(%rsi),(%dx)
 101:	67 20 75 6e          	and    %dh,0x6e(%ebp)
 105:	73 69                	jae    170 <OLDSS+0xb8>
 107:	67 6e                	outsb  %ds:(%esi),(%dx)
 109:	65 64 20 69 6e       	gs and %ch,%fs:0x6e(%rcx)
 10e:	74 00                	je     110 <OLDSS+0x58>
 110:	67 5f                	addr32 pop %rdi
 112:	6d                   	insl   (%dx),%es:(%rdi)
 113:	6f                   	outsl  %ds:(%rsi),(%dx)
 114:	75 73                	jne    189 <OLDSS+0xd1>
 116:	65 5f                	gs pop %rdi
 118:	79 00                	jns    11a <OLDSS+0x62>
 11a:	48 6f                	rex.W outsl %ds:(%rsi),(%dx)
 11c:	72 69                	jb     187 <OLDSS+0xcf>
 11e:	7a 6f                	jp     18f <OLDSS+0xd7>
 120:	6e                   	outsb  %ds:(%rsi),(%dx)
 121:	74 61                	je     184 <OLDSS+0xcc>
 123:	6c                   	insb   (%dx),%es:(%rdi)
 124:	52                   	push   %rdx
 125:	65 73 6f             	gs jae 197 <OLDSS+0xdf>
 128:	6c                   	insb   (%dx),%es:(%rdi)
 129:	75 74                	jne    19f <OLDSS+0xe7>
 12b:	69 6f 6e 00 69 6e 69 	imul   $0x696e6900,0x6e(%rdi),%ebp
 132:	74 5f                	je     193 <OLDSS+0xdb>
 134:	61                   	(bad)  
 135:	6c                   	insb   (%dx),%es:(%rdi)
 136:	6c                   	insb   (%dx),%es:(%rdi)
 137:	00 69 6e             	add    %ch,0x6e(%rcx)
 13a:	69 74 5f 64 72 61 77 	imul   $0x776172,0x64(%rdi,%rbx,2),%esi
 141:	00 
 142:	64 72 61             	fs jb  1a6 <OLDSS+0xee>
 145:	77 5f                	ja     1a6 <OLDSS+0xee>
 147:	74 65                	je     1ae <OLDSS+0xf6>
 149:	73 74                	jae    1bf <OLDSS+0x107>
 14b:	00 46 72             	add    %al,0x72(%rsi)
 14e:	61                   	(bad)  
 14f:	6d                   	insl   (%dx),%es:(%rdi)
 150:	65 42 75 66          	gs rex.X jne 1ba <OLDSS+0x102>
 154:	66 65 72 42          	data16 gs jb 19a <OLDSS+0xe2>
 158:	61                   	(bad)  
 159:	73 65                	jae    1c0 <OLDSS+0x108>
 15b:	00 56 65             	add    %dl,0x65(%rsi)
 15e:	72 74                	jb     1d4 <OLDSS+0x11c>
 160:	69 63 61 6c 52 65 73 	imul   $0x7365526c,0x61(%rbx),%esp
 167:	6f                   	outsl  %ds:(%rsi),(%dx)
 168:	6c                   	insb   (%dx),%es:(%rdi)
 169:	75 74                	jne    1df <OLDSS+0x127>
 16b:	69 6f 6e 00 46 72 61 	imul   $0x61724600,0x6e(%rdi),%ebp
 172:	6d                   	insl   (%dx),%es:(%rdi)
 173:	65 42 75 66          	gs rex.X jne 1dd <OLDSS+0x125>
 177:	66 65 72 53          	data16 gs jb 1ce <OLDSS+0x116>
 17b:	69 7a 65 00 74 65 73 	imul   $0x73657400,0x65(%rdx),%edi
 182:	74 5f                	je     1e3 <OLDSS+0x12b>
 184:	61                   	(bad)  
 185:	6c                   	insb   (%dx),%es:(%rdi)
 186:	6c                   	insb   (%dx),%es:(%rdi)
 187:	00 47 72             	add    %al,0x72(%rdi)
 18a:	61                   	(bad)  
 18b:	70 68                	jo     1f5 <OLDSS+0x13d>
 18d:	69 63 49 6e 66 6f 00 	imul   $0x6f666e,0x49(%rbx),%esp
 194:	73 68                	jae    1fe <OLDSS+0x146>
 196:	6f                   	outsl  %ds:(%rsi),(%dx)
 197:	72 74                	jb     20d <OLDSS+0x155>
 199:	20 69 6e             	and    %ch,0x6e(%rcx)
 19c:	74 00                	je     19e <OLDSS+0xe6>
 19e:	73 79                	jae    219 <OLDSS+0x161>
 1a0:	73 5f                	jae    201 <OLDSS+0x149>
 1a2:	74 72                	je     216 <OLDSS+0x15e>
 1a4:	61                   	(bad)  
 1a5:	70 5f                	jo     206 <OLDSS+0x14e>
 1a7:	69 6e 69 74 00 75 69 	imul   $0x69750074,0x69(%rsi),%ebp
 1ae:	6e                   	outsb  %ds:(%rsi),(%dx)
 1af:	74 33                	je     1e4 <OLDSS+0x12c>
 1b1:	32 5f 74             	xor    0x74(%rdi),%bl
 1b4:	00 6c 6f 6e          	add    %ch,0x6e(%rdi,%rbp,2)
 1b8:	67 20 69 6e          	and    %ch,0x6e(%ecx)
 1bc:	74 00                	je     1be <OLDSS+0x106>
 1be:	73 65                	jae    225 <OLDSS+0x16d>
 1c0:	74 5f                	je     221 <OLDSS+0x169>
 1c2:	74 73                	je     237 <OLDSS+0x17f>
 1c4:	73 36                	jae    1fc <OLDSS+0x144>
 1c6:	34 00                	xor    $0x0,%al
 1c8:	50                   	push   %rax
 1c9:	69 78 65 6c 73 50 65 	imul   $0x6550736c,0x65(%rax),%edi
 1d0:	72 53                	jb     225 <OLDSS+0x16d>
 1d2:	63 61 6e             	movsxd 0x6e(%rcx),%esp
 1d5:	4c 69 6e 65 00 6b 65 	imul   $0x72656b00,0x65(%rsi),%r13
 1dc:	72 
 1dd:	6e                   	outsb  %ds:(%rsi),(%dx)
 1de:	65 6c                	gs insb (%dx),%es:(%rdi)
 1e0:	5f                   	pop    %rdi
 1e1:	6d                   	insl   (%dx),%es:(%rdi)
 1e2:	61                   	(bad)  
 1e3:	69 6e 00 45 66 69 42 	imul   $0x42696645,0x0(%rsi),%ebp
 1ea:	6f                   	outsl  %ds:(%rsi),(%dx)
 1eb:	6f                   	outsl  %ds:(%rsi),(%dx)
 1ec:	74 49                	je     237 <OLDSS+0x17f>
 1ee:	6e                   	outsb  %ds:(%rsi),(%dx)
 1ef:	66 6f                	outsw  %ds:(%rsi),(%dx)
 1f1:	00 67 5f             	add    %ah,0x5f(%rdi)
 1f4:	62                   	(bad)  
 1f5:	6f                   	outsl  %ds:(%rsi),(%dx)
 1f6:	6f                   	outsl  %ds:(%rsi),(%dx)
 1f7:	74 49                	je     242 <OLDSS+0x18a>
 1f9:	6e                   	outsb  %ds:(%rsi),(%dx)
 1fa:	66 6f                	outsw  %ds:(%rsi),(%dx)
 1fc:	00 52 65             	add    %dl,0x65(%rdx)
 1ff:	63 74 00 52          	movsxd 0x52(%rax,%rax,1),%esi
 203:	65 73 65             	gs jae 26b <OLDSS+0x1b3>
 206:	72 76                	jb     27e <OLDSS+0x1c6>
 208:	65 64 00 64 72 61    	gs add %ah,%fs:0x61(%rdx,%rsi,2)
 20e:	77 5f                	ja     26f <OLDSS+0x1b7>
 210:	74 65                	je     277 <OLDSS+0x1bf>
 212:	78 74                	js     288 <OLDSS+0x1d0>
 214:	00 64 72 61          	add    %ah,0x61(%rdx,%rsi,2)
 218:	77 5f                	ja     279 <OLDSS+0x1c1>
 21a:	70 72                	jo     28e <OLDSS+0x1d6>
 21c:	69 6e 74 66 00 5f 5f 	imul   $0x5f5f0066,0x74(%rsi),%ebp
 223:	62 75                	(bad)  
 225:	69 6c 74 69 6e 5f 76 	imul   $0x61765f6e,0x69(%rsp,%rsi,2),%ebp
 22c:	61 
 22d:	5f                   	pop    %rdi
 22e:	6c                   	insb   (%dx),%es:(%rdi)
 22f:	69 73 74 00 57 69 64 	imul   $0x64695700,0x74(%rbx),%esi
 236:	74 68                	je     2a0 <OLDSS+0x1e8>
 238:	00 67 5f             	add    %ah,0x5f(%rdi)
 23b:	62 75 66 66 65       	(bad)
 240:	72 00                	jb     242 <OLDSS+0x18a>
 242:	64 72 61             	fs jb  2a6 <OLDSS+0x1ee>
 245:	77 5f                	ja     2a6 <OLDSS+0x1ee>
 247:	66 6f                	outsw  %ds:(%rsi),(%dx)
 249:	6e                   	outsb  %ds:(%rsi),(%dx)
 24a:	74 5f                	je     2ab <OLDSS+0x1f3>
 24c:	61                   	(bad)  
 24d:	73 63                	jae    2b2 <OLDSS+0x1fa>
 24f:	69 69 00 75 69 6e 74 	imul   $0x746e6975,0x0(%rcx),%ebp
 256:	38 5f 74             	cmp    %bl,0x74(%rdi)
 259:	00 64 61 74          	add    %ah,0x74(%rcx,%riz,2)
 25d:	61                   	(bad)  
 25e:	00 75 69             	add    %dh,0x69(%rbp)
 261:	6e                   	outsb  %ds:(%rsi),(%dx)
 262:	74 36                	je     29a <OLDSS+0x1e2>
 264:	34 5f                	xor    $0x5f,%al
 266:	74 00                	je     268 <OLDSS+0x1b0>
 268:	64 72 61             	fs jb  2cc <OLDSS+0x214>
 26b:	77 5f                	ja     2cc <OLDSS+0x214>
 26d:	70 69                	jo     2d8 <OLDSS+0x220>
 26f:	78 65                	js     2d6 <OLDSS+0x21e>
 271:	6c                   	insb   (%dx),%es:(%rdi)
 272:	00 48 65             	add    %cl,0x65(%rax)
 275:	69 67 68 74 00 64 72 	imul   $0x72640074,0x68(%rdi),%esp
 27c:	61                   	(bad)  
 27d:	77 5f                	ja     2de <OLDSS+0x226>
 27f:	73 74                	jae    2f5 <OLDSS+0x23d>
 281:	72 61                	jb     2e4 <OLDSS+0x22c>
 283:	69 67 68 74 5f 6c 69 	imul   $0x696c5f74,0x68(%rdi),%esp
 28a:	6e                   	outsb  %ds:(%rsi),(%dx)
 28b:	65 00 72 65          	add    %dh,%gs:0x65(%rdx)
 28f:	67 5f                	addr32 pop %rdi
 291:	73 61                	jae    2f4 <OLDSS+0x23c>
 293:	76 65                	jbe    2fa <OLDSS+0x242>
 295:	5f                   	pop    %rdi
 296:	61                   	(bad)  
 297:	72 65                	jb     2fe <OLDSS+0x246>
 299:	61                   	(bad)  
 29a:	00 42 6c             	add    %al,0x6c(%rdx)
 29d:	75 65                	jne    304 <OLDSS+0x24c>
 29f:	00 64 72 61          	add    %ah,0x61(%rdx,%rsi,2)
 2a3:	77 5f                	ja     304 <OLDSS+0x24c>
 2a5:	72 65                	jb     30c <OLDSS+0x254>
 2a7:	63 74 00 67          	movsxd 0x67(%rax,%rax,1),%esi
 2ab:	5f                   	pop    %rdi
 2ac:	66 6f                	outsw  %ds:(%rsi),(%dx)
 2ae:	6e                   	outsb  %ds:(%rsi),(%dx)
 2af:	74 5f                	je     310 <OLDSS+0x258>
 2b1:	61                   	(bad)  
 2b2:	73 63                	jae    317 <OLDSS+0x25f>
 2b4:	69 69 00 5f 5f 67 6e 	imul   $0x6e675f5f,0x0(%rcx),%ebp
 2bb:	75 63                	jne    320 <OLDSS+0x268>
 2bd:	5f                   	pop    %rdi
 2be:	76 61                	jbe    321 <OLDSS+0x269>
 2c0:	5f                   	pop    %rdi
 2c1:	6c                   	insb   (%dx),%es:(%rdi)
 2c2:	69 73 74 00 63 6f 6c 	imul   $0x6c6f6300,0x74(%rbx),%esi
 2c9:	6f                   	outsl  %ds:(%rsi),(%dx)
 2ca:	72 00                	jb     2cc <OLDSS+0x214>
 2cc:	67 70 5f             	addr32 jo 32e <OLDSS+0x276>
 2cf:	6f                   	outsl  %ds:(%rsi),(%dx)
 2d0:	66 66 73 65          	data16 data16 jae 339 <OLDSS+0x281>
 2d4:	74 00                	je     2d6 <OLDSS+0x21e>
 2d6:	62 61                	(bad)  
 2d8:	73 65                	jae    33f <OLDSS+0x287>
 2da:	00 47 72             	add    %al,0x72(%rdi)
 2dd:	65 65 6e             	gs outsb %gs:(%rsi),(%dx)
 2e0:	00 6f 76             	add    %ch,0x76(%rdi)
 2e3:	65 72 66             	gs jb  34c <OLDSS+0x294>
 2e6:	6c                   	insb   (%dx),%es:(%rdi)
 2e7:	6f                   	outsl  %ds:(%rsi),(%dx)
 2e8:	77 5f                	ja     349 <OLDSS+0x291>
 2ea:	61                   	(bad)  
 2eb:	72 67                	jb     354 <OLDSS+0x29c>
 2ed:	5f                   	pop    %rdi
 2ee:	61                   	(bad)  
 2ef:	72 65                	jb     356 <OLDSS+0x29e>
 2f1:	61                   	(bad)  
 2f2:	00 43 6f             	add    %al,0x6f(%rbx)
 2f5:	6c                   	insb   (%dx),%es:(%rdi)
 2f6:	6f                   	outsl  %ds:(%rsi),(%dx)
 2f7:	72 00                	jb     2f9 <OLDSS+0x241>
 2f9:	76 61                	jbe    35c <OLDSS+0x2a4>
 2fb:	6c                   	insb   (%dx),%es:(%rdi)
 2fc:	75 65                	jne    363 <OLDSS+0x2ab>
 2fe:	00 5f 5f             	add    %bl,0x5f(%rdi)
 301:	76 61                	jbe    364 <OLDSS+0x2ac>
 303:	5f                   	pop    %rdi
 304:	6c                   	insb   (%dx),%es:(%rdi)
 305:	69 73 74 5f 74 61 67 	imul   $0x6761745f,0x74(%rbx),%esi
 30c:	00 61 72             	add    %ah,0x72(%rcx)
 30f:	67 73 00             	addr32 jae 312 <OLDSS+0x25a>
 312:	6d                   	insl   (%dx),%es:(%rdi)
 313:	65 6d                	gs insl (%dx),%es:(%rdi)
 315:	73 65                	jae    37c <OLDSS+0x2c4>
 317:	74 6c                	je     385 <OLDSS+0x2cd>
 319:	00 63 6c             	add    %ah,0x6c(%rbx)
 31c:	65 61                	gs (bad) 
 31e:	72 5f                	jb     37f <OLDSS+0x2c7>
 320:	73 63                	jae    385 <OLDSS+0x2cd>
 322:	72 65                	jb     389 <OLDSS+0x2d1>
 324:	65 6e                	outsb  %gs:(%rsi),(%dx)
 326:	00 66 70             	add    %ah,0x70(%rsi)
 329:	5f                   	pop    %rdi
 32a:	6f                   	outsl  %ds:(%rsi),(%dx)
 32b:	66 66 73 65          	data16 data16 jae 394 <OLDSS+0x2dc>
 32f:	74 00                	je     331 <OLDSS+0x279>
 331:	76 73                	jbe    3a6 <OLDSS+0x2ee>
 333:	70 72                	jo     3a7 <OLDSS+0x2ef>
 335:	69 6e 74 66 00 64 72 	imul   $0x72640066,0x74(%rsi),%ebp
 33c:	61                   	(bad)  
 33d:	77 5f                	ja     39e <OLDSS+0x2e6>
 33f:	73 6f                	jae    3b0 <OLDSS+0x2f8>
 341:	6c                   	insb   (%dx),%es:(%rdi)
 342:	69 64 5f 72 65 63 74 	imul   $0x746365,0x72(%rdi,%rbx,2),%esp
 349:	00 
 34a:	61                   	(bad)  
 34b:	72 67                	jb     3b4 <OLDSS+0x2fc>
 34d:	5f                   	pop    %rdi
 34e:	69 6e 74 00 73 74 72 	imul   $0x72747300,0x74(%rsi),%ebp
 355:	6c                   	insb   (%dx),%es:(%rdi)
 356:	65 6e                	outsb  %gs:(%rsi),(%dx)
 358:	00 72 65             	add    %dh,0x65(%rdx)
 35b:	74 76                	je     3d3 <OLDSS+0x31b>
 35d:	61                   	(bad)  
 35e:	6c                   	insb   (%dx),%es:(%rdi)
 35f:	00 73 74             	add    %dh,0x74(%rbx)
 362:	72 63                	jb     3c7 <OLDSS+0x30f>
 364:	70 79                	jo     3df <OLDSS+0x327>
 366:	00 69 74             	add    %ch,0x74(%rcx)
 369:	6f                   	outsl  %ds:(%rsi),(%dx)
 36a:	61                   	(bad)  
 36b:	00 62 75             	add    %ah,0x75(%rdx)
 36e:	66 5f                	pop    %di
 370:	70 74                	jo     3e6 <OLDSS+0x32e>
 372:	72 5f                	jb     3d3 <OLDSS+0x31b>
 374:	61                   	(bad)  
 375:	64 64 72 00          	fs fs jb 379 <OLDSS+0x2c1>
 379:	64 73 74             	fs jae 3f0 <OLDSS+0x338>
 37c:	5f                   	pop    %rdi
 37d:	00 66 6f             	add    %ah,0x6f(%rsi)
 380:	72 6d                	jb     3ef <OLDSS+0x337>
 382:	61                   	(bad)  
 383:	74 00                	je     385 <OLDSS+0x2cd>
 385:	69 6e 64 65 78 5f 70 	imul   $0x705f7865,0x64(%rsi),%ebp
 38c:	74 72                	je     400 <OLDSS+0x348>
 38e:	00 69 6e             	add    %ch,0x6e(%rcx)
 391:	64 65 78 5f          	fs gs js 3f4 <OLDSS+0x33c>
 395:	63 68 61             	movsxd 0x61(%rax),%ebp
 398:	72 00                	jb     39a <OLDSS+0x2e2>
 39a:	62 75 66 5f 70       	(bad)
 39f:	74 72                	je     413 <OLDSS+0x35b>
 3a1:	00 73 69             	add    %dh,0x69(%rbx)
 3a4:	7a 65                	jp     40b <OLDSS+0x353>
 3a6:	00 61 72             	add    %ah,0x72(%rcx)
 3a9:	67 5f                	addr32 pop %rdi
 3ab:	73 74                	jae    421 <OLDSS+0x369>
 3ad:	72 00                	jb     3af <OLDSS+0x2f7>
 3af:	73 72                	jae    423 <OLDSS+0x36b>
 3b1:	63 5f 00             	movsxd 0x0(%rdi),%ebx
 3b4:	73 74                	jae    42a <OLDSS+0x372>
 3b6:	72 63                	jb     41b <OLDSS+0x363>
 3b8:	68 72 73 00 73       	push   $0x73007372
 3bd:	74 72                	je     431 <OLDSS+0x379>
 3bf:	63 68 72             	movsxd 0x72(%rax),%ebp
 3c2:	00 6d 65             	add    %ch,0x65(%rbp)
 3c5:	6d                   	insl   (%dx),%es:(%rdi)
 3c6:	63 6d 70             	movsxd 0x70(%rbp),%ebp
 3c9:	00 6c 61 73          	add    %ch,0x73(%rcx,%riz,2)
 3cd:	74 5f                	je     42e <OLDSS+0x376>
 3cf:	63 68 61             	movsxd 0x61(%rax),%ebp
 3d2:	72 00                	jb     3d4 <OLDSS+0x31c>
 3d4:	73 74                	jae    44a <OLDSS+0x392>
 3d6:	72 63                	jb     43b <OLDSS+0x383>
 3d8:	61                   	(bad)  
 3d9:	74 00                	je     3db <OLDSS+0x323>
 3db:	73 74                	jae    451 <OLDSS+0x399>
 3dd:	72 63                	jb     442 <OLDSS+0x38a>
 3df:	6d                   	insl   (%dx),%es:(%rdi)
 3e0:	70 00                	jo     3e2 <OLDSS+0x32a>
 3e2:	63 68 5f             	movsxd 0x5f(%rax),%ebp
 3e5:	63 6e 74             	movsxd 0x74(%rsi),%ebp
 3e8:	00 73 74             	add    %dh,0x74(%rbx)
 3eb:	72 72                	jb     45f <OLDSS+0x3a7>
 3ed:	63 68 72             	movsxd 0x72(%rax),%ebp
 3f0:	00 6d 65             	add    %ch,0x65(%rbp)
 3f3:	6d                   	insl   (%dx),%es:(%rdi)
 3f4:	63 70 79             	movsxd 0x79(%rax),%esi
 3f7:	00 6d 65             	add    %ch,0x65(%rbp)
 3fa:	6d                   	insl   (%dx),%es:(%rdi)
 3fb:	73 65                	jae    462 <OLDSS+0x3aa>
 3fd:	74 00                	je     3ff <OLDSS+0x347>
 3ff:	64 72 61             	fs jb  463 <OLDSS+0x3ab>
 402:	77 5f                	ja     463 <OLDSS+0x3ab>
 404:	6d                   	insl   (%dx),%es:(%rdi)
 405:	6f                   	outsl  %ds:(%rsi),(%dx)
 406:	75 73                	jne    47b <OLDSS+0x3c3>
 408:	65 00 63 75          	add    %ah,%gs:0x75(%rbx)
 40c:	72 73                	jb     481 <OLDSS+0x3c9>
 40e:	6f                   	outsl  %ds:(%rsi),(%dx)
 40f:	72 00                	jb     411 <OLDSS+0x359>
 411:	73 72                	jae    485 <OLDSS+0x3cd>
 413:	63 2f                	movsxd (%rdi),%ebp
 415:	6b 65 72 6e          	imul   $0x6e,0x72(%rbp),%esp
 419:	65 6c                	gs insb (%dx),%es:(%rdi)
 41b:	2f                   	(bad)  
 41c:	68 65 61 64 2e       	push   $0x2e646165
 421:	73 00                	jae    423 <OLDSS+0x36b>
 423:	2f                   	(bad)  
 424:	6d                   	insl   (%dx),%es:(%rdi)
 425:	65 64 69 61 2f 77 79 	gs imul $0x2f687977,%fs:0x2f(%rcx),%esp
 42c:	68 2f 
 42e:	4b                   	rex.WXB
 42f:	45 53                	rex.RB push %r11
 431:	55                   	push   %rbp
 432:	2f                   	(bad)  
 433:	43 6f                	rex.XB outsl %ds:(%rsi),(%dx)
 435:	64 69 6e 67 2f 62 75 	imul   $0x6975622f,%fs:0x67(%rsi),%ebp
 43c:	69 
 43d:	6c                   	insb   (%dx),%es:(%rdi)
 43e:	64 5f                	fs pop %rdi
 440:	6f                   	outsl  %ds:(%rsi),(%dx)
 441:	73 2f                	jae    472 <OLDSS+0x3ba>
 443:	75 65                	jne    4aa <OLDSS+0x3f2>
 445:	66 69 5f 6f 73 00    	imul   $0x73,0x6f(%rdi),%bx
 44b:	47                   	rex.RXB
 44c:	4e 55                	rex.WRX push %rbp
 44e:	20 41 53             	and    %al,0x53(%rcx)
 451:	20 32                	and    %dh,(%rdx)
 453:	2e 33 38             	cs xor (%rax),%edi
 456:	00 6f 66             	add    %ch,0x66(%rdi)
 459:	66 73 65             	data16 jae 4c1 <OLDSS+0x409>
 45c:	74 5f                	je     4bd <OLDSS+0x405>
 45e:	31 00                	xor    %eax,(%rax)
 460:	6f                   	outsl  %ds:(%rsi),(%dx)
 461:	66 66 73 65          	data16 data16 jae 4ca <OLDSS+0x412>
 465:	74 5f                	je     4c6 <OLDSS+0x40e>
 467:	32 00                	xor    (%rax),%al
 469:	6f                   	outsl  %ds:(%rsi),(%dx)
 46a:	66 66 73 65          	data16 data16 jae 4d3 <OLDSS+0x41b>
 46e:	74 5f                	je     4cf <OLDSS+0x417>
 470:	33 00                	xor    (%rax),%eax
 472:	73 65                	jae    4d9 <OLDSS+0x421>
 474:	74 5f                	je     4d5 <OLDSS+0x41d>
 476:	69 64 74 5f 67 61 74 	imul   $0x65746167,0x5f(%rsp,%rsi,2),%esp
 47d:	65 
 47e:	00 69 6e             	add    %ch,0x6e(%rcx)
 481:	74 65                	je     4e8 <OLDSS+0x430>
 483:	72 72                	jb     4f7 <OLDSS+0x43f>
 485:	75 70                	jne    4f7 <OLDSS+0x43f>
 487:	74 5f                	je     4e8 <OLDSS+0x430>
 489:	68 61 6e 64 6c       	push   $0x6c646e61
 48e:	65 00 54 53 53       	add    %dl,%gs:0x53(%rbx,%rdx,2)
 493:	36 34 5f             	ss xor $0x5f,%al
 496:	54                   	push   %rsp
 497:	61                   	(bad)  
 498:	62                   	(bad)  
 499:	6c                   	insb   (%dx),%es:(%rdi)
 49a:	65 00 69 73          	add    %ch,%gs:0x73(%rcx)
 49e:	74 33                	je     4d3 <OLDSS+0x41b>
 4a0:	00 74 79 70          	add    %dh,0x70(%rcx,%rdi,2)
 4a4:	65 5f                	gs pop %rdi
 4a6:	61                   	(bad)  
 4a7:	74 74                	je     51d <OLDSS+0x465>
 4a9:	72 69                	jb     514 <OLDSS+0x45c>
 4ab:	62 75 74 65 73       	(bad)
 4b0:	00 69 73             	add    %ch,0x73(%rcx)
 4b3:	74 34                	je     4e9 <OLDSS+0x431>
 4b5:	00 69 73             	add    %ch,0x73(%rcx)
 4b8:	74 35                	je     4ef <OLDSS+0x437>
 4ba:	00 69 73             	add    %ch,0x73(%rcx)
 4bd:	74 36                	je     4f5 <OLDSS+0x43d>
 4bf:	00 69 73             	add    %ch,0x73(%rcx)
 4c2:	74 37                	je     4fb <OLDSS+0x443>
 4c4:	00 7a 65             	add    %bh,0x65(%rdx)
 4c7:	72 6f                	jb     538 <OLDSS+0x480>
 4c9:	00 49 6e             	add    %cl,0x6e(%rcx)
 4cc:	74 65                	je     533 <OLDSS+0x47b>
 4ce:	72 72                	jb     542 <OLDSS+0x48a>
 4d0:	75 70                	jne    542 <OLDSS+0x48a>
 4d2:	74 44                	je     518 <OLDSS+0x460>
 4d4:	65 73 63             	gs jae 53a <OLDSS+0x482>
 4d7:	72 69                	jb     542 <OLDSS+0x48a>
 4d9:	70 74                	jo     54f <OLDSS+0x497>
 4db:	6f                   	outsl  %ds:(%rsi),(%dx)
 4dc:	72 36                	jb     514 <OLDSS+0x45c>
 4de:	34 00                	xor    $0x0,%al
 4e0:	69 6e 74 65 72 72 75 	imul   $0x75727265,0x74(%rsi),%ebp
 4e7:	70 74                	jo     55d <OLDSS+0x4a5>
 4e9:	5f                   	pop    %rdi
 4ea:	69 6e 69 74 00 49 44 	imul   $0x44490074,0x69(%rsi),%ebp
 4f1:	54                   	push   %rsp
 4f2:	5f                   	pop    %rdi
 4f3:	54                   	push   %rsp
 4f4:	61                   	(bad)  
 4f5:	62                   	(bad)  
 4f6:	6c                   	insb   (%dx),%es:(%rdi)
 4f7:	65 00 74 61 72       	add    %dh,%gs:0x72(%rcx,%riz,2)
 4fc:	67 65 74 00          	addr32 gs je 500 <OLDSS+0x448>
 500:	69 73 74 31 00 69 73 	imul   $0x73690031,0x74(%rbx),%esi
 507:	74 32                	je     53b <OLDSS+0x483>
 509:	00 72 73             	add    %dh,0x73(%rdx)
 50c:	70 30                	jo     53e <OLDSS+0x486>
 50e:	00 72 73             	add    %dh,0x73(%rdx)
 511:	70 31                	jo     544 <OLDSS+0x48c>
 513:	00 72 73             	add    %dh,0x73(%rdx)
 516:	70 32                	jo     54a <OLDSS+0x492>
 518:	00 73 65             	add    %dh,0x65(%rbx)
 51b:	6c                   	insb   (%dx),%es:(%rdi)
 51c:	65 63 74 6f 72       	movsxd %gs:0x72(%rdi,%rbp,2),%esi
 521:	00 75 69             	add    %dh,0x69(%rbp)
 524:	6e                   	outsb  %ds:(%rsi),(%dx)
 525:	74 31                	je     558 <OLDSS+0x4a0>
 527:	36 5f                	ss pop %rdi
 529:	74 00                	je     52b <OLDSS+0x473>
 52b:	65 78 63             	gs js  591 <OLDSS+0x4d9>
 52e:	65 70 74             	gs jo  5a5 <OLDSS+0x4ed>
 531:	69 6f 6e 5f 68 61 6e 	imul   $0x6e61685f,0x6e(%rdi),%ebp
 538:	64 6c                	fs insb (%dx),%es:(%rdi)
 53a:	65 00 64 6f 5f       	add    %ah,%gs:0x5f(%rdi,%rbp,2)
 53f:	53                   	push   %rbx
 540:	49                   	rex.WB
 541:	4d                   	rex.WRB
 542:	44 5f                	rex.R pop %rdi
 544:	65 78 63             	gs js  5aa <OLDSS+0x4f2>
 547:	65 70 74             	gs jo  5be <OLDSS+0x506>
 54a:	69 6f 6e 00 64 6f 5f 	imul   $0x5f6f6400,0x6e(%rdi),%ebp
 551:	6d                   	insl   (%dx),%es:(%rdi)
 552:	61                   	(bad)  
 553:	63 68 69             	movsxd 0x69(%rax),%ebp
 556:	6e                   	outsb  %ds:(%rsi),(%dx)
 557:	65 5f                	gs pop %rdi
 559:	63 68 65             	movsxd 0x65(%rax),%ebp
 55c:	63 6b 00             	movsxd 0x0(%rbx),%ebp
 55f:	5f                   	pop    %rdi
 560:	5f                   	pop    %rdi
 561:	64 30 00             	xor    %al,%fs:(%rax)
 564:	5f                   	pop    %rdi
 565:	5f                   	pop    %rdi
 566:	64 31 00             	xor    %eax,%fs:(%rax)
 569:	64 6f                	outsl  %fs:(%rsi),(%dx)
 56b:	5f                   	pop    %rdi
 56c:	73 74                	jae    5e2 <OLDSS+0x52a>
 56e:	61                   	(bad)  
 56f:	63 6b 5f             	movsxd 0x5f(%rbx),%ebp
 572:	73 65                	jae    5d9 <OLDSS+0x521>
 574:	67 6d                	insl   (%dx),%es:(%edi)
 576:	65 6e                	outsb  %gs:(%rsi),(%dx)
 578:	74 5f                	je     5d9 <OLDSS+0x521>
 57a:	66 61                	data16 (bad) 
 57c:	75 6c                	jne    5ea <OLDSS+0x532>
 57e:	74 00                	je     580 <OLDSS+0x4c8>
 580:	65 72 72             	gs jb  5f5 <OLDSS+0x53d>
 583:	6f                   	outsl  %ds:(%rsi),(%dx)
 584:	72 5f                	jb     5e5 <OLDSS+0x52d>
 586:	63 6f 64             	movsxd 0x64(%rdi),%ebp
 589:	65 00 64 6f 5f       	add    %ah,%gs:0x5f(%rdi,%rbp,2)
 58e:	6e                   	outsb  %ds:(%rsi),(%dx)
 58f:	6d                   	insl   (%dx),%es:(%rdi)
 590:	69 00 64 6f 5f 69    	imul   $0x695f6f64,(%rax),%eax
 596:	6e                   	outsb  %ds:(%rsi),(%dx)
 597:	76 61                	jbe    5fa <OLDSS+0x542>
 599:	6c                   	insb   (%dx),%es:(%rdi)
 59a:	69 64 5f 54 53 53 00 	imul   $0x64005353,0x54(%rdi,%rbx,2),%esp
 5a1:	64 
 5a2:	6f                   	outsl  %ds:(%rsi),(%dx)
 5a3:	5f                   	pop    %rdi
 5a4:	69 6e 74 33 00 64 6f 	imul   $0x6f640033,0x74(%rsi),%ebp
 5ab:	5f                   	pop    %rdi
 5ac:	67 65 6e             	outsb  %gs:(%esi),(%dx)
 5af:	65 72 61             	gs jb  613 <OLDSS+0x55b>
 5b2:	6c                   	insb   (%dx),%es:(%rdi)
 5b3:	5f                   	pop    %rdi
 5b4:	70 72                	jo     628 <OLDSS+0x570>
 5b6:	6f                   	outsl  %ds:(%rsi),(%dx)
 5b7:	74 65                	je     61e <OLDSS+0x566>
 5b9:	63 74 69 6f          	movsxd 0x6f(%rcx,%rbp,2),%esi
 5bd:	6e                   	outsb  %ds:(%rsi),(%dx)
 5be:	00 64 6f 5f          	add    %ah,0x5f(%rdi,%rbp,2)
 5c2:	62                   	(bad)  
 5c3:	6f                   	outsl  %ds:(%rsi),(%dx)
 5c4:	75 6e                	jne    634 <OLDSS+0x57c>
 5c6:	64 73 00             	fs jae 5c9 <OLDSS+0x511>
 5c9:	64 6f                	outsl  %fs:(%rsi),(%dx)
 5cb:	5f                   	pop    %rdi
 5cc:	64 65 76 5f          	fs gs jbe 62f <OLDSS+0x577>
 5d0:	6e                   	outsb  %ds:(%rsi),(%dx)
 5d1:	6f                   	outsl  %ds:(%rsi),(%dx)
 5d2:	74 5f                	je     633 <OLDSS+0x57b>
 5d4:	61                   	(bad)  
 5d5:	76 61                	jbe    638 <OLDSS+0x580>
 5d7:	69 6c 61 62 6c 65 00 	imul   $0x6400656c,0x62(%rcx,%riz,2),%ebp
 5de:	64 
 5df:	6f                   	outsl  %ds:(%rsi),(%dx)
 5e0:	5f                   	pop    %rdi
 5e1:	63 6f 70             	movsxd 0x70(%rdi),%ebp
 5e4:	72 6f                	jb     655 <OLDSS+0x59d>
 5e6:	63 65 73             	movsxd 0x73(%rbp),%esp
 5e9:	73 6f                	jae    65a <OLDSS+0x5a2>
 5eb:	72 5f                	jb     64c <OLDSS+0x594>
 5ed:	73 65                	jae    654 <OLDSS+0x59c>
 5ef:	67 6d                	insl   (%dx),%es:(%edi)
 5f1:	65 6e                	outsb  %gs:(%rsi),(%dx)
 5f3:	74 5f                	je     654 <OLDSS+0x59c>
 5f5:	6f                   	outsl  %ds:(%rsi),(%dx)
 5f6:	76 65                	jbe    65d <OLDSS+0x5a5>
 5f8:	72 72                	jb     66c <OLDSS+0x5b4>
 5fa:	75 6e                	jne    66a <OLDSS+0x5b2>
 5fc:	00 64 6f 5f          	add    %ah,0x5f(%rdi,%rbp,2)
 600:	75 6e                	jne    670 <OLDSS+0x5b8>
 602:	64 65 66 69 6e 65 64 	fs imul $0x5f64,%gs:0x65(%rsi),%bp
 609:	5f 
 60a:	6f                   	outsl  %ds:(%rsi),(%dx)
 60b:	70 63                	jo     670 <OLDSS+0x5b8>
 60d:	6f                   	outsl  %ds:(%rsi),(%dx)
 60e:	64 65 00 64 6f 5f    	fs add %ah,%gs:0x5f(%rdi,%rbp,2)
 614:	61                   	(bad)  
 615:	6c                   	insb   (%dx),%es:(%rdi)
 616:	69 67 6e 6d 65 6e 74 	imul   $0x746e656d,0x6e(%rdi),%esp
 61d:	5f                   	pop    %rdi
 61e:	63 68 65             	movsxd 0x65(%rax),%ebp
 621:	63 6b 00             	movsxd 0x0(%rbx),%ebp
 624:	64 6f                	outsl  %fs:(%rsi),(%dx)
 626:	5f                   	pop    %rdi
 627:	6f                   	outsl  %ds:(%rsi),(%dx)
 628:	76 65                	jbe    68f <OLDSS+0x5d7>
 62a:	72 66                	jb     692 <OLDSS+0x5da>
 62c:	6c                   	insb   (%dx),%es:(%rdi)
 62d:	6f                   	outsl  %ds:(%rsi),(%dx)
 62e:	77 00                	ja     630 <OLDSS+0x578>
 630:	64 6f                	outsl  %fs:(%rsi),(%dx)
 632:	5f                   	pop    %rdi
 633:	70 61                	jo     696 <OLDSS+0x5de>
 635:	67 65 5f             	addr32 gs pop %rdi
 638:	66 61                	data16 (bad) 
 63a:	75 6c                	jne    6a8 <OLDSS+0x5f0>
 63c:	74 00                	je     63e <OLDSS+0x586>
 63e:	64 6f                	outsl  %fs:(%rsi),(%dx)
 640:	5f                   	pop    %rdi
 641:	64 65 62 75 67 00 64 	(bad)
 648:	6f                   	outsl  %ds:(%rsi),(%dx)
 649:	5f                   	pop    %rdi
 64a:	78 38                	js     684 <OLDSS+0x5cc>
 64c:	37                   	(bad)  
 64d:	5f                   	pop    %rdi
 64e:	46 50                	rex.RX push %rax
 650:	55                   	push   %rbp
 651:	5f                   	pop    %rdi
 652:	65 72 72             	gs jb  6c7 <OLDSS+0x60f>
 655:	6f                   	outsl  %ds:(%rsi),(%dx)
 656:	72 00                	jb     658 <OLDSS+0x5a0>
 658:	64 6f                	outsl  %fs:(%rsi),(%dx)
 65a:	5f                   	pop    %rdi
 65b:	64 69 76 69 64 65 5f 	imul   $0x655f6564,%fs:0x69(%rsi),%esi
 662:	65 
 663:	72 72                	jb     6d7 <OLDSS+0x61f>
 665:	6f                   	outsl  %ds:(%rsi),(%dx)
 666:	72 00                	jb     668 <OLDSS+0x5b0>
 668:	73 65                	jae    6cf <OLDSS+0x617>
 66a:	74 5f                	je     6cb <OLDSS+0x613>
 66c:	73 79                	jae    6e7 <OLDSS+0x62f>
 66e:	73 74                	jae    6e4 <OLDSS+0x62c>
 670:	65 6d                	gs insl (%dx),%es:(%rdi)
 672:	5f                   	pop    %rdi
 673:	67 61                	addr32 (bad) 
 675:	74 65                	je     6dc <OLDSS+0x624>
 677:	00 73 65             	add    %dh,0x65(%rbx)
 67a:	74 5f                	je     6db <OLDSS+0x623>
 67c:	69 6e 74 72 5f 67 61 	imul   $0x61675f72,0x74(%rsi),%ebp
 683:	74 65                	je     6ea <OLDSS+0x632>
 685:	00 64 6f 5f          	add    %ah,0x5f(%rdi,%rbp,2)
 689:	64 6f                	outsl  %fs:(%rsi),(%dx)
 68b:	75 62                	jne    6ef <OLDSS+0x637>
 68d:	6c                   	insb   (%dx),%es:(%rdi)
 68e:	65 5f                	gs pop %rdi
 690:	66 61                	data16 (bad) 
 692:	75 6c                	jne    700 <OLDSS+0x648>
 694:	74 00                	je     696 <OLDSS+0x5de>
 696:	64 6f                	outsl  %fs:(%rsi),(%dx)
 698:	5f                   	pop    %rdi
 699:	73 65                	jae    700 <OLDSS+0x648>
 69b:	67 6d                	insl   (%dx),%es:(%edi)
 69d:	65 6e                	outsb  %gs:(%rsi),(%dx)
 69f:	74 5f                	je     700 <OLDSS+0x648>
 6a1:	6e                   	outsb  %ds:(%rsi),(%dx)
 6a2:	6f                   	outsl  %ds:(%rsi),(%dx)
 6a3:	74 5f                	je     704 <OLDSS+0x64c>
 6a5:	70 72                	jo     719 <OLDSS+0x661>
 6a7:	65 73 65             	gs jae 70f <OLDSS+0x657>
 6aa:	6e                   	outsb  %ds:(%rsi),(%dx)
 6ab:	74 00                	je     6ad <OLDSS+0x5f5>
 6ad:	73 65                	jae    714 <OLDSS+0x65c>
 6af:	74 5f                	je     710 <OLDSS+0x658>
 6b1:	74 72                	je     725 <OLDSS+0x66d>
 6b3:	61                   	(bad)  
 6b4:	70 5f                	jo     715 <OLDSS+0x65d>
 6b6:	67 61                	addr32 (bad) 
 6b8:	74 65                	je     71f <OLDSS+0x667>
 6ba:	00 64 6f 5f          	add    %ah,0x5f(%rdi,%rbp,2)
 6be:	76 69                	jbe    729 <OLDSS+0x671>
 6c0:	72 74                	jb     736 <OLDSS+0x67e>
 6c2:	75 61                	jne    725 <OLDSS+0x66d>
 6c4:	6c                   	insb   (%dx),%es:(%rdi)
 6c5:	69 7a 61 74 69 6f 6e 	imul   $0x6e6f6974,0x61(%rdx),%edi
 6cc:	5f                   	pop    %rdi
 6cd:	65 78 63             	gs js  733 <OLDSS+0x67b>
 6d0:	65 70 74             	gs jo  747 <OLDSS+0x68f>
 6d3:	69 6f 6e 00 73 72 63 	imul   $0x63727300,0x6e(%rdi),%ebp
 6da:	2f                   	(bad)  
 6db:	6b 65 72 6e          	imul   $0x6e,0x72(%rbp),%esp
 6df:	65 6c                	gs insb (%dx),%es:(%rdi)
 6e1:	2f                   	(bad)  
 6e2:	65 6e                	outsb  %gs:(%rsi),(%dx)
 6e4:	74 72                	je     758 <OLDSS+0x6a0>
 6e6:	79 2e                	jns    716 <OLDSS+0x65e>
 6e8:	73 00                	jae    6ea <OLDSS+0x632>

Disassembly of section .debug_line_str:

0000000000000000 <.debug_line_str>:
   0:	2f                   	(bad)  
   1:	6d                   	insl   (%dx),%es:(%rdi)
   2:	65 64 69 61 2f 77 79 	gs imul $0x2f687977,%fs:0x2f(%rcx),%esp
   9:	68 2f 
   b:	4b                   	rex.WXB
   c:	45 53                	rex.RB push %r11
   e:	55                   	push   %rbp
   f:	2f                   	(bad)  
  10:	43 6f                	rex.XB outsl %ds:(%rsi),(%dx)
  12:	64 69 6e 67 2f 62 75 	imul   $0x6975622f,%fs:0x67(%rsi),%ebp
  19:	69 
  1a:	6c                   	insb   (%dx),%es:(%rdi)
  1b:	64 5f                	fs pop %rdi
  1d:	6f                   	outsl  %ds:(%rsi),(%dx)
  1e:	73 2f                	jae    4f <RCX+0x7>
  20:	75 65                	jne    87 <RAX+0x7>
  22:	66 69 5f 6f 73 00    	imul   $0x73,0x6f(%rdi),%bx
  28:	73 72                	jae    9c <RIP+0x4>
  2a:	63 2f                	movsxd (%rdi),%ebp
  2c:	6b 65 72 6e          	imul   $0x6e,0x72(%rbp),%esp
  30:	65 6c                	gs insb (%dx),%es:(%rdi)
  32:	2f                   	(bad)  
  33:	6b 65 72 6e          	imul   $0x6e,0x72(%rbp),%esp
  37:	65 6c                	gs insb (%dx),%es:(%rdi)
  39:	2e 63 00             	cs movsxd (%rax),%eax
  3c:	73 72                	jae    b0 <OLDRSP>
  3e:	63 2f                	movsxd (%rdi),%ebp
  40:	6b 65 72 6e          	imul   $0x6e,0x72(%rbp),%esp
  44:	65 6c                	gs insb (%dx),%es:(%rdi)
  46:	00 2e                	add    %ch,(%rsi)
  48:	2f                   	(bad)  
  49:	69 6e 63 6c 75 64 65 	imul   $0x6564756c,0x63(%rsi),%ebp
  50:	2f                   	(bad)  
  51:	6f                   	outsl  %ds:(%rsi),(%dx)
  52:	73 2f                	jae    83 <RAX+0x3>
  54:	6b 65 72 6e          	imul   $0x6e,0x72(%rbp),%esp
  58:	65 6c                	gs insb (%dx),%es:(%rdi)
  5a:	00 2e                	add    %ch,(%rsi)
  5c:	2f                   	(bad)  
  5d:	69 6e 63 6c 75 64 65 	imul   $0x6564756c,0x63(%rsi),%ebp
  64:	2f                   	(bad)  
  65:	6f                   	outsl  %ds:(%rsi),(%dx)
  66:	73 2f                	jae    97 <ERRCODE+0x7>
  68:	64 65 76 69          	fs gs jbe d5 <OLDSS+0x1d>
  6c:	63 65 00             	movsxd 0x0(%rbp),%esp
  6f:	65 66 69 5f 69 6e 66 	imul   $0x666e,%gs:0x69(%rdi),%bx
  76:	6f                   	outsl  %ds:(%rsi),(%dx)
  77:	2e 68 00 74 79 70    	cs push $0x70797400
  7d:	65 73 2e             	gs jae ae <RFLAGS+0x6>
  80:	68 00 64 72 61       	push   $0x61726400
  85:	77 2e                	ja     b5 <OLDRSP+0x5>
  87:	68 00 6d 6f 75       	push   $0x756f6d00
  8c:	73 65                	jae    f3 <OLDSS+0x3b>
  8e:	2e 68 00 74 72 61    	cs push $0x61727400
  94:	70 2e                	jo     c4 <OLDSS+0xc>
  96:	68 00 69 6e 74       	push   $0x746e6900
  9b:	65 72 72             	gs jb  110 <OLDSS+0x58>
  9e:	75 70                	jne    110 <OLDSS+0x58>
  a0:	74 2e                	je     d0 <OLDSS+0x18>
  a2:	68 00 73 72 63       	push   $0x63727300
  a7:	2f                   	(bad)  
  a8:	6b 65 72 6e          	imul   $0x6e,0x72(%rbp),%esp
  ac:	65 6c                	gs insb (%dx),%es:(%rdi)
  ae:	2f                   	(bad)  
  af:	65 66 69 5f 69 6e 66 	imul   $0x666e,%gs:0x69(%rdi),%bx
  b6:	6f                   	outsl  %ds:(%rsi),(%dx)
  b7:	2e 63 00             	cs movsxd (%rax),%eax
  ba:	73 72                	jae    12e <OLDSS+0x76>
  bc:	63 2f                	movsxd (%rdi),%ebp
  be:	6b 65 72 6e          	imul   $0x6e,0x72(%rbp),%esp
  c2:	65 6c                	gs insb (%dx),%es:(%rdi)
  c4:	2f                   	(bad)  
  c5:	64 72 61             	fs jb  129 <OLDSS+0x71>
  c8:	77 2e                	ja     f8 <OLDSS+0x40>
  ca:	63 00                	movsxd (%rax),%eax
  cc:	2f                   	(bad)  
  cd:	75 73                	jne    142 <OLDSS+0x8a>
  cf:	72 2f                	jb     100 <OLDSS+0x48>
  d1:	6c                   	insb   (%dx),%es:(%rdi)
  d2:	69 62 2f 67 63 63 2f 	imul   $0x2f636367,0x2f(%rdx),%esp
  d9:	78 38                	js     113 <OLDSS+0x5b>
  db:	36 5f                	ss pop %rdi
  dd:	36 34 2d             	ss xor $0x2d,%al
  e0:	6c                   	insb   (%dx),%es:(%rdi)
  e1:	69 6e 75 78 2d 67 6e 	imul   $0x6e672d78,0x75(%rsi),%ebp
  e8:	75 2f                	jne    119 <OLDSS+0x61>
  ea:	31 31                	xor    %esi,(%rcx)
  ec:	2f                   	(bad)  
  ed:	69 6e 63 6c 75 64 65 	imul   $0x6564756c,0x63(%rsi),%ebp
  f4:	00 66 6f             	add    %ah,0x6f(%rsi)
  f7:	6e                   	outsb  %ds:(%rsi),(%dx)
  f8:	74 2e                	je     128 <OLDSS+0x70>
  fa:	68 00 73 74 64       	push   $0x64747300
  ff:	61                   	(bad)  
 100:	72 67                	jb     169 <OLDSS+0xb1>
 102:	2e 68 00 3c 62 75    	cs push $0x75623c00
 108:	69 6c 74 2d 69 6e 3e 	imul   $0x3e6e69,0x2d(%rsp,%rsi,2),%ebp
 10f:	00 
 110:	73 74                	jae    186 <OLDSS+0xce>
 112:	64 69 6f 2e 68 00 73 	imul   $0x72730068,%fs:0x2e(%rdi),%ebp
 119:	72 
 11a:	63 2f                	movsxd (%rdi),%ebp
 11c:	6b 65 72 6e          	imul   $0x6e,0x72(%rbp),%esp
 120:	65 6c                	gs insb (%dx),%es:(%rdi)
 122:	2f                   	(bad)  
 123:	73 74                	jae    199 <OLDSS+0xe1>
 125:	64 69 6f 2e 63 00 73 	imul   $0x74730063,%fs:0x2e(%rdi),%ebp
 12c:	74 
 12d:	72 69                	jb     198 <OLDSS+0xe0>
 12f:	6e                   	outsb  %ds:(%rsi),(%dx)
 130:	67 2e 68 00 73 72 63 	addr32 cs push $0x63727300
 137:	2f                   	(bad)  
 138:	6b 65 72 6e          	imul   $0x6e,0x72(%rbp),%esp
 13c:	65 6c                	gs insb (%dx),%es:(%rdi)
 13e:	2f                   	(bad)  
 13f:	73 74                	jae    1b5 <OLDSS+0xfd>
 141:	72 69                	jb     1ac <OLDSS+0xf4>
 143:	6e                   	outsb  %ds:(%rsi),(%dx)
 144:	67 2e 63 00          	cs movsxd (%eax),%eax
 148:	73 72                	jae    1bc <OLDSS+0x104>
 14a:	63 2f                	movsxd (%rdi),%ebp
 14c:	64 65 76 69          	fs gs jbe 1b9 <OLDSS+0x101>
 150:	63 65 2f             	movsxd 0x2f(%rbp),%esp
 153:	6d                   	insl   (%dx),%es:(%rdi)
 154:	6f                   	outsl  %ds:(%rsi),(%dx)
 155:	75 73                	jne    1ca <OLDSS+0x112>
 157:	65 2e 63 00          	gs movsxd %gs:(%rax),%eax
 15b:	73 72                	jae    1cf <OLDSS+0x117>
 15d:	63 2f                	movsxd (%rdi),%ebp
 15f:	64 65 76 69          	fs gs jbe 1cc <OLDSS+0x114>
 163:	63 65 00             	movsxd 0x0(%rbp),%esp
 166:	73 72                	jae    1da <OLDSS+0x122>
 168:	63 2f                	movsxd (%rdi),%ebp
 16a:	6b 65 72 6e          	imul   $0x6e,0x72(%rbp),%esp
 16e:	65 6c                	gs insb (%dx),%es:(%rdi)
 170:	2f                   	(bad)  
 171:	69 6e 74 65 72 72 75 	imul   $0x75727265,0x74(%rsi),%ebp
 178:	70 74                	jo     1ee <OLDSS+0x136>
 17a:	2e 63 00             	cs movsxd (%rax),%eax
 17d:	73 72                	jae    1f1 <OLDSS+0x139>
 17f:	63 2f                	movsxd (%rdi),%ebp
 181:	6b 65 72 6e          	imul   $0x6e,0x72(%rbp),%esp
 185:	65 6c                	gs insb (%dx),%es:(%rdi)
 187:	2f                   	(bad)  
 188:	74 72                	je     1fc <OLDSS+0x144>
 18a:	61                   	(bad)  
 18b:	70 2e                	jo     1bb <OLDSS+0x103>
 18d:	63 00                	movsxd (%rax),%eax

Disassembly of section .comment:

0000000000000000 <.comment>:
   0:	47                   	rex.RXB
   1:	43                   	rex.XB
   2:	43 3a 20             	rex.XB cmp (%r8),%spl
   5:	28 55 62             	sub    %dl,0x62(%rbp)
   8:	75 6e                	jne    78 <ES>
   a:	74 75                	je     81 <RAX+0x1>
   c:	20 31                	and    %dh,(%rcx)
   e:	31 2e                	xor    %ebp,(%rsi)
  10:	34 2e                	xor    $0x2e,%al
  12:	30 2d 31 75 62 75    	xor    %ch,0x75627531(%rip)        # 75627549 <OLDSS+0x75627491>
  18:	6e                   	outsb  %ds:(%rsi),(%dx)
  19:	74 75                	je     90 <ERRCODE>
  1b:	31 7e 32             	xor    %edi,0x32(%rsi)
  1e:	32 2e                	xor    (%rsi),%ch
  20:	30 34 29             	xor    %dh,(%rcx,%rbp,1)
  23:	20 31                	and    %dh,(%rcx)
  25:	31 2e                	xor    %ebp,(%rsi)
  27:	34 2e                	xor    $0x2e,%al
  29:	30 00                	xor    %al,(%rax)
